 ftlib_x86

 Timestamp is 51ba276c (Fri Jun 14 00:11:24 2013)

 Preferred load address is 10000000

 Start         Length     Name                   Class
 0001:00000000 000d4982H .text                   CODE
 0001:000d4990 00000109H .text$x                 CODE
 0002:00000000 0000015cH .idata$5                DATA
 0002:0000015c 00000004H .CRT$XCA                DATA
 0002:00000160 00000004H .CRT$XCZ                DATA
 0002:00000164 00000004H .CRT$XIA                DATA
 0002:00000168 00000014H .CRT$XIC                DATA
 0002:0000017c 00000004H .CRT$XIZ                DATA
 0002:00000180 00000004H .CRT$XPA                DATA
 0002:00000184 00000008H .CRT$XPX                DATA
 0002:0000018c 00000004H .CRT$XPXA               DATA
 0002:00000190 00000004H .CRT$XPZ                DATA
 0002:00000194 00000004H .CRT$XTA                DATA
 0002:00000198 00000004H .CRT$XTZ                DATA
 0002:000001a0 0002e120H .rdata                  DATA
 0002:0002e2c0 00000051H .rdata$debug            DATA
 0002:0002e314 000001c4H .rdata$r                DATA
 0002:0002e4e0 0000002cH .rdata$sxdata           DATA
 0002:0002e50c 00000004H .rtc$IAA                DATA
 0002:0002e510 00000070H .rtc$IMZ                DATA
 0002:0002e580 00000004H .rtc$IZZ                DATA
 0002:0002e584 00000004H .rtc$TAA                DATA
 0002:0002e588 00000070H .rtc$TMZ                DATA
 0002:0002e5f8 00000004H .rtc$TZZ                DATA
 0002:0002e600 00000d20H .xdata$x                DATA
 0002:0002f320 00000014H .idata$2                DATA
 0002:0002f334 00000014H .idata$3                DATA
 0002:0002f348 0000015cH .idata$4                DATA
 0002:0002f4a4 00000640H .idata$6                DATA
 0002:0002faf0 0000004cH .edata                  DATA
 0003:00000000 0000cdc0H .data                   DATA
 0003:0000cdc0 00014ee0H .bss                    DATA

  Address         Publics by Value              Rva+Base       Lib:Object

 0000:00000000       __except_list              00000000     <absolute>
 0000:0000000b       ___safe_se_handler_count   0000000b     <absolute>
 0000:00000000       ___ImageBase               10000000     <linker-defined>
 0001:00000000       _FTLIB_InitSubsystems      10001000 f   ftlib.obj
 0001:00000090       _FTLIB_PrecacheFonts       10001090 f   ftlib.obj
 0001:00001a80       _FTLIB_RegisterFont        10002a80 f   ftlib.obj
 0001:00001c40       _FTLIB_TouchFont           10002c40 f   ftlib.obj
 0001:00001cd0       _FTLIB_FreeFonts           10002cd0 f   ftlib.obj
 0001:00001ed0       _FTLIB_ShutdownSubsystems  10002ed0 f   ftlib.obj
 0001:00001f20       _FTLIB_PrintFontList       10002f20 f   ftlib.obj
 0001:00002040       _FTLIB_fontHeight          10003040 f   ftlib_draw.obj
 0001:00002060       _FTLIB_strWidth            10003060 f   ftlib_draw.obj
 0001:00002200       _FTLIB_StrlenForWidth      10003200 f   ftlib_draw.obj
 0001:000023a0       _FTLIB_DrawRawChar         100033a0 f   ftlib_draw.obj
 0001:000024d0       _FTLIB_DrawClampString     100034d0 f   ftlib_draw.obj
 0001:00002840       _FTLIB_DrawRawString       10003840 f   ftlib_draw.obj
 0001:00002aa0       _FTLIB_API                 10003aa0 f   ftlib_main.obj
 0001:00002ab0       _FTLIB_Init                10003ab0 f   ftlib_main.obj
 0001:00002b60       _FTLIB_Shutdown            10003b60 f   ftlib_main.obj
 0001:00002c00       _FTLIB_CopyString          10003c00 f   ftlib_main.obj
 0001:00002ca0       _Sys_Error                 10003ca0 f   ftlib_main.obj
 0001:00002d80       _Com_Printf                10003d80 f   ftlib_main.obj
 0001:00002e60       _Com_DPrintf               10003e60 f   ftlib_main.obj
 0001:00002f50       _GetFTLibAPI               10003f50 f   ftlib_syscalls.obj
 0001:00002ff0       _DirToByte                 10003ff0 f   q_math.obj
 0001:00003140       _ByteToDir                 10004140 f   q_math.obj
 0001:000031b0       _ColorNormalize            100041b0 f   q_math.obj
 0001:000032b0       _NormToLatLong             100042b0 f   q_math.obj
 0001:000033a0       _MakeNormalVectors         100043a0 f   q_math.obj
 0001:000034d0       _RotatePointAroundVector   100044d0 f   q_math.obj
 0001:00003740       _AngleVectors              10004740 f   q_math.obj
 0001:00003960       _VecToAngles               10004960 f   q_math.obj
 0001:00003af0       _AnglesToAxis              10004af0 f   q_math.obj
 0001:00003b60       _NormalVectorToAxis        10004b60 f   q_math.obj
 0001:00003c90       _BuildBoxPoints            10004c90 f   q_math.obj
 0001:00003e30       _ProjectPointOntoPlane     10004e30 f   q_math.obj
 0001:00003f50       _PerpendicularVector       10004f50 f   q_math.obj
 0001:00004070       _ProjectPointOntoVector    10005070 f   q_math.obj
 0001:000041a0       _DistanceFromLineSquared   100051a0 f   q_math.obj
 0001:000043c0       _Q_RSqrt                   100053c0 f   q_math.obj
 0001:00004440       _Q_rand                    10005440 f   q_math.obj
 0001:00004480       _Q_bitcount                10005480 f   q_math.obj
 0001:000044e0       _LerpAngle                 100054e0 f   q_math.obj
 0001:00004540       _AngleSubtract             10005540 f   q_math.obj
 0001:000045a0       _AnglesSubtract            100055a0 f   q_math.obj
 0001:00004610       _AngleNormalize360         10005610 f   q_math.obj
 0001:00004660       _AngleNormalize180         10005660 f   q_math.obj
 0001:000046a0       _AngleDelta                100056a0 f   q_math.obj
 0001:000046e0       _anglemod                  100056e0 f   q_math.obj
 0001:00004720       _CalcFov                   10005720 f   q_math.obj
 0001:000047d0       _AdjustFov                 100057d0 f   q_math.obj
 0001:00004920       _BoxOnPlaneSide            10005920 f   q_math.obj
 0001:00004ca0       _SignbitsForPlane          10005ca0 f   q_math.obj
 0001:00004d10       _PlaneTypeForNormal        10005d10 f   q_math.obj
 0001:00004d70       _CategorizePlane           10005d70 f   q_math.obj
 0001:00004e90       _PlaneFromPoints           10005e90 f   q_math.obj
 0001:00004fe0       _ComparePlanes             10005fe0 f   q_math.obj
 0001:00005090       _SnapVector                10006090 f   q_math.obj
 0001:00005170       _SnapPlane                 10006170 f   q_math.obj
 0001:00005240       _ClearBounds               10006240 f   q_math.obj
 0001:00005290       _BoundsIntersect           10006290 f   q_math.obj
 0001:00005330       _BoundsAndSphereIntersect  10006330 f   q_math.obj
 0001:00005430       _AddPointToBounds          10006430 f   q_math.obj
 0001:000054b0       _RadiusFromBounds          100064b0 f   q_math.obj
 0001:000055e0       _VectorNormalize           100065e0 f   q_math.obj
 0001:00005690       _VectorNormalize2          10006690 f   q_math.obj
 0001:00005750       _Vector4Normalize          10006750 f   q_math.obj
 0001:00005820       _VectorNormalizeFast       10006820 f   q_math.obj
 0001:000058b0       __VectorMA                 100068b0 f   q_math.obj
 0001:00005900       __DotProduct               10006900 f   q_math.obj
 0001:00005940       __VectorSubtract           10006940 f   q_math.obj
 0001:00005980       __VectorAdd                10006980 f   q_math.obj
 0001:000059c0       __VectorCopy               100069c0 f   q_math.obj
 0001:000059f0       _Q_log2                    100069f0 f   q_math.obj
 0001:00005a20       _VectorReflect             10006a20 f   q_math.obj
 0001:00005ab0       _Matrix3_Identity          10006ab0 f   q_math.obj
 0001:00005b30       _Matrix3_Copy              10006b30 f   q_math.obj
 0001:00005b50       _Matrix3_Compare           10006b50 f   q_math.obj
 0001:00005ba0       _Matrix3_Multiply          10006ba0 f   q_math.obj
 0001:00005d40       _Matrix3_TransformVector   10006d40 f   q_math.obj
 0001:00005dd0       _Matrix3_Transpose         10006dd0 f   q_math.obj
 0001:00005e40       _Matrix3_FromAngles        10006e40 f   q_math.obj
 0001:00005e70       _Matrix3_ToAngles          10006e70 f   q_math.obj
 0001:00005ff0       _Matrix3_Rotate            10006ff0 f   q_math.obj
 0001:00006170       _Matrix3_FromPoints        10007170 f   q_math.obj
 0001:00006370       _Matrix3_Normalize         10007370 f   q_math.obj
 0001:000063b0       _Quat_Identity             100073b0 f   q_math.obj
 0001:000063e0       _Quat_Copy                 100073e0 f   q_math.obj
 0001:00006420       _Quat_Quat3                10007420 f   q_math.obj
 0001:000064f0       _Quat_Compare              100074f0 f   q_math.obj
 0001:00006550       _Quat_Conjugate            10007550 f   q_math.obj
 0001:00006590       _Quat_DotProduct           10007590 f   q_math.obj
 0001:000065e0       _Quat_Normalize            100075e0 f   q_math.obj
 0001:000066a0       _Quat_Inverse              100076a0 f   q_math.obj
 0001:000066d0       _Quat_FromMatrix3          100076d0 f   q_math.obj
 0001:00006910       _Quat_Multiply             10007910 f   q_math.obj
 0001:00006a00       _Quat_Lerp                 10007a00 f   q_math.obj
 0001:00006c20       _Quat_Vectors              10007c20 f   q_math.obj
 0001:00006d50       _Quat_ToMatrix3            10007d50 f   q_math.obj
 0001:00006d80       _Quat_TransformVector      10007d80 f   q_math.obj
 0001:00006ed0       _Quat_ConcatTransforms     10007ed0 f   q_math.obj
 0001:00006f40       _DualQuat_Identity         10007f40 f   q_math.obj
 0001:00006f90       _DualQuat_Copy             10007f90 f   q_math.obj
 0001:00006fd0       _DualQuat_FromAnglesAndVector 10007fd0 f   q_math.obj
 0001:00007060       _DualQuat_FromMatrix3AndVector 10008060 f   q_math.obj
 0001:00007170       _DualQuat_FromQuatAndVector 10008170 f   q_math.obj
 0001:000071a0       _DualQuat_FromQuat3AndVector 100081a0 f   q_math.obj
 0001:000071d0       _DualQuat_GetVector        100081d0 f   q_math.obj
 0001:00007330       _DualQuat_ToQuatAndVector  10008330 f   q_math.obj
 0001:00007360       _DualQuat_ToMatrix3AndVector 10008360 f   q_math.obj
 0001:00007390       _DualQuat_Invert           10008390 f   q_math.obj
 0001:00007460       _DualQuat_Normalize        10008460 f   q_math.obj
 0001:00007580       _DualQuat_Multiply         10008580 f   q_math.obj
 0001:00007670       _DualQuat_Lerp             10008670 f   q_math.obj
 0001:000076c0       _LogisticCDF               100086c0 f   q_math.obj
 0001:00007700       _LogisticPDF               10008700 f   q_math.obj
 0001:00007760       _NormalCDF                 10008760 f   q_math.obj
 0001:00007970       _NormalPDF                 10008970 f   q_math.obj
 0001:000079d0       _COM_SanitizeFilePath      100089d0 f   q_shared.obj
 0001:00007a40       _COM_ValidateFilename      10008a40 f   q_shared.obj
 0001:00007aa0       _COM_ValidateRelativeFilename 10008aa0 f   q_shared.obj
 0001:00007b10       _COM_StripExtension        10008b10 f   q_shared.obj
 0001:00007b90       _COM_FileExtension         10008b90 f   q_shared.obj
 0001:00007c20       _COM_DefaultExtension      10008c20 f   q_shared.obj
 0001:00007d10       _COM_ReplaceExtension      10008d10 f   q_shared.obj
 0001:00007dc0       _COM_FileBase              10008dc0 f   q_shared.obj
 0001:00007e00       _COM_StripFilename         10008e00 f   q_shared.obj
 0001:00007e40       _COM_FilePathLength        10008e40 f   q_shared.obj
 0001:00007e80       _ShortSwap                 10008e80 f   q_shared.obj
 0001:00007ec0       _LongSwap                  10008ec0 f   q_shared.obj
 0001:00007f30       _FloatSwap                 10008f30 f   q_shared.obj
 0001:00007fb0       _Swap_Init                 10008fb0 f   q_shared.obj
 0001:00007fc0       _tv                        10008fc0 f   q_shared.obj
 0001:00008010       _vtos                      10009010 f   q_shared.obj
 0001:00008090       _va                        10009090 f   q_shared.obj
 0001:00008100       _COM_Compress              10009100 f   q_shared.obj
 0001:00008310       _COM_ParseExt2             10009310 f   q_shared.obj
 0001:00008590       _Q_GrabCharFromColorString 10009590 f   q_shared.obj
 0001:00008690       _Q_GrabWCharFromColorString 10009690 f   q_shared.obj
 0001:000087a0       _COM_RemoveColorTokensExt  100097a0 f   q_shared.obj
 0001:000088e0       _COM_SanitizeColorString   100098e0 f   q_shared.obj
 0001:00008ac0       _Q_ColorStringTerminator   10009ac0 f   q_shared.obj
 0001:00008c40       _COM_RemoveJunkChars       10009c40 f   q_shared.obj
 0001:00008db0       _COM_ReadColorRGBString    10009db0 f   q_shared.obj
 0001:00008e10       _COM_ValidatePlayerColor   10009e10 f   q_shared.obj
 0001:00008ee0       _Q_memset32                10009ee0 f   q_shared.obj
 0001:00008f20       _Q_strncpyz                10009f20 f   q_shared.obj
 0001:00008f80       _Q_strncatz                10009f80 f   q_shared.obj
 0001:00009020       _Q_vsnprintfz              1000a020 f   q_shared.obj
 0001:000090a0       _Q_snprintfz               1000a0a0 f   q_shared.obj
 0001:000090e0       _Q_strupr                  1000a0e0 f   q_shared.obj
 0001:00009140       _Q_strlwr                  1000a140 f   q_shared.obj
 0001:000091a0       _Q_strlocate               1000a1a0 f   q_shared.obj
 0001:00009250       _Q_strcount                1000a250 f   q_shared.obj
 0001:000092e0       _Q_strrstr                 1000a2e0 f   q_shared.obj
 0001:00009340       _Q_trim                    1000a340 f   q_shared.obj
 0001:00009430       _Q_WCharToUtf8             1000a430 f   q_shared.obj
 0001:00009530       _Q_Utf8SyncPos             1000a530 f   q_shared.obj
 0001:000095a0       _Q_GrabWCharFromUtf8String 1000a5a0 f   q_shared.obj
 0001:00009760       _Q_isdigit                 1000a760 f   q_shared.obj
 0001:000097b0       _Q_chrreplace              1000a7b0 f   q_shared.obj
 0001:00009800       _COM_ValidateConfigstring  1000a800 f   q_shared.obj
 0001:000098a0       _Info_Validate             1000a8a0 f   q_shared.obj
 0001:00009a30       _Info_ValueForKey          1000aa30 f   q_shared.obj
 0001:00009dc0       _Info_RemoveKey            1000adc0 f   q_shared.obj
 0001:00009f00       _Info_SetValueForKey       1000af00 f   q_shared.obj
 0001:0000a140       _Q_GainForAttenuation      1000b140 f   q_shared.obj
 0001:0000a390       _BlockAllocator            1000b390 f   q_shared.obj
 0001:0000a430       _BA_Alloc                  1000b430 f   q_shared.obj
 0001:0000a550       _BlockAllocator_Free       1000b550 f   q_shared.obj
 0001:0000a5e0       _LinearAllocator           1000b5e0 f   q_shared.obj
 0001:0000a6b0       _LA_Alloc                  1000b6b0 f   q_shared.obj
 0001:0000a7b0       _LA_Pointer                1000b7b0 f   q_shared.obj
 0001:0000a7f0       _LA_Size                   1000b7f0 f   q_shared.obj
 0001:0000a800       _LinearAllocator_Free      1000b800 f   q_shared.obj
 0001:0000a830       _FT_Add_Default_Modules    1000b830 f   libfreetypestat:ftinit.obj
 0001:0000a8b0       _FT_Init_FreeType          1000b8b0 f   libfreetypestat:ftinit.obj
 0001:0000a930       _FT_Done_FreeType          1000b930 f   libfreetypestat:ftinit.obj
 0001:0000a980       _FT_Get_Advance            1000b980 f   libfreetypestat:ftbase.obj
 0001:0000ab00       _FT_Get_Advances           1000bb00 f   libfreetypestat:ftbase.obj
 0001:0000acb0       _FT_RoundFix               1000bcb0 f   libfreetypestat:ftbase.obj
 0001:0000acf0       _FT_CeilFix                1000bcf0 f   libfreetypestat:ftbase.obj
 0001:0000ad30       _FT_FloorFix               1000bd30 f   libfreetypestat:ftbase.obj
 0001:0000ad70       _FT_Sqrt32                 1000bd70 f   libfreetypestat:ftbase.obj
 0001:0000ade0       _FT_MulDiv                 1000bde0 f   libfreetypestat:ftbase.obj
 0001:0000b150       _FT_MulDiv_No_Round        1000c150 f   libfreetypestat:ftbase.obj
 0001:0000b2b0       _FT_MulFix                 1000c2b0 f   libfreetypestat:ftbase.obj
 0001:0000b310       _FT_DivFix                 1000c310 f   libfreetypestat:ftbase.obj
 0001:0000b450       _FT_Matrix_Multiply        1000c450 f   libfreetypestat:ftbase.obj
 0001:0000b580       _FT_Matrix_Invert          1000c580 f   libfreetypestat:ftbase.obj
 0001:0000b670       _FT_Matrix_Multiply_Scaled 1000c670 f   libfreetypestat:ftbase.obj
 0001:0000b7c0       _FT_Vector_Transform_Scaled 1000c7c0 f   libfreetypestat:ftbase.obj
 0001:0000b890       _FT_SqrtFixed              1000c890 f   libfreetypestat:ftbase.obj
 0001:0000b930       _ft_corner_orientation     1000c930 f   libfreetypestat:ftbase.obj
 0001:0000baa0       _ft_corner_is_flat         1000caa0 f   libfreetypestat:ftbase.obj
 0001:0000bb70       _FT_GlyphLoader_New        1000cb70 f   libfreetypestat:ftbase.obj
 0001:0000bc00       _FT_GlyphLoader_Rewind     1000cc00 f   libfreetypestat:ftbase.obj
 0001:0000bc60       _FT_GlyphLoader_Reset      1000cc60 f   libfreetypestat:ftbase.obj
 0001:0000bd60       _FT_GlyphLoader_Done       1000cd60 f   libfreetypestat:ftbase.obj
 0001:0000bdb0       _FT_GlyphLoader_CreateExtra 1000cdb0 f   libfreetypestat:ftbase.obj
 0001:0000bf00       _FT_GlyphLoader_CheckPoints 1000cf00 f   libfreetypestat:ftbase.obj
 0001:0000c150       _FT_GlyphLoader_CheckSubGlyphs 1000d150 f   libfreetypestat:ftbase.obj
 0001:0000c290       _FT_GlyphLoader_Prepare    1000d290 f   libfreetypestat:ftbase.obj
 0001:0000c2f0       _FT_GlyphLoader_Add        1000d2f0 f   libfreetypestat:ftbase.obj
 0001:0000c3d0       _FT_GlyphLoader_CopyPoints 1000d3d0 f   libfreetypestat:ftbase.obj
 0001:0000c510       _ft_service_list_lookup    1000d510 f   libfreetypestat:ftbase.obj
 0001:0000c590       _ft_validator_init         1000d590 f   libfreetypestat:ftbase.obj
 0001:0000c5c0       _ft_validator_run          1000d5c0 f   libfreetypestat:ftbase.obj
 0001:0000c5d0       _ft_validator_error        1000d5d0 f   libfreetypestat:ftbase.obj
 0001:0000c610       _FT_Stream_New             1000d610 f   libfreetypestat:ftbase.obj
 0001:0000c7a0       _FT_Stream_Free            1000d7a0 f   libfreetypestat:ftbase.obj
 0001:0000c800       _ft_glyphslot_free_bitmap  1000d800 f   libfreetypestat:ftbase.obj
 0001:0000c890       _ft_glyphslot_set_bitmap   1000d890 f   libfreetypestat:ftbase.obj
 0001:0000c8e0       _ft_glyphslot_alloc_bitmap 1000d8e0 f   libfreetypestat:ftbase.obj
 0001:0000c9b0       _FT_New_GlyphSlot          1000d9b0 f   libfreetypestat:ftbase.obj
 0001:0000cd10       _FT_Done_GlyphSlot         1000dd10 f   libfreetypestat:ftbase.obj
 0001:0000cde0       _FT_Set_Transform          1000dde0 f   libfreetypestat:ftbase.obj
 0001:0000cef0       _FT_Load_Glyph             1000def0 f   libfreetypestat:ftbase.obj
 0001:0000d6a0       _FT_Load_Char              1000e6a0 f   libfreetypestat:ftbase.obj
 0001:0000d700       _FT_New_Face               1000e700 f   libfreetypestat:ftbase.obj
 0001:0000d790       _FT_New_Memory_Face        1000e790 f   libfreetypestat:ftbase.obj
 0001:0000d830       _FT_Open_Face              1000e830 f   libfreetypestat:ftbase.obj
 0001:0000f690       _FT_Attach_File            10010690 f   libfreetypestat:ftbase.obj
 0001:0000f720       _FT_Attach_Stream          10010720 f   libfreetypestat:ftbase.obj
 0001:0000f840       _FT_Reference_Face         10010840 f   libfreetypestat:ftbase.obj
 0001:0000f870       _FT_Done_Face              10010870 f   libfreetypestat:ftbase.obj
 0001:0000fb60       _FT_New_Size               10010b60 f   libfreetypestat:ftbase.obj
 0001:0000fd10       _FT_Done_Size              10010d10 f   libfreetypestat:ftbase.obj
 0001:0000fe20       _FT_Match_Size             10010e20 f   libfreetypestat:ftbase.obj
 0001:0000ff90       _ft_synthesize_vertical_metrics 10010f90 f   libfreetypestat:ftbase.obj
 0001:00010030       _FT_Select_Metrics         10011030 f   libfreetypestat:ftbase.obj
 0001:000101d0       _FT_Request_Metrics        100111d0 f   libfreetypestat:ftbase.obj
 0001:00010510       _FT_Select_Size            10011510 f   libfreetypestat:ftbase.obj
 0001:000105b0       _FT_Request_Size           100115b0 f   libfreetypestat:ftbase.obj
 0001:00010700       _FT_Set_Char_Size          10011700 f   libfreetypestat:ftbase.obj
 0001:000107f0       _FT_Set_Pixel_Sizes        100117f0 f   libfreetypestat:ftbase.obj
 0001:000108e0       _FT_Get_Kerning            100118e0 f   libfreetypestat:ftbase.obj
 0001:00010a60       _FT_Get_Track_Kerning      10011a60 f   libfreetypestat:ftbase.obj
 0001:00010b30       _FT_Select_Charmap         10011b30 f   libfreetypestat:ftbase.obj
 0001:00010c20       _FT_Set_Charmap            10011c20 f   libfreetypestat:ftbase.obj
 0001:00010d00       _FT_Get_Charmap_Index      10011d00 f   libfreetypestat:ftbase.obj
 0001:00010e40       _FT_CMap_Done              10011e40 f   libfreetypestat:ftbase.obj
 0001:00010fd0       _FT_CMap_New               10011fd0 f   libfreetypestat:ftbase.obj
 0001:00011160       _FT_Get_Char_Index         10012160 f   libfreetypestat:ftbase.obj
 0001:00011210       _FT_Get_First_Char         10012210 f   libfreetypestat:ftbase.obj
 0001:000112d0       _FT_Get_Next_Char          100122d0 f   libfreetypestat:ftbase.obj
 0001:000113c0       _FT_Face_GetCharVariantIndex 100123c0 f   libfreetypestat:ftbase.obj
 0001:000115e0       _FT_Face_GetCharVariantIsDefault 100125e0 f   libfreetypestat:ftbase.obj
 0001:000116f0       _FT_Face_GetVariantSelectors 100126f0 f   libfreetypestat:ftbase.obj
 0001:00011770       _FT_Face_GetVariantsOfChar 10012770 f   libfreetypestat:ftbase.obj
 0001:00011840       _FT_Face_GetCharsOfVariant 10012840 f   libfreetypestat:ftbase.obj
 0001:00011910       _FT_Get_Name_Index         10012910 f   libfreetypestat:ftbase.obj
 0001:00011a30       _FT_Get_Glyph_Name         10012a30 f   libfreetypestat:ftbase.obj
 0001:00011b80       _FT_Get_Postscript_Name    10012b80 f   libfreetypestat:ftbase.obj
 0001:00011ca0       _FT_Get_Sfnt_Table         10012ca0 f   libfreetypestat:ftbase.obj
 0001:00011d50       _FT_Load_Sfnt_Table        10012d50 f   libfreetypestat:ftbase.obj
 0001:00011e10       _FT_Sfnt_Table_Info        10012e10 f   libfreetypestat:ftbase.obj
 0001:00011f00       _FT_Get_CMap_Language_ID   10012f00 f   libfreetypestat:ftbase.obj
 0001:00012000       _FT_Get_CMap_Format        10013000 f   libfreetypestat:ftbase.obj
 0001:00012100       _FT_Activate_Size          10013100 f   libfreetypestat:ftbase.obj
 0001:00012150       _FT_Lookup_Renderer        10013150 f   libfreetypestat:ftbase.obj
 0001:00012270       _FT_Get_Renderer           10013270 f   libfreetypestat:ftbase.obj
 0001:00012290       _FT_Set_Renderer           10013290 f   libfreetypestat:ftbase.obj
 0001:000123a0       _FT_Render_Glyph_Internal  100133a0 f   libfreetypestat:ftbase.obj
 0001:00012500       _FT_Render_Glyph           10013500 f   libfreetypestat:ftbase.obj
 0001:00012560       _FT_Add_Module             10013560 f   libfreetypestat:ftbase.obj
 0001:00012a00       _FT_Get_Module             10013a00 f   libfreetypestat:ftbase.obj
 0001:00012aa0       _FT_Get_Module_Interface   10013aa0 f   libfreetypestat:ftbase.obj
 0001:00012b00       _ft_module_get_service     10013b00 f   libfreetypestat:ftbase.obj
 0001:00012c40       _FT_Remove_Module          10013c40 f   libfreetypestat:ftbase.obj
 0001:00012f40       _FT_Reference_Library      10013f40 f   libfreetypestat:ftbase.obj
 0001:00012f60       _FT_New_Library            10013f60 f   libfreetypestat:ftbase.obj
 0001:00013090       _FT_Library_Version        10014090 f   libfreetypestat:ftbase.obj
 0001:00013110       _FT_Done_Library           10014110 f   libfreetypestat:ftbase.obj
 0001:00013340       _FT_Set_Debug_Hook         10014340 f   libfreetypestat:ftbase.obj
 0001:00013370       _FT_Get_TrueType_Engine_Type 10014370 f   libfreetypestat:ftbase.obj
 0001:000133f0       _ft_stub_set_char_sizes    100143f0 f   libfreetypestat:ftbase.obj
 0001:000134d0       _ft_stub_set_pixel_sizes   100144d0 f   libfreetypestat:ftbase.obj
 0001:00013590       _FT_Get_SubGlyph_Info      10014590 f   libfreetypestat:ftbase.obj
 0001:00013640       _FT_Outline_Decompose      10014640 f   libfreetypestat:ftbase.obj
 0001:00013f40       _FT_Outline_New_Internal   10014f40 f   libfreetypestat:ftbase.obj
 0001:000140a0       _FT_Outline_New            100150a0 f   libfreetypestat:ftbase.obj
 0001:000140e0       _FT_Outline_Check          100150e0 f   libfreetypestat:ftbase.obj
 0001:000141a0       _FT_Outline_Copy           100151a0 f   libfreetypestat:ftbase.obj
 0001:000142a0       _FT_Outline_Done_Internal  100152a0 f   libfreetypestat:ftbase.obj
 0001:00014370       _FT_Outline_Done           10015370 f   libfreetypestat:ftbase.obj
 0001:000143a0       _FT_Outline_Get_CBox       100153a0 f   libfreetypestat:ftbase.obj
 0001:000144d0       _FT_Outline_Translate      100154d0 f   libfreetypestat:ftbase.obj
 0001:00014550       _FT_Outline_Reverse        10015550 f   libfreetypestat:ftbase.obj
 0001:000146c0       _FT_Outline_Render         100156c0 f   libfreetypestat:ftbase.obj
 0001:00014800       _FT_Outline_Get_Bitmap     10015800 f   libfreetypestat:ftbase.obj
 0001:000148b0       _FT_Vector_Transform       100158b0 f   libfreetypestat:ftbase.obj
 0001:00014960       _FT_Outline_Transform      10015960 f   libfreetypestat:ftbase.obj
 0001:000149d0       _FT_Outline_Embolden       100159d0 f   libfreetypestat:ftbase.obj
 0001:00014ce0       _FT_Outline_Get_Orientation 10015ce0 f   libfreetypestat:ftbase.obj
 0001:000150e0       _FT_Raccess_Get_HeaderInfo 100160e0 f   libfreetypestat:ftbase.obj
 0001:00015370       _FT_Raccess_Get_DataOffsets 10016370 f   libfreetypestat:ftbase.obj
 0001:00015700       _FT_Raccess_Guess          10016700 f   libfreetypestat:ftbase.obj
 0001:000161d0       _FT_Get_Sfnt_Name_Count    100171d0 f   libfreetypestat:ftbase.obj
 0001:00016210       _FT_Get_Sfnt_Name          10017210 f   libfreetypestat:ftbase.obj
 0001:000163e0       _FT_Stream_OpenMemory      100173e0 f   libfreetypestat:ftbase.obj
 0001:00016420       _FT_Stream_Close           10017420 f   libfreetypestat:ftbase.obj
 0001:00016460       _FT_Stream_Seek            10017460 f   libfreetypestat:ftbase.obj
 0001:00016510       _FT_Stream_Skip            10017510 f   libfreetypestat:ftbase.obj
 0001:00016540       _FT_Stream_Pos             10017540 f   libfreetypestat:ftbase.obj
 0001:00016550       _FT_Stream_Read            10017550 f   libfreetypestat:ftbase.obj
 0001:00016580       _FT_Stream_ReadAt          10017580 f   libfreetypestat:ftbase.obj
 0001:00016670       _FT_Stream_TryRead         10017670 f   libfreetypestat:ftbase.obj
 0001:00016730       _FT_Stream_ExtractFrame    10017730 f   libfreetypestat:ftbase.obj
 0001:00016790       _FT_Stream_ReleaseFrame    10017790 f   libfreetypestat:ftbase.obj
 0001:000167f0       _FT_Stream_EnterFrame      100177f0 f   libfreetypestat:ftbase.obj
 0001:00016a00       _FT_Stream_ExitFrame       10017a00 f   libfreetypestat:ftbase.obj
 0001:00016a80       _FT_Stream_GetChar         10017a80 f   libfreetypestat:ftbase.obj
 0001:00016b00       _FT_Stream_GetUShort       10017b00 f   libfreetypestat:ftbase.obj
 0001:00016ba0       _FT_Stream_GetUShortLE     10017ba0 f   libfreetypestat:ftbase.obj
 0001:00016c40       _FT_Stream_GetUOffset      10017c40 f   libfreetypestat:ftbase.obj
 0001:00016cf0       _FT_Stream_GetULong        10017cf0 f   libfreetypestat:ftbase.obj
 0001:00016da0       _FT_Stream_GetULongLE      10017da0 f   libfreetypestat:ftbase.obj
 0001:00016e50       _FT_Stream_ReadChar        10017e50 f   libfreetypestat:ftbase.obj
 0001:00016f70       _FT_Stream_ReadUShort      10017f70 f   libfreetypestat:ftbase.obj
 0001:000170c0       _FT_Stream_ReadUShortLE    100180c0 f   libfreetypestat:ftbase.obj
 0001:00017210       _FT_Stream_ReadUOffset     10018210 f   libfreetypestat:ftbase.obj
 0001:00017370       _FT_Stream_ReadULong       10018370 f   libfreetypestat:ftbase.obj
 0001:000174e0       _FT_Stream_ReadULongLE     100184e0 f   libfreetypestat:ftbase.obj
 0001:00017650       _FT_Stream_ReadFields      10018650 f   libfreetypestat:ftbase.obj
 0001:000179d0       _FT_Cos                    100189d0 f   libfreetypestat:ftbase.obj
 0001:00017bf0       _FT_Sin                    10018bf0 f   libfreetypestat:ftbase.obj
 0001:00017c10       _FT_Tan                    10018c10 f   libfreetypestat:ftbase.obj
 0001:00017c90       _FT_Atan2                  10018c90 f   libfreetypestat:ftbase.obj
 0001:00018010       _FT_Vector_Unit            10019010 f   libfreetypestat:ftbase.obj
 0001:00018060       _FT_Vector_Rotate          10019060 f   libfreetypestat:ftbase.obj
 0001:00018280       _FT_Vector_Length          10019280 f   libfreetypestat:ftbase.obj
 0001:00018380       _FT_Vector_Polarize        10019380 f   libfreetypestat:ftbase.obj
 0001:00018450       _FT_Vector_From_Polar      10019450 f   libfreetypestat:ftbase.obj
 0001:00018480       _FT_Angle_Diff             10019480 f   libfreetypestat:ftbase.obj
 0001:000184d0       _ft_mem_alloc              100194d0 f   libfreetypestat:ftbase.obj
 0001:00018570       _ft_mem_qalloc             10019570 f   libfreetypestat:ftbase.obj
 0001:000185f0       _ft_mem_realloc            100195f0 f   libfreetypestat:ftbase.obj
 0001:000186b0       _ft_mem_qrealloc           100196b0 f   libfreetypestat:ftbase.obj
 0001:00018810       _ft_mem_free               10019810 f   libfreetypestat:ftbase.obj
 0001:00018840       _ft_mem_dup                10019840 f   libfreetypestat:ftbase.obj
 0001:000188e0       _ft_mem_strdup             100198e0 f   libfreetypestat:ftbase.obj
 0001:00018950       _ft_mem_strcpyn            10019950 f   libfreetypestat:ftbase.obj
 0001:000189a0       _FT_List_Find              100199a0 f   libfreetypestat:ftbase.obj
 0001:000189e0       _FT_List_Add               100199e0 f   libfreetypestat:ftbase.obj
 0001:00018a30       _FT_List_Insert            10019a30 f   libfreetypestat:ftbase.obj
 0001:00018a80       _FT_List_Remove            10019a80 f   libfreetypestat:ftbase.obj
 0001:00018ae0       _FT_List_Up                10019ae0 f   libfreetypestat:ftbase.obj
 0001:00018b60       _FT_List_Iterate           10019b60 f   libfreetypestat:ftbase.obj
 0001:00018be0       _FT_List_Finalize          10019be0 f   libfreetypestat:ftbase.obj
 0001:00018c90       _ft_highpow2               10019c90 f   libfreetypestat:ftbase.obj
 0001:00018cc0       _FT_Alloc                  10019cc0 f   libfreetypestat:ftbase.obj
 0001:00018d40       _FT_QAlloc                 10019d40 f   libfreetypestat:ftbase.obj
 0001:00018dc0       _FT_Realloc                10019dc0 f   libfreetypestat:ftbase.obj
 0001:00018e40       _FT_QRealloc               10019e40 f   libfreetypestat:ftbase.obj
 0001:00018ec0       _FT_Free                   10019ec0 f   libfreetypestat:ftbase.obj
 0001:000326b0       _ps_hints_apply            100336b0 f   libfreetypestat:pshinter.obj
 0001:00067bc0       _TT_New_Context            10068bc0 f   libfreetypestat:truetype.obj
 0001:00067dc0       _TT_RunIns                 10068dc0 f   libfreetypestat:truetype.obj
 0001:000715e0       _af_glyph_hints_dump_points 100725e0 f   libfreetypestat:autofit.obj
 0001:000715f0       _af_glyph_hints_dump_segments 100725f0 f   libfreetypestat:autofit.obj
 0001:00071600       _af_glyph_hints_get_num_segments 10072600 f   libfreetypestat:autofit.obj
 0001:00071620       _af_glyph_hints_get_segment_offset 10072620 f   libfreetypestat:autofit.obj
 0001:00071640       _af_glyph_hints_dump_edges 10072640 f   libfreetypestat:autofit.obj
 0001:0007aab0       _FT_Message                1007bab0 f   libfreetypestat:ftdebug.obj
 0001:0007ab20       _FT_Panic                  1007bb20 f   libfreetypestat:ftdebug.obj
 0001:0007ab80       _ft_debug_init             1007bb80 f   libfreetypestat:ftdebug.obj
 0001:0007ad80       _FT_Stream_Open            1007bd80 f   libfreetypestat:ftsystem.obj
 0001:0007afa0       _FT_New_Memory             1007bfa0 f   libfreetypestat:ftsystem.obj
 0001:0007b070       _FT_Done_Memory            1007c070 f   libfreetypestat:ftsystem.obj
 0001:0007b090       _FT_Stream_OpenLZW         1007c090 f   libfreetypestat:ftlzw.obj
 0001:0007b7b0       _ft_lzwstate_reset         1007c7b0 f   libfreetypestat:ftlzw.obj
 0001:0007b810       _ft_lzwstate_init          1007c810 f   libfreetypestat:ftlzw.obj
 0001:0007b890       _ft_lzwstate_done          1007c890 f   libfreetypestat:ftlzw.obj
 0001:0007b930       _ft_lzwstate_io            1007c930 f   libfreetypestat:ftlzw.obj
 0001:0007c240       _FT_Stream_OpenGzip        1007d240 f   libfreetypestat:ftgzip.obj
 0001:00080c12       _OutputDebugStringA@4      10081c12 f   kernel32:KERNEL32.dll
 0001:00080c20       __RTC_CheckEsp             10081c20 f   LIBCMTD:_stack_.obj
 0001:00080c50       @_RTC_CheckStackVars@8     10081c50 f   LIBCMTD:_stack_.obj
 0001:00080cc0       @_RTC_AllocaHelper@12      10081cc0 f   LIBCMTD:_stack_.obj
 0001:00080d00       @_RTC_CheckStackVars2@12   10081d00 f   LIBCMTD:_stack_.obj
 0001:00080de0       __RTC_InitBase             10081de0 f   LIBCMTD:_init_.obj
 0001:00080e10       __RTC_Shutdown             10081e10 f   LIBCMTD:_init_.obj
 0001:00080e30       __wassert                  10081e30 f   LIBCMTD:wassert.obj
 0001:000819c0       __invoke_watson_if_error   100829c0 f i LIBCMTD:wassert.obj
 0001:00081a30       _strlen                    10082a30 f   LIBCMTD:strlen.obj
 0001:00081ac0       @__security_check_cookie@4 10082ac0 f   LIBCMTD:secchk.obj
 0001:00081ad0       _memcpy                    10082ad0 f   LIBCMTD:memcpy.obj
 0001:00081e40       _memset                    10082e40 f   LIBCMTD:memset.obj
 0001:00081ec0       __fpmath                   10082ec0 f   LIBCMTD:_fpinit_.obj
 0001:00081ee0       __cfltcvt_init             10082ee0 f   LIBCMTD:_fpinit_.obj
 0001:00081f50       ___setfflag                10082f50 f   LIBCMTD:_fpinit_.obj
 0001:00081f70       __chkstk                   10082f70 f   LIBCMTD:chkstk.obj
 0001:00081f70       __alloca_probe             10082f70     LIBCMTD:chkstk.obj
 0001:00081fa0       __stricmp_l                10082fa0 f   LIBCMTD:stricmp.obj
 0001:00082150       ??0_LocaleUpdate@@QAE@PAUlocaleinfo_struct@@@Z 10083150 f i LIBCMTD:stricmp.obj
 0001:00082230       ??1_LocaleUpdate@@QAE@XZ   10083230 f i LIBCMTD:stricmp.obj
 0001:00082260       ?GetLocaleT@_LocaleUpdate@@QAEPAUlocaleinfo_struct@@XZ 10083260 f i LIBCMTD:stricmp.obj
 0001:00082270       ___ascii_stricmp           10083270 f   LIBCMTD:stricmp.obj
 0001:000822f0       __stricmp                  100832f0 f   LIBCMTD:stricmp.obj
 0001:00082400       _atan2                     10083400 f   LIBCMTD:_87ctriga_.obj
 0001:0008240a       __CIatan2                  1008340a f   LIBCMTD:_87ctriga_.obj
 0001:00082420       _acos                      10083420 f   LIBCMTD:_acos_.obj
 0001:00082460       __CIacos                   10083460 f   LIBCMTD:_acos_.obj
 0001:0008249b       __CIacos_default           1008349b f   LIBCMTD:_acos_.obj
 0001:000824af       __acos_default             100834af     LIBCMTD:_acos_.obj
 0001:00082570       __ftol2_sse                10083570 f   LIBCMTD:ftol2.obj
 0001:00082579       __ftol2_pentium4           10083579 f   LIBCMTD:ftol2.obj
 0001:0008258c       __ftol2_sse_excpt          1008358c f   LIBCMTD:ftol2.obj
 0001:000825a6       __ftol2                    100835a6 f   LIBCMTD:ftol2.obj
 0001:00082620       _sin                       10083620 f   LIBCMTD:_sin_.obj
 0001:00082660       __CIsin                    10083660 f   LIBCMTD:_sin_.obj
 0001:0008269b       __CIsin_default            1008369b f   LIBCMTD:_sin_.obj
 0001:000826af       __sin_default              100836af     LIBCMTD:_sin_.obj
 0001:00082750       _cos                       10083750 f   LIBCMTD:_cos_.obj
 0001:00082790       __CIcos                    10083790 f   LIBCMTD:_cos_.obj
 0001:000827cb       __CIcos_default            100837cb f   LIBCMTD:_cos_.obj
 0001:000827df       __cos_default              100837df     LIBCMTD:_cos_.obj
 0001:00082880       __CIsqrt                   10083880 f   LIBCMTD:_sqrt_.obj
 0001:00082894       _sqrt                      10083894     LIBCMTD:_sqrt_.obj
 0001:00082940       _fabs                      10083940 f   LIBCMTD:_fabs_.obj
 0001:00082a40       _atan                      10083a40 f   LIBCMTD:_atan_.obj
 0001:00082a80       __CIatan                   10083a80 f   LIBCMTD:_atan_.obj
 0001:00082abb       __CIatan_default           10083abb f   LIBCMTD:_atan_.obj
 0001:00082acf       __atan_default             10083acf     LIBCMTD:_atan_.obj
 0001:00082b60       _tan                       10083b60 f   LIBCMTD:_tan_.obj
 0001:00082ba0       __CItan                    10083ba0 f   LIBCMTD:_tan_.obj
 0001:00082bdb       __CItan_default            10083bdb f   LIBCMTD:_tan_.obj
 0001:00082bef       __tan_default              10083bef     LIBCMTD:_tan_.obj
 0001:00082c90       _asin                      10083c90 f   LIBCMTD:_asin_.obj
 0001:00082cd0       __CIasin                   10083cd0 f   LIBCMTD:_asin_.obj
 0001:00082d0b       __CIasin_default           10083d0b f   LIBCMTD:_asin_.obj
 0001:00082d1f       __asin_default             10083d1f     LIBCMTD:_asin_.obj
 0001:00082de0       _exp                       10083de0 f   LIBCMTD:_87ctran_.obj
 0001:00082e1c       __CIexp                    10083e1c f   LIBCMTD:_87ctran_.obj
 0001:00082e57       __exp_default              10083e57 f   LIBCMTD:_87ctran_.obj
 0001:00082e61       __CIexp_default            10083e61 f   LIBCMTD:_87ctran_.obj
 0001:00082e70       _abs                       10083e70 f   LIBCMTD:abs.obj
 0001:00082ea0       __abs64                    10083ea0 f   LIBCMTD:abs.obj
 0001:00082f00       _strchr                    10083f00 f   LIBCMTD:strchr.obj
 0001:00082f06       ___from_strstr_to_strchr   10083f06     LIBCMTD:strchr.obj
 0001:00082fc0       _strstr                    10083fc0 f   LIBCMTD:strstr.obj
 0001:00083050       _strrchr                   10084050 f   LIBCMTD:strrchr.obj
 0001:00083080       __isalpha_l                10084080 f i LIBCMTD:_ctype.obj
 0001:00083110       _isalpha                   10084110 f i LIBCMTD:_ctype.obj
 0001:00083150       __isupper_l                10084150 f i LIBCMTD:_ctype.obj
 0001:000831d0       _isupper                   100841d0 f i LIBCMTD:_ctype.obj
 0001:00083200       __islower_l                10084200 f i LIBCMTD:_ctype.obj
 0001:00083280       _islower                   10084280 f i LIBCMTD:_ctype.obj
 0001:000832b0       __isdigit_l                100842b0 f i LIBCMTD:_ctype.obj
 0001:00083330       _isdigit                   10084330 f i LIBCMTD:_ctype.obj
 0001:00083360       __isxdigit_l               10084360 f i LIBCMTD:_ctype.obj
 0001:000833f0       _isxdigit                  100843f0 f i LIBCMTD:_ctype.obj
 0001:00083430       __isspace_l                10084430 f i LIBCMTD:_ctype.obj
 0001:000834b0       _isspace                   100844b0 f i LIBCMTD:_ctype.obj
 0001:000834e0       __ispunct_l                100844e0 f i LIBCMTD:_ctype.obj
 0001:00083560       _ispunct                   10084560 f i LIBCMTD:_ctype.obj
 0001:00083590       __isalnum_l                10084590 f i LIBCMTD:_ctype.obj
 0001:00083620       _isalnum                   10084620 f i LIBCMTD:_ctype.obj
 0001:00083660       __isprint_l                10084660 f i LIBCMTD:_ctype.obj
 0001:000836f0       _isprint                   100846f0 f i LIBCMTD:_ctype.obj
 0001:00083730       __isgraph_l                10084730 f i LIBCMTD:_ctype.obj
 0001:000837c0       _isgraph                   100847c0 f i LIBCMTD:_ctype.obj
 0001:00083800       __iscntrl_l                10084800 f i LIBCMTD:_ctype.obj
 0001:00083880       _iscntrl                   10084880 f i LIBCMTD:_ctype.obj
 0001:000838b0       ___isascii                 100848b0 f i LIBCMTD:_ctype.obj
 0001:000838d0       ___toascii                 100848d0 f i LIBCMTD:_ctype.obj
 0001:000838e0       __iscsymf_l                100848e0 f i LIBCMTD:_ctype.obj
 0001:00083920       ___iscsymf                 10084920 f i LIBCMTD:_ctype.obj
 0001:00083960       __iscsym_l                 10084960 f i LIBCMTD:_ctype.obj
 0001:000839a0       ___iscsym                  100849a0 f i LIBCMTD:_ctype.obj
 0001:000839e0       _sscanf                    100849e0 f   LIBCMTD:sscanf.obj
 0001:00083b70       __sscanf_l                 10084b70 f   LIBCMTD:sscanf.obj
 0001:00083ba0       _sscanf_s                  10084ba0 f   LIBCMTD:sscanf.obj
 0001:00083bd0       __sscanf_s_l               10084bd0 f   LIBCMTD:sscanf.obj
 0001:00083c00       __vsnprintf_l              10084c00 f   LIBCMTD:vsnprint.obj
 0001:00083dc0       __vsnprintf                10084dc0 f   LIBCMTD:vsnprint.obj
 0001:00083df0       __toupper                  10084df0 f   LIBCMTD:toupper.obj
 0001:00083e00       __toupper_l                10084e00 f   LIBCMTD:toupper.obj
 0001:00083fe0       _toupper                   10084fe0 f   LIBCMTD:toupper.obj
 0001:00084030       __tolower                  10085030 f   LIBCMTD:tolower.obj
 0001:00084040       __tolower_l                10085040 f   LIBCMTD:tolower.obj
 0001:00084220       _tolower                   10085220 f   LIBCMTD:tolower.obj
 0001:00084270       _memmove                   10085270 f   LIBCMTD:memmove.obj
 0001:000845e0       _strncpy                   100855e0 f   LIBCMTD:strncpy.obj
 0001:00084710       _strncmp                   10085710 f   LIBCMTD:strncmp.obj
 0001:00084890       _pow                       10085890 f   LIBCMTD:_pow_.obj
 0001:000848d0       __CIpow                    100858d0 f   LIBCMTD:_pow_.obj
 0001:0008490b       __CIpow_default            1008590b f   LIBCMTD:_pow_.obj
 0001:00084924       __pow_default              10085924     LIBCMTD:_pow_.obj
 0001:00084b20       __CRT_INIT@12              10085b20 f   LIBCMTD:dllcrt0.obj
 0001:00084d40       __DllMainCRTStartup@12     10085d40 f   LIBCMTD:dllcrt0.obj
 0001:00084f30       _strcmp                    10085f30 f   LIBCMTD:strcmp.obj
 0001:00084fc0       _longjmp                   10085fc0 f   LIBCMTD:longjmp.obj
 0001:00085080       _memcmp                    10086080 f   LIBCMTD:memcmp.obj
 0001:00085af0       _qsort                     10086af0 f   LIBCMTD:qsort.obj
 0001:000860a0       _strcpy                    100870a0 f   LIBCMTD:strcat.obj
 0001:000860b0       _strcat                    100870b0 f   LIBCMTD:strcat.obj
 0001:000861a0       _sprintf                   100871a0 f   LIBCMTD:sprintf.obj
 0001:00086340       __sprintf_l                10087340 f   LIBCMTD:sprintf.obj
 0001:00086370       _sprintf_s                 10087370 f   LIBCMTD:sprintf.obj
 0001:000863a0       __sprintf_s_l              100873a0 f   LIBCMTD:sprintf.obj
 0001:000863d0       __snprintf_s               100873d0 f   LIBCMTD:sprintf.obj
 0001:00086400       __snprintf_s_l             10087400 f   LIBCMTD:sprintf.obj
 0001:00086430       __sprintf_p                10087430 f   LIBCMTD:sprintf.obj
 0001:00086460       __sprintf_p_l              10087460 f   LIBCMTD:sprintf.obj
 0001:00086490       __scprintf                 10087490 f   LIBCMTD:sprintf.obj
 0001:000864b0       __scprintf_p               100874b0 f   LIBCMTD:sprintf.obj
 0001:000864d0       __scprintf_l               100874d0 f   LIBCMTD:sprintf.obj
 0001:00086500       __scprintf_p_l             10087500 f   LIBCMTD:sprintf.obj
 0001:00086530       __setjmp3                  10087530 f   LIBCMTD:setjmp3.obj
 0001:000865b0       _memchr                    100875b0 f   LIBCMTD:memchr.obj
 0001:00086660       _atol                      10087660 f   LIBCMTD:atox.obj
 0001:00086680       __atol_l                   10087680 f   LIBCMTD:atox.obj
 0001:000866a0       _atoi                      100876a0 f   LIBCMTD:atox.obj
 0001:000866c0       __atoi_l                   100876c0 f   LIBCMTD:atox.obj
 0001:000866e0       __atoi64                   100876e0 f   LIBCMTD:atox.obj
 0001:00086700       __atoi64_l                 10087700 f   LIBCMTD:atox.obj
 0001:00086720       __vsprintf_l               10087720 f   LIBCMTD:vsprintf.obj
 0001:000868c0       _vsprintf                  100878c0 f   LIBCMTD:vsprintf.obj
 0001:000868e0       __vscprintf_helper         100878e0 f   LIBCMTD:vsprintf.obj
 0001:000869c0       __vscprintf                100879c0 f   LIBCMTD:vsprintf.obj
 0001:000869e0       __vscprintf_l              100879e0 f   LIBCMTD:vsprintf.obj
 0001:00086a00       __vscprintf_p              10087a00 f   LIBCMTD:vsprintf.obj
 0001:00086a20       __vscprintf_p_l            10087a20 f   LIBCMTD:vsprintf.obj
 0001:00086a40       _vprintf_helper            10087a40 f   LIBCMTD:vprintf.obj
 0001:00086b60       __vprintf_l                10087b60 f   LIBCMTD:vprintf.obj
 0001:00086b80       __vprintf_s_l              10087b80 f   LIBCMTD:vprintf.obj
 0001:00086ba0       __vprintf_p_l              10087ba0 f   LIBCMTD:vprintf.obj
 0001:00086bc0       _vprintf                   10087bc0 f   LIBCMTD:vprintf.obj
 0001:00086be0       _vprintf_s                 10087be0 f   LIBCMTD:vprintf.obj
 0001:00086c00       __vprintf_p                10087c00 f   LIBCMTD:vprintf.obj
 0001:00086c20       __cinit                    10087c20 f   LIBCMTD:crt0dat.obj
 0001:00086cc0       _exit                      10087cc0 f   LIBCMTD:crt0dat.obj
 0001:00086ce0       __exit                     10087ce0 f   LIBCMTD:crt0dat.obj
 0001:00086d00       __cexit                    10087d00 f   LIBCMTD:crt0dat.obj
 0001:00086d20       __c_exit                   10087d20 f   LIBCMTD:crt0dat.obj
 0001:00086d40       __amsg_exit                10087d40 f   LIBCMTD:crt0dat.obj
 0001:00086d70       ___freeCrtMemory           10087d70 f   LIBCMTD:crt0dat.obj
 0001:000870b0       ___crtCorExitProcess       100880b0 f   LIBCMTD:crt0dat.obj
 0001:000870f0       ___crtExitProcess          100880f0 f   LIBCMTD:crt0dat.obj
 0001:00087110       __lockexit                 10088110 f   LIBCMTD:crt0dat.obj
 0001:00087130       __unlockexit               10088130 f   LIBCMTD:crt0dat.obj
 0001:00087150       __init_pointers            10088150 f   LIBCMTD:crt0dat.obj
 0001:000871e0       __initterm_e               100881e0 f   LIBCMTD:crt0dat.obj
 0001:00087220       __get_wpgmptr              10088220 f   LIBCMTD:crt0dat.obj
 0001:00087310       __get_pgmptr               10088310 f   LIBCMTD:crt0dat.obj
 0001:00087400       _getenv                    10088400 f   LIBCMTD:getenv.obj
 0001:00087550       __getenv_helper_nolock     10088550 f   LIBCMTD:getenv.obj
 0001:00087670       _getenv_s                  10088670 f   LIBCMTD:getenv.obj
 0001:000878a0       __dupenv_s                 100888a0 f   LIBCMTD:getenv.obj
 0001:000878d0       __dupenv_s_dbg             100888d0 f   LIBCMTD:getenv.obj
 0001:00087b20       _fclose                    10088b20 f   LIBCMTD:fclose.obj
 0001:00087c30       __fclose_nolock            10088c30 f   LIBCMTD:fclose.obj
 0001:00087d30       _ftell                     10088d30 f   LIBCMTD:ftell.obj
 0001:00087e20       __ftell_nolock             10088e20 f   LIBCMTD:ftell.obj
 0001:000880f0       _fseek                     100890f0 f   LIBCMTD:fseek.obj
 0001:00088260       __fseek_nolock             10089260 f   LIBCMTD:fseek.obj
 0001:00088340       __fsopen                   10089340 f   LIBCMTD:fopen.obj
 0001:00088550       _fopen                     10089550 f   LIBCMTD:fopen.obj
 0001:00088570       _fopen_s                   10089570 f   LIBCMTD:fopen.obj
 0001:00088610       _fread_s                   10089610 f   LIBCMTD:fread.obj
 0001:00088740       __fread_nolock_s           10089740 f   LIBCMTD:fread.obj
 0001:00088d20       _fread                     10089d20 f   LIBCMTD:fread.obj
 0001:00088d50       __fread_nolock             10089d50 f   LIBCMTD:fread.obj
 0001:00088d80       _malloc                    10089d80 f   LIBCMTD:dbgmalloc.obj
 0001:00088db0       _realloc                   10089db0 f   LIBCMTD:dbgrealloc.obj
 0001:00088de0       _free                      10089de0 f   LIBCMTD:dbgfree.obj
 0001:00088e00       ?_RTC_Failure@@YAXPAXH@Z   10089e00 f   LIBCMTD:_error_.obj
 0001:000891b0       ?_RTC_StackFailure@@YAXPAXPBD@Z 1008a1b0 f   LIBCMTD:_error_.obj
 0001:000892b0       ?_RTC_AllocaFailure@@YAXPAXPAU_RTC_ALLOCA_NODE@@H@Z 1008a2b0 f   LIBCMTD:_error_.obj
 0001:00089460       __RTC_UninitUse            1008a460 f   LIBCMTD:_error_.obj
 0001:00089550       __RTC_NumErrors            1008a550 f   LIBCMTD:_userapi_.obj
 0001:00089560       __RTC_GetErrDesc           1008a560 f   LIBCMTD:_userapi_.obj
 0001:00089580       __RTC_SetErrorType         1008a580 f   LIBCMTD:_userapi_.obj
 0001:000895b0       __RTC_SetErrorFunc         1008a5b0 f   LIBCMTD:_userapi_.obj
 0001:000895d0       __RTC_SetErrorFuncW        1008a5d0 f   LIBCMTD:_userapi_.obj
 0001:000895f0       ?_RTC_GetErrorFunc@@YAP6AHHPBDH00ZZPBX@Z 1008a5f0 f   LIBCMTD:_userapi_.obj
 0001:00089600       ?_RTC_GetErrorFuncW@@YAP6AHHPB_WH00ZZPBX@Z 1008a600 f   LIBCMTD:_userapi_.obj
 0001:00089610       __chkesp                   1008a610 f   LIBCMTD:chkesp.obj
 0001:00089650       __CRT_RTC_INIT             1008a650 f   LIBCMTD:chkesp.obj
 0001:00089660       __CRT_RTC_INITW            1008a660 f   LIBCMTD:chkesp.obj
 0001:00089670       __initp_misc_winsig        1008a670 f   LIBCMTD:winsig.obj
 0001:000896a0       _signal                    1008a6a0 f   LIBCMTD:winsig.obj
 0001:00089b40       _raise                     1008ab40 f   LIBCMTD:winsig.obj
 0001:00089eb0       ___get_sigabrt             1008aeb0 f   LIBCMTD:winsig.obj
 0001:00089ed0       ___fpecode                 1008aed0 f   LIBCMTD:winsig.obj
 0001:00089ee0       ___pxcptinfoptrs           1008aee0 f   LIBCMTD:winsig.obj
 0001:00089ef0       ___crtMessageBoxW          1008aef0 f   LIBCMTD:crtmboxw.obj
 0001:0008a110       __itow_s                   1008b110 f   LIBCMTD:xtows.obj
 0001:0008a4f0       __ltow_s                   1008b4f0 f   LIBCMTD:xtows.obj
 0001:0008a530       __ultow_s                  1008b530 f   LIBCMTD:xtows.obj
 0001:0008a550       __i64tow_s                 1008b550 f   LIBCMTD:xtows.obj
 0001:0008a970       __ui64tow_s                1008b970 f   LIBCMTD:xtows.obj
 0001:0008a990       _wcsncat_s                 1008b990 f   LIBCMTD:wcsncat_s.obj
 0001:0008ae40       _wcsncpy_s                 1008be40 f   LIBCMTD:wcsncpy_s.obj
 0001:0008b250       _wcscat_s                  1008c250 f   LIBCMTD:wcscat_s.obj
 0001:0008b640       _wcscpy_s                  1008c640 f   LIBCMTD:wcscpy_s.obj
 0001:0008b920       _fflush                    1008c920 f   LIBCMTD:fflush.obj
 0001:0008b9c0       __fflush_nolock            1008c9c0 f   LIBCMTD:fflush.obj
 0001:0008ba20       __flush                    1008ca20 f   LIBCMTD:fflush.obj
 0001:0008bae0       __flushall                 1008cae0 f   LIBCMTD:fflush.obj
 0001:0008bcb0       _fwprintf                  1008ccb0 f   LIBCMTD:fwprintf.obj
 0001:0008be30       __fwprintf_l               1008ce30 f   LIBCMTD:fwprintf.obj
 0001:0008be60       __fwprintf_s_l             1008ce60 f   LIBCMTD:fwprintf.obj
 0001:0008be90       _fwprintf_s                1008ce90 f   LIBCMTD:fwprintf.obj
 0001:0008bec0       __fwprintf_p_l             1008cec0 f   LIBCMTD:fwprintf.obj
 0001:0008bef0       __fwprintf_p               1008cef0 f   LIBCMTD:fwprintf.obj
 0001:0008bf20       _setvbuf                   1008cf20 f   LIBCMTD:setvbuf.obj
 0001:0008c1f0       ___iob_func                1008d1f0 f   LIBCMTD:_file.obj
 0001:0008c200       ___initstdio               1008d200 f   LIBCMTD:_file.obj
 0001:0008c350       ___endstdio                1008d350 f   LIBCMTD:_file.obj
 0001:0008c380       __lock_file                1008d380 f   LIBCMTD:_file.obj
 0001:0008c3e0       __lock_file2               1008d3e0 f   LIBCMTD:_file.obj
 0001:0008c420       __unlock_file              1008d420 f   LIBCMTD:_file.obj
 0001:0008c480       __unlock_file2             1008d480 f   LIBCMTD:_file.obj
 0001:0008c4c0       _abort                     1008d4c0 f   LIBCMTD:abort.obj
 0001:0008c520       __set_abort_behavior       1008d520 f   LIBCMTD:abort.obj
 0001:0008c550       _wcslen                    1008d550 f   LIBCMTD:wcslen.obj
 0001:0008c580       __set_error_mode           1008d580 f   LIBCMTD:errmode.obj
 0001:0008c640       ___set_app_type            1008d640 f   LIBCMTD:errmode.obj
 0001:0008c650       __initp_misc_invarg        1008d650 f   LIBCMTD:invarg.obj
 0001:0008c660       __invalid_parameter        1008d660 f   LIBCMTD:invarg.obj
 0001:0008c6c0       __invoke_watson            1008d6c0 f   LIBCMTD:invarg.obj
 0001:0008c6f0       __call_reportfault         1008d6f0 f   LIBCMTD:invarg.obj
 0001:0008c840       __set_invalid_parameter_handler 1008d840 f   LIBCMTD:invarg.obj
 0001:0008c880       __get_invalid_parameter_handler 1008d880 f   LIBCMTD:invarg.obj
 0001:0008c8b0       ?_invalid_parameter@@YAXPBG00II@Z 1008d8b0 f   LIBCMTD:invarg.obj
 0001:0008c8e0       ?_invoke_watson@@YAXPBG00II@Z 1008d8e0 f   LIBCMTD:invarg.obj
 0001:0008c900       __vswprintf_helper         1008d900 f   LIBCMTD:vswprnc.obj
 0001:0008cb60       __vswprintf_c              1008db60 f   LIBCMTD:vswprnc.obj
 0001:0008cbb0       __vswprintf_c_l            1008dbb0 f   LIBCMTD:vswprnc.obj
 0001:0008cc00       __vswprintf_s_l            1008dc00 f   LIBCMTD:vswprnc.obj
 0001:0008ce70       _vswprintf_s               1008de70 f   LIBCMTD:vswprnc.obj
 0001:0008cea0       __vsnwprintf_s_l           1008dea0 f   LIBCMTD:vswprnc.obj
 0001:0008d250       __vsnwprintf_s             1008e250 f   LIBCMTD:vswprnc.obj
 0001:0008d280       __vswprintf_p              1008e280 f   LIBCMTD:vswprnc.obj
 0001:0008d2d0       __vswprintf_p_l            1008e2d0 f   LIBCMTD:vswprnc.obj
 0001:0008d320       ___report_gsfailure        1008e320 f   LIBCMTD:gs_report.obj
 0001:0008d430       __VEC_memcpy               1008e430 f   LIBCMTD:p4_memcpy.obj
 0001:0008d540       ___sse2_available_init     1008e540 f   LIBCMTD:cpu_disp.obj
 0001:0008d560       __VEC_memzero              1008e560 f   LIBCMTD:p4_memset.obj
 0001:0008d620       __setdefaultprecision      1008e620 f   LIBCMTD:fp8.obj
 0001:0008d660       __forcdecpt                1008e660 f   LIBCMTD:cvt.obj
 0001:0008d680       __forcdecpt_l              1008e680 f   LIBCMTD:cvt.obj
 0001:0008d740       __cropzeros                1008e740 f   LIBCMTD:cvt.obj
 0001:0008d760       __cropzeros_l              1008e760 f   LIBCMTD:cvt.obj
 0001:0008d870       __positive                 1008e870 f   LIBCMTD:cvt.obj
 0001:0008d8a0       __fassign_l                1008e8a0 f   LIBCMTD:cvt.obj
 0001:0008d900       __fassign                  1008e900 f   LIBCMTD:cvt.obj
 0001:0008d920       __cftoe_l                  1008e920 f   LIBCMTD:cvt.obj
 0001:0008de70       __cftoe                    1008ee70 f   LIBCMTD:cvt.obj
 0001:0008dea0       __cftoa_l                  1008eea0 f   LIBCMTD:cvt.obj
 0001:0008e680       ?strrchr@@YAPADPADH@Z      1008f680 f i LIBCMTD:cvt.obj
 0001:0008e6a0       __cftoa                    1008f6a0 f   LIBCMTD:cvt.obj
 0001:0008e6d0       __cftof_l                  1008f6d0 f   LIBCMTD:cvt.obj
 0001:0008eae0       __cftof                    1008fae0 f   LIBCMTD:cvt.obj
 0001:0008eb10       __cftog_l                  1008fb10 f   LIBCMTD:cvt.obj
 0001:0008ed40       __cftog                    1008fd40 f   LIBCMTD:cvt.obj
 0001:0008ed70       __cfltcvt_l                1008fd70 f   LIBCMTD:cvt.obj
 0001:0008ee30       __cfltcvt                  1008fe30 f   LIBCMTD:cvt.obj
 0001:0008ee90       __initp_misc_cfltcvt_tab   1008fe90 f   LIBCMTD:cmiscdat.obj
 0001:0008eed0       __dosmaperr                1008fed0 f   LIBCMTD:dosmap.obj
 0001:0008ef00       __get_errno_from_oserr     1008ff00 f   LIBCMTD:dosmap.obj
 0001:0008ef80       __set_errno                1008ff80 f   LIBCMTD:dosmap.obj
 0001:0008efb0       __get_errno                1008ffb0 f   LIBCMTD:dosmap.obj
 0001:0008f030       __set_doserrno             10090030 f   LIBCMTD:dosmap.obj
 0001:0008f060       __get_doserrno             10090060 f   LIBCMTD:dosmap.obj
 0001:0008f0e0       __errno                    100900e0 f   LIBCMTD:dosmap.obj
 0001:0008f110       ___doserrno                10090110 f   LIBCMTD:dosmap.obj
 0001:0008f140       __CrtSetReportHookW2       10090140 f   LIBCMTD:dbgrptw.obj
 0001:0008f470       __CrtDbgReportW            10090470 f   LIBCMTD:dbgrptw.obj
 0001:0008f4b0       __CrtDbgReportWV           100904b0 f i LIBCMTD:dbgrptw.obj
 0001:0008f4e0       ___crtMessageWindowW       100904e0 f   LIBCMTD:dbgrptw.obj
 0001:0008f8e0       __invoke_watson_if_oneof   100908e0 f i LIBCMTD:dbgrptw.obj
 0001:0008f920       ?_CrtDbgReportW@@YAHHPBGH00ZZ 10090920 f   LIBCMTD:dbgrptw.obj
 0001:0008f960       ___updatetmbcinfo          10090960 f   LIBCMTD:mbctype.obj
 0001:0008fa70       __setmbcp                  10090a70 f   LIBCMTD:mbctype.obj
 0001:0008fe20       __setmbcp_nolock           10090e20 f   LIBCMTD:mbctype.obj
 0001:00090610       __getmbcp                  10091610 f   LIBCMTD:mbctype.obj
 0001:00090680       ___initmbctable            10091680 f   LIBCMTD:mbctype.obj
 0001:000906b0       ___addlocaleref            100916b0 f   LIBCMTD:localref.obj
 0001:000907d0       ___removelocaleref         100917d0 f   LIBCMTD:localref.obj
 0001:00090900       ___freetlocinfo            10091900 f   LIBCMTD:localref.obj
 0001:00090be0       __updatetlocinfoEx_nolock  10091be0 f   LIBCMTD:localref.obj
 0001:00090c60       ___updatetlocinfo          10091c60 f   LIBCMTD:localref.obj
 0001:00090d30       __encoded_null             10091d30 f   LIBCMTD:tidtable.obj
 0001:00090d40       ___crtTlsAlloc@4           10091d40 f   LIBCMTD:tidtable.obj
 0001:00090d50       ___fls_getvalue@4          10091d50 f   LIBCMTD:tidtable.obj
 0001:00090d70       ___get_flsindex            10091d70 f   LIBCMTD:tidtable.obj
 0001:00090d80       ___set_flsgetvalue         10091d80 f   LIBCMTD:tidtable.obj
 0001:00090dd0       ___fls_setvalue@8          10091dd0 f   LIBCMTD:tidtable.obj
 0001:00090df0       __mtinit                   10091df0 f   LIBCMTD:tidtable.obj
 0001:00090ff0       __mtterm                   10091ff0 f   LIBCMTD:tidtable.obj
 0001:00091050       __initptd                  10092050 f   LIBCMTD:tidtable.obj
 0001:00091180       __getptd_noexit            10092180 f   LIBCMTD:tidtable.obj
 0001:00091240       __getptd                   10092240 f   LIBCMTD:tidtable.obj
 0001:00091270       __freefls@4                10092270 f   LIBCMTD:tidtable.obj
 0001:00091480       __freeptd                  10092480 f   LIBCMTD:tidtable.obj
 0001:00091500       ___threadid                10092500 f   LIBCMTD:tidtable.obj
 0001:00091510       ___threadhandle            10092510 f   LIBCMTD:tidtable.obj
 0001:00091520       ____setlc_active_func      10092520 f   LIBCMTD:setlocal.obj
 0001:00091530       ____unguarded_readlc_active_add_func 10092530 f   LIBCMTD:setlocal.obj
 0001:00091540       __configthreadlocale       10092540 f   LIBCMTD:setlocal.obj
 0001:00091650       __locterm                  10092650 f   LIBCMTD:setlocal.obj
 0001:000916f0       __free_locale              100926f0 f   LIBCMTD:setlocal.obj
 0001:00091830       ___free_locale             10092830 f   LIBCMTD:setlocal.obj
 0001:00091850       __create_locale            10092850 f   LIBCMTD:setlocal.obj
 0001:00091a80       ___create_locale           10092a80 f   LIBCMTD:setlocal.obj
 0001:00091aa0       __get_current_locale       10092aa0 f   LIBCMTD:setlocal.obj
 0001:00091bc0       ___get_current_locale      10092bc0 f   LIBCMTD:setlocal.obj
 0001:00091bd0       _setlocale                 10092bd0 f   LIBCMTD:setlocal.obj
 0001:00092a80       __expandlocale             10093a80 f   LIBCMTD:setlocal.obj
 0001:00092d30       ___init_dummy              10093d30 f   LIBCMTD:setlocal.obj
 0001:00092d40       __strcats                  10093d40 f   LIBCMTD:setlocal.obj
 0001:00092dc0       ___lc_strtolc              10093dc0 f   LIBCMTD:setlocal.obj
 0001:00092fc0       ___lc_lctostr              10093fc0 f   LIBCMTD:setlocal.obj
 0001:0009307c       __fFATN2                   1009407c     LIBCMTD:_87triga_.obj
 0001:000930cc       __rtpiby2                  100940cc     LIBCMTD:_87triga_.obj
 0001:00093110       __cintrindisp2             10094110 f   LIBCMTD:_87cdisp_.obj
 0001:0009314e       __cintrindisp1             1009414e f   LIBCMTD:_87cdisp_.obj
 0001:0009318b       __ctrandisp2               1009418b f   LIBCMTD:_87cdisp_.obj
 0001:0009331a       __ctrandisp1               1009431a f   LIBCMTD:_87cdisp_.obj
 0001:0009334d       __fload                    1009434d f   LIBCMTD:_87cdisp_.obj
 0001:00093390       __set_SSE2_enable          10094390 f   LIBCMTD:_mathfcns_.obj
 0001:000933b0       __sse2_mathfcns_init       100943b0 f   LIBCMTD:_mathfcns_.obj
 0001:000933d0       __CIacos_pentium4          100943d0 f   LIBCMTD:_acos_pentium4_.obj
 0001:000933e8       __acos_pentium4            100943e8     LIBCMTD:_acos_pentium4_.obj
 0001:00093930       __trandisp1                10094930 f   LIBCMTD:_87disp_.obj
 0001:00093997       __trandisp2                10094997 f   LIBCMTD:_87disp_.obj
 0001:00093a23       __rttospopde               10094a23     LIBCMTD:_87disp_.obj
 0001:00093a28       __rttospop                 10094a28     LIBCMTD:_87disp_.obj
 0001:00093a2a       __rtnospop                 10094a2a     LIBCMTD:_87disp_.obj
 0001:00093a2c       __rttosnpop                10094a2c     LIBCMTD:_87disp_.obj
 0001:00093a2d       __rtnospopde               10094a2d     LIBCMTD:_87disp_.obj
 0001:00093a34       __rtzeropop                10094a34     LIBCMTD:_87disp_.obj
 0001:00093a36       __rtzeronpop               10094a36     LIBCMTD:_87disp_.obj
 0001:00093a3b       __rtonepop                 10094a3b     LIBCMTD:_87disp_.obj
 0001:00093a3d       __rtonenpop                10094a3d     LIBCMTD:_87disp_.obj
 0001:00093a42       __tosnan1                  10094a42     LIBCMTD:_87disp_.obj
 0001:00093a6d       __nosnan2                  10094a6d     LIBCMTD:_87disp_.obj
 0001:00093a6f       __tosnan2                  10094a6f     LIBCMTD:_87disp_.obj
 0001:00093a97       __nan2                     10094a97     LIBCMTD:_87disp_.obj
 0001:00093ad6       __rtindfpop                10094ad6     LIBCMTD:_87disp_.obj
 0001:00093ad8       __rtindfnpop               10094ad8     LIBCMTD:_87disp_.obj
 0001:00093ae9       __rttosnpopde              10094ae9     LIBCMTD:_87disp_.obj
 0001:00093af3       __rtchsifneg               10094af3     LIBCMTD:_87disp_.obj
 0001:00093b00       __startTwoArgErrorHandling 10094b00 f   LIBCMTD:_genexcep_.obj
 0001:00093b17       __startOneArgErrorHandling 10094b17 f   LIBCMTD:_genexcep_.obj
 0001:00093b60       __twoToTOS                 10094b60 f   LIBCMTD:_common_.obj
 0001:00093b75       __load_CW                  10094b75 f   LIBCMTD:_common_.obj
 0001:00093b8c       __convertTOStoQNaN         10094b8c f   LIBCMTD:_common_.obj
 0001:00093ba5       __fload_withFB             10094ba5 f   LIBCMTD:_common_.obj
 0001:00093be8       __checkTOS_withFB          10094be8 f   LIBCMTD:_common_.obj
 0001:00093bfe       __fast_exit                10094bfe f   LIBCMTD:_common_.obj
 0001:00093c0b       __math_exit                10094c0b f   LIBCMTD:_common_.obj
 0001:00093c35       __check_overflow_exit      10094c35 f   LIBCMTD:_common_.obj
 0001:00093c49       __check_range_exit         10094c49 f   LIBCMTD:_common_.obj
 0001:00093cf0       __CIsin_pentium4           10094cf0 f   LIBCMTD:_sin_pentium4_.obj
 0001:00093d08       __sin_pentium4             10094d08     LIBCMTD:_sin_pentium4_.obj
 0001:00093ec0       __CIcos_pentium4           10094ec0 f   LIBCMTD:_cos_pentium4_.obj
 0001:00093ed8       __cos_pentium4             10094ed8     LIBCMTD:_cos_pentium4_.obj
 0001:00094070       __handle_qnan1             10095070 f   LIBCMTD:_fpexcept_.obj
 0001:000940d0       __handle_qnan2             100950d0 f   LIBCMTD:_fpexcept_.obj
 0001:00094140       __except1                  10095140 f   LIBCMTD:_fpexcept_.obj
 0001:00094240       __except2                  10095240 f   LIBCMTD:_fpexcept_.obj
 0001:00094350       __raise_exc_ex             10095350 f   LIBCMTD:_fpexcept_.obj
 0001:00094880       __raise_exc                10095880 f   LIBCMTD:_fpexcept_.obj
 0001:000948b0       __raise_excf               100958b0 f   LIBCMTD:_fpexcept_.obj
 0001:000948e0       __handle_exc               100958e0 f   LIBCMTD:_fpexcept_.obj
 0001:00094bf0       __umatherr                 10095bf0 f   LIBCMTD:_fpexcept_.obj
 0001:00094c90       __set_errno_from_matherr   10095c90 f   LIBCMTD:_fpexcept_.obj
 0001:00094d20       __errcode                  10095d20 f   LIBCMTD:_fpexcept_.obj
 0001:00094d90       __set_exp                  10095d90 f   LIBCMTD:_util_.obj
 0001:00094dd0       __get_exp                  10095dd0 f   LIBCMTD:_util_.obj
 0001:00094e00       __add_exp                  10095e00 f   LIBCMTD:_util_.obj
 0001:00094e40       __set_bexp                 10095e40 f   LIBCMTD:_util_.obj
 0001:00094e70       __sptype                   10095e70 f   LIBCMTD:_util_.obj
 0001:00094ef0       __decomp                   10095ef0 f   LIBCMTD:_util_.obj
 0001:00095020       __statfp                   10096020 f   LIBCMTD:_fpctrl_.obj
 0001:00095040       __clrfp                    10096040 f   LIBCMTD:_fpctrl_.obj
 0001:00095060       __ctrlfp                   10096060 f   LIBCMTD:_fpctrl_.obj
 0001:00095090       __set_statfp               10096090 f   LIBCMTD:_fpctrl_.obj
 0001:00095100       ___get_fpsr_sse2           10096100 f   LIBCMTD:_fpctrl_.obj
 0001:00095130       ___set_fpsr_sse2           10096130 f   LIBCMTD:_fpctrl_.obj
 0001:00095210       ___fclrf_sse2              10096210 f   LIBCMTD:_fpctrl_.obj
 0001:00095230       ___statfp_sse2             10096230 f   LIBCMTD:_fpctrl_.obj
 0001:00095260       ___clrfp_sse2              10096260 f   LIBCMTD:_fpctrl_.obj
 0001:000952a0       ___ctrlfp_sse2             100962a0 f   LIBCMTD:_fpctrl_.obj
 0001:00095300       ___set_statfp_sse2         10096300 f   LIBCMTD:_fpctrl_.obj
 0001:00095330       __CIatan_pentium4          10096330 f   LIBCMTD:_atan_pentium4_.obj
 0001:00095348       __atan_pentium4            10096348     LIBCMTD:_atan_pentium4_.obj
 0001:00095620       __CItan_pentium4           10096620 f   LIBCMTD:_tan_pentium4_.obj
 0001:00095638       __tan_pentium4             10096638     LIBCMTD:_tan_pentium4_.obj
 0001:00095880       __CIasin_pentium4          10096880 f   LIBCMTD:_asin_pentium4_.obj
 0001:00095898       __asin_pentium4            10096898     LIBCMTD:_asin_pentium4_.obj
 0001:00095e00       __CIexp_pentium4           10096e00 f   LIBCMTD:_exp_pentium4_.obj
 0001:00095e18       __exp_pentium4             10096e18     LIBCMTD:_exp_pentium4_.obj
 0001:000960d1       __fFEXP                    100970d1     LIBCMTD:_87tran_.obj
 0001:00096128       __rtinfpopse               10097128     LIBCMTD:_87tran_.obj
 0001:0009612a       __rtinfnpopse              1009712a     LIBCMTD:_87tran_.obj
 0001:0009613a       __fFLN                     1009713a     LIBCMTD:_87tran_.obj
 0001:000961ef       __rtinfpop                 100971ef     LIBCMTD:_87tran_.obj
 0001:000961f1       __rtinfnpop                100971f1     LIBCMTD:_87tran_.obj
 0001:0009620e       __ffexpm1                  1009720e     LIBCMTD:_87tran_.obj
 0001:000962c0       __chvalidator              100972c0 f   LIBCMTD:isctype.obj
 0001:00096310       __chvalidator_l            10097310 f   LIBCMTD:isctype.obj
 0001:000963c0       __isctype_l                100973c0 f   LIBCMTD:isctype.obj
 0001:000964e0       __isctype                  100974e0 f   LIBCMTD:isctype.obj
 0001:00096520       __input_l                  10097520 f   LIBCMTD:input.obj
 0001:00097da0       __INTRN_LOCALE_CONV        10098da0 f i LIBCMTD:input.obj
 0001:00097ed0       __input_s_l                10098ed0 f   LIBCMTD:inputs.obj
 0001:00099c10       __flsbuf                   1009ac10 f   LIBCMTD:_flsbuf.obj
 0001:00099ed0       __output_l                 1009aed0 f   LIBCMTD:output.obj
 0001:0009b340       _get_int_arg               1009c340 f i LIBCMTD:output.obj
 0001:0009b360       _get_int64_arg             1009c360 f i LIBCMTD:output.obj
 0001:0009b380       _get_short_arg             1009c380 f i LIBCMTD:output.obj
 0001:0009b3a0       ___crtLCMapStringA         1009c3a0 f   LIBCMTD:a_map.obj
 0001:0009b690       __MarkAllocaS              1009c690 f i LIBCMTD:a_map.obj
 0001:0009b6c0       __freea                    1009c6c0 f i LIBCMTD:a_map.obj
 0001:0009b780       __isleadbyte_l             1009c780 f i LIBCMTD:_wctype.obj
 0001:0009b7d0       _isleadbyte                1009c7d0 f i LIBCMTD:_wctype.obj
 0001:0009b7f0       __iswalpha_l               1009c7f0 f i LIBCMTD:_wctype.obj
 0001:0009b810       _iswalpha                  1009c810 f i LIBCMTD:_wctype.obj
 0001:0009b830       __iswupper_l               1009c830 f i LIBCMTD:_wctype.obj
 0001:0009b850       _iswupper                  1009c850 f i LIBCMTD:_wctype.obj
 0001:0009b870       __iswlower_l               1009c870 f i LIBCMTD:_wctype.obj
 0001:0009b890       _iswlower                  1009c890 f i LIBCMTD:_wctype.obj
 0001:0009b8b0       __iswdigit_l               1009c8b0 f i LIBCMTD:_wctype.obj
 0001:0009b8d0       _iswdigit                  1009c8d0 f i LIBCMTD:_wctype.obj
 0001:0009b8f0       __iswxdigit_l              1009c8f0 f i LIBCMTD:_wctype.obj
 0001:0009b910       _iswxdigit                 1009c910 f i LIBCMTD:_wctype.obj
 0001:0009b930       __iswspace_l               1009c930 f i LIBCMTD:_wctype.obj
 0001:0009b950       _iswspace                  1009c950 f i LIBCMTD:_wctype.obj
 0001:0009b970       __iswpunct_l               1009c970 f i LIBCMTD:_wctype.obj
 0001:0009b990       _iswpunct                  1009c990 f i LIBCMTD:_wctype.obj
 0001:0009b9b0       __iswalnum_l               1009c9b0 f i LIBCMTD:_wctype.obj
 0001:0009b9d0       _iswalnum                  1009c9d0 f i LIBCMTD:_wctype.obj
 0001:0009b9f0       __iswprint_l               1009c9f0 f i LIBCMTD:_wctype.obj
 0001:0009ba10       _iswprint                  1009ca10 f i LIBCMTD:_wctype.obj
 0001:0009ba30       __iswgraph_l               1009ca30 f i LIBCMTD:_wctype.obj
 0001:0009ba50       _iswgraph                  1009ca50 f i LIBCMTD:_wctype.obj
 0001:0009ba70       __iswcntrl_l               1009ca70 f i LIBCMTD:_wctype.obj
 0001:0009ba90       _iswcntrl                  1009ca90 f i LIBCMTD:_wctype.obj
 0001:0009bab0       _iswascii                  1009cab0 f i LIBCMTD:_wctype.obj
 0001:0009bad0       __iswcsym_l                1009cad0 f i LIBCMTD:_wctype.obj
 0001:0009bb10       ___iswcsym                 1009cb10 f i LIBCMTD:_wctype.obj
 0001:0009bb50       __iswcsymf_l               1009cb50 f i LIBCMTD:_wctype.obj
 0001:0009bb90       ___iswcsymf                1009cb90 f i LIBCMTD:_wctype.obj
 0001:0009bbd0       __CIpow_pentium4           1009cbd0 f   LIBCMTD:_pow_pentium4_.obj
 0001:0009bbe9       __pow_pentium4             1009cbe9     LIBCMTD:_pow_pentium4_.obj
 0001:0009c730       __powhlp                   1009d730 f   LIBCMTD:_powhlp_.obj
 0001:0009c8e0       __d_inttype                1009d8e0 f   LIBCMTD:_powhlp_.obj
 0001:0009c970       __malloc_dbg               1009d970 f   LIBCMTD:dbgheap.obj
 0001:0009c9a0       __nh_malloc                1009d9a0 f   LIBCMTD:dbgheap.obj
 0001:0009c9c0       __nh_malloc_dbg            1009d9c0 f   LIBCMTD:dbgheap.obj
 0001:0009caa0       __heap_alloc               1009daa0 f   LIBCMTD:dbgheap.obj
 0001:0009ce80       __heap_alloc_dbg           1009de80 f   LIBCMTD:dbgheap.obj
 0001:0009cee0       __calloc_dbg_impl          1009dee0 f   LIBCMTD:dbgheap.obj
 0001:0009cf60       __calloc_dbg               1009df60 f   LIBCMTD:dbgheap.obj
 0001:0009cfc0       __recalloc                 1009dfc0 f   LIBCMTD:dbgheap.obj
 0001:0009cff0       __realloc_dbg              1009dff0 f   LIBCMTD:dbgheap.obj
 0001:0009d690       __recalloc_dbg             1009e690 f   LIBCMTD:dbgheap.obj
 0001:0009d740       __expand                   1009e740 f   LIBCMTD:dbgheap.obj
 0001:0009d770       __expand_dbg               1009e770 f   LIBCMTD:dbgheap.obj
 0001:0009d880       __free_nolock              1009e880 f   LIBCMTD:dbgheap.obj
 0001:0009d8a0       __free_dbg                 1009e8a0 f   LIBCMTD:dbgheap.obj
 0001:0009d920       __free_dbg_nolock          1009e920 f   LIBCMTD:dbgheap.obj
 0001:0009de00       __msize                    1009ee00 f   LIBCMTD:dbgheap.obj
 0001:0009de20       __msize_dbg                1009ee20 f   LIBCMTD:dbgheap.obj
 0001:0009e010       __CrtSetBreakAlloc         1009f010 f   LIBCMTD:dbgheap.obj
 0001:0009e030       __CrtSetDbgBlockType       1009f030 f   LIBCMTD:dbgheap.obj
 0001:0009e120       __CrtSetAllocHook          1009f120 f   LIBCMTD:dbgheap.obj
 0001:0009e140       __CrtGetAllocHook          1009f140 f   LIBCMTD:dbgheap.obj
 0001:0009e190       __CrtCheckMemory           1009f190 f   LIBCMTD:dbgheap.obj
 0001:0009e5f0       __CrtSetDbgFlag            1009f5f0 f   LIBCMTD:dbgheap.obj
 0001:0009e740       __CrtDoForAllClientObjects 1009f740 f   LIBCMTD:dbgheap.obj
 0001:0009e860       __CrtIsValidPointer        1009f860 f   LIBCMTD:dbgheap.obj
 0001:0009e870       __CrtIsValidHeapPointer    1009f870 f   LIBCMTD:dbgheap.obj
 0001:0009e8c0       __CrtIsMemoryBlock         1009f8c0 f   LIBCMTD:dbgheap.obj
 0001:0009ea30       __CrtReportBlockType       1009fa30 f   LIBCMTD:dbgheap.obj
 0001:0009ea60       __CrtSetDumpClient         1009fa60 f   LIBCMTD:dbgheap.obj
 0001:0009ea80       __CrtGetDumpClient         1009fa80 f   LIBCMTD:dbgheap.obj
 0001:0009ea90       __CrtMemCheckpoint         1009fa90 f   LIBCMTD:dbgheap.obj
 0001:0009ecb0       __CrtMemDifference         1009fcb0 f   LIBCMTD:dbgheap.obj
 0001:0009eed0       __CrtMemDumpAllObjectsSince 1009fed0 f   LIBCMTD:dbgheap.obj
 0001:0009f3c0       __CrtDumpMemoryLeaks       100a03c0 f   LIBCMTD:dbgheap.obj
 0001:0009f440       __CrtMemDumpStatistics     100a0440 f   LIBCMTD:dbgheap.obj
 0001:0009f550       __aligned_malloc           100a0550 f   LIBCMTD:dbgheap.obj
 0001:0009f570       __aligned_malloc_dbg       100a0570 f   LIBCMTD:dbgheap.obj
 0001:0009f5a0       __aligned_realloc          100a05a0 f   LIBCMTD:dbgheap.obj
 0001:0009f5d0       __aligned_recalloc         100a05d0 f   LIBCMTD:dbgheap.obj
 0001:0009f600       __aligned_realloc_dbg      100a0600 f   LIBCMTD:dbgheap.obj
 0001:0009f630       __aligned_recalloc_dbg     100a0630 f   LIBCMTD:dbgheap.obj
 0001:0009f660       __aligned_offset_malloc    100a0660 f   LIBCMTD:dbgheap.obj
 0001:0009f680       __aligned_offset_malloc_dbg 100a0680 f   LIBCMTD:dbgheap.obj
 0001:0009f840       __aligned_offset_realloc   100a0840 f   LIBCMTD:dbgheap.obj
 0001:0009f870       __aligned_offset_recalloc  100a0870 f   LIBCMTD:dbgheap.obj
 0001:0009f8a0       __aligned_offset_realloc_dbg 100a08a0 f   LIBCMTD:dbgheap.obj
 0001:0009fb90       __aligned_offset_recalloc_dbg 100a0b90 f   LIBCMTD:dbgheap.obj
 0001:0009fc50       __aligned_free             100a0c50 f   LIBCMTD:dbgheap.obj
 0001:0009fc70       __aligned_free_dbg         100a0c70 f   LIBCMTD:dbgheap.obj
 0001:0009fd20       __CrtSetDebugFillThreshold 100a0d20 f   LIBCMTD:dbgheap.obj
 0001:0009fd40       __CrtSetCheckCount         100a0d40 f   LIBCMTD:dbgheap.obj
 0001:0009fd60       __CrtGetCheckCount         100a0d60 f   LIBCMTD:dbgheap.obj
 0001:0009fd70       __aligned_msize            100a0d70 f   LIBCMTD:dbgheap.obj
 0001:0009fd90       __aligned_msize_dbg        100a0d90 f   LIBCMTD:dbgheap.obj
 0001:0009fea0       __ioinit                   100a0ea0 f   LIBCMTD:ioinit.obj
 0001:000a02b0       __ioterm                   100a12b0 f   LIBCMTD:ioinit.obj
 0001:000a0350       __setenvp                  100a1350 f   LIBCMTD:stdenvp.obj
 0001:000a04f0       __setargv                  100a14f0 f   LIBCMTD:stdargv.obj
 0001:000a0610       __set_pgmptr               100a1610 f i LIBCMTD:stdargv.obj
 0001:000a0980       ___crtGetEnvironmentStringsA 100a1980 f   LIBCMTD:a_env.obj
 0001:000a0a80       __RTC_Initialize           100a1a80 f   LIBCMTD:_initsect_.obj
 0001:000a0ab0       __RTC_Terminate            100a1ab0 f   LIBCMTD:_initsect_.obj
 0001:000a0ae0       __heap_init                100a1ae0 f   LIBCMTD:heapinit.obj
 0001:000a0b20       __heap_term                100a1b20 f   LIBCMTD:heapinit.obj
 0001:000a0b40       __get_heap_handle          100a1b40 f   LIBCMTD:heapinit.obj
 0001:000a0b80       __except_handler4          100a1b80 f   LIBCMTD:chandler4.obj
 0001:000a0da0       ___security_init_cookie    100a1da0 f   LIBCMTD:gs_support.obj
 0001:000a0e80       ___CppXcptFilter           100a1e80 f   LIBCMTD:winxfltr.obj
 0001:000a0eb0       __XcptFilter               100a1eb0 f   LIBCMTD:winxfltr.obj
 0001:000a1110       _DllMain@12                100a2110 f   LIBCMTD:dllmain.obj
 0001:000a1120       __global_unwind2           100a2120 f   LIBCMTD:exsup.obj
 0001:000a1185       __local_unwind2            100a2185 f   LIBCMTD:exsup.obj
 0001:000a1209       __abnormal_termination     100a2209 f   LIBCMTD:exsup.obj
 0001:000a122c       __NLG_Notify1              100a222c f   LIBCMTD:exsup.obj
 0001:000a1235       __NLG_Notify               100a2235 f   LIBCMTD:exsup.obj
 0001:000a124c       __NLG_Dispatch             100a224c     LIBCMTD:exsup.obj
 0001:000a124c       __NLG_Dispatch2            100a224c     LIBCMTD:exsup.obj
 0001:000a1254       __NLG_Call                 100a2254 f   LIBCMTD:exsup.obj
 0001:000a1256       __NLG_Return2              100a2256     LIBCMTD:exsup.obj
 0001:000a1260       __rt_probe_read4@4         100a2260 f   LIBCMTD:sehsupp.obj
 0001:000a1300       __vsnprintf_helper         100a2300 f   LIBCMTD:vsnprnc.obj
 0001:000a14f0       __vsnprintf_c              100a24f0 f   LIBCMTD:vsnprnc.obj
 0001:000a1540       __vsnprintf_c_l            100a2540 f   LIBCMTD:vsnprnc.obj
 0001:000a1590       __vsprintf_s_l             100a2590 f   LIBCMTD:vsnprnc.obj
 0001:000a1800       _vsprintf_s                100a2800 f   LIBCMTD:vsnprnc.obj
 0001:000a1830       __vsnprintf_s_l            100a2830 f   LIBCMTD:vsnprnc.obj
 0001:000a1bd0       __vsnprintf_s              100a2bd0 f   LIBCMTD:vsnprnc.obj
 0001:000a1c00       __vsprintf_p               100a2c00 f   LIBCMTD:vsnprnc.obj
 0001:000a1c50       __vsprintf_p_l             100a2c50 f   LIBCMTD:vsnprnc.obj
 0001:000a1ca0       _strtol                    100a2ca0 f   LIBCMTD:strtol.obj
 0001:000a21d0       __strtol_l                 100a31d0 f   LIBCMTD:strtol.obj
 0001:000a2200       _strtoul                   100a3200 f   LIBCMTD:strtol.obj
 0001:000a2250       __strtoul_l                100a3250 f   LIBCMTD:strtol.obj
 0001:000a2280       __strtoi64                 100a3280 f   LIBCMTD:strtoq.obj
 0001:000a27f0       __strtoi64_l               100a37f0 f   LIBCMTD:strtoq.obj
 0001:000a2820       __strtoui64                100a3820 f   LIBCMTD:strtoq.obj
 0001:000a2870       __strtoui64_l              100a3870 f   LIBCMTD:strtoq.obj
 0001:000a28a0       __validate_param_reuseA    100a38a0 f   LIBCMTD:outputp.obj
 0001:000a2b10       __output_p_l               100a3b10 f   LIBCMTD:outputp.obj
 0001:000a6720       _get_crtdouble_arg         100a7720 f i LIBCMTD:outputp.obj
 0001:000a6740       __stbuf                    100a7740 f   LIBCMTD:_sftbuf.obj
 0001:000a68a0       __ftbuf                    100a78a0 f   LIBCMTD:_sftbuf.obj
 0001:000a6930       __output_s_l               100a7930 f   LIBCMTD:outputs.obj
 0001:000a7f00       __onexit                   100a8f00 f   LIBCMTD:onexit.obj
 0001:000a80d0       _atexit                    100a90d0 f   LIBCMTD:onexit.obj
 0001:000a80f0       ___onexitinit              100a90f0 f   LIBCMTD:onexit.obj
 0001:000a8150       __ValidateImageBase        100a9150 f   LIBCMTD:pesect.obj
 0001:000a81b0       __FindPESection            100a91b0 f   LIBCMTD:pesect.obj
 0001:000a8230       __IsNonwritableInCurrentImage 100a9230 f   LIBCMTD:pesect.obj
 0001:000a8350       __FF_MSGBANNER             100a9350 f   LIBCMTD:crt0msg.obj
 0001:000a83a0       __GET_RTERRMSG             100a93a0 f   LIBCMTD:crt0msg.obj
 0001:000a83f0       __NMSG_WRITE               100a93f0 f   LIBCMTD:crt0msg.obj
 0001:000a8730       __mtinitlocks              100a9730 f   LIBCMTD:mlock.obj
 0001:000a87c0       __mtdeletelocks            100a97c0 f   LIBCMTD:mlock.obj
 0001:000a8880       __mtinitlocknum            100a9880 f   LIBCMTD:mlock.obj
 0001:000a89d0       __lock                     100a99d0 f   LIBCMTD:mlock.obj
 0001:000a8a10       __unlock                   100a9a10 f   LIBCMTD:mlock.obj
 0001:000a8a30       __lockerr_exit             100a9a30 f   LIBCMTD:mlock.obj
 0001:000a8a50       __initp_eh_hooks           100a9a50 f   LIBCMTD:hooks.obj
 0001:000a8a70       ?terminate@@YAXXZ          100a9a70 f   LIBCMTD:hooks.obj
 0001:000a8af0       ?unexpected@@YAXXZ         100a9af0 f   LIBCMTD:hooks.obj
 0001:000a8b20       ?_inconsistency@@YAXXZ     100a9b20 f   LIBCMTD:hooks.obj
 0001:000a8bb0       __initp_misc_rand_s        100a9bb0 f   LIBCMTD:rand_s.obj
 0001:000a8bc0       _rand_s                    100a9bc0 f   LIBCMTD:rand_s.obj
 0001:000a8de0       ___getlocaleinfo           100a9de0 f   LIBCMTD:inithelp.obj
 0001:000a90c0       __initp_misc_purevirt      100aa0c0 f   LIBCMTD:inithelp.obj
 0001:000a90d0       __initp_heap_handler       100aa0d0 f   LIBCMTD:handler.obj
 0001:000a90e0       ?_set_new_handler@@YAP6AHI@ZP6AHI@Z@Z 100aa0e0 f   LIBCMTD:handler.obj
 0001:000a9120       ?_set_new_handler@@YAP6AHI@ZH@Z 100aa120 f   LIBCMTD:handler.obj
 0001:000a9160       ?_query_new_handler@@YAP6AHI@ZXZ 100aa160 f   LIBCMTD:handler.obj
 0001:000a9180       __callnewh                 100aa180 f   LIBCMTD:handler.obj
 0001:000a91c0       _strnlen                   100aa1c0 f   LIBCMTD:strlen_s.obj
 0001:000a9200       __mbsnbicoll_l             100aa200 f   LIBCMTD:mbsnbico.obj
 0001:000a9440       __mbsnbicoll               100aa440 f   LIBCMTD:mbsnbico.obj
 0001:000a9460       ___wtomb_environ           100aa460 f   LIBCMTD:wtombenv.obj
 0001:000a9550       _strcpy_s                  100aa550 f   LIBCMTD:strcpy_s.obj
 0001:000a9830       __close                    100aa830 f   LIBCMTD:close.obj
 0001:000a9a40       __close_nolock             100aaa40 f   LIBCMTD:close.obj
 0001:000a9b10       __fileno                   100aab10 f   LIBCMTD:fileno.obj
 0001:000a9b90       __freebuf                  100aab90 f   LIBCMTD:_freebuf.obj
 0001:000a9c20       __lseek                    100aac20 f   LIBCMTD:lseek.obj
 0001:000a9e50       __lseek_nolock             100aae50 f   LIBCMTD:lseek.obj
 0001:000a9f30       __openfile                 100aaf30 f   LIBCMTD:_open.obj
 0001:000aa6f0       __getstream                100ab6f0 f   LIBCMTD:stream.obj
 0001:000aa950       __local_unwind4            100ab950 f   LIBCMTD:exsup4.obj
 0001:000aaa26       __seh_longjmp_unwind4@4    100aba26 f   LIBCMTD:exsup4.obj
 0001:000aaa42       @_EH4_CallFilterFunc@8     100aba42 f   LIBCMTD:exsup4.obj
 0001:000aaa59       @_EH4_TransferToHandler@8  100aba59 f   LIBCMTD:exsup4.obj
 0001:000aaa72       @_EH4_GlobalUnwind2@8      100aba72 f   LIBCMTD:exsup4.obj
 0001:000aaa8b       @_EH4_LocalUnwind@16       100aba8b f   LIBCMTD:exsup4.obj
 0001:000aaab0       __filbuf                   100abab0 f   LIBCMTD:_filbuf.obj
 0001:000aad00       __read                     100abd00 f   LIBCMTD:read.obj
 0001:000aaf90       __read_nolock              100abf90 f   LIBCMTD:read.obj
 0001:000abee0       _memcpy_s                  100acee0 f   LIBCMTD:memcpy_s.obj
 0001:000ac070       ?_RTC_GetSrcLine@@YAHPAEPA_WKPAH1K@Z 100ad070 f   LIBCMTD:_pdblkup_.obj
 0001:000ac6c0       __CrtSetReportHook2        100ad6c0 f   LIBCMTD:dbgrpt.obj
 0001:000ac9f0       __CrtDbgReport             100ad9f0 f   LIBCMTD:dbgrpt.obj
 0001:000aca30       __CrtDbgReportV            100ada30 f i LIBCMTD:dbgrpt.obj
 0001:000aca60       ___crtMessageWindowA       100ada60 f   LIBCMTD:dbgrpt.obj
 0001:000ace60       __aulldiv                  100ade60 f   LIBCMTD:ulldiv.obj
 0001:000aced0       __aullrem                  100aded0 f   LIBCMTD:ullrem.obj
 0001:000acf50       __commit                   100adf50 f   LIBCMTD:commit.obj
 0001:000ad170       __write                    100ae170 f   LIBCMTD:write.obj
 0001:000ad3a0       __write_nolock             100ae3a0 f   LIBCMTD:write.obj
 0001:000adee0       __woutput_l                100aeee0 f   LIBCMTD:woutput.obj
 0001:000af0e0       _vfwprintf_helper          100b00e0 f   LIBCMTD:vfwprint.obj
 0001:000af260       __vfwprintf_l              100b0260 f   LIBCMTD:vfwprint.obj
 0001:000af290       __vfwprintf_s_l            100b0290 f   LIBCMTD:vfwprint.obj
 0001:000af2c0       __vfwprintf_p_l            100b02c0 f   LIBCMTD:vfwprint.obj
 0001:000af2f0       _vfwprintf                 100b02f0 f   LIBCMTD:vfwprint.obj
 0001:000af320       _vfwprintf_s               100b0320 f   LIBCMTD:vfwprint.obj
 0001:000af350       __vfwprintf_p              100b0350 f   LIBCMTD:vfwprint.obj
 0001:000af380       __fcloseall                100b0380 f   LIBCMTD:closeall.obj
 0001:000af4b0       __CrtDefaultAllocHook      100b04b0 f   LIBCMTD:dbghook.obj
 0001:000af4c0       __crt_debugger_hook        100b04c0 f   LIBCMTD:dbghook.obj
 0001:000af4e0       __woutput_s_l              100b04e0 f   LIBCMTD:woutputs.obj
 0001:000b0830       __validate_param_reuseW    100b1830 f   LIBCMTD:woutputp.obj
 0001:000b0aa0       __woutput_p_l              100b1aa0 f   LIBCMTD:woutputp.obj
 0001:000b4230       __controlfp_s              100b5230 f   LIBCMTD:_contrlfp_.obj
 0001:000b4310       __atodbl_l                 100b5310 f   LIBCMTD:atodbl.obj
 0001:000b4420       __atodbl                   100b5420 f   LIBCMTD:atodbl.obj
 0001:000b4440       __atoldbl_l                100b5440 f   LIBCMTD:atodbl.obj
 0001:000b4550       __atoldbl                  100b5550 f   LIBCMTD:atodbl.obj
 0001:000b4570       __atoflt_l                 100b5570 f   LIBCMTD:atodbl.obj
 0001:000b4680       __atoflt                   100b5680 f   LIBCMTD:atodbl.obj
 0001:000b46a0       __fptostr                  100b56a0 f   LIBCMTD:_fptostr.obj
 0001:000b4950       __fltout2                  100b5950 f   LIBCMTD:_cfout_.obj
 0001:000b4a00       ___dtold                   100b5a00 f   LIBCMTD:_cfout_.obj
 0001:000b4b60       __set_output_format        100b5b60 f   LIBCMTD:outputformat.obj
 0001:000b4be0       __get_output_format        100b5be0 f   LIBCMTD:outputformat.obj
 0001:000b4bf0       __allrem                   100b5bf0 f   LIBCMTD:llrem.obj
 0001:000b4cb0       __alldiv                   100b5cb0 f   LIBCMTD:lldiv.obj
 0001:000b4d60       __allshl                   100b5d60 f   LIBCMTD:llshl.obj
 0001:000b4d80       __aullshr                  100b5d80 f   LIBCMTD:ullshr.obj
 0001:000b4da0       __fptrap                   100b5da0 f   LIBCMTD:crt0fp.obj
 0001:000b4dc0       __CrtDbgBreak              100b5dc0 f   LIBCMTD:dbgrptt.obj
 0001:000b4dd0       __CrtSetReportMode         100b5dd0 f   LIBCMTD:dbgrptt.obj
 0001:000b4f10       __CrtSetReportFile         100b5f10 f   LIBCMTD:dbgrptt.obj
 0001:000b5010       __CrtSetReportHook         100b6010 f   LIBCMTD:dbgrptt.obj
 0001:000b5030       __CrtGetReportHook         100b6030 f   LIBCMTD:dbgrptt.obj
 0001:000b5040       __VCrtDbgReportA           100b6040 f   LIBCMTD:dbgrptt.obj
 0001:000b5870       __VCrtDbgReportW           100b6870 f   LIBCMTD:dbgrptt.obj
 0001:000b61a0       __swprintf                 100b71a0 f   LIBCMTD:swprintf.obj
 0001:000b63a0       ___swprintf_l              100b73a0 f   LIBCMTD:swprintf.obj
 0001:000b63d0       _swprintf_s                100b73d0 f   LIBCMTD:swprintf.obj
 0001:000b6400       __snwprintf_s              100b7400 f   LIBCMTD:swprintf.obj
 0001:000b6430       __swprintf_p               100b7430 f   LIBCMTD:swprintf.obj
 0001:000b6460       __swprintf_s_l             100b7460 f   LIBCMTD:swprintf.obj
 0001:000b6490       __snwprintf_s_l            100b7490 f   LIBCMTD:swprintf.obj
 0001:000b64c0       __swprintf_p_l             100b74c0 f   LIBCMTD:swprintf.obj
 0001:000b64f0       __scwprintf                100b74f0 f   LIBCMTD:swprintf.obj
 0001:000b6510       __scwprintf_p              100b7510 f   LIBCMTD:swprintf.obj
 0001:000b6530       __scwprintf_l              100b7530 f   LIBCMTD:swprintf.obj
 0001:000b6560       __scwprintf_p_l            100b7560 f   LIBCMTD:swprintf.obj
 0001:000b6590       ?_JumpToContinuation@@YGXPAXPAUEHRegistrationNode@@@Z 100b7590 f   LIBCMTD:_trnsctrl_.obj
 0001:000b65d0       ?_CallMemberFunction0@@YGXPAX0@Z 100b75d0 f   LIBCMTD:_trnsctrl_.obj
 0001:000b65e0       ?_CallMemberFunction1@@YGXPAX00@Z 100b75e0 f   LIBCMTD:_trnsctrl_.obj
 0001:000b65f0       ?_CallMemberFunction2@@YGXPAX00H@Z 100b75f0 f   LIBCMTD:_trnsctrl_.obj
 0001:000b6600       ?_UnwindNestedFrames@@YGXPAUEHRegistrationNode@@PAUEHExceptionRecord@@@Z 100b7600 f   LIBCMTD:_trnsctrl_.obj
 0001:000b6660       ___CxxFrameHandler         100b7660 f   LIBCMTD:_trnsctrl_.obj
 0001:000b66a0       ___CxxFrameHandler3        100b76a0 f   LIBCMTD:_trnsctrl_.obj
 0001:000b66e0       ___CxxFrameHandler2        100b76e0 f   LIBCMTD:_trnsctrl_.obj
 0001:000b6720       ___CxxLongjmpUnwind@4      100b7720 f   LIBCMTD:_trnsctrl_.obj
 0001:000b6750       ?_CallCatchBlock2@@YAPAXPAUEHRegistrationNode@@PBU_s_FuncInfo@@PAXHK@Z 100b7750 f   LIBCMTD:_trnsctrl_.obj
 0001:000b6810       ?_CallSETranslator@@YAHPAUEHExceptionRecord@@PAUEHRegistrationNode@@PAX2PBU_s_FuncInfo@@H1@Z 100b7810 f   LIBCMTD:_trnsctrl_.obj
 0001:000b69b0       ?_GetRangeOfTrysToCheck@@YAPBU_s_TryBlockMapEntry@@PBU_s_FuncInfo@@HHPAI1@Z 100b79b0 f   LIBCMTD:_trnsctrl_.obj
 0001:000b6a30       __CreateFrameInfo          100b7a30 f   LIBCMTD:_trnsctrl_.obj
 0001:000b6a60       __IsExceptionObjectToBeDestroyed 100b7a60 f   LIBCMTD:_trnsctrl_.obj
 0001:000b6a90       __FindAndUnlinkFrame       100b7a90 f   LIBCMTD:_trnsctrl_.obj
 0001:000b6af0       ___crtGetStringTypeA       100b7af0 f   LIBCMTD:a_str.obj
 0001:000b6c60       ___init_time               100b7c60 f   LIBCMTD:inittime.obj
 0001:000b7990       ___free_lc_time            100b8990 f   LIBCMTD:inittime.obj
 0001:000b8000       ___init_numeric            100b9000 f   LIBCMTD:initnum.obj
 0001:000b83b0       ___free_lconv_num          100b93b0 f   LIBCMTD:initnum.obj
 0001:000b8460       ___init_monetary           100b9460 f   LIBCMTD:initmon.obj
 0001:000b8a50       ___free_lconv_mon          100b9a50 f   LIBCMTD:initmon.obj
 0001:000b8c00       _localeconv                100b9c00 f   LIBCMTD:lconv.obj
 0001:000b8c50       ___pwctype_func            100b9c50 f   LIBCMTD:ctype.obj
 0001:000b8c60       ___pctype_func             100b9c60 f   LIBCMTD:ctype.obj
 0001:000b8cb0       ___init_ctype              100b9cb0 f   LIBCMTD:initctyp.obj
 0001:000b9260       ____mb_cur_max_func        100ba260 f   LIBCMTD:initctyp.obj
 0001:000b92b0       ____mb_cur_max_l_func      100ba2b0 f   LIBCMTD:initctyp.obj
 0001:000b92e0       ____lc_codepage_func       100ba2e0 f   LIBCMTD:initctyp.obj
 0001:000b9330       ____lc_collate_cp_func     100ba330 f   LIBCMTD:initctyp.obj
 0001:000b9380       ____lc_handle_func         100ba380 f   LIBCMTD:initctyp.obj
 0001:000b93d0       ___init_collate            100ba3d0 f   LIBCMTD:initcoll.obj
 0001:000b93e0       _strncpy_s                 100ba3e0 f   LIBCMTD:strncpy_s.obj
 0001:000b97d0       _strcspn                   100ba7d0 f   LIBCMTD:strcspn.obj
 0001:000b9820       _strpbrk                   100ba820 f   LIBCMTD:strpbrk.obj
 0001:000b9860       _strcat_s                  100ba860 f   LIBCMTD:strcat_s.obj
 0001:000b9c40       ___get_qualified_locale    100bac40 f   LIBCMTD:getqloc.obj
 0001:000baaa0       __87except                 100bbaa0 f   LIBCMTD:_87except_.obj
 0001:000bac50       ___libm_setusermatherr     100bbc50 f   LIBCMTD:_libm_error_.obj
 0001:000bac90       ___libm_error_support      100bbc90 f   LIBCMTD:_libm_error_.obj
 0001:000bb7c0       __matherr                  100bc7c0 f   LIBCMTD:_matherr_.obj
 0001:000bb7d0       __mbtowc_l                 100bc7d0 f   LIBCMTD:mbtowc.obj
 0001:000bb9f0       _mbtowc                    100bc9f0 f   LIBCMTD:mbtowc.obj
 0001:000bba10       _ungetc                    100bca10 f   LIBCMTD:ungetc.obj
 0001:000bbb00       __ungetc_nolock            100bcb00 f   LIBCMTD:ungetc.obj
 0001:000bbd20       __lseeki64                 100bcd20 f   LIBCMTD:lseeki64.obj
 0001:000bbf70       __lseeki64_nolock          100bcf70 f   LIBCMTD:lseeki64.obj
 0001:000bc060       __getbuf                   100bd060 f   LIBCMTD:_getbuf.obj
 0001:000bc130       __isatty                   100bd130 f   LIBCMTD:isatty.obj
 0001:000bc1f0       _printf                    100bd1f0 f   LIBCMTD:printf.obj
 0001:000bc330       __printf_l                 100bd330 f   LIBCMTD:printf.obj
 0001:000bc360       __printf_s_l               100bd360 f   LIBCMTD:printf.obj
 0001:000bc390       _printf_s                  100bd390 f   LIBCMTD:printf.obj
 0001:000bc3c0       __printf_p_l               100bd3c0 f   LIBCMTD:printf.obj
 0001:000bc3f0       __printf_p                 100bd3f0 f   LIBCMTD:printf.obj
 0001:000bc420       __set_printf_count_output  100bd420 f   LIBCMTD:printf.obj
 0001:000bc470       __get_printf_count_output  100bd470 f   LIBCMTD:printf.obj
 0001:000bc490       __wctomb_s_l               100bd490 f   LIBCMTD:wctomb.obj
 0001:000bc790       _wctomb_s                  100bd790 f   LIBCMTD:wctomb.obj
 0001:000bc7c0       __wctomb_l                 100bd7c0 f   LIBCMTD:wctomb.obj
 0001:000bc840       _wctomb                    100bd840 f   LIBCMTD:wctomb.obj
 0001:000bc890       __iswctype_l               100bd890 f   LIBCMTD:iswctype.obj
 0001:000bc8b0       _iswctype                  100bd8b0 f   LIBCMTD:iswctype.obj
 0001:000bc910       _is_wctype                 100bd910 f   LIBCMTD:iswctype.obj
 0001:000bc930       __frnd                     100bd930 f   LIBCMTD:_frnd_.obj
 0001:000bc950       __copysign                 100bd950 f   LIBCMTD:_ieeemisc_.obj
 0001:000bc990       __chgsign                  100bd990 f   LIBCMTD:_ieeemisc_.obj
 0001:000bc9d0       __scalb                    100bd9d0 f   LIBCMTD:_ieeemisc_.obj
 0001:000bc9f0       __logb                     100bd9f0 f   LIBCMTD:_ieeemisc_.obj
 0001:000bcb30       __nextafter                100bdb30 f   LIBCMTD:_ieeemisc_.obj
 0001:000bce50       __finite                   100bde50 f   LIBCMTD:_ieeemisc_.obj
 0001:000bce70       __isnan                    100bde70 f   LIBCMTD:_ieeemisc_.obj
 0001:000bcec0       __fpclass                  100bdec0 f   LIBCMTD:_ieeemisc_.obj
 0001:000bcf90       __malloc_base              100bdf90 f   LIBCMTD:malloc.obj
 0001:000bd020       __heap_alloc_base          100be020 f i LIBCMTD:malloc.obj
 0001:000bd080       __expand_base              100be080 f   LIBCMTD:expand.obj
 0001:000bd1e0       __realloc_base             100be1e0 f   LIBCMTD:realloc.obj
 0001:000bd2e0       __free_base                100be2e0 f   LIBCMTD:free.obj
 0001:000bd330       __heapchk                  100be330 f   LIBCMTD:heapchk.obj
 0001:000bd360       __heapset                  100be360 f   LIBCMTD:heapchk.obj
 0001:000bd370       __ismbbkalnum_l            100be370 f   LIBCMTD:ismbbyte.obj
 0001:000bd390       __ismbbkalnum              100be390 f   LIBCMTD:ismbbyte.obj
 0001:000bd3b0       __ismbbkprint_l            100be3b0 f   LIBCMTD:ismbbyte.obj
 0001:000bd3d0       __ismbbkprint              100be3d0 f   LIBCMTD:ismbbyte.obj
 0001:000bd3f0       __ismbbkpunct_l            100be3f0 f   LIBCMTD:ismbbyte.obj
 0001:000bd410       __ismbbkpunct              100be410 f   LIBCMTD:ismbbyte.obj
 0001:000bd430       __ismbbalnum_l             100be430 f   LIBCMTD:ismbbyte.obj
 0001:000bd450       __ismbbalnum               100be450 f   LIBCMTD:ismbbyte.obj
 0001:000bd470       __ismbbalpha_l             100be470 f   LIBCMTD:ismbbyte.obj
 0001:000bd490       __ismbbalpha               100be490 f   LIBCMTD:ismbbyte.obj
 0001:000bd4b0       __ismbbgraph_l             100be4b0 f   LIBCMTD:ismbbyte.obj
 0001:000bd4d0       __ismbbgraph               100be4d0 f   LIBCMTD:ismbbyte.obj
 0001:000bd4f0       __ismbbprint_l             100be4f0 f   LIBCMTD:ismbbyte.obj
 0001:000bd510       __ismbbprint               100be510 f   LIBCMTD:ismbbyte.obj
 0001:000bd530       __ismbbpunct_l             100be530 f   LIBCMTD:ismbbyte.obj
 0001:000bd550       __ismbbpunct               100be550 f   LIBCMTD:ismbbyte.obj
 0001:000bd570       __ismbblead_l              100be570 f   LIBCMTD:ismbbyte.obj
 0001:000bd590       __ismbblead                100be590 f   LIBCMTD:ismbbyte.obj
 0001:000bd5b0       __ismbbtrail_l             100be5b0 f   LIBCMTD:ismbbyte.obj
 0001:000bd5d0       __ismbbtrail               100be5d0 f   LIBCMTD:ismbbyte.obj
 0001:000bd5f0       __ismbbkana_l              100be5f0 f   LIBCMTD:ismbbyte.obj
 0001:000bd660       __ismbbkana                100be660 f   LIBCMTD:ismbbyte.obj
 0001:000bd750       __allmul                   100be750 f   LIBCMTD:llmul.obj
 0001:000bd790       ___crtGetLocaleInfoA       100be790 f   LIBCMTD:a_loc.obj
 0001:000bd8f0       ___crtCompareStringA       100be8f0 f   LIBCMTD:a_cmp.obj
 0001:000bdd30       __strnicoll_l              100bed30 f   LIBCMTD:strnicol.obj
 0001:000bdf80       __strnicoll                100bef80 f   LIBCMTD:strnicol.obj
 0001:000bdfc0       ___crtsetenv               100befc0 f   LIBCMTD:setenv.obj
 0001:000be640       __alloc_osfhnd             100bf640 f   LIBCMTD:osfinfo.obj
 0001:000be8f0       __set_osfhnd               100bf8f0 f   LIBCMTD:osfinfo.obj
 0001:000be9c0       __free_osfhnd              100bf9c0 f   LIBCMTD:osfinfo.obj
 0001:000beab0       __get_osfhandle            100bfab0 f   LIBCMTD:osfinfo.obj
 0001:000bec20       __open_osfhandle           100bfc20 f   LIBCMTD:osfinfo.obj
 0001:000bee50       ___lock_fhandle            100bfe50 f   LIBCMTD:osfinfo.obj
 0001:000bef50       __unlock_fhandle           100bff50 f   LIBCMTD:osfinfo.obj
 0001:000bef80       __open                     100bff80 f   LIBCMTD:open.obj
 0001:000bf100       __sopen_helper             100c0100 f   LIBCMTD:open.obj
 0001:000c0360       __sopen                    100c1360 f   LIBCMTD:open.obj
 0001:000c03e0       __sopen_s                  100c13e0 f   LIBCMTD:open.obj
 0001:000c0410       __mbsnbicmp_l              100c1410 f   LIBCMTD:mbsnbicm.obj
 0001:000c08b0       __mbsnbicmp                100c18b0 f   LIBCMTD:mbsnbicm.obj
 0001:000c08d0       __mbsnbcmp_l               100c18d0 f   LIBCMTD:mbsnbcmp.obj
 0001:000c0bb0       __mbsnbcmp                 100c1bb0 f   LIBCMTD:mbsnbcmp.obj
 0001:000c0bd0       __wmakepath_s              100c1bd0 f   LIBCMTD:wmakepath_s.obj
 0001:000c0f80       __wsplitpath_s             100c1f80 f   LIBCMTD:wsplitpath_s.obj
 0001:000c15b0       ___crtMessageBoxA          100c25b0 f   LIBCMTD:crtmbox.obj
 0001:000c17d0       __putwch                   100c27d0 f   LIBCMTD:putwch.obj
 0001:000c1860       __putwch_nolock            100c2860 f   LIBCMTD:putwch.obj
 0001:000c18b0       _fputwc                    100c28b0 f   LIBCMTD:fputwc.obj
 0001:000c19b0       __fputwc_nolock            100c29b0 f   LIBCMTD:fputwc.obj
 0001:000c1ca0       _putwc                     100c2ca0 f   LIBCMTD:fputwc.obj
 0001:000c1cc0       _wcstol                    100c2cc0 f   LIBCMTD:wcstol.obj
 0001:000c2090       __wcstol_l                 100c3090 f   LIBCMTD:wcstol.obj
 0001:000c20b0       _wcstoul                   100c30b0 f   LIBCMTD:wcstol.obj
 0001:000c20d0       __wcstoul_l                100c30d0 f   LIBCMTD:wcstol.obj
 0001:000c20f0       __statusfp2                100c30f0 f   LIBCMTD:_ieee87_.obj
 0001:000c2130       __statusfp                 100c3130 f   LIBCMTD:_ieee87_.obj
 0001:000c2180       __clearfp                  100c3180 f   LIBCMTD:_ieee87_.obj
 0001:000c21d0       ___control87_2             100c31d0 f   LIBCMTD:_ieee87_.obj
 0001:000c2280       __controlfp                100c3280 f   LIBCMTD:_ieee87_.obj
 0001:000c22a0       __control87                100c32a0 f i LIBCMTD:_ieee87_.obj
 0001:000c2350       __set_controlfp            100c3350 f   LIBCMTD:_ieee87_.obj
 0001:000c23e0       __fpreset                  100c33e0 f   LIBCMTD:_ieee87_.obj
 0001:000c2ba0       __ld12tod                  100c3ba0 f   LIBCMTD:_intrncvt_.obj
 0001:000c2bc0       __ld12cvt                  100c3bc0 f i LIBCMTD:_intrncvt_.obj
 0001:000c2e20       __RoundMan                 100c3e20 f i LIBCMTD:_intrncvt_.obj
 0001:000c2f00       __ZeroTail                 100c3f00 f i LIBCMTD:_intrncvt_.obj
 0001:000c2f90       __IncMan                   100c3f90 f i LIBCMTD:_intrncvt_.obj
 0001:000c3040       ___addl                    100c4040 f i LIBCMTD:_intrncvt_.obj
 0001:000c3080       __CopyMan                  100c4080 f i LIBCMTD:_intrncvt_.obj
 0001:000c30d0       __FillZeroMan              100c40d0 f i LIBCMTD:_intrncvt_.obj
 0001:000c3110       __IsZeroMan                100c4110 f i LIBCMTD:_intrncvt_.obj
 0001:000c3150       __ShrMan                   100c4150 f i LIBCMTD:_intrncvt_.obj
 0001:000c3240       __ld12tof                  100c4240 f   LIBCMTD:_intrncvt_.obj
 0001:000c3260       __ld12told                 100c4260 f   LIBCMTD:_intrncvt_.obj
 0001:000c3330       ___strgtold12_l            100c4330 f   LIBCMTD:_strgtold_.obj
 0001:000c3de0       ___multtenpow12            100c4de0 f i LIBCMTD:_strgtold_.obj
 0001:000c3ec0       ___ld12mul                 100c4ec0 f i LIBCMTD:_strgtold_.obj
 0001:000c42c0       ___shl_12                  100c52c0 f i LIBCMTD:_strgtold_.obj
 0001:000c4330       ___shr_12                  100c5330 f i LIBCMTD:_strgtold_.obj
 0001:000c43a0       ___STRINGTOLD_L            100c53a0 f   LIBCMTD:_strgtold_.obj
 0001:000c4410       _$I10_OUTPUT               100c5410 f   LIBCMTD:_x10fout_.obj
 0001:000c49c0       ___add_12                  100c59c0 f i LIBCMTD:_x10fout_.obj
 0001:000c4a70       __mbstowcs_l_helper        100c5a70 f   LIBCMTD:mbstowcs.obj
 0001:000c4dc0       __mbstowcs_l               100c5dc0 f   LIBCMTD:mbstowcs.obj
 0001:000c4de0       _mbstowcs                  100c5de0 f   LIBCMTD:mbstowcs.obj
 0001:000c4e30       __mbstowcs_s_l             100c5e30 f   LIBCMTD:mbstowcs.obj
 0001:000c51b0       _mbstowcs_s                100c61b0 f   LIBCMTD:mbstowcs.obj
 0001:000c51e0       __itoa_s                   100c61e0 f   LIBCMTD:xtoas.obj
 0001:000c55b0       __ltoa_s                   100c65b0 f   LIBCMTD:xtoas.obj
 0001:000c55f0       __ultoa_s                  100c65f0 f   LIBCMTD:xtoas.obj
 0001:000c5610       __i64toa_s                 100c6610 f   LIBCMTD:xtoas.obj
 0001:000c5a10       __ui64toa_s                100c6a10 f   LIBCMTD:xtoas.obj
 0001:000c5a30       __wcstombs_l_helper        100c6a30 f   LIBCMTD:wcstombs.obj
 0001:000c5f70       __wcstombs_l               100c6f70 f   LIBCMTD:wcstombs.obj
 0001:000c5f90       _wcstombs                  100c6f90 f   LIBCMTD:wcstombs.obj
 0001:000c5fb0       __wcstombs_s_l             100c6fb0 f   LIBCMTD:wcstombs.obj
 0001:000c62e0       _wcstombs_s                100c72e0 f   LIBCMTD:wcstombs.obj
 0001:000c6310       __vswprintf_l              100c7310 f   LIBCMTD:vswprint.obj
 0001:000c6500       __vswprintf                100c7500 f   LIBCMTD:vswprint.obj
 0001:000c6520       ___vswprintf_l             100c7520 f   LIBCMTD:vswprint.obj
 0001:000c6540       __vscwprintf_helper        100c7540 f   LIBCMTD:vswprint.obj
 0001:000c6620       __vscwprintf               100c7620 f   LIBCMTD:vswprint.obj
 0001:000c6640       __vscwprintf_l             100c7640 f   LIBCMTD:vswprint.obj
 0001:000c6660       __vscwprintf_p             100c7660 f   LIBCMTD:vswprint.obj
 0001:000c6680       __vscwprintf_p_l           100c7680 f   LIBCMTD:vswprint.obj
 0001:000c66a0       ___InternalCxxFrameHandler 100c76a0 f   LIBCMTD:frame.obj
 0001:000c6ca0       ??0bad_exception@std@@QAE@PBD@Z 100c7ca0 f i LIBCMTD:frame.obj
 0001:000c6cd0       ??1bad_exception@std@@UAE@XZ 100c7cd0 f i LIBCMTD:frame.obj
 0001:000c6cf0       ??_Ebad_exception@std@@UAEPAXI@Z 100c7cf0 f i LIBCMTD:frame.obj
 0001:000c6cf0       ??_Gbad_exception@std@@UAEPAXI@Z 100c7cf0 f i LIBCMTD:frame.obj
 0001:000c6d20       ??0bad_exception@std@@QAE@ABV01@@Z 100c7d20 f i LIBCMTD:frame.obj
 0001:000c6ee0       ___TypeMatch               100c7ee0 f   LIBCMTD:frame.obj
 0001:000c6f90       ___FrameUnwindFilter       100c7f90 f   LIBCMTD:frame.obj
 0001:000c7010       ___FrameUnwindToState      100c8010 f   LIBCMTD:frame.obj
 0001:000c7550       ___BuildCatchObjectHelper  100c8550 f   LIBCMTD:frame.obj
 0001:000c77c0       ___BuildCatchObject        100c87c0 f   LIBCMTD:frame.obj
 0001:000c78d0       ___DestructExceptionObject 100c88d0 f   LIBCMTD:frame.obj
 0001:000c7980       ___AdjustPointer           100c8980 f   LIBCMTD:frame.obj
 0001:000c79d0       ?__uncaught_exception@@YA_NXZ 100c89d0 f   LIBCMTD:frame.obj
 0001:000c79f0       ___CxxExceptionFilter      100c89f0 f   LIBCMTD:frame.obj
 0001:000c7bf0       ___CxxRegisterExceptionObject 100c8bf0 f   LIBCMTD:frame.obj
 0001:000c7d20       ___CxxDetectRethrow        100c8d20 f   LIBCMTD:frame.obj
 0001:000c7db0       ___CxxUnregisterExceptionObject 100c8db0 f   LIBCMTD:frame.obj
 0001:000c7f30       ___CxxQueryExceptionSize   100c8f30 f   LIBCMTD:frame.obj
 0001:000c7f40       ___CxxCallUnwindDtor       100c8f40 f   LIBCMTD:frame.obj
 0001:000c7fc0       ___CxxCallUnwindDelDtor    100c8fc0 f   LIBCMTD:frame.obj
 0001:000c8040       ___CxxCallUnwindStdDelDtor 100c9040 f   LIBCMTD:frame.obj
 0001:000c80c0       ___CxxCallUnwindVecDtor    100c90c0 f   LIBCMTD:frame.obj
 0001:000c82f0       ?_is_exception_typeof@@YAHABVtype_info@@PAU_EXCEPTION_POINTERS@@@Z 100c92f0 f   LIBCMTD:frame.obj
 0001:000c83d0       __CallSettingFrame@12      100c93d0 f   LIBCMTD:lowhelpr.obj
 0001:000c83f7       __NLG_Return               100c93f7     LIBCMTD:lowhelpr.obj
 0001:000c8420       __strnicmp_l               100c9420 f   LIBCMTD:strnicmp.obj
 0001:000c8660       __strnicmp                 100c9660 f   LIBCMTD:strnicmp.obj
 0001:000c87f0       _ldexp                     100c97f0 f   LIBCMTD:_ldexp_.obj
 0001:000c8ab0       __mbschr_l                 100c9ab0 f   LIBCMTD:mbschr.obj
 0001:000c8c40       __mbschr                   100c9c40 f   LIBCMTD:mbschr.obj
 0001:000c8c60       __chsize_s                 100c9c60 f   LIBCMTD:chsize.obj
 0001:000c8f00       __chsize_nolock            100c9f00 f   LIBCMTD:chsize.obj
 0001:000c91a0       __chsize                   100ca1a0 f   LIBCMTD:chsize.obj
 0001:000c91d0       __setmode                  100ca1d0 f   LIBCMTD:setmode.obj
 0001:000c9460       __setmode_nolock           100ca460 f   LIBCMTD:setmode.obj
 0001:000c96d0       __set_fmode                100ca6d0 f   LIBCMTD:setmode.obj
 0001:000c9780       __get_fmode                100ca780 f   LIBCMTD:setmode.obj
 0001:000c9800       ___initconout              100ca800 f   LIBCMTD:initcon.obj
 0001:000c9830       ___termconout              100ca830 f   LIBCMTD:initcon.obj
 0001:000c9860       __flswbuf                  100ca860 f   LIBCMTD:_flswbuf.obj
 0001:000c9b40       __wchartodigit             100cab40 f   LIBCMTD:wchtodig.obj
 0001:000c9e70       ___mtold12                 100cae70 f   LIBCMTD:_mantold_.obj
 0001:000c9fd0       ?_ValidateRead@@YAHPBXI@Z  100cafd0 f   LIBCMTD:validate.obj
 0001:000ca000       ?_ValidateWrite@@YAHPAXI@Z 100cb000 f   LIBCMTD:validate.obj
 0001:000ca030       ?_ValidateExecute@@YAHP6GHXZ@Z 100cb030 f   LIBCMTD:validate.obj
 0001:000ca060       __CxxThrowException@8      100cb060 f   LIBCMTD:throw.obj
 0001:000ca0c0       ?name@type_info@@QBEPBDPAU__type_info_node@@@Z 100cb0c0 f   LIBCMTD:typinfo.obj
 0001:000ca0e0       ??1type_info@@UAE@XZ       100cb0e0 f   LIBCMTD:typinfo.obj
 0001:000ca110       ??_Gtype_info@@UAEPAXI@Z   100cb110 f i LIBCMTD:typinfo.obj
 0001:000ca110       ??_Etype_info@@UAEPAXI@Z   100cb110 f i LIBCMTD:typinfo.obj
 0001:000ca140       ?_name_internal_method@type_info@@QBEPBDPAU__type_info_node@@@Z 100cb140 f   LIBCMTD:typinfo.obj
 0001:000ca160       ?_type_info_dtor_internal_method@type_info@@QAEXXZ 100cb160 f   LIBCMTD:typinfo.obj
 0001:000ca180       ??8type_info@@QBE_NABV0@@Z 100cb180 f   LIBCMTD:typinfo.obj
 0001:000ca1b0       ??9type_info@@QBE_NABV0@@Z 100cb1b0 f   LIBCMTD:typinfo.obj
 0001:000ca1e0       ?before@type_info@@QBEHABV1@@Z 100cb1e0 f   LIBCMTD:typinfo.obj
 0001:000ca210       ?raw_name@type_info@@QBEPBDXZ 100cb210 f   LIBCMTD:typinfo.obj
 0001:000ca230       ??0type_info@@AAE@ABV0@@Z  100cb230 f   LIBCMTD:typinfo.obj
 0001:000ca250       ??4type_info@@AAEAAV0@ABV0@@Z 100cb250 f   LIBCMTD:typinfo.obj
 0001:000ca270       ??0exception@std@@QAE@XZ   100cb270 f   LIBCMTD:stdexcpt.obj
 0001:000ca2a0       ??_Gexception@std@@UAEPAXI@Z 100cb2a0 f i LIBCMTD:stdexcpt.obj
 0001:000ca2a0       ??_Eexception@std@@UAEPAXI@Z 100cb2a0 f i LIBCMTD:stdexcpt.obj
 0001:000ca2d0       ??0exception@std@@QAE@ABQBD@Z 100cb2d0 f   LIBCMTD:stdexcpt.obj
 0001:000ca310       ??0exception@std@@QAE@ABQBDH@Z 100cb310 f   LIBCMTD:stdexcpt.obj
 0001:000ca340       ??0exception@std@@QAE@ABV01@@Z 100cb340 f   LIBCMTD:stdexcpt.obj
 0001:000ca380       ??4exception@std@@QAEAAV01@ABV01@@Z 100cb380 f   LIBCMTD:stdexcpt.obj
 0001:000ca3d0       ??1exception@std@@UAE@XZ   100cb3d0 f   LIBCMTD:stdexcpt.obj
 0001:000ca3f0       ?what@exception@std@@UBEPBDXZ 100cb3f0 f   LIBCMTD:stdexcpt.obj
 0001:000ca420       ?_Copy_str@exception@std@@AAEXPBD@Z 100cb420 f   LIBCMTD:stdexcpt.obj
 0001:000ca490       ?_Tidy@exception@std@@AAEXXZ 100cb490 f   LIBCMTD:stdexcpt.obj
 0001:000ca4d0       ??0bad_cast@std@@QAE@PBD@Z 100cb4d0 f   LIBCMTD:stdexcpt.obj
 0001:000ca500       ??_Ebad_cast@std@@UAEPAXI@Z 100cb500 f i LIBCMTD:stdexcpt.obj
 0001:000ca500       ??_Gbad_cast@std@@UAEPAXI@Z 100cb500 f i LIBCMTD:stdexcpt.obj
 0001:000ca530       ??0bad_cast@std@@QAE@ABV01@@Z 100cb530 f   LIBCMTD:stdexcpt.obj
 0001:000ca560       ??1bad_cast@std@@UAE@XZ    100cb560 f   LIBCMTD:stdexcpt.obj
 0001:000ca580       ??0bad_typeid@std@@QAE@PBD@Z 100cb580 f   LIBCMTD:stdexcpt.obj
 0001:000ca5b0       ??_Ebad_typeid@std@@UAEPAXI@Z 100cb5b0 f i LIBCMTD:stdexcpt.obj
 0001:000ca5b0       ??_Gbad_typeid@std@@UAEPAXI@Z 100cb5b0 f i LIBCMTD:stdexcpt.obj
 0001:000ca5e0       ??0bad_typeid@std@@QAE@ABV01@@Z 100cb5e0 f   LIBCMTD:stdexcpt.obj
 0001:000ca610       ??1bad_typeid@std@@UAE@XZ  100cb610 f   LIBCMTD:stdexcpt.obj
 0001:000ca630       ??0__non_rtti_object@std@@QAE@PBD@Z 100cb630 f   LIBCMTD:stdexcpt.obj
 0001:000ca660       ??_E__non_rtti_object@std@@UAEPAXI@Z 100cb660 f i LIBCMTD:stdexcpt.obj
 0001:000ca660       ??_G__non_rtti_object@std@@UAEPAXI@Z 100cb660 f i LIBCMTD:stdexcpt.obj
 0001:000ca690       ??0__non_rtti_object@std@@QAE@ABV01@@Z 100cb690 f   LIBCMTD:stdexcpt.obj
 0001:000ca6c0       ??1__non_rtti_object@std@@UAE@XZ 100cb6c0 f   LIBCMTD:stdexcpt.obj
 0001:000ca6e0       ??3@YAXPAX@Z               100cb6e0 f   LIBCMTD:dbgdel.obj
 0001:000ca7d0       ___ascii_strnicmp          100cb7d0 f   LIBCMTD:_strnicm.obj
 0001:000ca840       ?_Type_info_dtor@type_info@@CAXPAV1@@Z 100cb840 f   LIBCMTD:typname.obj
 0001:000ca950       ?_Name_base@type_info@@CAPBDPBV1@PAU__type_info_node@@@Z 100cb950 f   LIBCMTD:typname.obj
 0001:000cab00       ?_Type_info_dtor_internal@type_info@@CAXPAV1@@Z 100cbb00 f   LIBCMTD:typname.obj
 0001:000cac10       ___unDNameHelper           100cbc10 f   LIBCMTD:typname.obj
 0001:000cac50       ?_Name_base_internal@type_info@@CAPBDPBV1@PAU__type_info_node@@@Z 100cbc50 f   LIBCMTD:typname.obj
 0001:000cae10       ___clean_type_info_names_internal 100cbe10 f   LIBCMTD:typname.obj
 0001:000caed0       ___unDName                 100cbed0 f   LIBCMTD:undname.obj
 0001:000cafb0       ?Constructor@_HeapManager@@QAEXP6APAXI@ZP6AXPAX@Z@Z 100cbfb0 f i LIBCMTD:undname.obj
 0001:000caff0       ?Destructor@_HeapManager@@QAEXXZ 100cbff0 f i LIBCMTD:undname.obj
 0001:000cb040       ___unDNameEx               100cc040 f   LIBCMTD:undname.obj
 0001:000cb120       ??0UnDecorator@@QAE@PADPBDHP6APADJ@ZK@Z 100cc120 f i LIBCMTD:undname.obj
 0001:000cb1c0       ??BUnDecorator@@QAEPADXZ   100cc1c0 f i LIBCMTD:undname.obj
 0001:000cb3f0       ?dbGetString@DName@@QBEPADXZ 100cc3f0 f   LIBCMTD:undname.obj
 0001:000cb420       ?getDecoratedName@UnDecorator@@CA?AVDName@@XZ 100cc420 f   LIBCMTD:undname.obj
 0001:000cb730       ?getSymbolName@UnDecorator@@CA?AVDName@@XZ 100cc730 f i LIBCMTD:undname.obj
 0001:000cb7b0       ?getZName@UnDecorator@@CA?AVDName@@_N0@Z 100cc7b0 f   LIBCMTD:undname.obj
 0001:000cba50       ?getOperatorName@UnDecorator@@CA?AVDName@@_NPA_N@Z 100cca50 f i LIBCMTD:undname.obj
 0001:000cc3c0       ?getStringEncoding@UnDecorator@@CA?AVDName@@PADH@Z 100cd3c0 f   LIBCMTD:undname.obj
 0001:000cc4c0       ?getScope@UnDecorator@@CA?AVDName@@XZ 100cd4c0 f   LIBCMTD:undname.obj
 0001:000cc8a0       ?getSignedDimension@UnDecorator@@CA?AVDName@@XZ 100cd8a0 f   LIBCMTD:undname.obj
 0001:000cc920       ?getDimension@UnDecorator@@CA?AVDName@@_N@Z 100cd920 f   LIBCMTD:undname.obj
 0001:000ccbd0       ?getNumberOfDimensions@UnDecorator@@CAHXZ 100cdbd0 f   LIBCMTD:undname.obj
 0001:000cccd0       ?getTemplateName@UnDecorator@@CA?AVDName@@_N@Z 100cdcd0 f   LIBCMTD:undname.obj
 0001:000cce90       ?getTemplateArgumentList@UnDecorator@@CA?AVDName@@XZ 100cde90 f   LIBCMTD:undname.obj
 0001:000cd110       ?getTemplateConstant@UnDecorator@@CA?AVDName@@XZ 100ce110 f   LIBCMTD:undname.obj
 0001:000cd5a0       ?composeDeclaration@UnDecorator@@CA?AVDName@@ABV2@@Z 100ce5a0 f i LIBCMTD:undname.obj
 0001:000ceba0       ?getTypeEncoding@UnDecorator@@CAHXZ 100cfba0 f i LIBCMTD:undname.obj
 0001:000cf5e0       ?getBasedType@UnDecorator@@CA?AVDName@@XZ 100d05e0 f   LIBCMTD:undname.obj
 0001:000cf6a0       ?getScopedName@UnDecorator@@CA?AVDName@@XZ 100d06a0 f   LIBCMTD:undname.obj
 0001:000cf7c0       ?getCallingConvention@UnDecorator@@CA?AVDName@@XZ 100d07c0 f   LIBCMTD:undname.obj
 0001:000cf940       ?getReturnType@UnDecorator@@CA?AVDName@@PAV2@@Z 100d0940 f   LIBCMTD:undname.obj
 0001:000cf990       ?getDataType@UnDecorator@@CA?AVDName@@PAV2@@Z 100d0990 f   LIBCMTD:undname.obj
 0001:000cfab0       ?getPrimaryDataType@UnDecorator@@CA?AVDName@@ABV2@@Z 100d0ab0 f   LIBCMTD:undname.obj
 0001:000cfe50       ?getArgumentTypes@UnDecorator@@CA?AVDName@@XZ 100d0e50 f   LIBCMTD:undname.obj
 0001:000cffb0       ?getArgumentList@UnDecorator@@CA?AVDName@@XZ 100d0fb0 f   LIBCMTD:undname.obj
 0001:000d0100       ?getThrowTypes@UnDecorator@@CA?AVDName@@XZ 100d1100 f   LIBCMTD:undname.obj
 0001:000d01b0       ?getBasicDataType@UnDecorator@@CA?AVDName@@ABV2@@Z 100d11b0 f   LIBCMTD:undname.obj
 0001:000d0770       ?getECSUDataType@UnDecorator@@CA?AVDName@@XZ 100d1770 f   LIBCMTD:undname.obj
 0001:000d0940       ?getECSUName@UnDecorator@@CA?AVDName@@XZ 100d1940 f i LIBCMTD:undname.obj
 0001:000d0960       ?getEnumType@UnDecorator@@CA?AVDName@@XZ 100d1960 f i LIBCMTD:undname.obj
 0001:000d0ab0       ?getFunctionIndirectType@UnDecorator@@CA?AVDName@@ABV2@@Z 100d1ab0 f   LIBCMTD:undname.obj
 0001:000d0ef0       ?getPtrRefType@UnDecorator@@CA?AVDName@@ABV2@0PBD@Z 100d1ef0 f   LIBCMTD:undname.obj
 0001:000d1050       ?getExtendedDataIndirectType@UnDecorator@@CA?AVDName@@AAPBDAA_NH@Z 100d2050 f   LIBCMTD:undname.obj
 0001:000d1270       ?getDataIndirectType@UnDecorator@@CA?AVDName@@ABV2@PBD0H@Z 100d2270 f   LIBCMTD:undname.obj
 0001:000d1970       ?getPtrRefDataType@UnDecorator@@CA?AVDName@@ABV2@H@Z 100d2970 f i LIBCMTD:undname.obj
 0001:000d1ab0       ?getArrayType@UnDecorator@@CA?AVDName@@ABV2@@Z 100d2ab0 f i LIBCMTD:undname.obj
 0001:000d1ce0       ?getLexicalFrame@UnDecorator@@CA?AVDName@@XZ 100d2ce0 f i LIBCMTD:undname.obj
 0001:000d1d20       ?getThisType@UnDecorator@@CA?AVDName@@XZ 100d2d20 f i LIBCMTD:undname.obj
 0001:000d1d60       ?getPointerType@UnDecorator@@CA?AVDName@@ABV2@0@Z 100d2d60 f i LIBCMTD:undname.obj
 0001:000d1d90       ?getPointerTypeArray@UnDecorator@@CA?AVDName@@ABV2@0@Z 100d2d90 f i LIBCMTD:undname.obj
 0001:000d1dc0       ?getReferenceType@UnDecorator@@CA?AVDName@@ABV2@0PBD@Z 100d2dc0 f i LIBCMTD:undname.obj
 0001:000d1df0       ?getDisplacement@UnDecorator@@CA?AVDName@@XZ 100d2df0 f i LIBCMTD:undname.obj
 0001:000d1e10       ?getCallIndex@UnDecorator@@CA?AVDName@@XZ 100d2e10 f i LIBCMTD:undname.obj
 0001:000d1e30       ?getGuardNumber@UnDecorator@@CA?AVDName@@XZ 100d2e30 f i LIBCMTD:undname.obj
 0001:000d1e50       ?getVbTableType@UnDecorator@@CA?AVDName@@ABV2@@Z 100d2e50 f i LIBCMTD:undname.obj
 0001:000d1e70       ?getVCallThunkType@UnDecorator@@CA?AVDName@@XZ 100d2e70 f i LIBCMTD:undname.obj
 0001:000d1ed0       ?getVfTableType@UnDecorator@@CA?AVDName@@ABV2@@Z 100d2ed0 f i LIBCMTD:undname.obj
 0001:000d2090       ?getStorageConvention@UnDecorator@@CA?AVDName@@XZ 100d3090 f i LIBCMTD:undname.obj
 0001:000d20b0       ?getDataIndirectType@UnDecorator@@CA?AVDName@@XZ 100d30b0 f i LIBCMTD:undname.obj
 0001:000d20f0       ?getVdispMapType@UnDecorator@@CA?AVDName@@ABV2@@Z 100d30f0 f i LIBCMTD:undname.obj
 0001:000d2160       ?getExternalDataType@UnDecorator@@CA?AVDName@@ABV2@@Z 100d3160 f i LIBCMTD:undname.obj
 0001:000d21f0       ?doMSKeywords@UnDecorator@@SAHXZ 100d31f0 f i LIBCMTD:undname.obj
 0001:000d2210       ?doPtr64@UnDecorator@@SAHXZ 100d3210 f i LIBCMTD:undname.obj
 0001:000d2230       ?doFunctionReturns@UnDecorator@@SAHXZ 100d3230 f i LIBCMTD:undname.obj
 0001:000d2250       ?doAllocationModel@UnDecorator@@SAHXZ 100d3250 f i LIBCMTD:undname.obj
 0001:000d2270       ?doAllocationLanguage@UnDecorator@@SAHXZ 100d3270 f i LIBCMTD:undname.obj
 0001:000d2290       ?doThisTypes@UnDecorator@@SAHXZ 100d3290 f i LIBCMTD:undname.obj
 0001:000d22b0       ?doAccessSpecifiers@UnDecorator@@SAHXZ 100d32b0 f i LIBCMTD:undname.obj
 0001:000d22d0       ?doThrowTypes@UnDecorator@@SAHXZ 100d32d0 f i LIBCMTD:undname.obj
 0001:000d22f0       ?doMemberTypes@UnDecorator@@SAHXZ 100d32f0 f i LIBCMTD:undname.obj
 0001:000d2310       ?doNameOnly@UnDecorator@@SAHXZ 100d3310 f i LIBCMTD:undname.obj
 0001:000d2330       ?doTypeOnly@UnDecorator@@SAHXZ 100d3330 f i LIBCMTD:undname.obj
 0001:000d2350       ?haveTemplateParameters@UnDecorator@@SAHXZ 100d3350 f i LIBCMTD:undname.obj
 0001:000d2370       ?doEcsu@UnDecorator@@SAHXZ 100d3370 f i LIBCMTD:undname.obj
 0001:000d2390       ?doEllipsis@UnDecorator@@SAHXZ 100d3390 f i LIBCMTD:undname.obj
 0001:000d23b0       ?UScore@UnDecorator@@SAPBDW4Tokens@@@Z 100d33b0 f   LIBCMTD:undname.obj
 0001:000d23e0       ?doUnderScore@UnDecorator@@SAHXZ 100d33e0 f i LIBCMTD:undname.obj
 0001:000d2400       ??2@YAPAXIAAV_HeapManager@@H@Z 100d3400 f i LIBCMTD:undname.obj
 0001:000d2420       ?getMemory@_HeapManager@@QAEPAXIH@Z 100d3420 f   LIBCMTD:undname.obj
 0001:000d2530       ??0Block@_HeapManager@@QAE@XZ 100d3530 f i LIBCMTD:undname.obj
 0001:000d2550       ??H@YA?AVDName@@DABV0@@Z   100d3550 f i LIBCMTD:undname.obj
 0001:000d2580       ??H@YA?AVDName@@W4DNameStatus@@ABV0@@Z 100d3580 f i LIBCMTD:undname.obj
 0001:000d25b0       ??H@YA?AVDName@@PBDABV0@@Z 100d35b0 f i LIBCMTD:undname.obj
 0001:000d25e0       ??0DName@@QAE@XZ           100d35e0 f i LIBCMTD:undname.obj
 0001:000d26a0       ??0DName@@QAE@D@Z          100d36a0 f   LIBCMTD:undname.obj
 0001:000d2780       ??0DName@@QAE@ABV0@@Z      100d3780 f i LIBCMTD:undname.obj
 0001:000d27b0       ??0DName@@QAE@PAV0@@Z      100d37b0 f   LIBCMTD:undname.obj
 0001:000d28e0       ??0DName@@QAE@PBD@Z        100d38e0 f   LIBCMTD:undname.obj
 0001:000d29d0       ??0DName@@QAE@AAPBDD@Z     100d39d0 f   LIBCMTD:undname.obj
 0001:000d2c90       ?doNoIdentCharCheck@UnDecorator@@SAHXZ 100d3c90 f i LIBCMTD:undname.obj
 0001:000d2cb0       ??0DName@@QAE@_K@Z         100d3cb0 f   LIBCMTD:undname.obj
 0001:000d2df0       ??0DName@@QAE@_J@Z         100d3df0 f   LIBCMTD:undname.obj
 0001:000d2f70       ??0DName@@QAE@W4DNameStatus@@@Z 100d3f70 f   LIBCMTD:undname.obj
 0001:000d3090       ?isValid@DName@@QBEHXZ     100d4090 f i LIBCMTD:undname.obj
 0001:000d30c0       ?isEmpty@DName@@QBEHXZ     100d40c0 f i LIBCMTD:undname.obj
 0001:000d30e0       ?status@DName@@QBE?AW4DNameStatus@@XZ 100d40e0 f i LIBCMTD:undname.obj
 0001:000d3100       ?setPtrRef@DName@@QAEAAV1@XZ 100d4100 f i LIBCMTD:undname.obj
 0001:000d3130       ?isPtrRef@DName@@QBEHXZ    100d4130 f i LIBCMTD:undname.obj
 0001:000d3150       ?isUDC@DName@@QBEHXZ       100d4150 f i LIBCMTD:undname.obj
 0001:000d3190       ?setIsUDC@DName@@QAEXXZ    100d4190 f i LIBCMTD:undname.obj
 0001:000d31c0       ?isUDTThunk@DName@@QBEHXZ  100d41c0 f i LIBCMTD:undname.obj
 0001:000d3200       ?setIsArray@DName@@QAEXXZ  100d4200 f i LIBCMTD:undname.obj
 0001:000d3220       ?isArray@DName@@QBEHXZ     100d4220 f i LIBCMTD:undname.obj
 0001:000d3240       ?isNoTE@DName@@QBEHXZ      100d4240 f i LIBCMTD:undname.obj
 0001:000d3260       ?setIsNoTE@DName@@QAEXXZ   100d4260 f i LIBCMTD:undname.obj
 0001:000d3280       ?isPinPtr@DName@@QBEHXZ    100d4280 f i LIBCMTD:undname.obj
 0001:000d32a0       ?setIsPinPtr@DName@@QAEXXZ 100d42a0 f i LIBCMTD:undname.obj
 0001:000d32c0       ?isComArray@DName@@QBEHXZ  100d42c0 f i LIBCMTD:undname.obj
 0001:000d32e0       ?setIsComArray@DName@@QAEXXZ 100d42e0 f i LIBCMTD:undname.obj
 0001:000d3300       ?isVCallThunk@DName@@QBEHXZ 100d4300 f i LIBCMTD:undname.obj
 0001:000d3320       ?setIsVCallThunk@DName@@QAEXXZ 100d4320 f i LIBCMTD:undname.obj
 0001:000d3340       ?length@DName@@QBEHXZ      100d4340 f i LIBCMTD:undname.obj
 0001:000d3370       ?getLastChar@DName@@QBEDXZ 100d4370 f i LIBCMTD:undname.obj
 0001:000d33a0       ?getString@DName@@QBEPADPADH@Z 100d43a0 f i LIBCMTD:undname.obj
 0001:000d3430       ?getString@DName@@QBEPADPAD0@Z 100d4430 f i LIBCMTD:undname.obj
 0001:000d3470       ??HDName@@QBE?AV0@D@Z      100d4470 f   LIBCMTD:undname.obj
 0001:000d34b0       ??HDName@@QBE?AV0@PBD@Z    100d44b0 f   LIBCMTD:undname.obj
 0001:000d34f0       ??HDName@@QBE?AV0@ABV0@@Z  100d44f0 f   LIBCMTD:undname.obj
 0001:000d3530       ??HDName@@QBE?AV0@PAV0@@Z  100d4530 f   LIBCMTD:undname.obj
 0001:000d3570       ??HDName@@QBE?AV0@W4DNameStatus@@@Z 100d4570 f   LIBCMTD:undname.obj
 0001:000d35b0       ?append@DName@@AAEXPAVDNameNode@@@Z 100d45b0 f   LIBCMTD:undname.obj
 0001:000d3640       ??YDName@@QAEAAV0@D@Z      100d4640 f   LIBCMTD:undname.obj
 0001:000d36d0       ??YDName@@QAEAAV0@PBD@Z    100d46d0 f   LIBCMTD:undname.obj
 0001:000d3770       ??YDName@@QAEAAV0@ABV0@@Z  100d4770 f   LIBCMTD:undname.obj
 0001:000d37e0       ??YDName@@QAEAAV0@PAV0@@Z  100d47e0 f   LIBCMTD:undname.obj
 0001:000d38a0       ??YDName@@QAEAAV0@W4DNameStatus@@@Z 100d48a0 f   LIBCMTD:undname.obj
 0001:000d3910       ??_5DName@@QAEAAV0@ABV0@@Z 100d4910 f   LIBCMTD:undname.obj
 0001:000d3970       ??4DName@@QAEAAV0@D@Z      100d4970 f i LIBCMTD:undname.obj
 0001:000d3a50       ??4DName@@QAEAAV0@PBD@Z    100d4a50 f   LIBCMTD:undname.obj
 0001:000d3b30       ??4DName@@QAEAAV0@ABV0@@Z  100d4b30 f   LIBCMTD:undname.obj
 0001:000d3b60       ??4DName@@QAEAAV0@PAV0@@Z  100d4b60 f   LIBCMTD:undname.obj
 0001:000d3ca0       ??4DName@@QAEAAV0@W4DNameStatus@@@Z 100d4ca0 f   LIBCMTD:undname.obj
 0001:000d3da0       ?doPchar@DName@@AAEXPBDH@Z 100d4da0 f   LIBCMTD:undname.obj
 0001:000d3ee0       ?isFull@Replicator@@QBEHXZ 100d4ee0 f i LIBCMTD:undname.obj
 0001:000d3f00       ??0Replicator@@QAE@XZ      100d4f00 f i LIBCMTD:undname.obj
 0001:000d3f20       ??YReplicator@@QAEAAV0@ABVDName@@@Z 100d4f20 f   LIBCMTD:undname.obj
 0001:000d3fb0       ??AReplicator@@QBE?AVDName@@H@Z 100d4fb0 f   LIBCMTD:undname.obj
 0001:000d4020       ??0DNameNode@@IAE@XZ       100d5020 f   LIBCMTD:undname.obj
 0001:000d4040       ??0charNode@@QAE@D@Z       100d5040 f   LIBCMTD:undname.obj
 0001:000d4070       ?length@charNode@@UBEHXZ   100d5070 f i LIBCMTD:undname.obj
 0001:000d4090       ?getLastChar@charNode@@UBEDXZ 100d5090 f i LIBCMTD:undname.obj
 0001:000d40b0       ?getString@charNode@@UBEPADPAD0@Z 100d50b0 f i LIBCMTD:undname.obj
 0001:000d40e0       ??0pcharNode@@QAE@PBDH@Z   100d50e0 f   LIBCMTD:undname.obj
 0001:000d4170       ?length@pcharNode@@UBEHXZ  100d5170 f i LIBCMTD:undname.obj
 0001:000d4190       ?getLastChar@pcharNode@@UBEDXZ 100d5190 f i LIBCMTD:undname.obj
 0001:000d41d0       ?getString@pcharNode@@UBEPADPAD0@Z 100d51d0 f i LIBCMTD:undname.obj
 0001:000d4200       ?getStringHelper@@YAPADPAD00H@Z 100d5200 f i LIBCMTD:undname.obj
 0001:000d4240       ??0pDNameNode@@QAE@PAVDName@@@Z 100d5240 f   LIBCMTD:undname.obj
 0001:000d42a0       ?length@pDNameNode@@UBEHXZ 100d52a0 f i LIBCMTD:undname.obj
 0001:000d42e0       ?getLastChar@pDNameNode@@UBEDXZ 100d52e0 f i LIBCMTD:undname.obj
 0001:000d4310       ?getString@pDNameNode@@UBEPADPAD0@Z 100d5310 f i LIBCMTD:undname.obj
 0001:000d4350       ??0DNameStatusNode@@AAE@W4DNameStatus@@@Z 100d5350 f   LIBCMTD:undname.obj
 0001:000d43a0       ?length@DNameStatusNode@@UBEHXZ 100d53a0 f i LIBCMTD:undname.obj
 0001:000d43c0       ?getLastChar@DNameStatusNode@@UBEDXZ 100d53c0 f i LIBCMTD:undname.obj
 0001:000d43e0       ?getString@DNameStatusNode@@UBEPADPAD0@Z 100d53e0 f i LIBCMTD:undname.obj
 0001:000d4420       ?make@DNameStatusNode@@SAPAV1@W4DNameStatus@@@Z 100d5420 f i LIBCMTD:undname.obj
 0001:000d44d0       ??0pairNode@@QAE@PAVDNameNode@@0@Z 100d54d0 f   LIBCMTD:undname.obj
 0001:000d4510       ?length@pairNode@@UBEHXZ   100d5510 f i LIBCMTD:undname.obj
 0001:000d4560       ?getLastChar@pairNode@@UBEDXZ 100d5560 f i LIBCMTD:undname.obj
 0001:000d45b0       ?getString@pairNode@@UBEPADPAD0@Z 100d55b0 f i LIBCMTD:undname.obj
 0001:000d46f0       __purecall                 100d56f0 f   LIBCMTD:purevirt.obj
 0001:000d4730       __set_purecall_handler     100d5730 f   LIBCMTD:purevirt.obj
 0001:000d4770       __get_purecall_handler     100d5770 f   LIBCMTD:purevirt.obj
 0001:000d4784       _GetModuleFileNameW@12     100d5784 f   kernel32:KERNEL32.dll
 0001:000d478a       _WriteConsoleW@20          100d578a f   kernel32:KERNEL32.dll
 0001:000d4790       _GetFileType@4             100d5790 f   kernel32:KERNEL32.dll
 0001:000d4796       _GetStdHandle@4            100d5796 f   kernel32:KERNEL32.dll
 0001:000d479c       _GetCurrentThreadId@0      100d579c f   kernel32:KERNEL32.dll
 0001:000d47a2       _DecodePointer@4           100d57a2 f   kernel32:KERNEL32.dll
 0001:000d47a8       _GetCommandLineA@0         100d57a8 f   kernel32:KERNEL32.dll
 0001:000d47ae       _RtlUnwind@16              100d57ae f   kernel32:KERNEL32.dll
 0001:000d47b4       _InterlockedIncrement@4    100d57b4 f   kernel32:KERNEL32.dll
 0001:000d47ba       _InterlockedDecrement@4    100d57ba f   kernel32:KERNEL32.dll
 0001:000d47c0       _GetProcAddress@8          100d57c0 f   kernel32:KERNEL32.dll
 0001:000d47c6       _GetModuleHandleW@4        100d57c6 f   kernel32:KERNEL32.dll
 0001:000d47cc       _ExitProcess@4             100d57cc f   kernel32:KERNEL32.dll
 0001:000d47d2       _WideCharToMultiByte@32    100d57d2 f   kernel32:KERNEL32.dll
 0001:000d47d8       _IsDebuggerPresent@0       100d57d8 f   kernel32:KERNEL32.dll
 0001:000d47de       _MultiByteToWideChar@24    100d57de f   kernel32:KERNEL32.dll
 0001:000d47e4       _RaiseException@16         100d57e4 f   kernel32:KERNEL32.dll
 0001:000d47ea       _lstrlenA@4                100d57ea f   kernel32:KERNEL32.dll
 0001:000d47f0       _LoadLibraryW@4            100d57f0 f   kernel32:KERNEL32.dll
 0001:000d47f6       _EncodePointer@4           100d57f6 f   kernel32:KERNEL32.dll
 0001:000d47fc       _GetLastError@0            100d57fc f   kernel32:KERNEL32.dll
 0001:000d4802       _SetConsoleCtrlHandler@8   100d5802 f   kernel32:KERNEL32.dll
 0001:000d4808       _EnterCriticalSection@4    100d5808 f   kernel32:KERNEL32.dll
 0001:000d480e       _LeaveCriticalSection@4    100d580e f   kernel32:KERNEL32.dll
 0001:000d4814       _TerminateProcess@8        100d5814 f   kernel32:KERNEL32.dll
 0001:000d481a       _GetCurrentProcess@0       100d581a f   kernel32:KERNEL32.dll
 0001:000d4820       _UnhandledExceptionFilter@4 100d5820 f   kernel32:KERNEL32.dll
 0001:000d4826       _SetUnhandledExceptionFilter@4 100d5826 f   kernel32:KERNEL32.dll
 0001:000d482c       _IsProcessorFeaturePresent@4 100d582c f   kernel32:KERNEL32.dll
 0001:000d4832       _GetACP@0                  100d5832 f   kernel32:KERNEL32.dll
 0001:000d4838       _GetOEMCP@0                100d5838 f   kernel32:KERNEL32.dll
 0001:000d483e       _GetCPInfo@8               100d583e f   kernel32:KERNEL32.dll
 0001:000d4844       _IsValidCodePage@4         100d5844 f   kernel32:KERNEL32.dll
 0001:000d484a       _TlsAlloc@0                100d584a f   kernel32:KERNEL32.dll
 0001:000d4850       _TlsGetValue@4             100d5850 f   kernel32:KERNEL32.dll
 0001:000d4856       _TlsSetValue@8             100d5856 f   kernel32:KERNEL32.dll
 0001:000d485c       _TlsFree@4                 100d585c f   kernel32:KERNEL32.dll
 0001:000d4862       _SetLastError@4            100d5862 f   kernel32:KERNEL32.dll
 0001:000d4868       _GetCurrentThread@0        100d5868 f   kernel32:KERNEL32.dll
 0001:000d486e       _LCMapStringW@24           100d586e f   kernel32:KERNEL32.dll
 0001:000d4874       _HeapValidate@12           100d5874 f   kernel32:KERNEL32.dll
 0001:000d487a       _IsBadReadPtr@8            100d587a f   kernel32:KERNEL32.dll
 0001:000d4880       _SetHandleCount@4          100d5880 f   kernel32:KERNEL32.dll
 0001:000d4886       _InitializeCriticalSectionAndSpinCount@8 100d5886 f   kernel32:KERNEL32.dll
 0001:000d488c       _GetStartupInfoW@4         100d588c f   kernel32:KERNEL32.dll
 0001:000d4892       _DeleteCriticalSection@4   100d5892 f   kernel32:KERNEL32.dll
 0001:000d4898       _GetModuleFileNameA@12     100d5898 f   kernel32:KERNEL32.dll
 0001:000d489e       _FreeEnvironmentStringsW@4 100d589e f   kernel32:KERNEL32.dll
 0001:000d48a4       _GetEnvironmentStringsW@0  100d58a4 f   kernel32:KERNEL32.dll
 0001:000d48aa       _HeapCreate@12             100d58aa f   kernel32:KERNEL32.dll
 0001:000d48b0       _HeapDestroy@4             100d58b0 f   kernel32:KERNEL32.dll
 0001:000d48b6       _QueryPerformanceCounter@4 100d58b6 f   kernel32:KERNEL32.dll
 0001:000d48bc       _GetTickCount@0            100d58bc f   kernel32:KERNEL32.dll
 0001:000d48c2       _GetCurrentProcessId@0     100d58c2 f   kernel32:KERNEL32.dll
 0001:000d48c8       _GetSystemTimeAsFileTime@4 100d58c8 f   kernel32:KERNEL32.dll
 0001:000d48ce       _WriteFile@20              100d58ce f   kernel32:KERNEL32.dll
 0001:000d48d4       _FatalAppExitA@8           100d58d4 f   kernel32:KERNEL32.dll
 0001:000d48da       _FreeLibrary@4             100d58da f   kernel32:KERNEL32.dll
 0001:000d48e0       _InterlockedExchange@8     100d58e0 f   kernel32:KERNEL32.dll
 0001:000d48e6       _GetLocaleInfoW@16         100d58e6 f   kernel32:KERNEL32.dll
 0001:000d48ec       _CloseHandle@4             100d58ec f   kernel32:KERNEL32.dll
 0001:000d48f2       _SetFilePointer@16         100d58f2 f   kernel32:KERNEL32.dll
 0001:000d48f8       _ReadFile@20               100d58f8 f   kernel32:KERNEL32.dll
 0001:000d48fe       _HeapFree@12               100d58fe f   kernel32:KERNEL32.dll
 0001:000d4904       _HeapAlloc@12              100d5904 f   kernel32:KERNEL32.dll
 0001:000d490a       _GetProcessHeap@0          100d590a f   kernel32:KERNEL32.dll
 0001:000d4910       _VirtualQuery@12           100d5910 f   kernel32:KERNEL32.dll
 0001:000d4916       _FlushFileBuffers@4        100d5916 f   kernel32:KERNEL32.dll
 0001:000d491c       _GetConsoleCP@0            100d591c f   kernel32:KERNEL32.dll
 0001:000d4922       _GetConsoleMode@8          100d5922 f   kernel32:KERNEL32.dll
 0001:000d4928       _OutputDebugStringW@4      100d5928 f   kernel32:KERNEL32.dll
 0001:000d492e       _GetStringTypeW@16         100d592e f   kernel32:KERNEL32.dll
 0001:000d4934       _GetLocaleInfoA@16         100d5934 f   kernel32:KERNEL32.dll
 0001:000d493a       _IsValidLocale@8           100d593a f   kernel32:KERNEL32.dll
 0001:000d4940       _EnumSystemLocalesA@8      100d5940 f   kernel32:KERNEL32.dll
 0001:000d4946       _GetUserDefaultLCID@0      100d5946 f   kernel32:KERNEL32.dll
 0001:000d494c       _HeapReAlloc@16            100d594c f   kernel32:KERNEL32.dll
 0001:000d4952       _HeapSize@12               100d5952 f   kernel32:KERNEL32.dll
 0001:000d4958       _HeapQueryInformation@20   100d5958 f   kernel32:KERNEL32.dll
 0001:000d495e       _CompareStringW@24         100d595e f   kernel32:KERNEL32.dll
 0001:000d4964       _SetEnvironmentVariableA@8 100d5964 f   kernel32:KERNEL32.dll
 0001:000d496a       _SetStdHandle@8            100d596a f   kernel32:KERNEL32.dll
 0001:000d4970       _CreateFileA@28            100d5970 f   kernel32:KERNEL32.dll
 0001:000d4976       _SetEndOfFile@4            100d5976 f   kernel32:KERNEL32.dll
 0001:000d497c       _CreateFileW@28            100d597c f   kernel32:KERNEL32.dll
 0002:00000000       __imp__OutputDebugStringA@4 100d6000     kernel32:KERNEL32.dll
 0002:00000004       __imp__GetModuleFileNameW@12 100d6004     kernel32:KERNEL32.dll
 0002:00000008       __imp__WriteConsoleW@20    100d6008     kernel32:KERNEL32.dll
 0002:0000000c       __imp__GetFileType@4       100d600c     kernel32:KERNEL32.dll
 0002:00000010       __imp__GetStdHandle@4      100d6010     kernel32:KERNEL32.dll
 0002:00000014       __imp__GetCurrentThreadId@0 100d6014     kernel32:KERNEL32.dll
 0002:00000018       __imp__DecodePointer@4     100d6018     kernel32:KERNEL32.dll
 0002:0000001c       __imp__GetCommandLineA@0   100d601c     kernel32:KERNEL32.dll
 0002:00000020       __imp__RtlUnwind@16        100d6020     kernel32:KERNEL32.dll
 0002:00000024       __imp__InterlockedIncrement@4 100d6024     kernel32:KERNEL32.dll
 0002:00000028       __imp__InterlockedDecrement@4 100d6028     kernel32:KERNEL32.dll
 0002:0000002c       __imp__GetProcAddress@8    100d602c     kernel32:KERNEL32.dll
 0002:00000030       __imp__GetModuleHandleW@4  100d6030     kernel32:KERNEL32.dll
 0002:00000034       __imp__ExitProcess@4       100d6034     kernel32:KERNEL32.dll
 0002:00000038       __imp__WideCharToMultiByte@32 100d6038     kernel32:KERNEL32.dll
 0002:0000003c       __imp__IsDebuggerPresent@0 100d603c     kernel32:KERNEL32.dll
 0002:00000040       __imp__MultiByteToWideChar@24 100d6040     kernel32:KERNEL32.dll
 0002:00000044       __imp__RaiseException@16   100d6044     kernel32:KERNEL32.dll
 0002:00000048       __imp__lstrlenA@4          100d6048     kernel32:KERNEL32.dll
 0002:0000004c       __imp__LoadLibraryW@4      100d604c     kernel32:KERNEL32.dll
 0002:00000050       __imp__EncodePointer@4     100d6050     kernel32:KERNEL32.dll
 0002:00000054       __imp__GetLastError@0      100d6054     kernel32:KERNEL32.dll
 0002:00000058       __imp__SetConsoleCtrlHandler@8 100d6058     kernel32:KERNEL32.dll
 0002:0000005c       __imp__EnterCriticalSection@4 100d605c     kernel32:KERNEL32.dll
 0002:00000060       __imp__LeaveCriticalSection@4 100d6060     kernel32:KERNEL32.dll
 0002:00000064       __imp__TerminateProcess@8  100d6064     kernel32:KERNEL32.dll
 0002:00000068       __imp__GetCurrentProcess@0 100d6068     kernel32:KERNEL32.dll
 0002:0000006c       __imp__UnhandledExceptionFilter@4 100d606c     kernel32:KERNEL32.dll
 0002:00000070       __imp__SetUnhandledExceptionFilter@4 100d6070     kernel32:KERNEL32.dll
 0002:00000074       __imp__IsProcessorFeaturePresent@4 100d6074     kernel32:KERNEL32.dll
 0002:00000078       __imp__GetACP@0            100d6078     kernel32:KERNEL32.dll
 0002:0000007c       __imp__GetOEMCP@0          100d607c     kernel32:KERNEL32.dll
 0002:00000080       __imp__GetCPInfo@8         100d6080     kernel32:KERNEL32.dll
 0002:00000084       __imp__IsValidCodePage@4   100d6084     kernel32:KERNEL32.dll
 0002:00000088       __imp__TlsAlloc@0          100d6088     kernel32:KERNEL32.dll
 0002:0000008c       __imp__TlsGetValue@4       100d608c     kernel32:KERNEL32.dll
 0002:00000090       __imp__TlsSetValue@8       100d6090     kernel32:KERNEL32.dll
 0002:00000094       __imp__TlsFree@4           100d6094     kernel32:KERNEL32.dll
 0002:00000098       __imp__SetLastError@4      100d6098     kernel32:KERNEL32.dll
 0002:0000009c       __imp__GetCurrentThread@0  100d609c     kernel32:KERNEL32.dll
 0002:000000a0       __imp__LCMapStringW@24     100d60a0     kernel32:KERNEL32.dll
 0002:000000a4       __imp__HeapValidate@12     100d60a4     kernel32:KERNEL32.dll
 0002:000000a8       __imp__IsBadReadPtr@8      100d60a8     kernel32:KERNEL32.dll
 0002:000000ac       __imp__SetHandleCount@4    100d60ac     kernel32:KERNEL32.dll
 0002:000000b0       __imp__InitializeCriticalSectionAndSpinCount@8 100d60b0     kernel32:KERNEL32.dll
 0002:000000b4       __imp__GetStartupInfoW@4   100d60b4     kernel32:KERNEL32.dll
 0002:000000b8       __imp__DeleteCriticalSection@4 100d60b8     kernel32:KERNEL32.dll
 0002:000000bc       __imp__GetModuleFileNameA@12 100d60bc     kernel32:KERNEL32.dll
 0002:000000c0       __imp__FreeEnvironmentStringsW@4 100d60c0     kernel32:KERNEL32.dll
 0002:000000c4       __imp__GetEnvironmentStringsW@0 100d60c4     kernel32:KERNEL32.dll
 0002:000000c8       __imp__HeapCreate@12       100d60c8     kernel32:KERNEL32.dll
 0002:000000cc       __imp__HeapDestroy@4       100d60cc     kernel32:KERNEL32.dll
 0002:000000d0       __imp__QueryPerformanceCounter@4 100d60d0     kernel32:KERNEL32.dll
 0002:000000d4       __imp__GetTickCount@0      100d60d4     kernel32:KERNEL32.dll
 0002:000000d8       __imp__GetCurrentProcessId@0 100d60d8     kernel32:KERNEL32.dll
 0002:000000dc       __imp__GetSystemTimeAsFileTime@4 100d60dc     kernel32:KERNEL32.dll
 0002:000000e0       __imp__WriteFile@20        100d60e0     kernel32:KERNEL32.dll
 0002:000000e4       __imp__FatalAppExitA@8     100d60e4     kernel32:KERNEL32.dll
 0002:000000e8       __imp__FreeLibrary@4       100d60e8     kernel32:KERNEL32.dll
 0002:000000ec       __imp__InterlockedExchange@8 100d60ec     kernel32:KERNEL32.dll
 0002:000000f0       __imp__GetLocaleInfoW@16   100d60f0     kernel32:KERNEL32.dll
 0002:000000f4       __imp__CloseHandle@4       100d60f4     kernel32:KERNEL32.dll
 0002:000000f8       __imp__SetFilePointer@16   100d60f8     kernel32:KERNEL32.dll
 0002:000000fc       __imp__ReadFile@20         100d60fc     kernel32:KERNEL32.dll
 0002:00000100       __imp__HeapFree@12         100d6100     kernel32:KERNEL32.dll
 0002:00000104       __imp__HeapAlloc@12        100d6104     kernel32:KERNEL32.dll
 0002:00000108       __imp__GetProcessHeap@0    100d6108     kernel32:KERNEL32.dll
 0002:0000010c       __imp__VirtualQuery@12     100d610c     kernel32:KERNEL32.dll
 0002:00000110       __imp__FlushFileBuffers@4  100d6110     kernel32:KERNEL32.dll
 0002:00000114       __imp__GetConsoleCP@0      100d6114     kernel32:KERNEL32.dll
 0002:00000118       __imp__GetConsoleMode@8    100d6118     kernel32:KERNEL32.dll
 0002:0000011c       __imp__OutputDebugStringW@4 100d611c     kernel32:KERNEL32.dll
 0002:00000120       __imp__GetStringTypeW@16   100d6120     kernel32:KERNEL32.dll
 0002:00000124       __imp__GetLocaleInfoA@16   100d6124     kernel32:KERNEL32.dll
 0002:00000128       __imp__IsValidLocale@8     100d6128     kernel32:KERNEL32.dll
 0002:0000012c       __imp__EnumSystemLocalesA@8 100d612c     kernel32:KERNEL32.dll
 0002:00000130       __imp__GetUserDefaultLCID@0 100d6130     kernel32:KERNEL32.dll
 0002:00000134       __imp__HeapReAlloc@16      100d6134     kernel32:KERNEL32.dll
 0002:00000138       __imp__HeapSize@12         100d6138     kernel32:KERNEL32.dll
 0002:0000013c       __imp__HeapQueryInformation@20 100d613c     kernel32:KERNEL32.dll
 0002:00000140       __imp__CompareStringW@24   100d6140     kernel32:KERNEL32.dll
 0002:00000144       __imp__SetEnvironmentVariableA@8 100d6144     kernel32:KERNEL32.dll
 0002:00000148       __imp__SetStdHandle@8      100d6148     kernel32:KERNEL32.dll
 0002:0000014c       __imp__CreateFileA@28      100d614c     kernel32:KERNEL32.dll
 0002:00000150       __imp__SetEndOfFile@4      100d6150     kernel32:KERNEL32.dll
 0002:00000154       __imp__CreateFileW@28      100d6154     kernel32:KERNEL32.dll
 0002:00000158       \177KERNEL32_NULL_THUNK_DATA 100d6158     kernel32:KERNEL32.dll
 0002:0000015c       ___xc_a                    100d615c     LIBCMTD:crt0init.obj
 0002:00000160       ___xc_z                    100d6160     LIBCMTD:crt0init.obj
 0002:00000164       ___xi_a                    100d6164     LIBCMTD:crt0init.obj
 0002:0000017c       ___xi_z                    100d617c     LIBCMTD:crt0init.obj
 0002:00000180       ___xp_a                    100d6180     LIBCMTD:crt0init.obj
 0002:00000190       ___xp_z                    100d6190     LIBCMTD:crt0init.obj
 0002:00000194       ___xt_a                    100d6194     LIBCMTD:crt0init.obj
 0002:00000198       ___xt_z                    100d6198     LIBCMTD:crt0init.obj
 0002:000001c0       __real@0000000000000000    100d61c0     ftlib_main.obj
 0002:000001c8       __real@00000000            100d61c8     q_math.obj
 0002:000001d0       __real@3ff0000000000000    100d61d0     q_math.obj
 0002:000001d8       __real@401921fb54442d18    100d61d8     q_math.obj
 0002:000001e0       __real@406fe00000000000    100d61e0     q_math.obj
 0002:000001e8       __real@4066800000000000    100d61e8     q_math.obj
 0002:000001f0       __real@400921fb54442d18    100d61f0     q_math.obj
 0002:000001f8       __real@bff0000000000000    100d61f8     q_math.obj
 0002:00000200       __real@4076800000000000    100d6200     q_math.obj
 0002:00000208       __real@c2b40000            100d6208     q_math.obj
 0002:0000020c       __real@43870000            100d620c     q_math.obj
 0002:00000210       __real@42b40000            100d6210     q_math.obj
 0002:00000214       __real@3f800000            100d6214     q_math.obj
 0002:00000218       __real@3ff8000000000000    100d6218     q_math.obj
 0002:00000220       __real@3fe0000000000000    100d6220     q_math.obj
 0002:00000228       __real@c066800000000000    100d6228     q_math.obj
 0002:00000230       __real@3f76800000000000    100d6230     q_math.obj
 0002:00000238       __real@4066c16c16c16c17    100d6238     q_math.obj
 0002:00000240       __real@4066600000000000    100d6240     q_math.obj
 0002:00000248       __real@44200000            100d6248     q_math.obj
 0002:0000024c       __real@43f00000            100d624c     q_math.obj
 0002:00000250       __real@4000000000000000    100d6250     q_math.obj
 0002:00000258       __real@4014000000000000    100d6258     q_math.obj
 0002:00000260       __real@4010000000000000    100d6260     q_math.obj
 0002:00000268       __real@4008000000000000    100d6268     q_math.obj
 0002:00000270       __real@bf800000            100d6270     q_math.obj
 0002:00000278       __real@3f847ae147ae147b    100d6278     q_math.obj
 0002:00000280       __real@3ee4f8b588e368f1    100d6280     q_math.obj
 0002:00000288       __real@c7c34f80            100d6288     q_math.obj
 0002:0000028c       __real@47c34f80            100d628c     q_math.obj
 0002:00000290       __real@c000000000000000    100d6290     q_math.obj
 0002:00000298       __real@43340000            100d6298     q_math.obj
 0002:000002a0       __real@3f0a36e2eb1c432d    100d62a0     q_math.obj
 0002:000002a8       __real@3fefff2e48e8a71e    100d62a8     q_math.obj
 0002:000002b0       __real@bfe0000000000000    100d62b0     q_math.obj
 0002:000002b8       __real@40040d931ff62704    100d62b8     q_math.obj
 0002:000002c0       __real@3fe4cccccccccccd    100d62c0     q_math.obj
 0002:000002c8       __real@407b869ea974c7e5    100d62c8     q_math.obj
 0002:000002d0       __real@4088ce9cb298974a    100d62d0     q_math.obj
 0002:000002d8       __real@4083eaab47fa1777    100d62d8     q_math.obj
 0002:000002e0       __real@4072890729ba7820    100d62e0     q_math.obj
 0002:000002e8       __real@4055b1f78433a59a    100d62e8     q_math.obj
 0002:000002f0       __real@4030106df11bd49d    100d62f0     q_math.obj
 0002:000002f8       __real@3db504f3            100d62f8     q_math.obj
 0002:00000300       __real@406b869ea974c7e5    100d6300     q_math.obj
 0002:00000308       __real@406ba6d5c7a28cf2    100d6308     q_math.obj
 0002:00000310       __real@405c05131ca58d3c    100d6310     q_math.obj
 0002:00000318       __real@4040f4d8cbb02431    100d6318     q_math.obj
 0002:00000320       __real@40197eeff2a86f23    100d6320     q_math.obj
 0002:00000328       __real@3fe66989be8ea71f    100d6328     q_math.obj
 0002:00000330       __real@3fa20ded0b57fbde    100d6330     q_math.obj
 0002:00000338       __real@401c48c6001f0aba    100d6338     q_math.obj
 0002:00000340       __real@4042800000000000    100d6340     q_math.obj
 0002:00000348       _NUM_SOUND_EXTENSIONS      100d6348     q_shared.obj
 0002:0000034c       _NUM_IMAGE_EXTENSIONS      100d634c     q_shared.obj
 0002:00000350       __real@3f1a36e2eb1c432d    100d6350     q_shared.obj
 0002:00000358       __real@4054000000000000    100d6358     q_shared.obj
 0002:00000428       __real@4050000000000000    100d6428     libfreetypestat:ftbase.obj
 0002:00000a60       _bdf_cmap_class            100d6a60     libfreetypestat:bdf.obj
 0002:00000aa8       _bdf_driver_class          100d6aa8     libfreetypestat:bdf.obj
 0002:00000b28       _ft_grays_raster           100d6b28     libfreetypestat:smooth.obj
 0002:00000b40       _ft_smooth_renderer_class  100d6b40     libfreetypestat:smooth.obj
 0002:00000b7c       _ft_smooth_lcd_renderer_class 100d6b7c     libfreetypestat:smooth.obj
 0002:00000bb8       _ft_smooth_lcdv_renderer_class 100d6bb8     libfreetypestat:smooth.obj
 0002:00000d18       _tt_cmap0_class_rec        100d6d18     libfreetypestat:sfnt.obj
 0002:00000d4c       _tt_cmap2_class_rec        100d6d4c     libfreetypestat:sfnt.obj
 0002:00000d80       _tt_cmap4_class_rec        100d6d80     libfreetypestat:sfnt.obj
 0002:00000db4       _tt_cmap6_class_rec        100d6db4     libfreetypestat:sfnt.obj
 0002:00000de8       _tt_cmap8_class_rec        100d6de8     libfreetypestat:sfnt.obj
 0002:00000e1c       _tt_cmap10_class_rec       100d6e1c     libfreetypestat:sfnt.obj
 0002:00000e50       _tt_cmap12_class_rec       100d6e50     libfreetypestat:sfnt.obj
 0002:00000e84       _tt_cmap13_class_rec       100d6e84     libfreetypestat:sfnt.obj
 0002:00000eb8       _tt_cmap14_class_rec       100d6eb8     libfreetypestat:sfnt.obj
 0002:00000ffc       _sfnt_module_class         100d6ffc     libfreetypestat:sfnt.obj
 0002:00001168       _ft_standard_raster        100d7168     libfreetypestat:raster.obj
 0002:00001180       _ft_raster1_renderer_class 100d7180     libfreetypestat:raster.obj
 0002:000011bc       _ft_raster5_renderer_class 100d71bc     libfreetypestat:raster.obj
 0002:00001204       _pshinter_module_class     100d7204     libfreetypestat:pshinter.obj
 0002:0000229c       _psnames_module_class      100d829c     libfreetypestat:psmodule.obj
 0002:000100b0       _ps_table_funcs            100e60b0     libfreetypestat:psaux.obj
 0002:000100c0       _ps_parser_funcs           100e60c0     libfreetypestat:psaux.obj
 0002:000100f4       _t1_builder_funcs          100e60f4     libfreetypestat:psaux.obj
 0002:00010114       _t1_decoder_funcs          100e6114     libfreetypestat:psaux.obj
 0002:00010120       _afm_parser_funcs          100e6120     libfreetypestat:psaux.obj
 0002:0001012c       _t1_cmap_standard_class_rec 100e612c     libfreetypestat:psaux.obj
 0002:00010154       _t1_cmap_expert_class_rec  100e6154     libfreetypestat:psaux.obj
 0002:0001017c       _t1_cmap_custom_class_rec  100e617c     libfreetypestat:psaux.obj
 0002:000101a4       _t1_cmap_unicode_class_rec 100e61a4     libfreetypestat:psaux.obj
 0002:000101cc       _t1_cmap_classes           100e61cc     libfreetypestat:psaux.obj
 0002:000101f8       _psaux_module_class        100e61f8     libfreetypestat:psaux.obj
 0002:00010570       _pcf_cmap_class            100e6570     libfreetypestat:pcf.obj
 0002:000105b8       _pcf_driver_class          100e65b8     libfreetypestat:pcf.obj
 0002:000107c8       _winfnt_driver_class       100e67c8     libfreetypestat:winfnt.obj
 0002:00010b48       _t42_driver_class          100e6b48     libfreetypestat:type42.obj
 0002:00010c4c       _pfr_cmap_class_rec        100e6c4c     libfreetypestat:pfr.obj
 0002:00010c74       _pfr_metrics_service_rec   100e6c74     libfreetypestat:pfr.obj
 0002:00010c98       _pfr_driver_class          100e6c98     libfreetypestat:pfr.obj
 0002:00011478       _t1cid_driver_class        100e7478     libfreetypestat:type1cid.obj
 0002:00011580       _cff_driver_class          100e7580     libfreetypestat:cff.obj
 0002:000123a8       _cff_cmap_encoding_class_rec 100e83a8     libfreetypestat:cff.obj
 0002:000123d0       _cff_cmap_unicode_class_rec 100e83d0     libfreetypestat:cff.obj
 0002:000123f8       __real@40f0000000000000    100e83f8     libfreetypestat:cff.obj
 0002:00012b08       _t1_driver_class           100e8b08     libfreetypestat:type1.obj
 0002:00012bd8       _tt_driver_class           100e8bd8     libfreetypestat:truetype.obj
 0002:00012e00       _tt_default_graphics_state 100e8e00     libfreetypestat:truetype.obj
 0002:00013488       _af_dummy_script_class     100e9488     libfreetypestat:autofit.obj
 0002:00013580       _af_latin_script_class     100e9580     libfreetypestat:autofit.obj
 0002:000136a0       _af_cjk_script_class       100e96a0     libfreetypestat:autofit.obj
 0002:00013700       _af_indic_script_class     100e9700     libfreetypestat:autofit.obj
 0002:00013b98       _af_autofitter_service     100e9b98     libfreetypestat:autofit.obj
 0002:00013ba8       _autofit_module_class      100e9ba8     libfreetypestat:autofit.obj
 0002:00014f54       ??_C@_15IABLJNFO@?$AA?6?$AA?6?$AA?$AA@ 100eaf54     LIBCMTD:wassert.obj
 0002:00014f5c       ??_C@_13LBAGMAIH@?$AA?6?$AA?$AA@ 100eaf5c     LIBCMTD:wassert.obj
 0002:00014f60       ??_C@_17LGKOMLJ@?$AA?4?$AA?4?$AA?4?$AA?$AA@ 100eaf60     LIBCMTD:wassert.obj
 0002:00014f68       ??_C@_1EK@MBDPDCGA@?$AAM?$AAi?$AAc?$AAr?$AAo?$AAs?$AAo?$AAf?$AAt?$AA?5?$AAV?$AAi?$AAs?$AAu?$AAa?$AAl?$AA?5?$AAC?$AA?$CL?$AA?$CL?$AA?5?$AAR?$AAu?$AAn?$AAt?$AAi?$AAm?$AAe?$AA?5?$AAL?$AAi?$AAb@ 100eaf68     LIBCMTD:wassert.obj
 0002:00014fb8       ??_C@_1HK@POCJMFGK@?$AA?$CI?$AAP?$AAr?$AAe?$AAs?$AAs?$AA?5?$AAR?$AAe?$AAt?$AAr?$AAy?$AA?5?$AAt?$AAo?$AA?5?$AAd?$AAe?$AAb?$AAu?$AAg?$AA?5?$AAt?$AAh?$AAe?$AA?5?$AAa?$AAp?$AAp?$AAl?$AAi?$AAc@ 100eafb8     LIBCMTD:wassert.obj
 0002:00015038       ??_C@_1LO@HBAMOOPN@?$AAw?$AAc?$AAs?$AAc?$AAa?$AAt?$AA_?$AAs?$AA?$CI?$AAa?$AAs?$AAs?$AAe?$AAr?$AAt?$AAb?$AAu?$AAf?$AA?0?$AA?5?$AA?$CI?$AA6?$AA0?$AA?5?$AA?$CK?$AA?5?$AA9?$AA?$CJ?$AA?0?$AA?5?$AAL?$AA?$CC@ 100eb038     LIBCMTD:wassert.obj
 0002:000150f8       ??_C@_1FG@GMPCGFKH@?$AAw?$AAc?$AAs?$AAc?$AAa?$AAt?$AA_?$AAs?$AA?$CI?$AAa?$AAs?$AAs?$AAe?$AAr?$AAt?$AAb?$AAu?$AAf?$AA?0?$AA?5?$AA?$CI?$AA6?$AA0?$AA?5?$AA?$CK?$AA?5?$AA9?$AA?$CJ?$AA?0?$AA?5?$AAd?$AAb@ 100eb0f8     LIBCMTD:wassert.obj
 0002:00015150       ??_C@_1OA@EGMLFBHJ@?$AAF?$AAo?$AAr?$AA?5?$AAi?$AAn?$AAf?$AAo?$AAr?$AAm?$AAa?$AAt?$AAi?$AAo?$AAn?$AA?5?$AAo?$AAn?$AA?5?$AAh?$AAo?$AAw?$AA?5?$AAy?$AAo?$AAu?$AAr?$AA?5?$AAp?$AAr?$AAo?$AAg@ 100eb150     LIBCMTD:wassert.obj
 0002:00015230       ??_C@_1BCO@FMFFDPPF@?$AAw?$AAc?$AAs?$AAc?$AAa?$AAt?$AA_?$AAs?$AA?$CI?$AAa?$AAs?$AAs?$AAe?$AAr?$AAt?$AAb?$AAu?$AAf?$AA?0?$AA?5?$AA?$CI?$AA6?$AA0?$AA?5?$AA?$CK?$AA?5?$AA9?$AA?$CJ?$AA?0?$AA?5?$AAL?$AA?$CC@ 100eb230     LIBCMTD:wassert.obj
 0002:00015360       ??_C@_1EM@MBEKCGIC@?$AAw?$AAc?$AAs?$AAc?$AAa?$AAt?$AA_?$AAs?$AA?$CI?$AA?5?$AAa?$AAs?$AAs?$AAe?$AAr?$AAt?$AAb?$AAu?$AAf?$AA?0?$AA?5?$AA?$CI?$AA6?$AA0?$AA?5?$AA?$CK?$AA?5?$AA9?$AA?$CJ?$AA?0?$AA?5?$AAe@ 100eb360     LIBCMTD:wassert.obj
 0002:000153b0       ??_C@_1CHM@CEIMNDLH@?$AAw?$AAc?$AAs?$AAn?$AAc?$AAa?$AAt?$AA_?$AAs?$AA?$CI?$AA?5?$AAa?$AAs?$AAs?$AAe?$AAr?$AAt?$AAb?$AAu?$AAf?$AA?0?$AA?5?$AA?$CI?$AA6?$AA0?$AA?5?$AA?$CK?$AA?5?$AA9?$AA?$CJ?$AA?0?$AA?5@ 100eb3b0     LIBCMTD:wassert.obj
 0002:0001562c       ??_C@_1BK@PEDCIPMA@?$AAE?$AAx?$AAp?$AAr?$AAe?$AAs?$AAs?$AAi?$AAo?$AAn?$AA?3?$AA?5?$AA?$AA@ 100eb62c     LIBCMTD:wassert.obj
 0002:00015648       ??_C@_1GC@HOBBPFHJ@?$AAw?$AAc?$AAs?$AAc?$AAa?$AAt?$AA_?$AAs?$AA?$CI?$AA?5?$AAa?$AAs?$AAs?$AAe?$AAr?$AAt?$AAb?$AAu?$AAf?$AA?0?$AA?5?$AA?$CI?$AA6?$AA0?$AA?5?$AA?$CK?$AA?5?$AA9?$AA?$CJ?$AA?0?$AA?5?$AAL@ 100eb648     LIBCMTD:wassert.obj
 0002:000156b0       ??_C@_1KG@CFEIMPNH@?$AA_?$AAi?$AAt?$AAo?$AAw?$AA_?$AAs?$AA?$CI?$AA?5?$AAl?$AAi?$AAn?$AAe?$AAn?$AAo?$AA?0?$AA?5?$AAa?$AAs?$AAs?$AAe?$AAr?$AAt?$AAb?$AAu?$AAf?$AA?5?$AA?$CL?$AA?5?$AAw?$AAc?$AAs@ 100eb6b0     LIBCMTD:wassert.obj
 0002:00015758       ??_C@_1O@KCAFKHJE@?$AAL?$AAi?$AAn?$AAe?$AA?3?$AA?5?$AA?$AA@ 100eb758     LIBCMTD:wassert.obj
 0002:00015768       ??_C@_1FG@NHDGJLMI@?$AAw?$AAc?$AAs?$AAc?$AAa?$AAt?$AA_?$AAs?$AA?$CI?$AA?5?$AAa?$AAs?$AAs?$AAe?$AAr?$AAt?$AAb?$AAu?$AAf?$AA?0?$AA?5?$AA?$CI?$AA6?$AA0?$AA?5?$AA?$CK?$AA?5?$AA9?$AA?$CJ?$AA?0?$AA?5?$AAL@ 100eb768     LIBCMTD:wassert.obj
 0002:000157c0       ??_C@_1FE@IIFBBPFI@?$AAw?$AAc?$AAs?$AAc?$AAa?$AAt?$AA_?$AAs?$AA?$CI?$AA?5?$AAa?$AAs?$AAs?$AAe?$AAr?$AAt?$AAb?$AAu?$AAf?$AA?0?$AA?5?$AA?$CI?$AA6?$AA0?$AA?5?$AA?$CK?$AA?5?$AA9?$AA?$CJ?$AA?0?$AA?5?$AAf@ 100eb7c0     LIBCMTD:wassert.obj
 0002:00015818       ??_C@_1IC@CFFJBMAD@?$AAw?$AAc?$AAs?$AAc?$AAa?$AAt?$AA_?$AAs?$AA?$CI?$AA?5?$AAa?$AAs?$AAs?$AAe?$AAr?$AAt?$AAb?$AAu?$AAf?$AA?0?$AA?5?$AA?$CI?$AA6?$AA0?$AA?5?$AA?$CK?$AA?5?$AA9?$AA?$CJ?$AA?0?$AA?5?$AAp@ 100eb818     LIBCMTD:wassert.obj
 0002:000158a0       ??_C@_1HG@OJJMBIKO@?$AAw?$AAc?$AAs?$AAn?$AAc?$AAa?$AAt?$AA_?$AAs?$AA?$CI?$AA?5?$AAa?$AAs?$AAs?$AAe?$AAr?$AAt?$AAb?$AAu?$AAf?$AA?0?$AA?5?$AA?$CI?$AA6?$AA0?$AA?5?$AA?$CK?$AA?5?$AA9?$AA?$CJ?$AA?0?$AA?5@ 100eb8a0     LIBCMTD:wassert.obj
 0002:00015918       ??_C@_1GO@BIHLMMND@?$AAw?$AAc?$AAs?$AAn?$AAc?$AAa?$AAt?$AA_?$AAs?$AA?$CI?$AA?5?$AAa?$AAs?$AAs?$AAe?$AAr?$AAt?$AAb?$AAu?$AAf?$AA?0?$AA?5?$AA?$CI?$AA6?$AA0?$AA?5?$AA?$CK?$AA?5?$AA9?$AA?$CJ?$AA?0?$AA?5@ 100eb918     LIBCMTD:wassert.obj
 0002:00015988       ??_C@_1FO@IJLLDBEB@?$AAw?$AAc?$AAs?$AAc?$AAa?$AAt?$AA_?$AAs?$AA?$CI?$AA?5?$AAa?$AAs?$AAs?$AAe?$AAr?$AAt?$AAb?$AAu?$AAf?$AA?0?$AA?5?$AA?$CI?$AA6?$AA0?$AA?5?$AA?$CK?$AA?5?$AA9?$AA?$CJ?$AA?0?$AA?5?$AAp@ 100eb988     LIBCMTD:wassert.obj
 0002:000159e8       ??_C@_1FG@CLEECKIJ@?$AAw?$AAc?$AAs?$AAc?$AAa?$AAt?$AA_?$AAs?$AA?$CI?$AA?5?$AAa?$AAs?$AAs?$AAe?$AAr?$AAt?$AAb?$AAu?$AAf?$AA?0?$AA?5?$AA?$CI?$AA6?$AA0?$AA?5?$AA?$CK?$AA?5?$AA9?$AA?$CJ?$AA?0?$AA?5?$AAd@ 100eb9e8     LIBCMTD:wassert.obj
 0002:00015a40       ??_C@_1GG@PMHOPJKA@?$AAw?$AAc?$AAs?$AAn?$AAc?$AAa?$AAt?$AA_?$AAs?$AA?$CI?$AA?5?$AAa?$AAs?$AAs?$AAe?$AAr?$AAt?$AAb?$AAu?$AAf?$AA?0?$AA?5?$AA?$CI?$AA6?$AA0?$AA?5?$AA?$CK?$AA?5?$AA9?$AA?$CJ?$AA?0?$AA?5@ 100eba40     LIBCMTD:wassert.obj
 0002:00015aa8       ??_C@_1O@HEMHKNDC@?$AAF?$AAi?$AAl?$AAe?$AA?3?$AA?5?$AA?$AA@ 100ebaa8     LIBCMTD:wassert.obj
 0002:00015ab8       ??_C@_1FG@HIDBOJF@?$AAw?$AAc?$AAs?$AAc?$AAa?$AAt?$AA_?$AAs?$AA?$CI?$AA?5?$AAa?$AAs?$AAs?$AAe?$AAr?$AAt?$AAb?$AAu?$AAf?$AA?0?$AA?5?$AA?$CI?$AA6?$AA0?$AA?5?$AA?$CK?$AA?5?$AA9?$AA?$CJ?$AA?0?$AA?5?$AAL@ 100ebab8     LIBCMTD:wassert.obj
 0002:00015b10       ??_C@_1FC@FFKGGIKO@?$AAw?$AAc?$AAs?$AAc?$AAa?$AAt?$AA_?$AAs?$AA?$CI?$AA?5?$AAa?$AAs?$AAs?$AAe?$AAr?$AAt?$AAb?$AAu?$AAf?$AA?0?$AA?5?$AA?$CI?$AA6?$AA0?$AA?5?$AA?$CK?$AA?5?$AA9?$AA?$CJ?$AA?0?$AA?5?$AAn@ 100ebb10     LIBCMTD:wassert.obj
 0002:00015b68       ??_C@_1EK@BDNABPEK@?$AAw?$AAc?$AAs?$AAc?$AAa?$AAt?$AA_?$AAs?$AA?$CI?$AA?5?$AAa?$AAs?$AAs?$AAe?$AAr?$AAt?$AAb?$AAu?$AAf?$AA?0?$AA?5?$AA?$CI?$AA6?$AA0?$AA?5?$AA?$CK?$AA?5?$AA9?$AA?$CJ?$AA?0?$AA?5?$AAp@ 100ebb68     LIBCMTD:wassert.obj
 0002:00015bb8       ??_C@_1HK@JKBDGMGN@?$AAw?$AAc?$AAs?$AAn?$AAc?$AAp?$AAy?$AA_?$AAs?$AA?$CI?$AA?5?$AAp?$AAc?$AAh?$AA?0?$AA?5?$AA?$CI?$AA2?$AA6?$AA0?$AA?5?$AA?$CL?$AA?5?$AA1?$AA?$CJ?$AA?5?$AA?9?$AA?5?$AA?$CI?$AAp?$AAc?$AAh@ 100ebbb8     LIBCMTD:wassert.obj
 0002:00015c34       ??_C@_1CO@EAEJAADC@?$AA?$DM?$AAp?$AAr?$AAo?$AAg?$AAr?$AAa?$AAm?$AA?5?$AAn?$AAa?$AAm?$AAe?$AA?5?$AAu?$AAn?$AAk?$AAn?$AAo?$AAw?$AAn?$AA?$DO?$AA?$AA@ 100ebc34     LIBCMTD:wassert.obj
 0002:00015c68       ??_C@_1HA@EPFCONEE@?$AAw?$AAc?$AAs?$AAc?$AAp?$AAy?$AA_?$AAs?$AA?$CI?$AA?5?$AAp?$AAr?$AAo?$AAg?$AAn?$AAa?$AAm?$AAe?$AA?0?$AA?5?$AA2?$AA6?$AA0?$AA?5?$AA?$CL?$AA?5?$AA1?$AA?0?$AA?5?$AAL?$AA?$CC?$AA?$DM@ 100ebc68     LIBCMTD:wassert.obj
 0002:00015cd8       ??_C@_1BE@PHKBBGE@?$AAP?$AAr?$AAo?$AAg?$AAr?$AAa?$AAm?$AA?3?$AA?5?$AA?$AA@ 100ebcd8     LIBCMTD:wassert.obj
 0002:00015cf0       ??_C@_1FM@LKICECBD@?$AAw?$AAc?$AAs?$AAc?$AAa?$AAt?$AA_?$AAs?$AA?$CI?$AA?5?$AAa?$AAs?$AAs?$AAe?$AAr?$AAt?$AAb?$AAu?$AAf?$AA?0?$AA?5?$AA?$CI?$AA6?$AA0?$AA?5?$AA?$CK?$AA?5?$AA9?$AA?$CJ?$AA?0?$AA?5?$AAL@ 100ebcf0     LIBCMTD:wassert.obj
 0002:00015d50       ??_C@_1FI@JIGMFG@?$AAw?$AAc?$AAs?$AAc?$AAa?$AAt?$AA_?$AAs?$AA?$CI?$AA?5?$AAa?$AAs?$AAs?$AAe?$AAr?$AAt?$AAb?$AAu?$AAf?$AA?0?$AA?5?$AA?$CI?$AA6?$AA0?$AA?5?$AA?$CK?$AA?5?$AA9?$AA?$CJ?$AA?0?$AA?5?$AAd@ 100ebd50     LIBCMTD:wassert.obj
 0002:00015da8       ??_C@_1CE@OJBNHDMO@?$AAA?$AAs?$AAs?$AAe?$AAr?$AAt?$AAi?$AAo?$AAn?$AA?5?$AAf?$AAa?$AAi?$AAl?$AAe?$AAd?$AA?$CB?$AA?$AA@ 100ebda8     LIBCMTD:wassert.obj
 0002:00015dd0       ??_C@_1GM@EFCJNBAA@?$AAw?$AAc?$AAs?$AAc?$AAp?$AAy?$AA_?$AAs?$AA?$CI?$AA?5?$AAa?$AAs?$AAs?$AAe?$AAr?$AAt?$AAb?$AAu?$AAf?$AA?0?$AA?5?$AA?$CI?$AA6?$AA0?$AA?5?$AA?$CK?$AA?5?$AA9?$AA?$CJ?$AA?0?$AA?5?$AAL@ 100ebdd0     LIBCMTD:wassert.obj
 0002:00015e3c       ??_C@_1BC@LNOOMFNA@?$AA_?$AAw?$AAa?$AAs?$AAs?$AAe?$AAr?$AAt?$AA?$AA@ 100ebe3c     LIBCMTD:wassert.obj
 0002:00015e50       ??_C@_1GA@COEIABIF@?$AAf?$AA?3?$AA?2?$AAd?$AAd?$AA?2?$AAv?$AAc?$AAt?$AAo?$AAo?$AAl?$AAs?$AA?2?$AAc?$AAr?$AAt?$AA_?$AAb?$AAl?$AAd?$AA?2?$AAs?$AAe?$AAl?$AAf?$AA_?$AAx?$AA8?$AA6?$AA?2?$AAc@ 100ebe50     LIBCMTD:wassert.obj
 0002:00015eb0       __FPinit                   100ebeb0     LIBCMTD:_fpinit_.obj
 0002:00015eb4       ?ProcessDetach@NativeDll@<CrtImplementationDetails>@@0IB 100ebeb4     LIBCMTD:stricmp.obj
 0002:00015eb8       ?ProcessAttach@NativeDll@<CrtImplementationDetails>@@0IB 100ebeb8     LIBCMTD:stricmp.obj
 0002:00015ebc       ?ThreadAttach@NativeDll@<CrtImplementationDetails>@@0IB 100ebebc     LIBCMTD:stricmp.obj
 0002:00015ec0       ?ThreadDetach@NativeDll@<CrtImplementationDetails>@@0IB 100ebec0     LIBCMTD:stricmp.obj
 0002:00015ec4       ?ProcessVerifier@NativeDll@<CrtImplementationDetails>@@0IB 100ebec4     LIBCMTD:stricmp.obj
 0002:00015ec8       ??_C@_1BI@DCHLDCPP@?$AAs?$AAr?$AAc?$AA?5?$AA?$CB?$AA?$DN?$AA?5?$AAN?$AAU?$AAL?$AAL?$AA?$AA@ 100ebec8     LIBCMTD:stricmp.obj
 0002:00015ee0       ??_C@_1BG@GLLONOEH@?$AA_?$AAs?$AAt?$AAr?$AAi?$AAc?$AAm?$AAp?$AA_?$AAl?$AA?$AA@ 100ebee0     LIBCMTD:stricmp.obj
 0002:00015ef8       ??_C@_1GC@OILHAOLL@?$AAf?$AA?3?$AA?2?$AAd?$AAd?$AA?2?$AAv?$AAc?$AAt?$AAo?$AAo?$AAl?$AAs?$AA?2?$AAc?$AAr?$AAt?$AA_?$AAb?$AAl?$AAd?$AA?2?$AAs?$AAe?$AAl?$AAf?$AA_?$AAx?$AA8?$AA6?$AA?2?$AAc@ 100ebef8     LIBCMTD:stricmp.obj
 0002:00015f5c       ??_C@_1BI@GKKCBDMD@?$AAd?$AAs?$AAt?$AA?5?$AA?$CB?$AA?$DN?$AA?5?$AAN?$AAU?$AAL?$AAL?$AA?$AA@ 100ebf5c     LIBCMTD:stricmp.obj
 0002:00015f74       ??_C@_1BC@JLGKKIIG@?$AA_?$AAs?$AAt?$AAr?$AAi?$AAc?$AAm?$AAp?$AA?$AA@ 100ebf74     LIBCMTD:stricmp.obj
 0002:00015f88       ??_C@_1CC@MGIEJOME@?$AA?$CI?$AAf?$AAo?$AAr?$AAm?$AAa?$AAt?$AA?5?$AA?$CB?$AA?$DN?$AA?5?$AAN?$AAU?$AAL?$AAL?$AA?$CJ?$AA?$AA@ 100ebf88     LIBCMTD:sscanf.obj
 0002:00015fac       ??_C@_1BC@KMGJCMNP@?$AAv?$AAs?$AAc?$AAa?$AAn?$AA_?$AAf?$AAn?$AA?$AA@ 100ebfac     LIBCMTD:sscanf.obj
 0002:00015fc0       ??_C@_1GA@GDIHGGDN@?$AAf?$AA?3?$AA?2?$AAd?$AAd?$AA?2?$AAv?$AAc?$AAt?$AAo?$AAo?$AAl?$AAs?$AA?2?$AAc?$AAr?$AAt?$AA_?$AAb?$AAl?$AAd?$AA?2?$AAs?$AAe?$AAl?$AAf?$AA_?$AAx?$AA8?$AA6?$AA?2?$AAc@ 100ebfc0     LIBCMTD:sscanf.obj
 0002:00016020       ??_C@_1CC@OLIJCKA@?$AA?$CI?$AAs?$AAt?$AAr?$AAi?$AAn?$AAg?$AA?5?$AA?$CB?$AA?$DN?$AA?5?$AAN?$AAU?$AAL?$AAL?$AA?$CJ?$AA?$AA@ 100ec020     LIBCMTD:sscanf.obj
 0002:00016048       ??_C@_1EC@FABAOFFO@?$AA?$CI?$AAc?$AAo?$AAu?$AAn?$AAt?$AA?5?$AA?$DN?$AA?$DN?$AA?5?$AA0?$AA?$CJ?$AA?5?$AA?$HM?$AA?$HM?$AA?5?$AA?$CI?$AAs?$AAt?$AAr?$AAi?$AAn?$AAg?$AA?5?$AA?$CB?$AA?$DN?$AA?5?$AAN?$AAU?$AAL?$AAL?$AA?$CJ@ 100ec048     LIBCMTD:vsnprint.obj
 0002:0001608c       ??_C@_1BK@FHMHFMNL@?$AA_?$AAv?$AAs?$AAn?$AAp?$AAr?$AAi?$AAn?$AAt?$AAf?$AA_?$AAl?$AA?$AA@ 100ec08c     LIBCMTD:vsnprint.obj
 0002:000160a8       ??_C@_1GE@DPADKNCG@?$AAf?$AA?3?$AA?2?$AAd?$AAd?$AA?2?$AAv?$AAc?$AAt?$AAo?$AAo?$AAl?$AAs?$AA?2?$AAc?$AAr?$AAt?$AA_?$AAb?$AAl?$AAd?$AA?2?$AAs?$AAe?$AAl?$AAf?$AA_?$AAx?$AA8?$AA6?$AA?2?$AAc@ 100ec0a8     LIBCMTD:vsnprint.obj
 0002:0001610c       __pRawDllMain              100ec10c     LIBCMTD:dllcrt0.obj
 0002:0001610c       __pDefaultRawDllMain       100ec10c     LIBCMTD:dllcrt0.obj
 0002:00016110       ??_C@_0DB@OLNOAEGF@f?3?2dd?2vctools?2crt_bld?2self_x86?2c@ 100ec110     LIBCMTD:dllcrt0.obj
 0002:00016144       ??_C@_1BK@HJGMBFLF@?$AAc?$AAo?$AAm?$AAp?$AA?5?$AA?$CB?$AA?$DN?$AA?5?$AAN?$AAU?$AAL?$AAL?$AA?$AA@ 100ec144     LIBCMTD:qsort.obj
 0002:00016160       ??_C@_1BE@NJBEBBME@?$AAw?$AAi?$AAd?$AAt?$AAh?$AA?5?$AA?$DO?$AA?5?$AA0?$AA?$AA@ 100ec160     LIBCMTD:qsort.obj
 0002:00016174       ??_C@_1M@INMHODIG@?$AAq?$AAs?$AAo?$AAr?$AAt?$AA?$AA@ 100ec174     LIBCMTD:qsort.obj
 0002:00016180       ??_C@_1FO@NDBPJPLL@?$AAf?$AA?3?$AA?2?$AAd?$AAd?$AA?2?$AAv?$AAc?$AAt?$AAo?$AAo?$AAl?$AAs?$AA?2?$AAc?$AAr?$AAt?$AA_?$AAb?$AAl?$AAd?$AA?2?$AAs?$AAe?$AAl?$AAf?$AA_?$AAx?$AA8?$AA6?$AA?2?$AAc@ 100ec180     LIBCMTD:qsort.obj
 0002:000161e0       ??_C@_1DC@HAGCIKOA@?$AAb?$AAa?$AAs?$AAe?$AA?5?$AA?$CB?$AA?$DN?$AA?5?$AAN?$AAU?$AAL?$AAL?$AA?5?$AA?$HM?$AA?$HM?$AA?5?$AAn?$AAu?$AAm?$AA?5?$AA?$DN?$AA?$DN?$AA?5?$AA0?$AA?$AA@ 100ec1e0     LIBCMTD:qsort.obj
 0002:00016214       ??_C@_1BA@KBJJGFFE@?$AAs?$AAp?$AAr?$AAi?$AAn?$AAt?$AAf?$AA?$AA@ 100ec214     LIBCMTD:sprintf.obj
 0002:00016228       ??_C@_1GC@BMNPEKNN@?$AAf?$AA?3?$AA?2?$AAd?$AAd?$AA?2?$AAv?$AAc?$AAt?$AAo?$AAo?$AAl?$AAs?$AA?2?$AAc?$AAr?$AAt?$AA_?$AAb?$AAl?$AAd?$AA?2?$AAs?$AAe?$AAl?$AAf?$AA_?$AAx?$AA8?$AA6?$AA?2?$AAc@ 100ec228     LIBCMTD:sprintf.obj
 0002:0001628c       ??_C@_1BI@IGILPKD@?$AA_?$AAv?$AAs?$AAp?$AAr?$AAi?$AAn?$AAt?$AAf?$AA_?$AAl?$AA?$AA@ 100ec28c     LIBCMTD:vsprintf.obj
 0002:000162a4       ??_C@_1CE@HMKDJHB@?$AA_?$AAv?$AAs?$AAc?$AAp?$AAr?$AAi?$AAn?$AAt?$AAf?$AA_?$AAh?$AAe?$AAl?$AAp?$AAe?$AAr?$AA?$AA@ 100ec2a4     LIBCMTD:vsprintf.obj
 0002:000162c8       ??_C@_1BO@JGFPDJCP@?$AAv?$AAp?$AAr?$AAi?$AAn?$AAt?$AAf?$AA_?$AAh?$AAe?$AAl?$AAp?$AAe?$AAr?$AA?$AA@ 100ec2c8     LIBCMTD:vprintf.obj
 0002:000162e8       ??_C@_1GC@DHFFJKMC@?$AAf?$AA?3?$AA?2?$AAd?$AAd?$AA?2?$AAv?$AAc?$AAt?$AAo?$AAo?$AAl?$AAs?$AA?2?$AAc?$AAr?$AAt?$AA_?$AAb?$AAl?$AAd?$AA?2?$AAs?$AAe?$AAl?$AAf?$AA_?$AAx?$AA8?$AA6?$AA?2?$AAc@ 100ec2e8     LIBCMTD:vprintf.obj
 0002:0001634c       ??_C@_0P@MIGLKIOC@CorExitProcess?$AA@ 100ec34c     LIBCMTD:crt0dat.obj
 0002:0001635c       ??_C@_1BI@BGOHAHKC@?$AAm?$AAs?$AAc?$AAo?$AAr?$AAe?$AAe?$AA?4?$AAd?$AAl?$AAl?$AA?$AA@ 100ec35c     LIBCMTD:crt0dat.obj
 0002:00016374       ??_C@_1CC@CDIPMFPD@?$AA_?$AAw?$AAp?$AAg?$AAm?$AAp?$AAt?$AAr?$AA?5?$AA?$CB?$AA?$DN?$AA?5?$AAN?$AAU?$AAL?$AAL?$AA?$AA@ 100ec374     LIBCMTD:crt0dat.obj
 0002:00016398       ??_C@_1BK@PNLDCCDP@?$AA_?$AAg?$AAe?$AAt?$AA_?$AAw?$AAp?$AAg?$AAm?$AAp?$AAt?$AAr?$AA?$AA@ 100ec398     LIBCMTD:crt0dat.obj
 0002:000163b8       ??_C@_1GC@DGCPEDNJ@?$AAf?$AA?3?$AA?2?$AAd?$AAd?$AA?2?$AAv?$AAc?$AAt?$AAo?$AAo?$AAl?$AAs?$AA?2?$AAc?$AAr?$AAt?$AA_?$AAb?$AAl?$AAd?$AA?2?$AAs?$AAe?$AAl?$AAf?$AA_?$AAx?$AA8?$AA6?$AA?2?$AAc@ 100ec3b8     LIBCMTD:crt0dat.obj
 0002:0001641c       ??_C@_1BO@LKEBEKJP@?$AAp?$AAV?$AAa?$AAl?$AAu?$AAe?$AA?5?$AA?$CB?$AA?$DN?$AA?5?$AAN?$AAU?$AAL?$AAL?$AA?$AA@ 100ec41c     LIBCMTD:crt0dat.obj
 0002:0001643c       ??_C@_1CA@BBNAFCKO@?$AA_?$AAp?$AAg?$AAm?$AAp?$AAt?$AAr?$AA?5?$AA?$CB?$AA?$DN?$AA?5?$AAN?$AAU?$AAL?$AAL?$AA?$AA@ 100ec43c     LIBCMTD:crt0dat.obj
 0002:0001645c       ??_C@_1BI@COAAPHJK@?$AA_?$AAg?$AAe?$AAt?$AA_?$AAp?$AAg?$AAm?$AAp?$AAt?$AAr?$AA?$AA@ 100ec45c     LIBCMTD:crt0dat.obj
 0002:00016478       ??_C@_1FA@HILOOCMA@?$AA?$CI?$AA_?$AAt?$AAc?$AAs?$AAn?$AAl?$AAe?$AAn?$AA?$CI?$AAo?$AAp?$AAt?$AAi?$AAo?$AAn?$AA?0?$AA?5?$AA_?$AAM?$AAA?$AAX?$AA_?$AAE?$AAN?$AAV?$AA?$CJ?$AA?5?$AA?$DM?$AA?5?$AA_?$AAM@ 100ec478     LIBCMTD:getenv.obj
 0002:000164c8       ??_C@_1O@GMKGKCJO@?$AAg?$AAe?$AAt?$AAe?$AAn?$AAv?$AA?$AA@ 100ec4c8     LIBCMTD:getenv.obj
 0002:000164d8       ??_C@_1GA@IPPICGKB@?$AAf?$AA?3?$AA?2?$AAd?$AAd?$AA?2?$AAv?$AAc?$AAt?$AAo?$AAo?$AAl?$AAs?$AA?2?$AAc?$AAr?$AAt?$AA_?$AAb?$AAl?$AAd?$AA?2?$AAs?$AAe?$AAl?$AAf?$AA_?$AAx?$AA8?$AA6?$AA?2?$AAc@ 100ec4d8     LIBCMTD:getenv.obj
 0002:00016538       ??_C@_1CC@FKAOHHLO@?$AA?$CI?$AAo?$AAp?$AAt?$AAi?$AAo?$AAn?$AA?5?$AA?$CB?$AA?$DN?$AA?5?$AAN?$AAU?$AAL?$AAL?$AA?$CJ?$AA?$AA@ 100ec538     LIBCMTD:getenv.obj
 0002:00016560       ??_C@_1GI@JBIFPFJH@?$AA_?$AAt?$AAc?$AAs?$AAn?$AAl?$AAe?$AAn?$AA?$CI?$AA?$CK?$AAs?$AAe?$AAa?$AAr?$AAc?$AAh?$AA?5?$AA?$CL?$AA?5?$AAl?$AAe?$AAn?$AAg?$AAt?$AAh?$AA?5?$AA?$CL?$AA?5?$AA1?$AA?0?$AA?5?$AA_@ 100ec560     LIBCMTD:getenv.obj
 0002:000165c8       ??_C@_1EI@HHOBPCFK@?$AAs?$AAt?$AAr?$AAc?$AAp?$AAy?$AA_?$AAs?$AA?$CI?$AAb?$AAu?$AAf?$AAf?$AAe?$AAr?$AA?0?$AA?5?$AAs?$AAi?$AAz?$AAe?$AAI?$AAn?$AAT?$AAC?$AAh?$AAa?$AAr?$AAs?$AA?0?$AA?5?$AAs@ 100ec5c8     LIBCMTD:getenv.obj
 0002:00016610       ??_C@_1JM@NLPGJJPH@?$AA?$CI?$AAb?$AAu?$AAf?$AAf?$AAe?$AAr?$AA?5?$AA?$CB?$AA?$DN?$AA?5?$AAN?$AAU?$AAL?$AAL?$AA?5?$AA?$CG?$AA?$CG?$AA?5?$AAs?$AAi?$AAz?$AAe?$AAI?$AAn?$AAT?$AAC?$AAh?$AAa?$AAr?$AAs?$AA?5@ 100ec610     LIBCMTD:getenv.obj
 0002:000166ac       ??_C@_1CC@BAJKDIIF@?$AA_?$AAg?$AAe?$AAt?$AAe?$AAn?$AAv?$AA_?$AAs?$AA_?$AAh?$AAe?$AAl?$AAp?$AAe?$AAr?$AA?$AA@ 100ec6ac     LIBCMTD:getenv.obj
 0002:000166d0       ??_C@_1CK@PIKDAOCL@?$AAp?$AAR?$AAe?$AAt?$AAu?$AAr?$AAn?$AAV?$AAa?$AAl?$AAu?$AAe?$AA?5?$AA?$CB?$AA?$DN?$AA?5?$AAN?$AAU?$AAL?$AAL?$AA?$AA@ 100ec6d0     LIBCMTD:getenv.obj
 0002:000166fc       ??_C@_1DM@GNKNEGJO@?$AAs?$AAt?$AAr?$AAc?$AAp?$AAy?$AA_?$AAs?$AA?$CI?$AA?$CK?$AAp?$AAB?$AAu?$AAf?$AAf?$AAe?$AAr?$AA?0?$AA?5?$AAs?$AAi?$AAz?$AAe?$AA?0?$AA?5?$AAs?$AAt?$AAr?$AA?$CJ?$AA?$AA@ 100ec6fc     LIBCMTD:getenv.obj
 0002:00016738       ??_C@_1CA@GDBKELOE@?$AAv?$AAa?$AAr?$AAn?$AAa?$AAm?$AAe?$AA?5?$AA?$CB?$AA?$DN?$AA?5?$AAN?$AAU?$AAL?$AAL?$AA?$AA@ 100ec738     LIBCMTD:getenv.obj
 0002:00016758       ??_C@_1CC@KPLOPIEM@?$AA_?$AAd?$AAu?$AAp?$AAe?$AAn?$AAv?$AA_?$AAs?$AA_?$AAh?$AAe?$AAl?$AAp?$AAe?$AAr?$AA?$AA@ 100ec758     LIBCMTD:getenv.obj
 0002:0001677c       ??_C@_1CA@FHNFMDOJ@?$AAp?$AAB?$AAu?$AAf?$AAf?$AAe?$AAr?$AA?5?$AA?$CB?$AA?$DN?$AA?5?$AAN?$AAU?$AAL?$AAL?$AA?$AA@ 100ec77c     LIBCMTD:getenv.obj
 0002:0001679c       ??_C@_1O@EGMJNCOI@?$AAf?$AAc?$AAl?$AAo?$AAs?$AAe?$AA?$AA@ 100ec79c     LIBCMTD:fclose.obj
 0002:000167b0       ??_C@_1GA@KMIDAPAP@?$AAf?$AA?3?$AA?2?$AAd?$AAd?$AA?2?$AAv?$AAc?$AAt?$AAo?$AAo?$AAl?$AAs?$AA?2?$AAc?$AAr?$AAt?$AA_?$AAb?$AAl?$AAd?$AA?2?$AAs?$AAe?$AAl?$AAf?$AA_?$AAx?$AA8?$AA6?$AA?2?$AAc@ 100ec7b0     LIBCMTD:fclose.obj
 0002:00016810       ??_C@_1CC@FADMNIL@?$AA?$CI?$AAs?$AAt?$AAr?$AAe?$AAa?$AAm?$AA?5?$AA?$CB?$AA?$DN?$AA?5?$AAN?$AAU?$AAL?$AAL?$AA?$CJ?$AA?$AA@ 100ec810     LIBCMTD:fclose.obj
 0002:00016834       ??_C@_1BO@JINCABEC@?$AA_?$AAf?$AAc?$AAl?$AAo?$AAs?$AAe?$AA_?$AAn?$AAo?$AAl?$AAo?$AAc?$AAk?$AA?$AA@ 100ec834     LIBCMTD:fclose.obj
 0002:00016854       ??_C@_1BM@JMKHIAHP@?$AA?$CI?$AAs?$AAt?$AAr?$AA?5?$AA?$CB?$AA?$DN?$AA?5?$AAN?$AAU?$AAL?$AAL?$AA?$CJ?$AA?$AA@ 100ec854     LIBCMTD:fclose.obj
 0002:00016870       ??_C@_1M@CKCKPMNP@?$AAf?$AAt?$AAe?$AAl?$AAl?$AA?$AA@ 100ec870     LIBCMTD:ftell.obj
 0002:00016880       ??_C@_1FO@NBACIADE@?$AAf?$AA?3?$AA?2?$AAd?$AAd?$AA?2?$AAv?$AAc?$AAt?$AAo?$AAo?$AAl?$AAs?$AA?2?$AAc?$AAr?$AAt?$AA_?$AAb?$AAl?$AAd?$AA?2?$AAs?$AAe?$AAl?$AAf?$AA_?$AAx?$AA8?$AA6?$AA?2?$AAc@ 100ec880     LIBCMTD:ftell.obj
 0002:000168e0       ??_C@_1BM@EPIDANEK@?$AA_?$AAf?$AAt?$AAe?$AAl?$AAl?$AA_?$AAn?$AAo?$AAl?$AAo?$AAc?$AAk?$AA?$AA@ 100ec8e0     LIBCMTD:ftell.obj
 0002:00016900       ??_C@_1IO@PMHBOLJK@?$AA?$CI?$AA?$CI?$AAw?$AAh?$AAe?$AAn?$AAc?$AAe?$AA?5?$AA?$DN?$AA?$DN?$AA?5?$AAS?$AAE?$AAE?$AAK?$AA_?$AAS?$AAE?$AAT?$AA?$CJ?$AA?5?$AA?$HM?$AA?$HM?$AA?5?$AA?$CI?$AAw?$AAh?$AAe?$AAn?$AAc?$AAe@ 100ec900     LIBCMTD:fseek.obj
 0002:00016990       ??_C@_1M@HCCOIONH@?$AAf?$AAs?$AAe?$AAe?$AAk?$AA?$AA@ 100ec990     LIBCMTD:fseek.obj
 0002:000169a0       ??_C@_1FO@ECBPAICH@?$AAf?$AA?3?$AA?2?$AAd?$AAd?$AA?2?$AAv?$AAc?$AAt?$AAo?$AAo?$AAl?$AAs?$AA?2?$AAc?$AAr?$AAt?$AA_?$AAb?$AAl?$AAd?$AA?2?$AAs?$AAe?$AAl?$AAf?$AA_?$AAx?$AA8?$AA6?$AA?2?$AAc@ 100ec9a0     LIBCMTD:fseek.obj
 0002:00016a00       ??_C@_1CI@HBNALCBB@?$AA?$CI?$AA?$CK?$AAm?$AAo?$AAd?$AAe?$AA?5?$AA?$CB?$AA?$DN?$AA?5?$AA_?$AAT?$AA?$CI?$AA?8?$AA?2?$AA0?$AA?8?$AA?$CJ?$AA?$CJ?$AA?$AA@ 100eca00     LIBCMTD:fopen.obj
 0002:00016a28       ??_C@_1BO@MJMKAKCJ@?$AA?$CI?$AAm?$AAo?$AAd?$AAe?$AA?5?$AA?$CB?$AA?$DN?$AA?5?$AAN?$AAU?$AAL?$AAL?$AA?$CJ?$AA?$AA@ 100eca28     LIBCMTD:fopen.obj
 0002:00016a48       ??_C@_1BA@HNEAFMNL@?$AA_?$AAf?$AAs?$AAo?$AAp?$AAe?$AAn?$AA?$AA@ 100eca48     LIBCMTD:fopen.obj
 0002:00016a58       ??_C@_1FO@NCADDBOO@?$AAf?$AA?3?$AA?2?$AAd?$AAd?$AA?2?$AAv?$AAc?$AAt?$AAo?$AAo?$AAl?$AAs?$AA?2?$AAc?$AAr?$AAt?$AA_?$AAb?$AAl?$AAd?$AA?2?$AAs?$AAe?$AAl?$AAf?$AA_?$AAx?$AA8?$AA6?$AA?2?$AAc@ 100eca58     LIBCMTD:fopen.obj
 0002:00016ab8       ??_C@_1BO@CLGIAEOJ@?$AA?$CI?$AAf?$AAi?$AAl?$AAe?$AA?5?$AA?$CB?$AA?$DN?$AA?5?$AAN?$AAU?$AAL?$AAL?$AA?$CJ?$AA?$AA@ 100ecab8     LIBCMTD:fopen.obj
 0002:00016ad8       ??_C@_1BA@PBGKCCAP@?$AAf?$AAo?$AAp?$AAe?$AAn?$AA_?$AAs?$AA?$AA@ 100ecad8     LIBCMTD:fopen.obj
 0002:00016ae8       ??_C@_1CA@LLJLFCDN@?$AA?$CI?$AAp?$AAf?$AAi?$AAl?$AAe?$AA?5?$AA?$CB?$AA?$DN?$AA?5?$AAN?$AAU?$AAL?$AAL?$AA?$CJ?$AA?$AA@ 100ecae8     LIBCMTD:fopen.obj
 0002:00016b08       ??_C@_1BA@CMLCEIGG@?$AAf?$AAr?$AAe?$AAa?$AAd?$AA_?$AAs?$AA?$AA@ 100ecb08     LIBCMTD:fread.obj
 0002:00016b18       ??_C@_1FO@PNLFLIH@?$AAf?$AA?3?$AA?2?$AAd?$AAd?$AA?2?$AAv?$AAc?$AAt?$AAo?$AAo?$AAl?$AAs?$AA?2?$AAc?$AAr?$AAt?$AA_?$AAb?$AAl?$AAd?$AA?2?$AAs?$AAe?$AAl?$AAf?$AA_?$AAx?$AA8?$AA6?$AA?2?$AAc@ 100ecb18     LIBCMTD:fread.obj
 0002:00016b78       ??_C@_1DA@DKEFLDMG@?$AA?$CI?$AA?$CC?$AAb?$AAu?$AAf?$AAf?$AAe?$AAr?$AA?5?$AAt?$AAo?$AAo?$AA?5?$AAs?$AAm?$AAa?$AAl?$AAl?$AA?$CC?$AA?0?$AA?5?$AA0?$AA?$CJ?$AA?$AA@ 100ecb78     LIBCMTD:fread.obj
 0002:00016ba8       ??_C@_1LG@DCNDJCHK@?$AA?$CI?$AA?$CC?$AAI?$AAn?$AAc?$AAo?$AAn?$AAs?$AAi?$AAs?$AAt?$AAe?$AAn?$AAt?$AA?5?$AAS?$AAt?$AAr?$AAe?$AAa?$AAm?$AA?5?$AAC?$AAo?$AAu?$AAn?$AAt?$AA?4?$AA?5?$AAF?$AAl?$AAu@ 100ecba8     LIBCMTD:fread.obj
 0002:00016c60       ??_C@_1EA@FAMECDND@?$AAn?$AAu?$AAm?$AA?5?$AA?$DM?$AA?$DN?$AA?5?$AA?$CI?$AAS?$AAI?$AAZ?$AAE?$AA_?$AAM?$AAA?$AAX?$AA?5?$AA?1?$AA?5?$AAe?$AAl?$AAe?$AAm?$AAe?$AAn?$AAt?$AAS?$AAi?$AAz?$AAe?$AA?$CJ?$AA?$AA@ 100ecc60     LIBCMTD:fread.obj
 0002:00016ca0       ??_C@_1CA@IDPOGFL@?$AA_?$AAf?$AAr?$AAe?$AAa?$AAd?$AA_?$AAn?$AAo?$AAl?$AAo?$AAc?$AAk?$AA_?$AAs?$AA?$AA@ 100ecca0     LIBCMTD:fread.obj
 0002:00016cc0       ??_C@_1CC@CGFEEBMC@?$AA?$CI?$AAb?$AAu?$AAf?$AAf?$AAe?$AAr?$AA?5?$AA?$CB?$AA?$DN?$AA?5?$AAN?$AAU?$AAL?$AAL?$AA?$CJ?$AA?$AA@ 100eccc0     LIBCMTD:fread.obj
 0002:00016ce4       ??_C@_0BO@GNIAFIKK@Unknown?5Runtime?5Check?5Error?6?$AN?$AA@ 100ecce4     LIBCMTD:_error_.obj
 0002:00016d04       ??_C@_0CM@NGINOKPC@Stack?5memory?5around?5_alloca?5was?5@ 100ecd04     LIBCMTD:_error_.obj
 0002:00016d30       ??_C@_0DG@HKJMLLLP@A?5local?5variable?5was?5used?5before@ 100ecd30     LIBCMTD:_error_.obj
 0002:00016d68       ??_C@_0BN@FFOINMNJ@Stack?5memory?5was?5corrupted?6?$AN?$AA@ 100ecd68     LIBCMTD:_error_.obj
 0002:00016d88       ??_C@_0BBN@GPMLNJCF@A?5cast?5to?5a?5smaller?5data?5type?5ha@ 100ecd88     LIBCMTD:_error_.obj
 0002:00016ea8       ??_C@_0NN@NGPKDKPD@The?5value?5of?5ESP?5was?5not?5properl@ 100ecea8     LIBCMTD:_error_.obj
 0002:00017024       ??_C@_0CA@IODNCDPG@Run?9Time?5Check?5Failure?5?$CD?$CFd?5?9?5?$CFs?$AA@ 100ed024     LIBCMTD:_error_.obj
 0002:00017044       ??_C@_0BE@GNBOBNCK@Unknown?5Module?5Name?$AA@ 100ed044     LIBCMTD:_error_.obj
 0002:00017058       ??_C@_0BB@PFFGGCJP@Unknown?5Filename?$AA@ 100ed058     LIBCMTD:_error_.obj
 0002:00017070       ??_C@_1EA@NFKNIFJP@?$AAR?$AAu?$AAn?$AA?9?$AAT?$AAi?$AAm?$AAe?$AA?5?$AAC?$AAh?$AAe?$AAc?$AAk?$AA?5?$AAF?$AAa?$AAi?$AAl?$AAu?$AAr?$AAe?$AA?5?$AA?$CD?$AA?$CF?$AAd?$AA?5?$AA?9?$AA?5?$AA?$CF?$AAs?$AA?$AA@ 100ed070     LIBCMTD:_error_.obj
 0002:000170b0       ??_C@_1GM@OLMCBDMB@?$AAR?$AAu?$AAn?$AAt?$AAi?$AAm?$AAe?$AA?5?$AAC?$AAh?$AAe?$AAc?$AAk?$AA?5?$AAE?$AAr?$AAr?$AAo?$AAr?$AA?4?$AA?6?$AA?$AN?$AA?5?$AAU?$AAn?$AAa?$AAb?$AAl?$AAe?$AA?5?$AAt?$AAo@ 100ed0b0     LIBCMTD:_error_.obj
 0002:0001711c       ??_C@_0CG@IAFNJNEE@Stack?5corrupted?5near?5unknown?5var@ 100ed11c     LIBCMTD:_error_.obj
 0002:00017148       ??_C@_0EJ@LJKNEOLN@Stack?5area?5around?5_alloca?5memory@ 100ed148     LIBCMTD:_error_.obj
 0002:00017194       ??_C@_08KJEDNCKC@?$CFs?$CFs?$CFs?$CFs?$AA@ 100ed194     LIBCMTD:_error_.obj
 0002:000171a0       ??_C@_02LLMPMKNF@?$DO?5?$AA@ 100ed1a0     LIBCMTD:_error_.obj
 0002:000171a4       ??_C@_01EEMJAFIK@?6?$AA@   100ed1a4     LIBCMTD:_error_.obj
 0002:000171a8       ??_C@_0BC@KIBAILCI@?$CFs?$CFs?$CFp?$CFs?$CFld?$CFs?$CFd?$CFs?$AA@ 100ed1a8     LIBCMTD:_error_.obj
 0002:000171c0       ??_C@_0EI@CLEPFNGI@Stack?5area?5around?5_alloca?5memory@ 100ed1c0     LIBCMTD:_error_.obj
 0002:00017208       ??_C@_0N@MHFFIMFG@?6Address?3?50x?$AA@ 100ed208     LIBCMTD:_error_.obj
 0002:00017218       ??_C@_07DFDJCKFN@?6Size?3?5?$AA@ 100ed218     LIBCMTD:_error_.obj
 0002:00017220       ??_C@_0CK@DKGBICFE@?6Allocation?5number?5within?5this?5f@ 100ed220     LIBCMTD:_error_.obj
 0002:0001724c       ??_C@_08OMAHNMHJ@?6Data?3?5?$DM?$AA@ 100ed24c     LIBCMTD:_error_.obj
 0002:00017258       ??_C@_09FOPFMPEJ@wsprintfA?$AA@ 100ed258     LIBCMTD:_error_.obj
 0002:00017264       ??_C@_1BG@OILDLIOJ@?$AAu?$AAs?$AAe?$AAr?$AA3?$AA2?$AA?4?$AAd?$AAl?$AAl?$AA?$AA@ 100ed264     LIBCMTD:_error_.obj
 0002:0001727c       ??_C@_05MKKEDADM@?$CF?42X?5?$AA@ 100ed27c     LIBCMTD:_error_.obj
 0002:00017284       ??_C@_0DE@OHJBPMBP@A?5variable?5is?5being?5used?5without@ 100ed284     LIBCMTD:_error_.obj
 0002:000172b8       ??_C@_0BP@OGBCLIBO@Stack?5around?5_alloca?5corrupted?$AA@ 100ed2b8     LIBCMTD:_userapi_.obj
 0002:000172d8       ??_C@_0CK@CNLNOEPB@Local?5variable?5used?5before?5initi@ 100ed2d8     LIBCMTD:_userapi_.obj
 0002:00017304       ??_C@_0BI@CIGMDCBH@Stack?5memory?5corruption?$AA@ 100ed304     LIBCMTD:_userapi_.obj
 0002:0001731c       ??_C@_0CK@FEGOIOPB@Cast?5to?5smaller?5type?5causing?5los@ 100ed31c     LIBCMTD:_userapi_.obj
 0002:00017348       ??_C@_0BJ@HEGAHDFO@Stack?5pointer?5corruption?$AA@ 100ed348     LIBCMTD:_userapi_.obj
 0002:00017378       ??_C@_0DP@CBBAPGOP@f?3?2dd?2vctools?2crt_bld?2self_x86?2c@ 100ed378     LIBCMTD:chkesp.obj
 0002:000173b7       ??_C@_00CNPNBAHC@?$AA@     100ed3b7     LIBCMTD:chkesp.obj
 0002:000173b8       ??_C@_0NM@DNEDKLDF@The?5value?5of?5ESP?5was?5not?5properl@ 100ed3b8     LIBCMTD:chkesp.obj
 0002:00017494       ??_C@_1O@EJLDHPPL@?$AAs?$AAi?$AAg?$AAn?$AAa?$AAl?$AA?$AA@ 100ed494     LIBCMTD:winsig.obj
 0002:000174a8       ??_C@_1GA@DBECNFG@?$AAf?$AA?3?$AA?2?$AAd?$AAd?$AA?2?$AAv?$AAc?$AAt?$AAo?$AAo?$AAl?$AAs?$AA?2?$AAc?$AAr?$AAt?$AA_?$AAb?$AAl?$AAd?$AA?2?$AAs?$AAe?$AAl?$AAf?$AA_?$AAx?$AA8?$AA6?$AA?2?$AAc@ 100ed4a8     LIBCMTD:winsig.obj
 0002:00017508       ??_C@_1DO@MLNEDKGB@?$AA?$CI?$AA?$CC?$AAI?$AAn?$AAv?$AAa?$AAl?$AAi?$AAd?$AA?5?$AAs?$AAi?$AAg?$AAn?$AAa?$AAl?$AA?5?$AAo?$AAr?$AA?5?$AAe?$AAr?$AAr?$AAo?$AAr?$AA?$CC?$AA?0?$AA?5?$AA0?$AA?$CJ?$AA?$AA@ 100ed508     LIBCMTD:winsig.obj
 0002:00017548       ??_C@_0DA@ELJOOIJF@f?3?2dd?2vctools?2crt_bld?2self_x86?2c@ 100ed548     LIBCMTD:winsig.obj
 0002:00017578       ??_C@_1M@DMJEIKHL@?$AAr?$AAa?$AAi?$AAs?$AAe?$AA?$AA@ 100ed578     LIBCMTD:winsig.obj
 0002:00017584       ??_C@_0BI@DFKBFLJE@GetProcessWindowStation?$AA@ 100ed584     LIBCMTD:crtmboxw.obj
 0002:0001759c       ??_C@_0BK@DEKFELLI@GetUserObjectInformationW?$AA@ 100ed59c     LIBCMTD:crtmboxw.obj
 0002:000175b8       ??_C@_0BD@HHGDFDBJ@GetLastActivePopup?$AA@ 100ed5b8     LIBCMTD:crtmboxw.obj
 0002:000175cc       ??_C@_0BA@HNOPNCHB@GetActiveWindow?$AA@ 100ed5cc     LIBCMTD:crtmboxw.obj
 0002:000175dc       ??_C@_0M@DLDCCGNP@MessageBoxW?$AA@ 100ed5dc     LIBCMTD:crtmboxw.obj
 0002:000175e8       ??_C@_1BG@GOEBHBDC@?$AAU?$AAS?$AAE?$AAR?$AA3?$AA2?$AA?4?$AAD?$AAL?$AAL?$AA?$AA@ 100ed5e8     LIBCMTD:crtmboxw.obj
 0002:00017600       ??_C@_1CM@HABGDNLJ@?$AAl?$AAe?$AAn?$AAg?$AAt?$AAh?$AA?5?$AA?$DM?$AA?5?$AAs?$AAi?$AAz?$AAe?$AAI?$AAn?$AAT?$AAC?$AAh?$AAa?$AAr?$AAs?$AA?$AA@ 100ed600     LIBCMTD:xtows.obj
 0002:0001762c       ??_C@_1DE@PCJGDBBD@?$AA2?$AA?5?$AA?$DM?$AA?$DN?$AA?5?$AAr?$AAa?$AAd?$AAi?$AAx?$AA?5?$AA?$CG?$AA?$CG?$AA?5?$AAr?$AAa?$AAd?$AAi?$AAx?$AA?5?$AA?$DM?$AA?$DN?$AA?5?$AA3?$AA6?$AA?$AA@ 100ed62c     LIBCMTD:xtows.obj
 0002:00017660       ??_C@_1FA@MKGGAGEI@?$AAs?$AAi?$AAz?$AAe?$AAI?$AAn?$AAT?$AAC?$AAh?$AAa?$AAr?$AAs?$AA?5?$AA?$DO?$AA?5?$AA?$CI?$AAs?$AAi?$AAz?$AAe?$AA_?$AAt?$AA?$CJ?$AA?$CI?$AAi?$AAs?$AA_?$AAn?$AAe?$AAg?$AA?5?$AA?$DP@ 100ed660     LIBCMTD:xtows.obj
 0002:000176b0       ??_C@_1CC@JNJFIMGE@?$AAs?$AAi?$AAz?$AAe?$AAI?$AAn?$AAT?$AAC?$AAh?$AAa?$AAr?$AAs?$AA?5?$AA?$DO?$AA?5?$AA0?$AA?$AA@ 100ed6b0     LIBCMTD:xtows.obj
 0002:000176d4       ??_C@_1O@NCBFODOE@?$AAx?$AAt?$AAo?$AAw?$AA_?$AAs?$AA?$AA@ 100ed6d4     LIBCMTD:xtows.obj
 0002:000176e8       ??_C@_1FM@MFCBFCGB@?$AAf?$AA?3?$AA?2?$AAd?$AAd?$AA?2?$AAv?$AAc?$AAt?$AAo?$AAo?$AAl?$AAs?$AA?2?$AAc?$AAr?$AAt?$AA_?$AAb?$AAl?$AAd?$AA?2?$AAs?$AAe?$AAl?$AAf?$AA_?$AAx?$AA8?$AA6?$AA?2?$AAc@ 100ed6e8     LIBCMTD:xtows.obj
 0002:00017744       ??_C@_1BI@ICGGMGLK@?$AAb?$AAu?$AAf?$AA?5?$AA?$CB?$AA?$DN?$AA?5?$AAN?$AAU?$AAL?$AAL?$AA?$AA@ 100ed744     LIBCMTD:xtows.obj
 0002:0001775c       ??_C@_1BC@HDEJCFPB@?$AAx?$AA6?$AA4?$AAt?$AAo?$AAw?$AA_?$AAs?$AA?$AA@ 100ed75c     LIBCMTD:xtows.obj
 0002:00017770       ??_C@_1DM@MADKGDLO@?$AA?$CI?$AAL?$AA?$CC?$AAB?$AAu?$AAf?$AAf?$AAe?$AAr?$AA?5?$AAi?$AAs?$AA?5?$AAt?$AAo?$AAo?$AA?5?$AAs?$AAm?$AAa?$AAl?$AAl?$AA?$CC?$AA?5?$AA?$CG?$AA?$CG?$AA?5?$AA0?$AA?$CJ?$AA?$AA@ 100ed770     LIBCMTD:wcsncat_s.obj
 0002:000177ac       ??_C@_1CI@HCPHDDLE@?$AAB?$AAu?$AAf?$AAf?$AAe?$AAr?$AA?5?$AAi?$AAs?$AA?5?$AAt?$AAo?$AAo?$AA?5?$AAs?$AAm?$AAa?$AAl?$AAl?$AA?$AA@ 100ed7ac     LIBCMTD:wcsncat_s.obj
 0002:000177d8       ??_C@_1FA@MJKDNFFB@?$AA?$CI?$AAL?$AA?$CC?$AAS?$AAt?$AAr?$AAi?$AAn?$AAg?$AA?5?$AAi?$AAs?$AA?5?$AAn?$AAo?$AAt?$AA?5?$AAn?$AAu?$AAl?$AAl?$AA?5?$AAt?$AAe?$AAr?$AAm?$AAi?$AAn?$AAa?$AAt?$AAe?$AAd@ 100ed7d8     LIBCMTD:wcsncat_s.obj
 0002:00017828       ??_C@_1DM@FHLMIEG@?$AAS?$AAt?$AAr?$AAi?$AAn?$AAg?$AA?5?$AAi?$AAs?$AA?5?$AAn?$AAo?$AAt?$AA?5?$AAn?$AAu?$AAl?$AAl?$AA?5?$AAt?$AAe?$AAr?$AAm?$AAi?$AAn?$AAa?$AAt?$AAe?$AAd?$AA?$AA@ 100ed828     LIBCMTD:wcsncat_s.obj
 0002:00017864       ??_C@_1CG@OFBJMIGJ@?$AA?$CI?$AA?$CI?$AA?$CI?$AA_?$AAS?$AAr?$AAc?$AA?$CJ?$AA?$CJ?$AA?$CJ?$AA?5?$AA?$CB?$AA?$DN?$AA?5?$AAN?$AAU?$AAL?$AAL?$AA?$AA@ 100ed864     LIBCMTD:wcsncat_s.obj
 0002:0001788c       ??_C@_1BE@KPKIKKCF@?$AAw?$AAc?$AAs?$AAn?$AAc?$AAa?$AAt?$AA_?$AAs?$AA?$AA@ 100ed88c     LIBCMTD:wcsncat_s.obj
 0002:000178a0       ??_C@_1GK@DICCLCDF@?$AAf?$AA?3?$AA?2?$AAd?$AAd?$AA?2?$AAv?$AAc?$AAt?$AAo?$AAo?$AAl?$AAs?$AA?2?$AAc?$AAr?$AAt?$AA_?$AAb?$AAl?$AAd?$AA?2?$AAs?$AAe?$AAl?$AAf?$AA_?$AAx?$AA8?$AA6?$AA?2?$AAc@ 100ed8a0     LIBCMTD:wcsncat_s.obj
 0002:00017910       ??_C@_1FC@PFMLEHKI@?$AA?$CI?$AA?$CI?$AA_?$AAD?$AAs?$AAt?$AA?$CJ?$AA?$CJ?$AA?5?$AA?$CB?$AA?$DN?$AA?5?$AAN?$AAU?$AAL?$AAL?$AA?5?$AA?$CG?$AA?$CG?$AA?5?$AA?$CI?$AA?$CI?$AA_?$AAS?$AAi?$AAz?$AAe?$AAI?$AAn?$AAW?$AAo?$AAr@ 100ed910     LIBCMTD:wcsncat_s.obj
 0002:00017964       ??_C@_1BE@PMMBFFCC@?$AAw?$AAc?$AAs?$AAn?$AAc?$AAp?$AAy?$AA_?$AAs?$AA?$AA@ 100ed964     LIBCMTD:wcsncpy_s.obj
 0002:00017978       ??_C@_1GK@PAJJBKJF@?$AAf?$AA?3?$AA?2?$AAd?$AAd?$AA?2?$AAv?$AAc?$AAt?$AAo?$AAo?$AAl?$AAs?$AA?2?$AAc?$AAr?$AAt?$AA_?$AAb?$AAl?$AAd?$AA?2?$AAs?$AAe?$AAl?$AAf?$AA_?$AAx?$AA8?$AA6?$AA?2?$AAc@ 100ed978     LIBCMTD:wcsncpy_s.obj
 0002:000179e4       ??_C@_1BC@PLIEPKPJ@?$AAw?$AAc?$AAs?$AAc?$AAa?$AAt?$AA_?$AAs?$AA?$AA@ 100ed9e4     LIBCMTD:wcscat_s.obj
 0002:000179f8       ??_C@_1GI@NOKGIAGA@?$AAf?$AA?3?$AA?2?$AAd?$AAd?$AA?2?$AAv?$AAc?$AAt?$AAo?$AAo?$AAl?$AAs?$AA?2?$AAc?$AAr?$AAt?$AA_?$AAb?$AAl?$AAd?$AA?2?$AAs?$AAe?$AAl?$AAf?$AA_?$AAx?$AA8?$AA6?$AA?2?$AAc@ 100ed9f8     LIBCMTD:wcscat_s.obj
 0002:00017a60       ??_C@_1BC@KIONAFPO@?$AAw?$AAc?$AAs?$AAc?$AAp?$AAy?$AA_?$AAs?$AA?$AA@ 100eda60     LIBCMTD:wcscpy_s.obj
 0002:00017a78       ??_C@_1GI@BGBNCIMA@?$AAf?$AA?3?$AA?2?$AAd?$AAd?$AA?2?$AAv?$AAc?$AAt?$AAo?$AAo?$AAl?$AAs?$AA?2?$AAc?$AAr?$AAt?$AA_?$AAb?$AAl?$AAd?$AA?2?$AAs?$AAe?$AAl?$AAf?$AA_?$AAx?$AA8?$AA6?$AA?2?$AAc@ 100eda78     LIBCMTD:wcscpy_s.obj
 0002:00017ae0       ??_C@_1BC@BHLPNJBO@?$AAf?$AAw?$AAp?$AAr?$AAi?$AAn?$AAt?$AAf?$AA?$AA@ 100edae0     LIBCMTD:fwprintf.obj
 0002:00017af8       ??_C@_1GE@NIBJAMDO@?$AAf?$AA?3?$AA?2?$AAd?$AAd?$AA?2?$AAv?$AAc?$AAt?$AAo?$AAo?$AAl?$AAs?$AA?2?$AAc?$AAr?$AAt?$AA_?$AAb?$AAl?$AAd?$AA?2?$AAs?$AAe?$AAl?$AAf?$AA_?$AAx?$AA8?$AA6?$AA?2?$AAc@ 100edaf8     LIBCMTD:fwprintf.obj
 0002:00017b5c       ??_C@_0DB@MIGHMKAN@f?3?2dd?2vctools?2crt_bld?2self_x86?2c@ 100edb5c     LIBCMTD:setvbuf.obj
 0002:00017b90       ??_C@_1EG@IJNJIDNB@?$AA?$CI?$AA?$CI?$AA2?$AA?5?$AA?$DM?$AA?$DN?$AA?5?$AAs?$AAi?$AAz?$AAe?$AA?$CJ?$AA?5?$AA?$CG?$AA?$CG?$AA?5?$AA?$CI?$AAs?$AAi?$AAz?$AAe?$AA?5?$AA?$DM?$AA?$DN?$AA?5?$AAI?$AAN?$AAT?$AA_?$AAM?$AAA?$AAX@ 100edb90     LIBCMTD:setvbuf.obj
 0002:00017bd8       ??_C@_1HC@CBFEDAGG@?$AA?$CI?$AAt?$AAy?$AAp?$AAe?$AA?5?$AA?$DN?$AA?$DN?$AA?5?$AA_?$AAI?$AAO?$AAN?$AAB?$AAF?$AA?$CJ?$AA?5?$AA?$HM?$AA?$HM?$AA?5?$AA?$CI?$AAt?$AAy?$AAp?$AAe?$AA?5?$AA?$DN?$AA?$DN?$AA?5?$AA_?$AAI?$AAO@ 100edbd8     LIBCMTD:setvbuf.obj
 0002:00017c4c       ??_C@_1BA@OGODIODK@?$AAs?$AAe?$AAt?$AAv?$AAb?$AAu?$AAf?$AA?$AA@ 100edc4c     LIBCMTD:setvbuf.obj
 0002:00017c60       ??_C@_1GC@FPPJLAOD@?$AAf?$AA?3?$AA?2?$AAd?$AAd?$AA?2?$AAv?$AAc?$AAt?$AAo?$AAo?$AAl?$AAs?$AA?2?$AAc?$AAr?$AAt?$AA_?$AAb?$AAl?$AAd?$AA?2?$AAs?$AAe?$AAl?$AAf?$AA_?$AAx?$AA8?$AA6?$AA?2?$AAc@ 100edc60     LIBCMTD:setvbuf.obj
 0002:00017cc4       ??_C@_0CP@BNKDODJJ@f?3?2dd?2vctools?2crt_bld?2self_x86?2c@ 100edcc4     LIBCMTD:_file.obj
 0002:00017cf4       ??_C@_1CA@LFDHAMEM@?$AA_?$AAs?$AAe?$AAt?$AA_?$AAe?$AAr?$AAr?$AAo?$AAr?$AA_?$AAm?$AAo?$AAd?$AAe?$AA?$AA@ 100edcf4     LIBCMTD:errmode.obj
 0002:00017d18       ??_C@_1GC@FGMGFCNB@?$AAf?$AA?3?$AA?2?$AAd?$AAd?$AA?2?$AAv?$AAc?$AAt?$AAo?$AAo?$AAl?$AAs?$AA?2?$AAc?$AAr?$AAt?$AA_?$AAb?$AAl?$AAd?$AA?2?$AAs?$AAe?$AAl?$AAf?$AA_?$AAx?$AA8?$AA6?$AA?2?$AAc@ 100edd18     LIBCMTD:errmode.obj
 0002:00017d7c       ??_C@_1DE@BCNCAIK@?$AA?$CI?$AA?$CC?$AAI?$AAn?$AAv?$AAa?$AAl?$AAi?$AAd?$AA?5?$AAe?$AAr?$AAr?$AAo?$AAr?$AA_?$AAm?$AAo?$AAd?$AAe?$AA?$CC?$AA?0?$AA?5?$AA0?$AA?$CJ?$AA?$AA@ 100edd7c     LIBCMTD:errmode.obj
 0002:00017db0       ??_C@_1CE@IGKFIJFD@?$AA_?$AAv?$AAs?$AAw?$AAp?$AAr?$AAi?$AAn?$AAt?$AAf?$AA_?$AAh?$AAe?$AAl?$AAp?$AAe?$AAr?$AA?$AA@ 100eddb0     LIBCMTD:vswprnc.obj
 0002:00017dd8       ??_C@_1GE@KINELFI@?$AAf?$AA?3?$AA?2?$AAd?$AAd?$AA?2?$AAv?$AAc?$AAt?$AAo?$AAo?$AAl?$AAs?$AA?2?$AAc?$AAr?$AAt?$AA_?$AAb?$AAl?$AAd?$AA?2?$AAs?$AAe?$AAl?$AAf?$AA_?$AAx?$AA8?$AA6?$AA?2?$AAc@ 100eddd8     LIBCMTD:vswprnc.obj
 0002:00017e3c       ??_C@_1DA@HPBFKMEB@?$AA?$CI?$AA?$CC?$AAB?$AAu?$AAf?$AAf?$AAe?$AAr?$AA?5?$AAt?$AAo?$AAo?$AA?5?$AAs?$AAm?$AAa?$AAl?$AAl?$AA?$CC?$AA?0?$AA?5?$AA0?$AA?$CJ?$AA?$AA@ 100ede3c     LIBCMTD:vswprnc.obj
 0002:00017e70       ??_C@_1EE@MPCHJFGP@?$AAs?$AAt?$AAr?$AAi?$AAn?$AAg?$AA?5?$AA?$CB?$AA?$DN?$AA?5?$AAN?$AAU?$AAL?$AAL?$AA?5?$AA?$CG?$AA?$CG?$AA?5?$AAs?$AAi?$AAz?$AAe?$AAI?$AAn?$AAW?$AAo?$AAr?$AAd?$AAs?$AA?5?$AA?$DO?$AA?5@ 100ede70     LIBCMTD:vswprnc.obj
 0002:00017eb4       ??_C@_1BO@OALHJLCI@?$AA_?$AAv?$AAs?$AAw?$AAp?$AAr?$AAi?$AAn?$AAt?$AAf?$AA_?$AAs?$AA_?$AAl?$AA?$AA@ 100edeb4     LIBCMTD:vswprnc.obj
 0002:00017ed4       ??_C@_1BO@MLMCMBKN@?$AAf?$AAo?$AAr?$AAm?$AAa?$AAt?$AA?5?$AA?$CB?$AA?$DN?$AA?5?$AAN?$AAU?$AAL?$AAL?$AA?$AA@ 100eded4     LIBCMTD:vswprnc.obj
 0002:00017ef4       ??_C@_1CA@BKFKMJFF@?$AA_?$AAv?$AAs?$AAn?$AAw?$AAp?$AAr?$AAi?$AAn?$AAt?$AAf?$AA_?$AAs?$AA_?$AAl?$AA?$AA@ 100edef4     LIBCMTD:vswprnc.obj
 0002:00017f20       ??_C@_1GE@KOCFNGPB@?$AA_?$AAc?$AAo?$AAn?$AAt?$AAr?$AAo?$AAl?$AAf?$AAp?$AA_?$AAs?$AA?$CI?$AA?$CI?$AA?$CI?$AAv?$AAo?$AAi?$AAd?$AA?5?$AA?$CK?$AA?$CJ?$AA0?$AA?$CJ?$AA?0?$AA?5?$AA0?$AAx?$AA0?$AA0?$AA0?$AA1@ 100edf20     LIBCMTD:fp8.obj
 0002:00017f84       ??_C@_1CK@JMKHCBEI@?$AA_?$AAs?$AAe?$AAt?$AAd?$AAe?$AAf?$AAa?$AAu?$AAl?$AAt?$AAp?$AAr?$AAe?$AAc?$AAi?$AAs?$AAi?$AAo?$AAn?$AA?$AA@ 100edf84     LIBCMTD:fp8.obj
 0002:00017fb0       ??_C@_1GG@PHGJJHBC@?$AAf?$AA?3?$AA?2?$AAd?$AAd?$AA?2?$AAv?$AAc?$AAt?$AAo?$AAo?$AAl?$AAs?$AA?2?$AAc?$AAr?$AAt?$AA_?$AAb?$AAl?$AAd?$AA?2?$AAs?$AAe?$AAl?$AAf?$AA_?$AAx?$AA8?$AA6?$AA?2?$AAc@ 100edfb0     LIBCMTD:fp8.obj
 0002:00018018       ??_C@_1CA@CBMNPEO@?$AAs?$AAi?$AAz?$AAe?$AAI?$AAn?$AAB?$AAy?$AAt?$AAe?$AAs?$AA?5?$AA?$DO?$AA?5?$AA0?$AA?$AA@ 100ee018     LIBCMTD:cvt.obj
 0002:00018038       ??_C@_1BC@INKAPMHI@?$AA_?$AAc?$AAf?$AAt?$AAo?$AAe?$AA_?$AAl?$AA?$AA@ 100ee038     LIBCMTD:cvt.obj
 0002:00018050       ??_C@_1GO@NCCGBNKI@?$AAf?$AA?3?$AA?2?$AAd?$AAd?$AA?2?$AAv?$AAc?$AAt?$AAo?$AAo?$AAl?$AAs?$AA?2?$AAc?$AAr?$AAt?$AA_?$AAb?$AAl?$AAd?$AA?2?$AAs?$AAe?$AAl?$AAf?$AA_?$AAx?$AA8?$AA6?$AA?2?$AAc@ 100ee050     LIBCMTD:cvt.obj
 0002:000180c0       ??_C@_05KLBDPFGC@e?$CL000?$AA@ 100ee0c0     LIBCMTD:cvt.obj
 0002:000180c8       ??_C@_1LE@EOIFGNCJ@?$AAs?$AAt?$AAr?$AAc?$AAp?$AAy?$AA_?$AAs?$AA?$CI?$AAp?$AA?0?$AA?5?$AA?$CI?$AAs?$AAi?$AAz?$AAe?$AAI?$AAn?$AAB?$AAy?$AAt?$AAe?$AAs?$AA?5?$AA?$DN?$AA?$DN?$AA?5?$AA?$CI?$AAs?$AAi?$AAz@ 100ee0c8     LIBCMTD:cvt.obj
 0002:00018180       ??_C@_1HE@NACBNDPP@?$AAs?$AAi?$AAz?$AAe?$AAI?$AAn?$AAB?$AAy?$AAt?$AAe?$AAs?$AA?5?$AA?$DO?$AA?5?$AA?$CI?$AAs?$AAi?$AAz?$AAe?$AA_?$AAt?$AA?$CJ?$AA?$CI?$AA3?$AA?5?$AA?$CL?$AA?5?$AA?$CI?$AAn?$AAd?$AAe?$AAc@ 100ee180     LIBCMTD:cvt.obj
 0002:000181f4       ??_C@_1BE@OLBNEILL@?$AA_?$AAc?$AAf?$AAt?$AAo?$AAe?$AA2?$AA_?$AAl?$AA?$AA@ 100ee1f4     LIBCMTD:cvt.obj
 0002:00018208       ??_C@_1FC@IKIMAMJB@?$AAs?$AAi?$AAz?$AAe?$AAI?$AAn?$AAB?$AAy?$AAt?$AAe?$AAs?$AA?5?$AA?$DO?$AA?5?$AA?$CI?$AAs?$AAi?$AAz?$AAe?$AA_?$AAt?$AA?$CJ?$AA?$CI?$AA1?$AA?5?$AA?$CL?$AA?5?$AA4?$AA?5?$AA?$CL?$AA?5?$AAn@ 100ee208     LIBCMTD:cvt.obj
 0002:0001825c       ??_C@_1BC@JOKPCIC@?$AA_?$AAc?$AAf?$AAt?$AAo?$AAa?$AA_?$AAl?$AA?$AA@ 100ee25c     LIBCMTD:cvt.obj
 0002:00018270       ??_C@_1BC@DCPPLJL@?$AA_?$AAc?$AAf?$AAt?$AAo?$AAf?$AA_?$AAl?$AA?$AA@ 100ee270     LIBCMTD:cvt.obj
 0002:00018284       ??_C@_1BE@CKPDLI@?$AA_?$AAc?$AAf?$AAt?$AAo?$AAf?$AA2?$AA_?$AAl?$AA?$AA@ 100ee284     LIBCMTD:cvt.obj
 0002:00018298       ??_C@_1BC@MPIFPLAF@?$AA_?$AAc?$AAf?$AAt?$AAo?$AAg?$AA_?$AAl?$AA?$AA@ 100ee298     LIBCMTD:cvt.obj
 0002:000182ac       ??_C@_1BG@KCMPBBDK@?$AA_?$AAg?$AAe?$AAt?$AA_?$AAe?$AAr?$AAr?$AAn?$AAo?$AA?$AA@ 100ee2ac     LIBCMTD:dosmap.obj
 0002:000182c8       ??_C@_1GA@MFGIMPNL@?$AAf?$AA?3?$AA?2?$AAd?$AAd?$AA?2?$AAv?$AAc?$AAt?$AAo?$AAo?$AAl?$AAs?$AA?2?$AAc?$AAr?$AAt?$AA_?$AAb?$AAl?$AAd?$AA?2?$AAs?$AAe?$AAl?$AAf?$AA_?$AAx?$AA8?$AA6?$AA?2?$AAc@ 100ee2c8     LIBCMTD:dosmap.obj
 0002:00018328       ??_C@_1BM@INIPHHDD@?$AA_?$AAg?$AAe?$AAt?$AA_?$AAd?$AAo?$AAs?$AAe?$AAr?$AAr?$AAn?$AAo?$AA?$AA@ 100ee328     LIBCMTD:dosmap.obj
 0002:00018344       ??_C@_1CC@CGHMNGDG@?$AAA?$AAs?$AAs?$AAe?$AAr?$AAt?$AAi?$AAo?$AAn?$AA?5?$AAF?$AAa?$AAi?$AAl?$AAe?$AAd?$AA?$AA@ 100ee344     LIBCMTD:dbgrptw.obj
 0002:00018368       ??_C@_1M@ILHOPKA@?$AAE?$AAr?$AAr?$AAo?$AAr?$AA?$AA@ 100ee368     LIBCMTD:dbgrptw.obj
 0002:00018374       ??_C@_1BA@GLMCNLEM@?$AAW?$AAa?$AAr?$AAn?$AAi?$AAn?$AAg?$AA?$AA@ 100ee374     LIBCMTD:dbgrptw.obj
 0002:00018390       ??_C@_0DA@PCCBBBID@f?3?2dd?2vctools?2crt_bld?2self_x86?2c@ 100ee390     LIBCMTD:dbgrptw.obj
 0002:000183c0       ??_C@_1FI@PHIAFFHM@?$AA?$CI?$AA?$CC?$AAT?$AAh?$AAe?$AA?5?$AAh?$AAo?$AAo?$AAk?$AA?5?$AAf?$AAu?$AAn?$AAc?$AAt?$AAi?$AAo?$AAn?$AA?5?$AAi?$AAs?$AA?5?$AAn?$AAo?$AAt?$AA?5?$AAi?$AAn?$AA?5?$AAt?$AAh@ 100ee3c0     LIBCMTD:dbgrptw.obj
 0002:00018418       ??_C@_1CG@JBJEFOCM@?$AAp?$AAf?$AAn?$AAN?$AAe?$AAw?$AAH?$AAo?$AAo?$AAk?$AA?5?$AA?$CB?$AA?$DN?$AA?5?$AAN?$AAU?$AAL?$AAL?$AA?$AA@ 100ee418     LIBCMTD:dbgrptw.obj
 0002:00018440       ??_C@_1CI@IIHEAKEI@?$AA_?$AAC?$AAr?$AAt?$AAS?$AAe?$AAt?$AAR?$AAe?$AAp?$AAo?$AAr?$AAt?$AAH?$AAo?$AAo?$AAk?$AAW?$AA2?$AA?$AA@ 100ee440     LIBCMTD:dbgrptw.obj
 0002:00018468       ??_C@_1GA@IBJGKIFE@?$AAf?$AA?3?$AA?2?$AAd?$AAd?$AA?2?$AAv?$AAc?$AAt?$AAo?$AAo?$AAl?$AAs?$AA?2?$AAc?$AAr?$AAt?$AA_?$AAb?$AAl?$AAd?$AA?2?$AAs?$AAe?$AAl?$AAf?$AA_?$AAx?$AA8?$AA6?$AA?2?$AAc@ 100ee468     LIBCMTD:dbgrptw.obj
 0002:000184c8       ??_C@_1HI@OFEHGPPC@?$AAm?$AAo?$AAd?$AAe?$AA?5?$AA?$DN?$AA?$DN?$AA?5?$AA_?$AAC?$AAR?$AAT?$AA_?$AAR?$AAP?$AAT?$AAH?$AAO?$AAO?$AAK?$AA_?$AAI?$AAN?$AAS?$AAT?$AAA?$AAL?$AAL?$AA?5?$AA?$HM?$AA?$HM?$AA?5@ 100ee4c8     LIBCMTD:dbgrptw.obj
 0002:00018540       ??_C@_1EG@PEOEAKBB@?$AAM?$AAi?$AAc?$AAr?$AAo?$AAs?$AAo?$AAf?$AAt?$AA?5?$AAV?$AAi?$AAs?$AAu?$AAa?$AAl?$AA?5?$AAC?$AA?$CL?$AA?$CL?$AA?5?$AAD?$AAe?$AAb?$AAu?$AAg?$AA?5?$AAL?$AAi?$AAb?$AAr?$AAa@ 100ee540     LIBCMTD:dbgrptw.obj
 0002:00018588       ??_C@_1FG@BBOLDHGF@?$AA_?$AAC?$AAr?$AAt?$AAD?$AAb?$AAg?$AAR?$AAe?$AAp?$AAo?$AAr?$AAt?$AA?3?$AA?5?$AAS?$AAt?$AAr?$AAi?$AAn?$AAg?$AA?5?$AAt?$AAo?$AAo?$AA?5?$AAl?$AAo?$AAn?$AAg?$AA?5?$AAo@ 100ee588     LIBCMTD:dbgrptw.obj
 0002:000185e0       ??_C@_1JI@EACPGHID@?$AAw?$AAc?$AAs?$AAc?$AAp?$AAy?$AA_?$AAs?$AA?$CI?$AAs?$AAz?$AAO?$AAu?$AAt?$AAM?$AAe?$AAs?$AAs?$AAa?$AAg?$AAe?$AA?0?$AA?5?$AA4?$AA0?$AA9?$AA6?$AA?0?$AA?5?$AAL?$AA?$CC?$AA_@ 100ee5e0     LIBCMTD:dbgrptw.obj
 0002:00018678       ??_C@_1BI@KALLJECN@?$AA?$CI?$AA?$CK?$AA_?$AAe?$AAr?$AAr?$AAn?$AAo?$AA?$CI?$AA?$CJ?$AA?$CJ?$AA?$AA@ 100ee678     LIBCMTD:dbgrptw.obj
 0002:00018690       ??_C@_1KK@MEFMPOLM@?$AAD?$AAe?$AAb?$AAu?$AAg?$AA?5?$AA?$CF?$AAs?$AA?$CB?$AA?6?$AA?6?$AAP?$AAr?$AAo?$AAg?$AAr?$AAa?$AAm?$AA?3?$AA?5?$AA?$CF?$AAs?$AA?$CF?$AAs?$AA?$CF?$AAs?$AA?$CF?$AAs?$AA?$CF?$AAs?$AA?$CF?$AAs@ 100ee690     LIBCMTD:dbgrptw.obj
 0002:0001873c       ??_C@_1BE@CGCJKGHI@?$AA?6?$AAM?$AAo?$AAd?$AAu?$AAl?$AAe?$AA?3?$AA?5?$AA?$AA@ 100ee73c     LIBCMTD:dbgrptw.obj
 0002:00018750       ??_C@_1BA@LNHECFIM@?$AA?6?$AAF?$AAi?$AAl?$AAe?$AA?3?$AA?5?$AA?$AA@ 100ee750     LIBCMTD:dbgrptw.obj
 0002:00018760       ??_C@_1BA@GLLGCPCK@?$AA?6?$AAL?$AAi?$AAn?$AAe?$AA?3?$AA?5?$AA?$AA@ 100ee760     LIBCMTD:dbgrptw.obj
 0002:00018770       ??_C@_11LOCGONAA@?$AA?$AA@ 100ee770     LIBCMTD:dbgrptw.obj
 0002:00018778       ??_C@_1OG@PMPPFHAF@?$AA?6?$AA?6?$AAF?$AAo?$AAr?$AA?5?$AAi?$AAn?$AAf?$AAo?$AAr?$AAm?$AAa?$AAt?$AAi?$AAo?$AAn?$AA?5?$AAo?$AAn?$AA?5?$AAh?$AAo?$AAw?$AA?5?$AAy?$AAo?$AAu?$AAr?$AA?5?$AAp?$AAr@ 100ee778     LIBCMTD:dbgrptw.obj
 0002:00018860       ??_C@_1NO@LECLLHOL@?$AAm?$AAe?$AAm?$AAc?$AAp?$AAy?$AA_?$AAs?$AA?$CI?$AAs?$AAz?$AAS?$AAh?$AAo?$AAr?$AAt?$AAP?$AAr?$AAo?$AAg?$AAN?$AAa?$AAm?$AAe?$AA?0?$AA?5?$AAs?$AAi?$AAz?$AAe?$AAo?$AAf@ 100ee860     LIBCMTD:dbgrptw.obj
 0002:00018940       ??_C@_1GI@DEDNNLCI@?$AAw?$AAc?$AAs?$AAc?$AAp?$AAy?$AA_?$AAs?$AA?$CI?$AAs?$AAz?$AAE?$AAx?$AAe?$AAN?$AAa?$AAm?$AAe?$AA?0?$AA?5?$AA2?$AA6?$AA0?$AA?0?$AA?5?$AAL?$AA?$CC?$AA?$DM?$AAp?$AAr?$AAo?$AAg@ 100ee940     LIBCMTD:dbgrptw.obj
 0002:000189a8       ??_C@_1CI@PGJIFDEK@?$AA_?$AA_?$AAc?$AAr?$AAt?$AAM?$AAe?$AAs?$AAs?$AAa?$AAg?$AAe?$AAW?$AAi?$AAn?$AAd?$AAo?$AAw?$AAW?$AA?$AA@ 100ee9a8     LIBCMTD:dbgrptw.obj
 0002:000189d0       ??_C@_0DB@MHMEONEC@f?3?2dd?2vctools?2crt_bld?2self_x86?2c@ 100ee9d0     LIBCMTD:mbctype.obj
 0002:00018a08       ??_C@_1GE@HMAALBPJ@?$AAf?$AA?3?$AA?2?$AAd?$AAd?$AA?2?$AAv?$AAc?$AAt?$AAo?$AAo?$AAl?$AAs?$AA?2?$AAc?$AAr?$AAt?$AA_?$AAb?$AAl?$AAd?$AA?2?$AAs?$AAe?$AAl?$AAf?$AA_?$AAx?$AA8?$AA6?$AA?2?$AAc@ 100eea08     LIBCMTD:localref.obj
 0002:00018a70       ??_C@_1BKC@GGIENNAK@?$AA?$CI?$AA?$CI?$AAp?$AAt?$AAl?$AAo?$AAc?$AAi?$AA?9?$AA?$DO?$AAl?$AAc?$AA_?$AAc?$AAa?$AAt?$AAe?$AAg?$AAo?$AAr?$AAy?$AA?$FL?$AAc?$AAa?$AAt?$AAe?$AAg?$AAo?$AAr?$AAy?$AA?$FN?$AA?4@ 100eea70     LIBCMTD:localref.obj
 0002:00018c14       ??_C@_1BC@GDGBMEMK@?$AAH?$AAH?$AA?3?$AAm?$AAm?$AA?3?$AAs?$AAs?$AA?$AA@ 100eec14     LIBCMTD:nlsdata2.obj
 0002:00018c28       ??_C@_1CI@KNAKOEBC@?$AAd?$AAd?$AAd?$AAd?$AA?0?$AA?5?$AAM?$AAM?$AAM?$AAM?$AA?5?$AAd?$AAd?$AA?0?$AA?5?$AAy?$AAy?$AAy?$AAy?$AA?$AA@ 100eec28     LIBCMTD:nlsdata2.obj
 0002:00018c50       ??_C@_1BC@IEBCMHCM@?$AAM?$AAM?$AA?1?$AAd?$AAd?$AA?1?$AAy?$AAy?$AA?$AA@ 100eec50     LIBCMTD:nlsdata2.obj
 0002:00018c64       ??_C@_15CLMNNGEL@?$AAP?$AAM?$AA?$AA@ 100eec64     LIBCMTD:nlsdata2.obj
 0002:00018c6c       ??_C@_15ODEHAHHF@?$AAA?$AAM?$AA?$AA@ 100eec6c     LIBCMTD:nlsdata2.obj
 0002:00018c74       ??_C@_1BC@FEMKIFH@?$AAD?$AAe?$AAc?$AAe?$AAm?$AAb?$AAe?$AAr?$AA?$AA@ 100eec74     LIBCMTD:nlsdata2.obj
 0002:00018c88       ??_C@_1BC@BGLIFPF@?$AAN?$AAo?$AAv?$AAe?$AAm?$AAb?$AAe?$AAr?$AA?$AA@ 100eec88     LIBCMTD:nlsdata2.obj
 0002:00018c9c       ??_C@_1BA@EPANDLNG@?$AAO?$AAc?$AAt?$AAo?$AAb?$AAe?$AAr?$AA?$AA@ 100eec9c     LIBCMTD:nlsdata2.obj
 0002:00018cac       ??_C@_1BE@DKAAMBJL@?$AAS?$AAe?$AAp?$AAt?$AAe?$AAm?$AAb?$AAe?$AAr?$AA?$AA@ 100eecac     LIBCMTD:nlsdata2.obj
 0002:00018cc0       ??_C@_1O@PAHLKOAC@?$AAA?$AAu?$AAg?$AAu?$AAs?$AAt?$AA?$AA@ 100eecc0     LIBCMTD:nlsdata2.obj
 0002:00018cd0       ??_C@_19BIFMLPCD@?$AAJ?$AAu?$AAl?$AAy?$AA?$AA@ 100eecd0     LIBCMTD:nlsdata2.obj
 0002:00018cdc       ??_C@_19EPFLPGAP@?$AAJ?$AAu?$AAn?$AAe?$AA?$AA@ 100eecdc     LIBCMTD:nlsdata2.obj
 0002:00018ce8       ??_C@_1M@GJNLMHFD@?$AAA?$AAp?$AAr?$AAi?$AAl?$AA?$AA@ 100eece8     LIBCMTD:nlsdata2.obj
 0002:00018cf4       ??_C@_1M@IKEENEDF@?$AAM?$AAa?$AAr?$AAc?$AAh?$AA?$AA@ 100eecf4     LIBCMTD:nlsdata2.obj
 0002:00018d00       ??_C@_1BC@JGDDFFAM@?$AAF?$AAe?$AAb?$AAr?$AAu?$AAa?$AAr?$AAy?$AA?$AA@ 100eed00     LIBCMTD:nlsdata2.obj
 0002:00018d14       ??_C@_1BA@EFMEIEBA@?$AAJ?$AAa?$AAn?$AAu?$AAa?$AAr?$AAy?$AA?$AA@ 100eed14     LIBCMTD:nlsdata2.obj
 0002:00018d24       ??_C@_17EGKACKIF@?$AAD?$AAe?$AAc?$AA?$AA@ 100eed24     LIBCMTD:nlsdata2.obj
 0002:00018d2c       ??_C@_17BBDMLCIG@?$AAN?$AAo?$AAv?$AA?$AA@ 100eed2c     LIBCMTD:nlsdata2.obj
 0002:00018d34       ??_C@_17FNLKOI@?$AAO?$AAc?$AAt?$AA?$AA@ 100eed34     LIBCMTD:nlsdata2.obj
 0002:00018d3c       ??_C@_17HCHCOKMG@?$AAS?$AAe?$AAp?$AA?$AA@ 100eed3c     LIBCMTD:nlsdata2.obj
 0002:00018d44       ??_C@_17ICPELBCN@?$AAA?$AAu?$AAg?$AA?$AA@ 100eed44     LIBCMTD:nlsdata2.obj
 0002:00018d4c       ??_C@_17IJPCKHK@?$AAJ?$AAu?$AAl?$AA?$AA@ 100eed4c     LIBCMTD:nlsdata2.obj
 0002:00018d54       ??_C@_17KCJGOCPB@?$AAJ?$AAu?$AAn?$AA?$AA@ 100eed54     LIBCMTD:nlsdata2.obj
 0002:00018d5c       ??_C@_17PNNKMEED@?$AAM?$AAa?$AAy?$AA?$AA@ 100eed5c     LIBCMTD:nlsdata2.obj
 0002:00018d64       ??_C@_17LFPOIHDD@?$AAA?$AAp?$AAr?$AA?$AA@ 100eed64     LIBCMTD:nlsdata2.obj
 0002:00018d6c       ??_C@_17CKNLEDEC@?$AAM?$AAa?$AAr?$AA?$AA@ 100eed6c     LIBCMTD:nlsdata2.obj
 0002:00018d74       ??_C@_17LMDJEKJN@?$AAF?$AAe?$AAb?$AA?$AA@ 100eed74     LIBCMTD:nlsdata2.obj
 0002:00018d7c       ??_C@_17DKNBKCHM@?$AAJ?$AAa?$AAn?$AA?$AA@ 100eed7c     LIBCMTD:nlsdata2.obj
 0002:00018d84       ??_C@_1BC@ENMNNPAJ@?$AAS?$AAa?$AAt?$AAu?$AAr?$AAd?$AAa?$AAy?$AA?$AA@ 100eed84     LIBCMTD:nlsdata2.obj
 0002:00018d98       ??_C@_1O@PDICJHAG@?$AAF?$AAr?$AAi?$AAd?$AAa?$AAy?$AA?$AA@ 100eed98     LIBCMTD:nlsdata2.obj
 0002:00018da8       ??_C@_1BC@HHMNLIHE@?$AAT?$AAh?$AAu?$AAr?$AAs?$AAd?$AAa?$AAy?$AA?$AA@ 100eeda8     LIBCMTD:nlsdata2.obj
 0002:00018dbc       ??_C@_1BE@EBOGMDOH@?$AAW?$AAe?$AAd?$AAn?$AAe?$AAs?$AAd?$AAa?$AAy?$AA?$AA@ 100eedbc     LIBCMTD:nlsdata2.obj
 0002:00018dd0       ??_C@_1BA@ENFBFFEK@?$AAT?$AAu?$AAe?$AAs?$AAd?$AAa?$AAy?$AA?$AA@ 100eedd0     LIBCMTD:nlsdata2.obj
 0002:00018de0       ??_C@_1O@MMNBFLIA@?$AAM?$AAo?$AAn?$AAd?$AAa?$AAy?$AA?$AA@ 100eede0     LIBCMTD:nlsdata2.obj
 0002:00018df0       ??_C@_1O@IHNHDHPB@?$AAS?$AAu?$AAn?$AAd?$AAa?$AAy?$AA?$AA@ 100eedf0     LIBCMTD:nlsdata2.obj
 0002:00018e00       ??_C@_17GGIBDPIH@?$AAS?$AAa?$AAt?$AA?$AA@ 100eee00     LIBCMTD:nlsdata2.obj
 0002:00018e08       ??_C@_17HFOLPPLP@?$AAF?$AAr?$AAi?$AA?$AA@ 100eee08     LIBCMTD:nlsdata2.obj
 0002:00018e10       ??_C@_17PDPHAADD@?$AAT?$AAh?$AAu?$AA?$AA@ 100eee10     LIBCMTD:nlsdata2.obj
 0002:00018e18       ??_C@_17CJEDCEPE@?$AAW?$AAe?$AAd?$AA?$AA@ 100eee18     LIBCMTD:nlsdata2.obj
 0002:00018e20       ??_C@_17BMKGEGOJ@?$AAT?$AAu?$AAe?$AA?$AA@ 100eee20     LIBCMTD:nlsdata2.obj
 0002:00018e28       ??_C@_17KBOMKBF@?$AAM?$AAo?$AAn?$AA?$AA@ 100eee28     LIBCMTD:nlsdata2.obj
 0002:00018e30       ??_C@_17MBGCMIPB@?$AAS?$AAu?$AAn?$AA?$AA@ 100eee30     LIBCMTD:nlsdata2.obj
 0002:00018e38       ??_C@_08JCCMCCIL@HH?3mm?3ss?$AA@ 100eee38     LIBCMTD:nlsdata2.obj
 0002:00018e44       ??_C@_0BE@CKGJFCPC@dddd?0?5MMMM?5dd?0?5yyyy?$AA@ 100eee44     LIBCMTD:nlsdata2.obj
 0002:00018e58       ??_C@_08BPBNCDIB@MM?1dd?1yy?$AA@ 100eee58     LIBCMTD:nlsdata2.obj
 0002:00018e64       ??_C@_02CJNFDJBF@PM?$AA@   100eee64     LIBCMTD:nlsdata2.obj
 0002:00018e68       ??_C@_02DEDBPAFC@AM?$AA@   100eee68     LIBCMTD:nlsdata2.obj
 0002:00018e6c       ??_C@_08EDHMEBNP@December?$AA@ 100eee6c     LIBCMTD:nlsdata2.obj
 0002:00018e78       ??_C@_08HCHEGEOA@November?$AA@ 100eee78     LIBCMTD:nlsdata2.obj
 0002:00018e84       ??_C@_07JJNFCEND@October?$AA@ 100eee84     LIBCMTD:nlsdata2.obj
 0002:00018e8c       ??_C@_09BHHEALKD@September?$AA@ 100eee8c     LIBCMTD:nlsdata2.obj
 0002:00018e98       ??_C@_06LBBHFDDG@August?$AA@ 100eee98     LIBCMTD:nlsdata2.obj
 0002:00018ea0       ??_C@_04MIEPOIFP@July?$AA@ 100eeea0     LIBCMTD:nlsdata2.obj
 0002:00018ea8       ??_C@_04CNLMGBGM@June?$AA@ 100eeea8     LIBCMTD:nlsdata2.obj
 0002:00018eb0       ??_C@_05DMJDNLEJ@April?$AA@ 100eeeb0     LIBCMTD:nlsdata2.obj
 0002:00018eb8       ??_C@_05HPCKOFNC@March?$AA@ 100eeeb8     LIBCMTD:nlsdata2.obj
 0002:00018ec0       ??_C@_08GNJGEPFN@February?$AA@ 100eeec0     LIBCMTD:nlsdata2.obj
 0002:00018ecc       ??_C@_07CGJPFGJA@January?$AA@ 100eeecc     LIBCMTD:nlsdata2.obj
 0002:00018ed4       ??_C@_03MKABNOCG@Dec?$AA@  100eeed4     LIBCMTD:nlsdata2.obj
 0002:00018ed8       ??_C@_03JPJOFNIA@Nov?$AA@  100eeed8     LIBCMTD:nlsdata2.obj
 0002:00018edc       ??_C@_03BMAOKBAD@Oct?$AA@  100eeedc     LIBCMTD:nlsdata2.obj
 0002:00018ee0       ??_C@_03GGCAPAJC@Sep?$AA@  100eeee0     LIBCMTD:nlsdata2.obj
 0002:00018ee4       ??_C@_03IFJFEIGA@Aug?$AA@  100eeee4     LIBCMTD:nlsdata2.obj
 0002:00018ee8       ??_C@_03LBGABGKK@Jul?$AA@  100eeee8     LIBCMTD:nlsdata2.obj
 0002:00018eec       ??_C@_03IDFGHECI@Jun?$AA@  100eeeec     LIBCMTD:nlsdata2.obj
 0002:00018ef0       ??_C@_03CNMDKL@May?$AA@    100eeef0     LIBCMTD:nlsdata2.obj
 0002:00018ef4       ??_C@_03LEOLGMJP@Apr?$AA@  100eeef4     LIBCMTD:nlsdata2.obj
 0002:00018ef8       ??_C@_03ODNJBKGA@Mar?$AA@  100eeef8     LIBCMTD:nlsdata2.obj
 0002:00018efc       ??_C@_03HJBDCHOM@Feb?$AA@  100eeefc     LIBCMTD:nlsdata2.obj
 0002:00018f00       ??_C@_03JIHJHPIE@Jan?$AA@  100eef00     LIBCMTD:nlsdata2.obj
 0002:00018f04       ??_C@_08INBOOONO@Saturday?$AA@ 100eef04     LIBCMTD:nlsdata2.obj
 0002:00018f10       ??_C@_06JECMNKMI@Friday?$AA@ 100eef10     LIBCMTD:nlsdata2.obj
 0002:00018f18       ??_C@_08HACCIKIA@Thursday?$AA@ 100eef18     LIBCMTD:nlsdata2.obj
 0002:00018f24       ??_C@_09DLIGFAKA@Wednesday?$AA@ 100eef24     LIBCMTD:nlsdata2.obj
 0002:00018f30       ??_C@_07BAAGCFCM@Tuesday?$AA@ 100eef30     LIBCMTD:nlsdata2.obj
 0002:00018f38       ??_C@_06JLEDEDGH@Monday?$AA@ 100eef38     LIBCMTD:nlsdata2.obj
 0002:00018f40       ??_C@_06OOPIFAJ@Sunday?$AA@ 100eef40     LIBCMTD:nlsdata2.obj
 0002:00018f48       ??_C@_03FEFJNEK@Sat?$AA@   100eef48     LIBCMTD:nlsdata2.obj
 0002:00018f4c       ??_C@_03IDIOELNC@Fri?$AA@  100eef4c     LIBCMTD:nlsdata2.obj
 0002:00018f50       ??_C@_03IOFIKPDN@Thu?$AA@  100eef50     LIBCMTD:nlsdata2.obj
 0002:00018f54       ??_C@_03MHOMLAJA@Wed?$AA@  100eef54     LIBCMTD:nlsdata2.obj
 0002:00018f58       ??_C@_03NAGEINEP@Tue?$AA@  100eef58     LIBCMTD:nlsdata2.obj
 0002:00018f5c       ??_C@_03PDAGKDH@Mon?$AA@   100eef5c     LIBCMTD:nlsdata2.obj
 0002:00018f60       ??_C@_03KOEHGMDN@Sun?$AA@  100eef60     LIBCMTD:nlsdata2.obj
 0002:00018f64       ??_C@_0DC@LMJHGCKC@f?3?2dd?2vctools?2crt_bld?2self_x86?2c@ 100eef64     LIBCMTD:tidtable.obj
 0002:00018f98       ??_C@_07PEJMOBNF@FlsFree?$AA@ 100eef98     LIBCMTD:tidtable.obj
 0002:00018fa0       ??_C@_0M@JCPCPOEF@FlsSetValue?$AA@ 100eefa0     LIBCMTD:tidtable.obj
 0002:00018fac       ??_C@_0M@GDNOONDI@FlsGetValue?$AA@ 100eefac     LIBCMTD:tidtable.obj
 0002:00018fb8       ??_C@_08KNHFBNJ@FlsAlloc?$AA@ 100eefb8     LIBCMTD:tidtable.obj
 0002:00018fc4       ??_C@_1BK@DBDEIDLH@?$AAK?$AAE?$AAR?$AAN?$AAE?$AAL?$AA3?$AA2?$AA?4?$AAD?$AAL?$AAL?$AA?$AA@ 100eefc4     LIBCMTD:tidtable.obj
 0002:00018fe0       ??_C@_07LCBHPJJN@LC_TIME?$AA@ 100eefe0     LIBCMTD:setlocal.obj
 0002:00018fe8       ??_C@_0L@DLHIECNL@LC_NUMERIC?$AA@ 100eefe8     LIBCMTD:setlocal.obj
 0002:00018ff4       ??_C@_0M@MIENIKLA@LC_MONETARY?$AA@ 100eeff4     LIBCMTD:setlocal.obj
 0002:00019000       ??_C@_08EADHIDAD@LC_CTYPE?$AA@ 100ef000     LIBCMTD:setlocal.obj
 0002:0001900c       ??_C@_0L@KFJHEKIK@LC_COLLATE?$AA@ 100ef00c     LIBCMTD:setlocal.obj
 0002:00019018       ??_C@_06NEFDFEKB@LC_ALL?$AA@ 100ef018     LIBCMTD:setlocal.obj
 0002:00019020       ___lc_category             100ef020     LIBCMTD:setlocal.obj
 0002:000190e8       ??_C@_1CI@FGIONOJM@?$AA_?$AAc?$AAo?$AAn?$AAf?$AAi?$AAg?$AAt?$AAh?$AAr?$AAe?$AAa?$AAd?$AAl?$AAo?$AAc?$AAa?$AAl?$AAe?$AA?$AA@ 100ef0e8     LIBCMTD:setlocal.obj
 0002:00019110       ??_C@_1GE@OLEIGPBJ@?$AAf?$AA?3?$AA?2?$AAd?$AAd?$AA?2?$AAv?$AAc?$AAt?$AAo?$AAo?$AAl?$AAs?$AA?2?$AAc?$AAr?$AAt?$AA_?$AAb?$AAl?$AAd?$AA?2?$AAs?$AAe?$AAl?$AAf?$AA_?$AAx?$AA8?$AA6?$AA?2?$AAc@ 100ef110     LIBCMTD:setlocal.obj
 0002:00019178       ??_C@_1GA@LDEGDKD@?$AA?$CI?$AA?$CC?$AAI?$AAn?$AAv?$AAa?$AAl?$AAi?$AAd?$AA?5?$AAp?$AAa?$AAr?$AAa?$AAm?$AAe?$AAt?$AAe?$AAr?$AA?5?$AAf?$AAo?$AAr?$AA?5?$AA_?$AAc?$AAo?$AAn?$AAf?$AAi?$AAg?$AAt@ 100ef178     LIBCMTD:setlocal.obj
 0002:000191d8       ??_C@_0DC@JCPFNMID@f?3?2dd?2vctools?2crt_bld?2self_x86?2c@ 100ef1d8     LIBCMTD:setlocal.obj
 0002:0001920c       ??_C@_1BE@DBJGBOJC@?$AAs?$AAe?$AAt?$AAl?$AAo?$AAc?$AAa?$AAl?$AAe?$AA?$AA@ 100ef20c     LIBCMTD:setlocal.obj
 0002:00019220       ??_C@_1FG@OHLFEKMC@?$AAL?$AAC?$AA_?$AAM?$AAI?$AAN?$AA?5?$AA?$DM?$AA?$DN?$AA?5?$AA_?$AAc?$AAa?$AAt?$AAe?$AAg?$AAo?$AAr?$AAy?$AA?5?$AA?$CG?$AA?$CG?$AA?5?$AA_?$AAc?$AAa?$AAt?$AAe?$AAg?$AAo?$AAr?$AAy@ 100ef220     LIBCMTD:setlocal.obj
 0002:00019278       ??_C@_1IA@PFIKKKFB@?$AAs?$AAt?$AAr?$AAn?$AAc?$AAp?$AAy?$AA_?$AAs?$AA?$CI?$AAl?$AAc?$AAt?$AAe?$AAm?$AAp?$AA?0?$AA?5?$AA?$CI?$AAs?$AAi?$AAz?$AAe?$AAo?$AAf?$AA?$CI?$AAl?$AAc?$AAt?$AAe?$AAm?$AAp@ 100ef278     LIBCMTD:setlocal.obj
 0002:000192f8       ??_C@_1CE@OFNHIOO@?$AA_?$AAs?$AAe?$AAt?$AAl?$AAo?$AAc?$AAa?$AAl?$AAe?$AA_?$AAn?$AAo?$AAl?$AAo?$AAc?$AAk?$AA?$AA@ 100ef2f8     LIBCMTD:setlocal.obj
 0002:0001931c       ??_C@_01ICJEACDI@?$DL?$AA@ 100ef31c     LIBCMTD:setlocal.obj
 0002:00019320       ??_C@_02BALPLPBG@?$DN?$DL?$AA@ 100ef320     LIBCMTD:setlocal.obj
 0002:00019328       ??_C@_1GO@JALHLJEH@?$AAs?$AAt?$AAr?$AAc?$AAp?$AAy?$AA_?$AAs?$AA?$CI?$AAp?$AAc?$AAh?$AA?5?$AA?$CL?$AA?5?$AAs?$AAi?$AAz?$AAe?$AAo?$AAf?$AA?$CI?$AAi?$AAn?$AAt?$AA?$CJ?$AA?0?$AA?5?$AAc?$AAc?$AAh?$AA?5@ 100ef328     LIBCMTD:setlocal.obj
 0002:00019398       ??_C@_1CG@IEFIICPK@?$AA_?$AAs?$AAe?$AAt?$AAl?$AAo?$AAc?$AAa?$AAl?$AAe?$AA_?$AAs?$AAe?$AAt?$AA_?$AAc?$AAa?$AAt?$AA?$AA@ 100ef398     LIBCMTD:setlocal.obj
 0002:000193c0       ??_C@_1DA@GDKKLCLM@?$AAs?$AAt?$AAr?$AAc?$AAa?$AAt?$AA_?$AAs?$AA?$CI?$AAp?$AAc?$AAh?$AA?0?$AA?5?$AAc?$AAc?$AAh?$AA?0?$AA?5?$AA?$CC?$AA?$DL?$AA?$CC?$AA?$CJ?$AA?$AA@ 100ef3c0     LIBCMTD:setlocal.obj
 0002:000193f0       ??_C@_1CG@NNFIJLDA@?$AA_?$AAs?$AAe?$AAt?$AAl?$AAo?$AAc?$AAa?$AAl?$AAe?$AA_?$AAg?$AAe?$AAt?$AA_?$AAa?$AAl?$AAl?$AA?$AA@ 100ef3f0     LIBCMTD:setlocal.obj
 0002:00019418       ??_C@_01NEMOKFLO@?$DN?$AA@ 100ef418     LIBCMTD:setlocal.obj
 0002:00019420       ??_C@_1FA@MHAOOIBO@?$AAs?$AAt?$AAr?$AAc?$AAp?$AAy?$AA_?$AAs?$AA?$CI?$AAo?$AAu?$AAt?$AAp?$AAu?$AAt?$AA?0?$AA?5?$AAs?$AAi?$AAz?$AAe?$AAI?$AAn?$AAC?$AAh?$AAa?$AAr?$AAs?$AA?0?$AA?5?$AAc?$AAa@ 100ef420     LIBCMTD:setlocal.obj
 0002:00019470       ??_C@_1IA@ONNFOEDA@?$AAs?$AAt?$AAr?$AAn?$AAc?$AAp?$AAy?$AA_?$AAs?$AA?$CI?$AAc?$AAa?$AAc?$AAh?$AAe?$AAi?$AAn?$AA?0?$AA?5?$AAc?$AAa?$AAc?$AAh?$AAe?$AAi?$AAn?$AAS?$AAi?$AAz?$AAe?$AA?0?$AA?5@ 100ef470     LIBCMTD:setlocal.obj
 0002:000194f0       ??_C@_01GFHCPBMG@C?$AA@    100ef4f0     LIBCMTD:setlocal.obj
 0002:000194f8       ??_C@_1EG@MOMHKOD@?$AAs?$AAt?$AAr?$AAc?$AAp?$AAy?$AA_?$AAs?$AA?$CI?$AAo?$AAu?$AAt?$AAp?$AAu?$AAt?$AA?0?$AA?5?$AAs?$AAi?$AAz?$AAe?$AAI?$AAn?$AAC?$AAh?$AAa?$AAr?$AAs?$AA?0?$AA?5?$AA?$CC?$AAC@ 100ef4f8     LIBCMTD:setlocal.obj
 0002:00019540       ??_C@_1BM@OIIBLEFG@?$AA_?$AAe?$AAx?$AAp?$AAa?$AAn?$AAd?$AAl?$AAo?$AAc?$AAa?$AAl?$AAe?$AA?$AA@ 100ef540     LIBCMTD:setlocal.obj
 0002:00019560       ??_C@_1BGM@IJDLABMC@?$AAs?$AAt?$AAr?$AAc?$AAa?$AAt?$AA_?$AAs?$AA?$CI?$AAo?$AAu?$AAt?$AAs?$AAt?$AAr?$AA?0?$AA?5?$AAs?$AAi?$AAz?$AAe?$AAI?$AAn?$AAB?$AAy?$AAt?$AAe?$AAs?$AA?0?$AA?5?$AA?$CI?$AA?5@ 100ef560     LIBCMTD:setlocal.obj
 0002:000196cc       ??_C@_1BC@PIABMDIP@?$AA_?$AAs?$AAt?$AAr?$AAc?$AAa?$AAt?$AAs?$AA?$AA@ 100ef6cc     LIBCMTD:setlocal.obj
 0002:000196e0       ??_C@_1MM@NOPMGFHF@?$AAs?$AAt?$AAr?$AAn?$AAc?$AAp?$AAy?$AA_?$AAs?$AA?$CI?$AAn?$AAa?$AAm?$AAe?$AAs?$AA?9?$AA?$DO?$AAs?$AAz?$AAC?$AAo?$AAd?$AAe?$AAP?$AAa?$AAg?$AAe?$AA?0?$AA?5?$AA?$CI?$AAs?$AAi@ 100ef6e0     LIBCMTD:setlocal.obj
 0002:000197b0       ??_C@_1MG@PHNILIAG@?$AAs?$AAt?$AAr?$AAn?$AAc?$AAp?$AAy?$AA_?$AAs?$AA?$CI?$AAn?$AAa?$AAm?$AAe?$AAs?$AA?9?$AA?$DO?$AAs?$AAz?$AAC?$AAo?$AAu?$AAn?$AAt?$AAr?$AAy?$AA?0?$AA?5?$AA?$CI?$AAs?$AAi?$AAz@ 100ef7b0     LIBCMTD:setlocal.obj
 0002:00019878       ??_C@_1MM@BFEECMAF@?$AAs?$AAt?$AAr?$AAn?$AAc?$AAp?$AAy?$AA_?$AAs?$AA?$CI?$AAn?$AAa?$AAm?$AAe?$AAs?$AA?9?$AA?$DO?$AAs?$AAz?$AAL?$AAa?$AAn?$AAg?$AAu?$AAa?$AAg?$AAe?$AA?0?$AA?5?$AA?$CI?$AAs?$AAi@ 100ef878     LIBCMTD:setlocal.obj
 0002:00019944       ??_C@_03EGDHDPFD@_?4?0?$AA@ 100ef944     LIBCMTD:setlocal.obj
 0002:00019948       ??_C@_1NG@FMOPGKGG@?$AAs?$AAt?$AAr?$AAn?$AAc?$AAp?$AAy?$AA_?$AAs?$AA?$CI?$AAn?$AAa?$AAm?$AAe?$AAs?$AA?9?$AA?$DO?$AAs?$AAz?$AAC?$AAo?$AAd?$AAe?$AAP?$AAa?$AAg?$AAe?$AA?0?$AA?5?$AA?$CI?$AAs?$AAi@ 100ef948     LIBCMTD:setlocal.obj
 0002:00019a20       ??_C@_1BK@CBMMLAGJ@?$AA_?$AA_?$AAl?$AAc?$AA_?$AAs?$AAt?$AAr?$AAt?$AAo?$AAl?$AAc?$AA?$AA@ 100efa20     LIBCMTD:setlocal.obj
 0002:00019a3c       ??_C@_01LFCBOECM@?4?$AA@   100efa3c     LIBCMTD:setlocal.obj
 0002:00019a40       ??_C@_01IDAFKMJL@_?$AA@    100efa40     LIBCMTD:setlocal.obj
 0002:00019a48       ??_C@_1HC@IBDBLKCB@?$AAs?$AAt?$AAr?$AAc?$AAp?$AAy?$AA_?$AAs?$AA?$CI?$AAl?$AAo?$AAc?$AAa?$AAl?$AAe?$AA?0?$AA?5?$AAs?$AAi?$AAz?$AAe?$AAI?$AAn?$AAB?$AAy?$AAt?$AAe?$AAs?$AA?0?$AA?5?$AA?$CI?$AAc@ 100efa48     LIBCMTD:setlocal.obj
 0002:00019abc       ??_C@_1BK@FGDJDEPG@?$AA_?$AA_?$AAl?$AAc?$AA_?$AAl?$AAc?$AAt?$AAo?$AAs?$AAt?$AAr?$AA?$AA@ 100efabc     LIBCMTD:setlocal.obj
 0002:00019ae0       __OP_ATAN2jmptab           100efae0     LIBCMTD:_87triga_.obj
 0002:0001b380       __indefinite               100f1380     LIBCMTD:_87disp_.obj
 0002:0001b38a       __piby2                    100f138a     LIBCMTD:_87disp_.obj
 0002:0001b3b8       __DEFAULT_CW_in_mem        100f13b8     LIBCMTD:_common_.obj
 0002:0001b3ba       __pi_by_2_to_61            100f13ba     LIBCMTD:_common_.obj
 0002:0001c550       ??_C@_0L@KDOEJCKC@_nextafter?$AA@ 100f2550     LIBCMTD:_fpexcept_.obj
 0002:0001c55c       ??_C@_05JGDBENOH@_logb?$AA@ 100f255c     LIBCMTD:_fpexcept_.obj
 0002:0001c564       ??_C@_03ONILCKOB@_yn?$AA@  100f2564     LIBCMTD:_fpexcept_.obj
 0002:0001c568       ??_C@_03NAKIGLHK@_y1?$AA@  100f2568     LIBCMTD:_fpexcept_.obj
 0002:0001c56c       ??_C@_03MJLDFKDL@_y0?$AA@  100f256c     LIBCMTD:_fpexcept_.obj
 0002:0001c570       ??_C@_05GKKHEGJL@frexp?$AA@ 100f2570     LIBCMTD:_fpexcept_.obj
 0002:0001c578       ??_C@_04KEPJIHGP@fmod?$AA@ 100f2578     LIBCMTD:_fpexcept_.obj
 0002:0001c580       ??_C@_06MEIMCGCF@_hypot?$AA@ 100f2580     LIBCMTD:_fpexcept_.obj
 0002:0001c588       ??_C@_05KBKMEMPO@_cabs?$AA@ 100f2588     LIBCMTD:_fpexcept_.obj
 0002:0001c590       ??_C@_05CEJMAHNP@ldexp?$AA@ 100f2590     LIBCMTD:_fpexcept_.obj
 0002:0001c598       ??_C@_04EHEDPDJG@modf?$AA@ 100f2598     LIBCMTD:_fpexcept_.obj
 0002:0001c5a0       ??_C@_04ODHECPBC@fabs?$AA@ 100f25a0     LIBCMTD:_fpexcept_.obj
 0002:0001c5a8       ??_C@_05PBJFFIGL@floor?$AA@ 100f25a8     LIBCMTD:_fpexcept_.obj
 0002:0001c5b0       ??_C@_04GFPJNGEK@ceil?$AA@ 100f25b0     LIBCMTD:_fpexcept_.obj
 0002:0001c5b8       ??_C@_03IIINPABG@tan?$AA@  100f25b8     LIBCMTD:_fpexcept_.obj
 0002:0001c5bc       ??_C@_03LALBNOCG@cos?$AA@  100f25bc     LIBCMTD:_fpexcept_.obj
 0002:0001c5c0       ??_C@_03BLEJJJBH@sin?$AA@  100f25c0     LIBCMTD:_fpexcept_.obj
 0002:0001c5c4       ??_C@_04EIAKFFMI@sqrt?$AA@ 100f25c4     LIBCMTD:_fpexcept_.obj
 0002:0001c5cc       ??_C@_05KNGEOGJB@atan2?$AA@ 100f25cc     LIBCMTD:_fpexcept_.obj
 0002:0001c5d4       ??_C@_04MLLJIGOK@atan?$AA@ 100f25d4     LIBCMTD:_fpexcept_.obj
 0002:0001c5dc       ??_C@_04PDIFKINK@acos?$AA@ 100f25dc     LIBCMTD:_fpexcept_.obj
 0002:0001c5e4       ??_C@_04FIHNOPOL@asin?$AA@ 100f25e4     LIBCMTD:_fpexcept_.obj
 0002:0001c5ec       ??_C@_04FJHINJAO@tanh?$AA@ 100f25ec     LIBCMTD:_fpexcept_.obj
 0002:0001c5f4       ??_C@_04HPJJNFIM@cosh?$AA@ 100f25f4     LIBCMTD:_fpexcept_.obj
 0002:0001c5fc       ??_C@_04COOMCNPB@sinh?$AA@ 100f25fc     LIBCMTD:_fpexcept_.obj
 0002:0001c604       ??_C@_05HGHHAHAP@log10?$AA@ 100f2604     LIBCMTD:_fpexcept_.obj
 0002:0001c60c       ??_C@_03MGHMBJCF@log?$AA@  100f260c     LIBCMTD:_fpexcept_.obj
 0002:0001c610       ??_C@_03JGHBODFD@pow?$AA@  100f2610     LIBCMTD:_fpexcept_.obj
 0002:0001c614       ??_C@_03KHJOGHMM@exp?$AA@  100f2614     LIBCMTD:_fpexcept_.obj
 0002:0001faf0       __infinity                 100f5af0     LIBCMTD:_87tran_.obj
 0002:0001fafa       __minfinity                100f5afa     LIBCMTD:_87tran_.obj
 0002:0001fb04       __logemax                  100f5b04     LIBCMTD:_87tran_.obj
 0002:0001fb2a       __OP_EXPjmptab             100f5b2a     LIBCMTD:_87tran_.obj
 0002:0001fb50       ??_C@_1GC@CHGJNMHG@?$AAf?$AA?3?$AA?2?$AAd?$AAd?$AA?2?$AAv?$AAc?$AAt?$AAo?$AAo?$AAl?$AAs?$AA?2?$AAc?$AAr?$AAt?$AA_?$AAb?$AAl?$AAd?$AA?2?$AAs?$AAe?$AAl?$AAf?$AA_?$AAx?$AA8?$AA6?$AA?2?$AAc@ 100f5b50     LIBCMTD:isctype.obj
 0002:0001fbb4       ??_C@_1DC@BPLPALML@?$AA?$CI?$AAu?$AAn?$AAs?$AAi?$AAg?$AAn?$AAe?$AAd?$AA?$CJ?$AA?$CI?$AAc?$AA?5?$AA?$CL?$AA?5?$AA1?$AA?$CJ?$AA?5?$AA?$DM?$AA?$DN?$AA?5?$AA2?$AA5?$AA6?$AA?$AA@ 100f5bb4     LIBCMTD:isctype.obj
 0002:0001fbe8       ??_C@_1BAA@ODEGEDCK@?$AA?$CI?$AA?5?$AA?$CI?$AA_?$AAS?$AAt?$AAr?$AAe?$AAa?$AAm?$AA?9?$AA?$DO?$AA_?$AAf?$AAl?$AAa?$AAg?$AA?5?$AA?$CG?$AA?5?$AA_?$AAI?$AAO?$AAS?$AAT?$AAR?$AAG?$AA?$CJ?$AA?5?$AA?$HM?$AA?$HM?$AA?5@ 100f5be8     LIBCMTD:input.obj
 0002:0001fce8       ??_C@_1BC@MJNBEDIJ@?$AA_?$AAi?$AAn?$AAp?$AAu?$AAt?$AA_?$AAl?$AA?$AA@ 100f5ce8     LIBCMTD:input.obj
 0002:0001fd00       ??_C@_1FO@LDDBLKJ@?$AAf?$AA?3?$AA?2?$AAd?$AAd?$AA?2?$AAv?$AAc?$AAt?$AAo?$AAo?$AAl?$AAs?$AA?2?$AAc?$AAr?$AAt?$AA_?$AAb?$AAl?$AAd?$AA?2?$AAs?$AAe?$AAl?$AAf?$AA_?$AAx?$AA8?$AA6?$AA?2?$AAc@ 100f5d00     LIBCMTD:input.obj
 0002:0001fd60       ??_C@_0CP@MMGCGBFO@f?3?2dd?2vctools?2crt_bld?2self_x86?2c@ 100f5d60     LIBCMTD:input.obj
 0002:0001fd90       ??_C@_1DO@MBOKMJPK@?$AAn?$AAF?$AAl?$AAo?$AAa?$AAt?$AAS?$AAt?$AAr?$AAU?$AAs?$AAe?$AAd?$AA?$DM?$AA?$DN?$AA?$CI?$AA?$CK?$AAp?$AAn?$AAF?$AAl?$AAo?$AAa?$AAt?$AAS?$AAt?$AAr?$AAS?$AAz?$AA?$CJ?$AA?$AA@ 100f5d90     LIBCMTD:input.obj
 0002:0001fdd0       ??_C@_1DG@MPPGJOHD@?$AA?$CI?$AA?$CC?$AAI?$AAn?$AAv?$AAa?$AAl?$AAi?$AAd?$AA?5?$AAI?$AAn?$AAp?$AAu?$AAt?$AA?5?$AAF?$AAo?$AAr?$AAm?$AAa?$AAt?$AA?$CC?$AA?0?$AA0?$AA?$CJ?$AA?$AA@ 100f5dd0     LIBCMTD:inputs.obj
 0002:0001fe08       ??_C@_1BG@LBKFJFHM@?$AA_?$AAi?$AAn?$AAp?$AAu?$AAt?$AA_?$AAs?$AA_?$AAl?$AA?$AA@ 100f5e08     LIBCMTD:inputs.obj
 0002:0001fe20       ??_C@_1HO@MLMGPAFH@?$AA?$CI?$AA?$CC?$AAi?$AAn?$AAc?$AAo?$AAn?$AAs?$AAi?$AAs?$AAt?$AAe?$AAn?$AAt?$AA?5?$AAI?$AAO?$AAB?$AA?5?$AAf?$AAi?$AAe?$AAl?$AAd?$AAs?$AA?$CC?$AA?0?$AA?5?$AAs?$AAt?$AAr?$AAe@ 100f5e20     LIBCMTD:_flsbuf.obj
 0002:0001fea0       ??_C@_1GC@GNCCMPNN@?$AAf?$AA?3?$AA?2?$AAd?$AAd?$AA?2?$AAv?$AAc?$AAt?$AAo?$AAo?$AAl?$AAs?$AA?2?$AAc?$AAr?$AAt?$AA_?$AAb?$AAl?$AAd?$AA?2?$AAs?$AAe?$AAl?$AAf?$AA_?$AAx?$AA8?$AA6?$AA?2?$AAc@ 100f5ea0     LIBCMTD:_flsbuf.obj
 0002:0001ff04       ??_C@_1BI@MFCLPIBM@?$AAs?$AAt?$AAr?$AA?5?$AA?$CB?$AA?$DN?$AA?5?$AAN?$AAU?$AAL?$AAL?$AA?$AA@ 100f5f04     LIBCMTD:_flsbuf.obj
 0002:0001ff1c       ??_C@_1O@CEDCILHN@?$AA?$CI?$AAn?$AAu?$AAl?$AAl?$AA?$CJ?$AA?$AA@ 100f5f1c     LIBCMTD:output.obj
 0002:0001ff2c       ??_C@_06OJHGLDPL@?$CInull?$CJ?$AA@ 100f5f2c     LIBCMTD:output.obj
 0002:0001ff38       ___lookuptable             100f5f38     LIBCMTD:output.obj
 0002:0001ff94       ??_C@_0DA@NFBEBPEE@f?3?2dd?2vctools?2crt_bld?2self_x86?2c@ 100f5f94     LIBCMTD:output.obj
 0002:0001ffc8       ??_C@_1EK@PNGFDECN@?$AA?$CI?$AA?$CC?$AA?8?$AAn?$AA?8?$AA?5?$AAf?$AAo?$AAr?$AAm?$AAa?$AAt?$AA?5?$AAs?$AAp?$AAe?$AAc?$AAi?$AAf?$AAi?$AAe?$AAr?$AA?5?$AAd?$AAi?$AAs?$AAa?$AAb?$AAl?$AAe?$AAd?$AA?$CC@ 100f5fc8     LIBCMTD:output.obj
 0002:00020014       ??_C@_1CC@IFFHEMNF@?$AA?$CI?$AAc?$AAh?$AA?5?$AA?$CB?$AA?$DN?$AA?5?$AA_?$AAT?$AA?$CI?$AA?8?$AA?2?$AA0?$AA?8?$AA?$CJ?$AA?$CJ?$AA?$AA@ 100f6014     LIBCMTD:output.obj
 0002:00020038       ??_C@_1BE@IONLIDNC@?$AA_?$AAo?$AAu?$AAt?$AAp?$AAu?$AAt?$AA_?$AAl?$AA?$AA@ 100f6038     LIBCMTD:output.obj
 0002:00020050       ??_C@_1GA@HHFOFBLN@?$AAf?$AA?3?$AA?2?$AAd?$AAd?$AA?2?$AAv?$AAc?$AAt?$AAo?$AAo?$AAl?$AAs?$AA?2?$AAc?$AAr?$AAt?$AA_?$AAb?$AAl?$AAd?$AA?2?$AAs?$AAe?$AAl?$AAf?$AA_?$AAx?$AA8?$AA6?$AA?2?$AAc@ 100f6050     LIBCMTD:output.obj
 0002:000200b0       ??_C@_1GA@INJGGEBC@?$AAf?$AA?3?$AA?2?$AAd?$AAd?$AA?2?$AAv?$AAc?$AAt?$AAo?$AAo?$AAl?$AAs?$AA?2?$AAc?$AAr?$AAt?$AA_?$AAb?$AAl?$AAd?$AA?2?$AAs?$AAe?$AAl?$AAf?$AA_?$AAx?$AA8?$AA6?$AA?2?$AAc@ 100f60b0     LIBCMTD:a_map.obj
 0002:00020110       ??_C@_1FE@KNPCCODH@?$AA?$CI?$AA?$CC?$AAC?$AAo?$AAr?$AAr?$AAu?$AAp?$AAt?$AAe?$AAd?$AA?5?$AAp?$AAo?$AAi?$AAn?$AAt?$AAe?$AAr?$AA?5?$AAp?$AAa?$AAs?$AAs?$AAe?$AAd?$AA?5?$AAt?$AAo?$AA?5?$AA_?$AAf@ 100f6110     LIBCMTD:a_map.obj
 0002:00023ab0       ??_C@_06PJIGMIJB@Client?$AA@ 100f9ab0     LIBCMTD:dbgheap.obj
 0002:00023ab8       ??_C@_06KMEJCCGM@Ignore?$AA@ 100f9ab8     LIBCMTD:dbgheap.obj
 0002:00023ac0       ??_C@_03OGPFLFLO@CRT?$AA@  100f9ac0     LIBCMTD:dbgheap.obj
 0002:00023ac4       ??_C@_06EFAGIKOH@Normal?$AA@ 100f9ac4     LIBCMTD:dbgheap.obj
 0002:00023acc       ??_C@_04HJMOFLDF@Free?$AA@ 100f9acc     LIBCMTD:dbgheap.obj
 0002:00023ae8       ??_C@_0DC@JEMAGEKG@Error?3?5memory?5allocation?3?5bad?5me@ 100f9ae8     LIBCMTD:dbgheap.obj
 0002:00023b1c       ??_C@_0CF@BICKFLAF@Invalid?5allocation?5size?3?5?$CFIu?5byt@ 100f9b1c     LIBCMTD:dbgheap.obj
 0002:00023b44       ??_C@_02DKCKIIND@?$CFs?$AA@ 100f9b44     LIBCMTD:dbgheap.obj
 0002:00023b48       ??_C@_0CB@CCLOLAHO@Client?5hook?5allocation?5failure?4?6@ 100f9b48     LIBCMTD:dbgheap.obj
 0002:00023b6c       ??_C@_0DF@BBEGIFEK@Client?5hook?5allocation?5failure?5a@ 100f9b6c     LIBCMTD:dbgheap.obj
 0002:00023ba8       ??_C@_1GC@DNJKKEAA@?$AAf?$AA?3?$AA?2?$AAd?$AAd?$AA?2?$AAv?$AAc?$AAt?$AAo?$AAo?$AAl?$AAs?$AA?2?$AAc?$AAr?$AAt?$AA_?$AAb?$AAl?$AAd?$AA?2?$AAs?$AAe?$AAl?$AAf?$AA_?$AAx?$AA8?$AA6?$AA?2?$AAc@ 100f9ba8     LIBCMTD:dbgheap.obj
 0002:00023c0c       ??_C@_1CE@LJFEPPMP@?$AA_?$AAC?$AAr?$AAt?$AAC?$AAh?$AAe?$AAc?$AAk?$AAM?$AAe?$AAm?$AAo?$AAr?$AAy?$AA?$CI?$AA?$CJ?$AA?$AA@ 100f9c0c     LIBCMTD:dbgheap.obj
 0002:00023c30       ??_C@_1DE@KOOKLFBB@?$AA_?$AAp?$AAF?$AAi?$AAr?$AAs?$AAt?$AAB?$AAl?$AAo?$AAc?$AAk?$AA?5?$AA?$DN?$AA?$DN?$AA?5?$AAp?$AAO?$AAl?$AAd?$AAB?$AAl?$AAo?$AAc?$AAk?$AA?$AA@ 100f9c30     LIBCMTD:dbgheap.obj
 0002:00023c64       ??_C@_1DC@GEFKNOOL@?$AA_?$AAp?$AAL?$AAa?$AAs?$AAt?$AAB?$AAl?$AAo?$AAc?$AAk?$AA?5?$AA?$DN?$AA?$DN?$AA?5?$AAp?$AAO?$AAl?$AAd?$AAB?$AAl?$AAo?$AAc?$AAk?$AA?$AA@ 100f9c64     LIBCMTD:dbgheap.obj
 0002:00023c98       ??_C@_1GE@PCKLOLAO@?$AAf?$AAR?$AAe?$AAa?$AAl?$AAl?$AAo?$AAc?$AA?5?$AA?$HM?$AA?$HM?$AA?5?$AA?$CI?$AA?$CB?$AAf?$AAR?$AAe?$AAa?$AAl?$AAl?$AAo?$AAc?$AA?5?$AA?$CG?$AA?$CG?$AA?5?$AAp?$AAN?$AAe?$AAw?$AAB?$AAl@ 100f9c98     LIBCMTD:dbgheap.obj
 0002:00023cfc       ??_C@_0DA@HFBKENN@Error?3?5possible?5heap?5corruption?5@ 100f9cfc     LIBCMTD:dbgheap.obj
 0002:00023d30       ??_C@_1IK@DCPKDGNH@?$AAp?$AAO?$AAl?$AAd?$AAB?$AAl?$AAo?$AAc?$AAk?$AA?9?$AA?$DO?$AAn?$AAL?$AAi?$AAn?$AAe?$AA?5?$AA?$DN?$AA?$DN?$AA?5?$AAI?$AAG?$AAN?$AAO?$AAR?$AAE?$AA_?$AAL?$AAI?$AAN?$AAE?$AA?5@ 100f9d30     LIBCMTD:dbgheap.obj
 0002:00023dc0       ??_C@_1EE@GFOPCECE@?$AA_?$AAC?$AAr?$AAt?$AAI?$AAs?$AAV?$AAa?$AAl?$AAi?$AAd?$AAH?$AAe?$AAa?$AAp?$AAP?$AAo?$AAi?$AAn?$AAt?$AAe?$AAr?$AA?$CI?$AAp?$AAU?$AAs?$AAe?$AAr?$AAD?$AAa?$AAt?$AAa@ 100f9dc0     LIBCMTD:dbgheap.obj
 0002:00023e08       ??_C@_0EM@LGFLMAGJ@The?5Block?5at?50x?$CFp?5was?5allocated?5@ 100f9e08     LIBCMTD:dbgheap.obj
 0002:00023e58       ??_C@_0FA@EFEIGJKG@Error?3?5memory?5allocation?3?5bad?5me@ 100f9e58     LIBCMTD:dbgheap.obj
 0002:00023ea8       ??_C@_0ED@GPCPBAGP@Invalid?5allocation?5size?3?5?$CFIu?5byt@ 100f9ea8     LIBCMTD:dbgheap.obj
 0002:00023eec       ??_C@_0CE@DOFMDOL@Client?5hook?5re?9allocation?5failur@ 100f9eec     LIBCMTD:dbgheap.obj
 0002:00023f10       ??_C@_0DI@KKJPDPGM@Client?5hook?5re?9allocation?5failur@ 100f9f10     LIBCMTD:dbgheap.obj
 0002:00023f48       ??_C@_1BI@HAPNGHDP@?$AA_?$AAe?$AAx?$AAp?$AAa?$AAn?$AAd?$AA_?$AAd?$AAb?$AAg?$AA?$AA@ 100f9f48     LIBCMTD:dbgheap.obj
 0002:00023f60       ??_C@_1CE@CJACEFBA@?$AAp?$AAU?$AAs?$AAe?$AAr?$AAD?$AAa?$AAt?$AAa?$AA?5?$AA?$CB?$AA?$DN?$AA?5?$AAN?$AAU?$AAL?$AAL?$AA?$AA@ 100f9f60     LIBCMTD:dbgheap.obj
 0002:00023f84       ??_C@_1CM@MMAADDMD@?$AA_?$AAp?$AAF?$AAi?$AAr?$AAs?$AAt?$AAB?$AAl?$AAo?$AAc?$AAk?$AA?5?$AA?$DN?$AA?$DN?$AA?5?$AAp?$AAH?$AAe?$AAa?$AAd?$AA?$AA@ 100f9f84     LIBCMTD:dbgheap.obj
 0002:00023fb0       ??_C@_1CK@DMAGEMBG@?$AA_?$AAp?$AAL?$AAa?$AAs?$AAt?$AAB?$AAl?$AAo?$AAc?$AAk?$AA?5?$AA?$DN?$AA?$DN?$AA?5?$AAp?$AAH?$AAe?$AAa?$AAd?$AA?$AA@ 100f9fb0     LIBCMTD:dbgheap.obj
 0002:00023fdc       ??_C@_1DM@ODCJIDCP@?$AAp?$AAH?$AAe?$AAa?$AAd?$AA?9?$AA?$DO?$AAn?$AAB?$AAl?$AAo?$AAc?$AAk?$AAU?$AAs?$AAe?$AA?5?$AA?$DN?$AA?$DN?$AA?5?$AAn?$AAB?$AAl?$AAo?$AAc?$AAk?$AAU?$AAs?$AAe?$AA?$AA@ 100f9fdc     LIBCMTD:dbgheap.obj
 0002:00024018       ??_C@_1HK@HPCBMDFG@?$AAp?$AAH?$AAe?$AAa?$AAd?$AA?9?$AA?$DO?$AAn?$AAL?$AAi?$AAn?$AAe?$AA?5?$AA?$DN?$AA?$DN?$AA?5?$AAI?$AAG?$AAN?$AAO?$AAR?$AAE?$AA_?$AAL?$AAI?$AAN?$AAE?$AA?5?$AA?$CG?$AA?$CG?$AA?5?$AAp@ 100fa018     LIBCMTD:dbgheap.obj
 0002:00024098       ??_C@_0IG@LEMBDCJK@HEAP?5CORRUPTION?5DETECTED?3?5after?5@ 100fa098     LIBCMTD:dbgheap.obj
 0002:00024120       ??_C@_0KE@MBMNHHHN@HEAP?5CORRUPTION?5DETECTED?3?5after?5@ 100fa120     LIBCMTD:dbgheap.obj
 0002:000241c8       ??_C@_0IK@PJCGLBOB@HEAP?5CORRUPTION?5DETECTED?3?5before@ 100fa1c8     LIBCMTD:dbgheap.obj
 0002:00024258       ??_C@_0KI@JGFOHMEB@HEAP?5CORRUPTION?5DETECTED?3?5before@ 100fa258     LIBCMTD:dbgheap.obj
 0002:00024300       ??_C@_1EO@LHDAJOCM@?$AA_?$AAB?$AAL?$AAO?$AAC?$AAK?$AA_?$AAT?$AAY?$AAP?$AAE?$AA_?$AAI?$AAS?$AA_?$AAV?$AAA?$AAL?$AAI?$AAD?$AA?$CI?$AAp?$AAH?$AAe?$AAa?$AAd?$AA?9?$AA?$DO?$AAn?$AAB?$AAl?$AAo@ 100fa300     LIBCMTD:dbgheap.obj
 0002:00024350       ??_C@_0BL@KEIPLFAC@Client?5hook?5free?5failure?4?6?$AA@ 100fa350     LIBCMTD:dbgheap.obj
 0002:00024370       ??_C@_0EJ@HEIBCIMJ@The?5Block?5at?50x?$CFp?5was?5allocated?5@ 100fa370     LIBCMTD:dbgheap.obj
 0002:000243bc       ??_C@_1BG@MBKOGDLD@?$AA_?$AAm?$AAs?$AAi?$AAz?$AAe?$AA_?$AAd?$AAb?$AAg?$AA?$AA@ 100fa3bc     LIBCMTD:dbgheap.obj
 0002:000243d4       ??_C@_0CI@JMLBEDHJ@?$CFhs?5located?5at?50x?$CFp?5is?5?$CFIu?5bytes@ 100fa3d4     LIBCMTD:dbgheap.obj
 0002:00024400       ??_C@_0EG@DGJMPDBH@?$CFhs?5located?5at?50x?$CFp?5is?5?$CFIu?5bytes@ 100fa400     LIBCMTD:dbgheap.obj
 0002:00024448       ??_C@_0IC@BBJIOOJH@HEAP?5CORRUPTION?5DETECTED?3?5on?5top@ 100fa448     LIBCMTD:dbgheap.obj
 0002:000244d0       ??_C@_0KA@IHNJJKPL@HEAP?5CORRUPTION?5DETECTED?3?5on?5top@ 100fa4d0     LIBCMTD:dbgheap.obj
 0002:00024570       ??_C@_07OHKEFPKJ@DAMAGED?$AA@ 100fa570     LIBCMTD:dbgheap.obj
 0002:00024578       ??_C@_0CL@HNNNMKMJ@_heapchk?5fails?5with?5unknown?5retu@ 100fa578     LIBCMTD:dbgheap.obj
 0002:000245a4       ??_C@_0CC@MFFCHFHO@_heapchk?5fails?5with?5_HEAPBADPTR?4@ 100fa5a4     LIBCMTD:dbgheap.obj
 0002:000245c8       ??_C@_0CC@MJGLGBDG@_heapchk?5fails?5with?5_HEAPBADEND?4@ 100fa5c8     LIBCMTD:dbgheap.obj
 0002:000245ec       ??_C@_0CD@CPKEAPBD@_heapchk?5fails?5with?5_HEAPBADNODE@ 100fa5ec     LIBCMTD:dbgheap.obj
 0002:00024610       ??_C@_0CE@MKKHMBMK@_heapchk?5fails?5with?5_HEAPBADBEGI@ 100fa610     LIBCMTD:dbgheap.obj
 0002:00024634       ??_C@_1BO@GJFDNMNF@?$AA_?$AAC?$AAr?$AAt?$AAS?$AAe?$AAt?$AAD?$AAb?$AAg?$AAF?$AAl?$AAa?$AAg?$AA?$AA@ 100fa634     LIBCMTD:dbgheap.obj
 0002:00024658       ??_C@_1BHO@NNANJNF@?$AA?$CI?$AAf?$AAN?$AAe?$AAw?$AAB?$AAi?$AAt?$AAs?$AA?$DN?$AA?$DN?$AA_?$AAC?$AAR?$AAT?$AAD?$AAB?$AAG?$AA_?$AAR?$AAE?$AAP?$AAO?$AAR?$AAT?$AA_?$AAF?$AAL?$AAA?$AAG?$AA?$CJ?$AA?5@ 100fa658     LIBCMTD:dbgheap.obj
 0002:000247d8       ??_C@_1DE@GJCKCKEC@?$AA_?$AAC?$AAr?$AAt?$AAD?$AAo?$AAF?$AAo?$AAr?$AAA?$AAl?$AAl?$AAC?$AAl?$AAi?$AAe?$AAn?$AAt?$AAO?$AAb?$AAj?$AAe?$AAc?$AAt?$AAs?$AA?$AA@ 100fa7d8     LIBCMTD:dbgheap.obj
 0002:0002480c       ??_C@_1BI@CJGCEEDL@?$AAp?$AAf?$AAn?$AA?5?$AA?$CB?$AA?$DN?$AA?5?$AAN?$AAU?$AAL?$AAL?$AA?$AA@ 100fa80c     LIBCMTD:dbgheap.obj
 0002:00024824       ??_C@_0CB@EAAIGELO@Bad?5memory?5block?5found?5at?50x?$CFp?4?6@ 100fa824     LIBCMTD:dbgheap.obj
 0002:00024848       ??_C@_0DP@LEFMFBOD@Bad?5memory?5block?5found?5at?50x?$CFp?4?6@ 100fa848     LIBCMTD:dbgheap.obj
 0002:00024888       ??_C@_1CE@NJJKELF@?$AA_?$AAC?$AAr?$AAt?$AAM?$AAe?$AAm?$AAC?$AAh?$AAe?$AAc?$AAk?$AAp?$AAo?$AAi?$AAn?$AAt?$AA?$AA@ 100fa888     LIBCMTD:dbgheap.obj
 0002:000248ac       ??_C@_1BM@MIMANDHC@?$AAs?$AAt?$AAa?$AAt?$AAe?$AA?5?$AA?$CB?$AA?$DN?$AA?5?$AAN?$AAU?$AAL?$AAL?$AA?$AA@ 100fa8ac     LIBCMTD:dbgheap.obj
 0002:000248c8       ??_C@_1CC@DFPEDFBP@?$AAn?$AAe?$AAw?$AAS?$AAt?$AAa?$AAt?$AAe?$AA?5?$AA?$CB?$AA?$DN?$AA?5?$AAN?$AAU?$AAL?$AAL?$AA?$AA@ 100fa8c8     LIBCMTD:dbgheap.obj
 0002:000248ec       ??_C@_1CC@DHPFEMMN@?$AAo?$AAl?$AAd?$AAS?$AAt?$AAa?$AAt?$AAe?$AA?5?$AA?$CB?$AA?$DN?$AA?5?$AAN?$AAU?$AAL?$AAL?$AA?$AA@ 100fa8ec     LIBCMTD:dbgheap.obj
 0002:00024910       ??_C@_1CE@PDIENACM@?$AA_?$AAC?$AAr?$AAt?$AAM?$AAe?$AAm?$AAD?$AAi?$AAf?$AAf?$AAe?$AAr?$AAe?$AAn?$AAc?$AAe?$AA?$AA@ 100fa910     LIBCMTD:dbgheap.obj
 0002:00024934       ??_C@_0BH@GFGKJDCO@Object?5dump?5complete?4?6?$AA@ 100fa934     LIBCMTD:dbgheap.obj
 0002:0002494c       ??_C@_0DA@MDLBNIBM@crt?5block?5at?50x?$CFp?0?5subtype?5?$CFx?0?5?$CF@ 100fa94c     LIBCMTD:dbgheap.obj
 0002:0002497c       ??_C@_0CH@FAGDDGPN@normal?5block?5at?50x?$CFp?0?5?$CFIu?5bytes?5@ 100fa97c     LIBCMTD:dbgheap.obj
 0002:000249a4       ??_C@_0DD@GHNAAKBB@client?5block?5at?50x?$CFp?0?5subtype?5?$CFx@ 100fa9a4     LIBCMTD:dbgheap.obj
 0002:000249d8       ??_C@_06PKLGBFGM@?$HL?$CFld?$HN?5?$AA@ 100fa9d8     LIBCMTD:dbgheap.obj
 0002:000249e0       ??_C@_0L@JMEFFCCJ@?$CFhs?$CI?$CFd?$CJ?5?3?5?$AA@ 100fa9e0     LIBCMTD:dbgheap.obj
 0002:000249ec       ??_C@_0BE@OIEFNFL@?$CDFile?5Error?$CD?$CI?$CFd?$CJ?5?3?5?$AA@ 100fa9ec     LIBCMTD:dbgheap.obj
 0002:00024a00       ??_C@_0BE@KCIPKCIA@Dumping?5objects?5?9?$DO?6?$AA@ 100faa00     LIBCMTD:dbgheap.obj
 0002:00024a14       ??_C@_0BA@HJBKCELP@?5Data?3?5?$DM?$CFs?$DO?5?$CFs?6?$AA@ 100faa14     LIBCMTD:dbgheap.obj
 0002:00024a24       ??_C@_1CG@LPFIACGM@?$AA_?$AAp?$AAr?$AAi?$AAn?$AAt?$AAM?$AAe?$AAm?$AAB?$AAl?$AAo?$AAc?$AAk?$AAD?$AAa?$AAt?$AAa?$AA?$AA@ 100faa24     LIBCMTD:dbgheap.obj
 0002:00024a4c       ??_C@_0BI@JBFPOEJA@Detected?5memory?5leaks?$CB?6?$AA@ 100faa4c     LIBCMTD:dbgheap.obj
 0002:00024a64       ??_C@_0BP@DEDHGGGI@Total?5allocations?3?5?$CFId?5bytes?4?6?$AA@ 100faa64     LIBCMTD:dbgheap.obj
 0002:00024a84       ??_C@_0CB@BLHDAFNE@Largest?5number?5used?3?5?$CFId?5bytes?4?6@ 100faa84     LIBCMTD:dbgheap.obj
 0002:00024aa8       ??_C@_0BO@DACNIABB@?$CFId?5bytes?5in?5?$CFId?5?$CFhs?5Blocks?4?6?$AA@ 100faaa8     LIBCMTD:dbgheap.obj
 0002:00024ac8       ??_C@_1CM@MPNIBKGK@?$AA_?$AAC?$AAr?$AAt?$AAM?$AAe?$AAm?$AAD?$AAu?$AAm?$AAp?$AAS?$AAt?$AAa?$AAt?$AAi?$AAs?$AAt?$AAi?$AAc?$AAs?$AA?$AA@ 100faac8     LIBCMTD:dbgheap.obj
 0002:00024af4       ??_C@_1DK@LFLKFPDA@?$AAo?$AAf?$AAf?$AAs?$AAe?$AAt?$AA?5?$AA?$DN?$AA?$DN?$AA?5?$AA0?$AA?5?$AA?$HM?$AA?$HM?$AA?5?$AAo?$AAf?$AAf?$AAs?$AAe?$AAt?$AA?5?$AA?$DM?$AA?5?$AAs?$AAi?$AAz?$AAe?$AA?$AA@ 100faaf4     LIBCMTD:dbgheap.obj
 0002:00024b30       ??_C@_1DG@DONCJBBJ@?$AA_?$AAa?$AAl?$AAi?$AAg?$AAn?$AAe?$AAd?$AA_?$AAo?$AAf?$AAf?$AAs?$AAe?$AAt?$AA_?$AAm?$AAa?$AAl?$AAl?$AAo?$AAc?$AA_?$AAd?$AAb?$AAg?$AA?$AA@ 100fab30     LIBCMTD:dbgheap.obj
 0002:00024b68       ??_C@_1CE@NPMGPNNP@?$AAI?$AAS?$AA_?$AA2?$AA_?$AAP?$AAO?$AAW?$AA_?$AAN?$AA?$CI?$AAa?$AAl?$AAi?$AAg?$AAn?$AA?$CJ?$AA?$AA@ 100fab68     LIBCMTD:dbgheap.obj
 0002:00024b8c       ??_C@_1DI@NINIKFFK@?$AA_?$AAa?$AAl?$AAi?$AAg?$AAn?$AAe?$AAd?$AA_?$AAo?$AAf?$AAf?$AAs?$AAe?$AAt?$AA_?$AAr?$AAe?$AAa?$AAl?$AAl?$AAo?$AAc?$AA_?$AAd?$AAb?$AAg?$AA?$AA@ 100fab8c     LIBCMTD:dbgheap.obj
 0002:00024bc4       ??_C@_0DL@PGHMMKNE@Damage?5before?50x?$CFp?5which?5was?5all@ 100fabc4     LIBCMTD:dbgheap.obj
 0002:00024c00       ??_C@_0EI@NDNJMAJK@The?5block?5at?50x?$CFp?5was?5not?5alloca@ 100fac00     LIBCMTD:dbgheap.obj
 0002:00024c48       ??_C@_0EF@PGELACII@The?5block?5at?50x?$CFp?5was?5not?5alloca@ 100fac48     LIBCMTD:dbgheap.obj
 0002:00024c90       ??_C@_1CG@CEGMHIMN@?$AA_?$AAa?$AAl?$AAi?$AAg?$AAn?$AAe?$AAd?$AA_?$AAm?$AAs?$AAi?$AAz?$AAe?$AA_?$AAd?$AAb?$AAg?$AA?$AA@ 100fac90     LIBCMTD:dbgheap.obj
 0002:00024cb8       ??_C@_1CC@MOBIKHH@?$AAm?$AAe?$AAm?$AAb?$AAl?$AAo?$AAc?$AAk?$AA?5?$AA?$CB?$AA?$DN?$AA?5?$AAN?$AAU?$AAL?$AAL?$AA?$AA@ 100facb8     LIBCMTD:dbgheap.obj
 0002:00024cdc       ??_C@_0DA@NBLAKPEL@f?3?2dd?2vctools?2crt_bld?2self_x86?2c@ 100facdc     LIBCMTD:ioinit.obj
 0002:00024d0c       ??_C@_1DE@MMOGFGHF@?$AAs?$AAt?$AAr?$AAc?$AAp?$AAy?$AA_?$AAs?$AA?$CI?$AA?$CK?$AAe?$AAn?$AAv?$AA?0?$AA?5?$AAc?$AAc?$AAh?$AAa?$AAr?$AAs?$AA?0?$AA?5?$AAp?$AA?$CJ?$AA?$AA@ 100fad0c     LIBCMTD:stdenvp.obj
 0002:00024d40       ??_C@_1BC@GHMCNHHL@?$AA_?$AAs?$AAe?$AAt?$AAe?$AAn?$AAv?$AAp?$AA?$AA@ 100fad40     LIBCMTD:stdenvp.obj
 0002:00024d58       ??_C@_1GC@DGBFLDBN@?$AAf?$AA?3?$AA?2?$AAd?$AAd?$AA?2?$AAv?$AAc?$AAt?$AAo?$AAo?$AAl?$AAs?$AA?2?$AAc?$AAr?$AAt?$AA_?$AAb?$AAl?$AAd?$AA?2?$AAs?$AAe?$AAl?$AAf?$AA_?$AAx?$AA8?$AA6?$AA?2?$AAc@ 100fad58     LIBCMTD:stdenvp.obj
 0002:00024dbc       ??_C@_0DB@BMEBJJKP@f?3?2dd?2vctools?2crt_bld?2self_x86?2c@ 100fadbc     LIBCMTD:stdenvp.obj
 0002:00024df0       ??_C@_0DB@OEPBJOLC@f?3?2dd?2vctools?2crt_bld?2self_x86?2c@ 100fadf0     LIBCMTD:stdargv.obj
 0002:00024e24       ??_C@_0CP@PPLBCJDN@f?3?2dd?2vctools?2crt_bld?2self_x86?2c@ 100fae24     LIBCMTD:a_env.obj
 0002:00024e58       ??_C@_1GE@JDDMFOID@?$AAf?$AA?3?$AA?2?$AAd?$AAd?$AA?2?$AAv?$AAc?$AAt?$AAo?$AAo?$AAl?$AAs?$AA?2?$AAc?$AAr?$AAt?$AA_?$AAb?$AAl?$AAd?$AA?2?$AAs?$AAe?$AAl?$AAf?$AA_?$AAx?$AA8?$AA6?$AA?2?$AAc@ 100fae58     LIBCMTD:heapinit.obj
 0002:00024ebc       ??_C@_1BC@DENNNKIM@?$AA_?$AAc?$AAr?$AAt?$AAh?$AAe?$AAa?$AAp?$AA?$AA@ 100faebc     LIBCMTD:heapinit.obj
 0002:00024ed0       __XcptActTab               100faed0     LIBCMTD:winxfltr.obj
 0002:00024f60       __First_FPE_Indx           100faf60     LIBCMTD:winxfltr.obj
 0002:00024f64       __Num_FPE                  100faf64     LIBCMTD:winxfltr.obj
 0002:00024f68       __XcptActTabSize           100faf68     LIBCMTD:winxfltr.obj
 0002:00024f6c       __XcptActTabCount          100faf6c     LIBCMTD:winxfltr.obj
 0002:00024f70       ??_C@_1CE@PCFPEIFI@?$AA_?$AAv?$AAs?$AAn?$AAp?$AAr?$AAi?$AAn?$AAt?$AAf?$AA_?$AAh?$AAe?$AAl?$AAp?$AAe?$AAr?$AA?$AA@ 100faf70     LIBCMTD:vsnprnc.obj
 0002:00024f98       ??_C@_1EE@OKCKIGFK@?$AAs?$AAt?$AAr?$AAi?$AAn?$AAg?$AA?5?$AA?$CB?$AA?$DN?$AA?5?$AAN?$AAU?$AAL?$AAL?$AA?5?$AA?$CG?$AA?$CG?$AA?5?$AAs?$AAi?$AAz?$AAe?$AAI?$AAn?$AAB?$AAy?$AAt?$AAe?$AAs?$AA?5?$AA?$DO?$AA?5@ 100faf98     LIBCMTD:vsnprnc.obj
 0002:00024fdc       ??_C@_1BM@BLJALHEF@?$AA_?$AAv?$AAs?$AAp?$AAr?$AAi?$AAn?$AAt?$AAf?$AA_?$AAs?$AA_?$AAl?$AA?$AA@ 100fafdc     LIBCMTD:vsnprnc.obj
 0002:00024ff8       ??_C@_1BO@MMPELNIM@?$AA_?$AAv?$AAs?$AAn?$AAp?$AAr?$AAi?$AAn?$AAt?$AAf?$AA_?$AAs?$AA_?$AAl?$AA?$AA@ 100faff8     LIBCMTD:vsnprnc.obj
 0002:00025018       ??_C@_1FE@CEHLKAHD@?$AAi?$AAb?$AAa?$AAs?$AAe?$AA?5?$AA?$DN?$AA?$DN?$AA?5?$AA0?$AA?5?$AA?$HM?$AA?$HM?$AA?5?$AA?$CI?$AA2?$AA?5?$AA?$DM?$AA?$DN?$AA?5?$AAi?$AAb?$AAa?$AAs?$AAe?$AA?5?$AA?$CG?$AA?$CG?$AA?5?$AAi?$AAb?$AAa@ 100fb018     LIBCMTD:strtol.obj
 0002:0002506c       ??_C@_1BA@LOLAMAJG@?$AAs?$AAt?$AAr?$AAt?$AAo?$AAx?$AAl?$AA?$AA@ 100fb06c     LIBCMTD:strtol.obj
 0002:00025080       ??_C@_1GA@IPHKKOEI@?$AAf?$AA?3?$AA?2?$AAd?$AAd?$AA?2?$AAv?$AAc?$AAt?$AAo?$AAo?$AAl?$AAs?$AA?2?$AAc?$AAr?$AAt?$AA_?$AAb?$AAl?$AAd?$AA?2?$AAs?$AAe?$AAl?$AAf?$AA_?$AAx?$AA8?$AA6?$AA?2?$AAc@ 100fb080     LIBCMTD:strtol.obj
 0002:000250e0       ??_C@_1BK@LAOAACLJ@?$AAn?$AAp?$AAt?$AAr?$AA?5?$AA?$CB?$AA?$DN?$AA?5?$AAN?$AAU?$AAL?$AAL?$AA?$AA@ 100fb0e0     LIBCMTD:strtol.obj
 0002:000250fc       ??_C@_1BA@BMMDEPNE@?$AAs?$AAt?$AAr?$AAt?$AAo?$AAx?$AAq?$AA?$AA@ 100fb0fc     LIBCMTD:strtoq.obj
 0002:00025110       ??_C@_1GA@GIMEIKLC@?$AAf?$AA?3?$AA?2?$AAd?$AAd?$AA?2?$AAv?$AAc?$AAt?$AAo?$AAo?$AAl?$AAs?$AA?2?$AAc?$AAr?$AAt?$AA_?$AAb?$AAl?$AAd?$AA?2?$AAs?$AAe?$AAl?$AAf?$AA_?$AAx?$AA8?$AA6?$AA?2?$AAc@ 100fb110     LIBCMTD:strtoq.obj
 0002:00025170       ??_C@_1FK@BCPANIEK@?$AA?$CI?$AA?$CC?$AAM?$AAi?$AAs?$AAs?$AAi?$AAn?$AAg?$AA?5?$AAp?$AAo?$AAs?$AAi?$AAt?$AAi?$AAo?$AAn?$AA?5?$AAi?$AAn?$AA?5?$AAt?$AAh?$AAe?$AA?5?$AAf?$AAo?$AAr?$AAm?$AAa?$AAt@ 100fb170     LIBCMTD:outputp.obj
 0002:000251d0       ??_C@_1FK@LNCFKALM@?$AA?$CI?$AA?$CI?$AAs?$AAt?$AAa?$AAt?$AAe?$AA?5?$AA?$DN?$AA?$DN?$AA?5?$AAS?$AAT?$AA_?$AAN?$AAO?$AAR?$AAM?$AAA?$AAL?$AA?$CJ?$AA?5?$AA?$HM?$AA?$HM?$AA?5?$AA?$CI?$AAs?$AAt?$AAa?$AAt?$AAe?$AA?5@ 100fb1d0     LIBCMTD:outputp.obj
 0002:00025230       ??_C@_1JC@OACKELNN@?$AA_?$AAt?$AAv?$AAa?$AAl?$AAi?$AAd?$AAa?$AAt?$AAe?$AA_?$AAp?$AAa?$AAr?$AAa?$AAm?$AA_?$AAr?$AAe?$AAu?$AAs?$AAe?$AA?$CI?$AA?$CG?$AAp?$AAo?$AAs?$AA_?$AAv?$AAa?$AAl?$AAu@ 100fb230     LIBCMTD:outputp.obj
 0002:000252c8       ??_C@_1IK@NBGDDCBN@?$AA_?$AAt?$AAv?$AAa?$AAl?$AAi?$AAd?$AAa?$AAt?$AAe?$AA_?$AAp?$AAa?$AAr?$AAa?$AAm?$AA_?$AAr?$AAe?$AAu?$AAs?$AAe?$AA?$CI?$AA?$CG?$AAp?$AAo?$AAs?$AA_?$AAv?$AAa?$AAl?$AAu@ 100fb2c8     LIBCMTD:outputp.obj
 0002:00025354       ??_C@_1DG@GOHGNKHE@?$AAp?$AAa?$AAs?$AAs?$AA?5?$AA?$DN?$AA?$DN?$AA?5?$AAF?$AAO?$AAR?$AAM?$AAA?$AAT?$AA_?$AAO?$AAU?$AAT?$AAP?$AAU?$AAT?$AA_?$AAP?$AAA?$AAS?$AAS?$AA?$AA@ 100fb354     LIBCMTD:outputp.obj
 0002:00025390       ??_C@_1IM@DNGHAPLB@?$AA_?$AAt?$AAv?$AAa?$AAl?$AAi?$AAd?$AAa?$AAt?$AAe?$AA_?$AAp?$AAa?$AAr?$AAa?$AAm?$AA_?$AAr?$AAe?$AAu?$AAs?$AAe?$AA?$CI?$AA?$CG?$AAp?$AAo?$AAs?$AA_?$AAv?$AAa?$AAl?$AAu@ 100fb390     LIBCMTD:outputp.obj
 0002:00025420       ??_C@_1IG@HJIMKDHC@?$AA_?$AAt?$AAv?$AAa?$AAl?$AAi?$AAd?$AAa?$AAt?$AAe?$AA_?$AAp?$AAa?$AAr?$AAa?$AAm?$AA_?$AAr?$AAe?$AAu?$AAs?$AAe?$AA?$CI?$AA?$CG?$AAp?$AAo?$AAs?$AA_?$AAv?$AAa?$AAl?$AAu@ 100fb420     LIBCMTD:outputp.obj
 0002:000254a8       ??_C@_1IG@FDCPLALG@?$AA_?$AAt?$AAv?$AAa?$AAl?$AAi?$AAd?$AAa?$AAt?$AAe?$AA_?$AAp?$AAa?$AAr?$AAa?$AAm?$AA_?$AAr?$AAe?$AAu?$AAs?$AAe?$AA?$CI?$AA?$CG?$AAp?$AAo?$AAs?$AA_?$AAv?$AAa?$AAl?$AAu@ 100fb4a8     LIBCMTD:outputp.obj
 0002:00025530       ??_C@_1IK@MHEDJAMK@?$AA_?$AAt?$AAv?$AAa?$AAl?$AAi?$AAd?$AAa?$AAt?$AAe?$AA_?$AAp?$AAa?$AAr?$AAa?$AAm?$AA_?$AAr?$AAe?$AAu?$AAs?$AAe?$AA?$CI?$AA?$CG?$AAp?$AAo?$AAs?$AA_?$AAv?$AAa?$AAl?$AAu@ 100fb530     LIBCMTD:outputp.obj
 0002:000255c0       ??_C@_1EM@BNPHBBIA@?$AA?$CI?$AA?$CI?$AAt?$AAy?$AAp?$AAe?$AA_?$AAp?$AAo?$AAs?$AA?$DO?$AA?$DN?$AA0?$AA?$CJ?$AA?5?$AA?$CG?$AA?$CG?$AA?5?$AA?$CI?$AAt?$AAy?$AAp?$AAe?$AA_?$AAp?$AAo?$AAs?$AA?$DM?$AA_?$AAA?$AAR?$AAG@ 100fb5c0     LIBCMTD:outputp.obj
 0002:00025610       ??_C@_1IK@EIEPDKHJ@?$AA_?$AAt?$AAv?$AAa?$AAl?$AAi?$AAd?$AAa?$AAt?$AAe?$AA_?$AAp?$AAa?$AAr?$AAa?$AAm?$AA_?$AAr?$AAe?$AAu?$AAs?$AAe?$AA?$CI?$AA?$CG?$AAp?$AAo?$AAs?$AA_?$AAv?$AAa?$AAl?$AAu@ 100fb610     LIBCMTD:outputp.obj
 0002:000256a0       ??_C@_1JG@JBJBOCFB@?$AA?$CI?$AA?$CI?$AAp?$AAr?$AAe?$AAc?$AAi?$AAs?$AA_?$AAp?$AAo?$AAs?$AA?5?$AA?$DO?$AA?$DN?$AA?5?$AA0?$AA?$CJ?$AA?5?$AA?$CG?$AA?$CG?$AA?5?$AA?$CI?$AA?$CK?$AAe?$AAn?$AAd?$AA_?$AAp?$AAo?$AAs?$AA?5@ 100fb6a0     LIBCMTD:outputp.obj
 0002:00025738       ??_C@_1II@PIPIMLPF@?$AA_?$AAt?$AAv?$AAa?$AAl?$AAi?$AAd?$AAa?$AAt?$AAe?$AA_?$AAp?$AAa?$AAr?$AAa?$AAm?$AA_?$AAr?$AAe?$AAu?$AAs?$AAe?$AA?$CI?$AA?$CG?$AAp?$AAo?$AAs?$AA_?$AAv?$AAa?$AAl?$AAu@ 100fb738     LIBCMTD:outputp.obj
 0002:000257c0       ??_C@_1JE@NMBHOLFI@?$AA?$CI?$AA?$CI?$AAw?$AAi?$AAd?$AAt?$AAh?$AA_?$AAp?$AAo?$AAs?$AA?5?$AA?$DO?$AA?$DN?$AA?5?$AA0?$AA?$CJ?$AA?5?$AA?$CG?$AA?$CG?$AA?5?$AA?$CI?$AA?$CK?$AAe?$AAn?$AAd?$AA_?$AAp?$AAo?$AAs?$AA?5?$AA?$DN@ 100fb7c0     LIBCMTD:outputp.obj
 0002:00025858       ??_C@_1EE@DMAIGNBG@?$AA?$CI?$AA?$CC?$AAI?$AAn?$AAc?$AAo?$AAr?$AAr?$AAe?$AAc?$AAt?$AA?5?$AAf?$AAo?$AAr?$AAm?$AAa?$AAt?$AA?5?$AAs?$AAp?$AAe?$AAc?$AAi?$AAf?$AAi?$AAe?$AAr?$AA?$CC?$AA?0?$AA?5?$AA0@ 100fb858     LIBCMTD:outputp.obj
 0002:000258a0       ??_C@_1JC@PFJNKEIO@?$AA?$CI?$AA?$CI?$AAt?$AAy?$AAp?$AAe?$AA_?$AAp?$AAo?$AAs?$AA?5?$AA?$DO?$AA?$DN?$AA?5?$AA0?$AA?$CJ?$AA?5?$AA?$CG?$AA?$CG?$AA?5?$AA?$CI?$AA?$CK?$AAe?$AAn?$AAd?$AA_?$AAp?$AAo?$AAs?$AA?5?$AA?$DN?$AA?$DN@ 100fb8a0     LIBCMTD:outputp.obj
 0002:00025934       ??_C@_1BI@KANOLAMF@?$AA_?$AAo?$AAu?$AAt?$AAp?$AAu?$AAt?$AA_?$AAp?$AA_?$AAl?$AA?$AA@ 100fb934     LIBCMTD:outputp.obj
 0002:0002594c       ??_C@_0DB@OLNNDFNH@f?3?2dd?2vctools?2crt_bld?2self_x86?2c@ 100fb94c     LIBCMTD:_sftbuf.obj
 0002:00025980       ??_C@_1GC@DGAFOCMO@?$AAf?$AA?3?$AA?2?$AAd?$AAd?$AA?2?$AAv?$AAc?$AAt?$AAo?$AAo?$AAl?$AAs?$AA?2?$AAc?$AAr?$AAt?$AA_?$AAb?$AAl?$AAd?$AA?2?$AAs?$AAe?$AAl?$AAf?$AA_?$AAx?$AA8?$AA6?$AA?2?$AAc@ 100fb980     LIBCMTD:_sftbuf.obj
 0002:000259e4       ??_C@_1CO@KCKAACMI@?$AAf?$AAl?$AAa?$AAg?$AA?5?$AA?$DN?$AA?$DN?$AA?5?$AA0?$AA?5?$AA?$HM?$AA?$HM?$AA?5?$AAf?$AAl?$AAa?$AAg?$AA?5?$AA?$DN?$AA?$DN?$AA?5?$AA1?$AA?$AA@ 100fb9e4     LIBCMTD:_sftbuf.obj
 0002:00025a18       ___lookuptable_s           100fba18     LIBCMTD:outputs.obj
 0002:00025a74       ??_C@_1BI@COFBLHCG@?$AA_?$AAo?$AAu?$AAt?$AAp?$AAu?$AAt?$AA_?$AAs?$AA_?$AAl?$AA?$AA@ 100fba74     LIBCMTD:outputs.obj
 0002:00025a8c       ??_C@_0DA@HMCPFNKN@f?3?2dd?2vctools?2crt_bld?2self_x86?2c@ 100fba8c     LIBCMTD:onexit.obj
 0002:00025abc       ??_C@_1BO@BKOMIGKJ@?$AAr?$AAu?$AAn?$AAt?$AAi?$AAm?$AAe?$AA?5?$AAe?$AAr?$AAr?$AAo?$AAr?$AA?5?$AA?$AA@ 100fbabc     LIBCMTD:crt0msg.obj
 0002:00025adc       ??_C@_15JNBOKNOG@?$AA?$AN?$AA?6?$AA?$AA@ 100fbadc     LIBCMTD:crt0msg.obj
 0002:00025ae4       ??_C@_1BM@JBBEPPHI@?$AAT?$AAL?$AAO?$AAS?$AAS?$AA?5?$AAe?$AAr?$AAr?$AAo?$AAr?$AA?$AN?$AA?6?$AA?$AA@ 100fbae4     LIBCMTD:crt0msg.obj
 0002:00025b00       ??_C@_1BK@KMOMNAAI@?$AAS?$AAI?$AAN?$AAG?$AA?5?$AAe?$AAr?$AAr?$AAo?$AAr?$AA?$AN?$AA?6?$AA?$AA@ 100fbb00     LIBCMTD:crt0msg.obj
 0002:00025b1c       ??_C@_1BO@BFCDCGC@?$AAD?$AAO?$AAM?$AAA?$AAI?$AAN?$AA?5?$AAe?$AAr?$AAr?$AAo?$AAr?$AA?$AN?$AA?6?$AA?$AA@ 100fbb1c     LIBCMTD:crt0msg.obj
 0002:00025b40       ??_C@_1BOO@KGEDBGAJ@?$AAR?$AA6?$AA0?$AA3?$AA3?$AA?$AN?$AA?6?$AA?9?$AA?5?$AAA?$AAt?$AAt?$AAe?$AAm?$AAp?$AAt?$AA?5?$AAt?$AAo?$AA?5?$AAu?$AAs?$AAe?$AA?5?$AAM?$AAS?$AAI?$AAL?$AA?5?$AAc?$AAo?$AAd@ 100fbb40     LIBCMTD:crt0msg.obj
 0002:00025d30       ??_C@_1GG@GOPILAJP@?$AAR?$AA6?$AA0?$AA3?$AA2?$AA?$AN?$AA?6?$AA?9?$AA?5?$AAn?$AAo?$AAt?$AA?5?$AAe?$AAn?$AAo?$AAu?$AAg?$AAh?$AA?5?$AAs?$AAp?$AAa?$AAc?$AAe?$AA?5?$AAf?$AAo?$AAr?$AA?5?$AAl?$AAo@ 100fbd30     LIBCMTD:crt0msg.obj
 0002:00025d98       ??_C@_1MG@ENCOOIDF@?$AAR?$AA6?$AA0?$AA3?$AA1?$AA?$AN?$AA?6?$AA?9?$AA?5?$AAA?$AAt?$AAt?$AAe?$AAm?$AAp?$AAt?$AA?5?$AAt?$AAo?$AA?5?$AAi?$AAn?$AAi?$AAt?$AAi?$AAa?$AAl?$AAi?$AAz?$AAe?$AA?5?$AAt@ 100fbd98     LIBCMTD:crt0msg.obj
 0002:00025e60       ??_C@_1DO@BMFCDCD@?$AAR?$AA6?$AA0?$AA3?$AA0?$AA?$AN?$AA?6?$AA?9?$AA?5?$AAC?$AAR?$AAT?$AA?5?$AAn?$AAo?$AAt?$AA?5?$AAi?$AAn?$AAi?$AAt?$AAi?$AAa?$AAl?$AAi?$AAz?$AAe?$AAd?$AA?$AN?$AA?6?$AA?$AA@ 100fbe60     LIBCMTD:crt0msg.obj
 0002:00025ea0       ??_C@_1EK@HHFLMAOL@?$AAR?$AA6?$AA0?$AA2?$AA8?$AA?$AN?$AA?6?$AA?9?$AA?5?$AAu?$AAn?$AAa?$AAb?$AAl?$AAe?$AA?5?$AAt?$AAo?$AA?5?$AAi?$AAn?$AAi?$AAt?$AAi?$AAa?$AAl?$AAi?$AAz?$AAe?$AA?5?$AAh?$AAe@ 100fbea0     LIBCMTD:crt0msg.obj
 0002:00025ef0       ??_C@_1GK@MFGOKLAG@?$AAR?$AA6?$AA0?$AA2?$AA7?$AA?$AN?$AA?6?$AA?9?$AA?5?$AAn?$AAo?$AAt?$AA?5?$AAe?$AAn?$AAo?$AAu?$AAg?$AAh?$AA?5?$AAs?$AAp?$AAa?$AAc?$AAe?$AA?5?$AAf?$AAo?$AAr?$AA?5?$AAl?$AAo@ 100fbef0     LIBCMTD:crt0msg.obj
 0002:00025f60       ??_C@_1GK@MCAAGJMO@?$AAR?$AA6?$AA0?$AA2?$AA6?$AA?$AN?$AA?6?$AA?9?$AA?5?$AAn?$AAo?$AAt?$AA?5?$AAe?$AAn?$AAo?$AAu?$AAg?$AAh?$AA?5?$AAs?$AAp?$AAa?$AAc?$AAe?$AA?5?$AAf?$AAo?$AAr?$AA?5?$AAs?$AAt@ 100fbf60     LIBCMTD:crt0msg.obj
 0002:00025fd0       ??_C@_1EM@MAADIHMB@?$AAR?$AA6?$AA0?$AA2?$AA5?$AA?$AN?$AA?6?$AA?9?$AA?5?$AAp?$AAu?$AAr?$AAe?$AA?5?$AAv?$AAi?$AAr?$AAt?$AAu?$AAa?$AAl?$AA?5?$AAf?$AAu?$AAn?$AAc?$AAt?$AAi?$AAo?$AAn?$AA?5?$AAc@ 100fbfd0     LIBCMTD:crt0msg.obj
 0002:00026020       ??_C@_1GK@FHCKBEFA@?$AAR?$AA6?$AA0?$AA2?$AA4?$AA?$AN?$AA?6?$AA?9?$AA?5?$AAn?$AAo?$AAt?$AA?5?$AAe?$AAn?$AAo?$AAu?$AAg?$AAh?$AA?5?$AAs?$AAp?$AAa?$AAc?$AAe?$AA?5?$AAf?$AAo?$AAr?$AA?5?$AA_?$AAo@ 100fc020     LIBCMTD:crt0msg.obj
 0002:00026090       ??_C@_1FC@ECHBIFBC@?$AAR?$AA6?$AA0?$AA1?$AA9?$AA?$AN?$AA?6?$AA?9?$AA?5?$AAu?$AAn?$AAa?$AAb?$AAl?$AAe?$AA?5?$AAt?$AAo?$AA?5?$AAo?$AAp?$AAe?$AAn?$AA?5?$AAc?$AAo?$AAn?$AAs?$AAo?$AAl?$AAe?$AA?5@ 100fc090     LIBCMTD:crt0msg.obj
 0002:000260e8       ??_C@_1EC@JIBHAOPH@?$AAR?$AA6?$AA0?$AA1?$AA8?$AA?$AN?$AA?6?$AA?9?$AA?5?$AAu?$AAn?$AAe?$AAx?$AAp?$AAe?$AAc?$AAt?$AAe?$AAd?$AA?5?$AAh?$AAe?$AAa?$AAp?$AA?5?$AAe?$AAr?$AAr?$AAo?$AAr?$AA?$AN?$AA?6@ 100fc0e8     LIBCMTD:crt0msg.obj
 0002:00026130       ??_C@_1FK@BEOGODMC@?$AAR?$AA6?$AA0?$AA1?$AA7?$AA?$AN?$AA?6?$AA?9?$AA?5?$AAu?$AAn?$AAe?$AAx?$AAp?$AAe?$AAc?$AAt?$AAe?$AAd?$AA?5?$AAm?$AAu?$AAl?$AAt?$AAi?$AAt?$AAh?$AAr?$AAe?$AAa?$AAd?$AA?5@ 100fc130     LIBCMTD:crt0msg.obj
 0002:00026190       ??_C@_1FI@LOGNIKDM@?$AAR?$AA6?$AA0?$AA1?$AA6?$AA?$AN?$AA?6?$AA?9?$AA?5?$AAn?$AAo?$AAt?$AA?5?$AAe?$AAn?$AAo?$AAu?$AAg?$AAh?$AA?5?$AAs?$AAp?$AAa?$AAc?$AAe?$AA?5?$AAf?$AAo?$AAr?$AA?5?$AAt?$AAh@ 100fc190     LIBCMTD:crt0msg.obj
 0002:000261e8       ??_C@_1EG@BEHAGFJD@?$AAR?$AA6?$AA0?$AA1?$AA0?$AA?$AN?$AA?6?$AA?9?$AA?5?$AAa?$AAb?$AAo?$AAr?$AAt?$AA?$CI?$AA?$CJ?$AA?5?$AAh?$AAa?$AAs?$AA?5?$AAb?$AAe?$AAe?$AAn?$AA?5?$AAc?$AAa?$AAl?$AAl?$AAe?$AAd@ 100fc1e8     LIBCMTD:crt0msg.obj
 0002:00026230       ??_C@_1FI@HONFMGBI@?$AAR?$AA6?$AA0?$AA0?$AA9?$AA?$AN?$AA?6?$AA?9?$AA?5?$AAn?$AAo?$AAt?$AA?5?$AAe?$AAn?$AAo?$AAu?$AAg?$AAh?$AA?5?$AAs?$AAp?$AAa?$AAc?$AAe?$AA?5?$AAf?$AAo?$AAr?$AA?5?$AAe?$AAn@ 100fc230     LIBCMTD:crt0msg.obj
 0002:00026288       ??_C@_1FE@LLNEDJMD@?$AAR?$AA6?$AA0?$AA0?$AA8?$AA?$AN?$AA?6?$AA?9?$AA?5?$AAn?$AAo?$AAt?$AA?5?$AAe?$AAn?$AAo?$AAu?$AAg?$AAh?$AA?5?$AAs?$AAp?$AAa?$AAc?$AAe?$AA?5?$AAf?$AAo?$AAr?$AA?5?$AAa?$AAr@ 100fc288     LIBCMTD:crt0msg.obj
 0002:000262e0       ??_C@_1FK@PGACCAFB@?$AAR?$AA6?$AA0?$AA0?$AA2?$AA?$AN?$AA?6?$AA?9?$AA?5?$AAf?$AAl?$AAo?$AAa?$AAt?$AAi?$AAn?$AAg?$AA?5?$AAp?$AAo?$AAi?$AAn?$AAt?$AA?5?$AAs?$AAu?$AAp?$AAp?$AAo?$AAr?$AAt?$AA?5@ 100fc2e0     LIBCMTD:crt0msg.obj
 0002:000263f0       ??_C@_1IG@NMONDPP@?$AAw?$AAc?$AAs?$AAc?$AAa?$AAt?$AA_?$AAs?$AA?$CI?$AAo?$AAu?$AAt?$AAm?$AAs?$AAg?$AA?0?$AA?5?$AA?$CI?$AAs?$AAi?$AAz?$AAe?$AAo?$AAf?$AA?$CI?$AAo?$AAu?$AAt?$AAm?$AAs?$AAg?$AA?$CJ@ 100fc3f0     LIBCMTD:crt0msg.obj
 0002:00026478       ??_C@_1IA@DCJGKHFO@?$AAw?$AAc?$AAs?$AAc?$AAa?$AAt?$AA_?$AAs?$AA?$CI?$AAo?$AAu?$AAt?$AAm?$AAs?$AAg?$AA?0?$AA?5?$AA?$CI?$AAs?$AAi?$AAz?$AAe?$AAo?$AAf?$AA?$CI?$AAo?$AAu?$AAt?$AAm?$AAs?$AAg?$AA?$CJ@ 100fc478     LIBCMTD:crt0msg.obj
 0002:000264f8       ??_C@_1HI@FLHKGEBE@?$AAw?$AAc?$AAs?$AAn?$AAc?$AAp?$AAy?$AA_?$AAs?$AA?$CI?$AAp?$AAc?$AAh?$AA?0?$AA?5?$AAp?$AAr?$AAo?$AAg?$AAn?$AAa?$AAm?$AAe?$AA_?$AAs?$AAi?$AAz?$AAe?$AA?5?$AA?9?$AA?5?$AA?$CI@ 100fc4f8     LIBCMTD:crt0msg.obj
 0002:00026570       ??_C@_1HK@FJJNAABO@?$AAw?$AAc?$AAs?$AAc?$AAp?$AAy?$AA_?$AAs?$AA?$CI?$AAp?$AAr?$AAo?$AAg?$AAn?$AAa?$AAm?$AAe?$AA?0?$AA?5?$AAp?$AAr?$AAo?$AAg?$AAn?$AAa?$AAm?$AAe?$AA_?$AAs?$AAi?$AAz?$AAe@ 100fc570     LIBCMTD:crt0msg.obj
 0002:000265ec       ??_C@_1DE@JNGNBFGO@?$AAR?$AAu?$AAn?$AAt?$AAi?$AAm?$AAe?$AA?5?$AAE?$AAr?$AAr?$AAo?$AAr?$AA?$CB?$AA?6?$AA?6?$AAP?$AAr?$AAo?$AAg?$AAr?$AAa?$AAm?$AA?3?$AA?5?$AA?$AA@ 100fc5ec     LIBCMTD:crt0msg.obj
 0002:00026620       ??_C@_1KO@BKLCKNFL@?$AAw?$AAc?$AAs?$AAc?$AAp?$AAy?$AA_?$AAs?$AA?$CI?$AAo?$AAu?$AAt?$AAm?$AAs?$AAg?$AA?0?$AA?5?$AA?$CI?$AAs?$AAi?$AAz?$AAe?$AAo?$AAf?$AA?$CI?$AAo?$AAu?$AAt?$AAm?$AAs?$AAg?$AA?$CJ@ 100fc620     LIBCMTD:crt0msg.obj
 0002:000266d0       ??_C@_1BI@EAHMBMEC@?$AA_?$AAN?$AAM?$AAS?$AAG?$AA_?$AAW?$AAR?$AAI?$AAT?$AAE?$AA?$AA@ 100fc6d0     LIBCMTD:crt0msg.obj
 0002:000266e8       ??_C@_1GC@HKOJBOFF@?$AAf?$AA?3?$AA?2?$AAd?$AAd?$AA?2?$AAv?$AAc?$AAt?$AAo?$AAo?$AAl?$AAs?$AA?2?$AAc?$AAr?$AAt?$AA_?$AAb?$AAl?$AAd?$AA?2?$AAs?$AAe?$AAl?$AAf?$AA_?$AAx?$AA8?$AA6?$AA?2?$AAc@ 100fc6e8     LIBCMTD:crt0msg.obj
 0002:0002674c       ??_C@_0CP@MKONOLCI@f?3?2dd?2vctools?2crt_bld?2self_x86?2c@ 100fc74c     LIBCMTD:mlock.obj
 0002:0002677c       ??_C@_0BC@JEAENNKH@SystemFunction036?$AA@ 100fc77c     LIBCMTD:rand_s.obj
 0002:00026790       ??_C@_1GA@EBEDGGGB@?$AA?$CI?$AA?$CC?$AAr?$AAa?$AAn?$AAd?$AA_?$AAs?$AA?5?$AAi?$AAs?$AA?5?$AAn?$AAo?$AAt?$AA?5?$AAa?$AAv?$AAa?$AAi?$AAl?$AAa?$AAb?$AAl?$AAe?$AA?5?$AAo?$AAn?$AA?5?$AAt?$AAh?$AAi@ 100fc790     LIBCMTD:rand_s.obj
 0002:000267f0       ??_C@_1BK@GAEMIDIL@?$AAA?$AAD?$AAV?$AAA?$AAP?$AAI?$AA3?$AA2?$AA?4?$AAD?$AAL?$AAL?$AA?$AA@ 100fc7f0     LIBCMTD:rand_s.obj
 0002:0002680c       ??_C@_1O@IJGPPOGF@?$AAr?$AAa?$AAn?$AAd?$AA_?$AAs?$AA?$AA@ 100fc80c     LIBCMTD:rand_s.obj
 0002:00026820       ??_C@_1GA@HBGBBKCD@?$AAf?$AA?3?$AA?2?$AAd?$AAd?$AA?2?$AAv?$AAc?$AAt?$AAo?$AAo?$AAl?$AAs?$AA?2?$AAc?$AAr?$AAt?$AA_?$AAb?$AAl?$AAd?$AA?2?$AAs?$AAe?$AAl?$AAf?$AA_?$AAx?$AA8?$AA6?$AA?2?$AAc@ 100fc820     LIBCMTD:rand_s.obj
 0002:00026880       ??_C@_1CK@GFDNDKK@?$AA_?$AAR?$AAa?$AAn?$AAd?$AAo?$AAm?$AAV?$AAa?$AAl?$AAu?$AAe?$AA?5?$AA?$CB?$AA?$DN?$AA?5?$AAN?$AAU?$AAL?$AAL?$AA?$AA@ 100fc880     LIBCMTD:rand_s.obj
 0002:000268b0       ??_C@_1GO@NGIGJNHH@?$AAs?$AAt?$AAr?$AAn?$AAc?$AAp?$AAy?$AA_?$AAs?$AA?$CI?$AA?$CK?$AAs?$AAt?$AAr?$AAa?$AAd?$AAd?$AAr?$AAe?$AAs?$AAs?$AA?0?$AA?5?$AAo?$AAu?$AAt?$AAs?$AAi?$AAz?$AAe?$AA?0?$AA?5@ 100fc8b0     LIBCMTD:inithelp.obj
 0002:00026920       ??_C@_1CA@KHHCPEI@?$AA_?$AA_?$AAg?$AAe?$AAt?$AAl?$AAo?$AAc?$AAa?$AAl?$AAe?$AAi?$AAn?$AAf?$AAo?$AA?$AA@ 100fc920     LIBCMTD:inithelp.obj
 0002:00026940       ??_C@_1GE@PLPIMDHG@?$AAf?$AA?3?$AA?2?$AAd?$AAd?$AA?2?$AAv?$AAc?$AAt?$AAo?$AAo?$AAl?$AAs?$AA?2?$AAc?$AAr?$AAt?$AA_?$AAb?$AAl?$AAd?$AA?2?$AAs?$AAe?$AAl?$AAf?$AA_?$AAx?$AA8?$AA6?$AA?2?$AAc@ 100fc940     LIBCMTD:inithelp.obj
 0002:000269a4       ??_C@_0DC@CFDMMFIG@f?3?2dd?2vctools?2crt_bld?2self_x86?2c@ 100fc9a4     LIBCMTD:inithelp.obj
 0002:000269d8       ??_C@_1GG@CDHAPCGF@?$AAf?$AA?3?$AA?2?$AAd?$AAd?$AA?2?$AAv?$AAc?$AAt?$AAo?$AAo?$AAl?$AAs?$AA?2?$AAc?$AAr?$AAt?$AA_?$AAb?$AAl?$AAd?$AA?2?$AAs?$AAe?$AAl?$AAf?$AA_?$AAx?$AA8?$AA6?$AA?2?$AAc@ 100fc9d8     LIBCMTD:handler.obj
 0002:00026a40       ??_C@_1BC@JLLICHIC@?$AAp?$AAn?$AAh?$AA?5?$AA?$DN?$AA?$DN?$AA?5?$AA0?$AA?$AA@ 100fca40     LIBCMTD:handler.obj
 0002:00026a54       ??_C@_1BK@CMPKHPEC@?$AAn?$AA?5?$AA?$DM?$AA?$DN?$AA?5?$AAI?$AAN?$AAT?$AA_?$AAM?$AAA?$AAX?$AA?$AA@ 100fca54     LIBCMTD:mbsnbico.obj
 0002:00026a70       ??_C@_1BG@GBJNMPFA@?$AAs?$AA2?$AA?5?$AA?$CB?$AA?$DN?$AA?5?$AAN?$AAU?$AAL?$AAL?$AA?$AA@ 100fca70     LIBCMTD:mbsnbico.obj
 0002:00026a88       ??_C@_1BM@FKNNDAHH@?$AA_?$AAm?$AAb?$AAs?$AAn?$AAb?$AAi?$AAc?$AAo?$AAl?$AAl?$AA_?$AAl?$AA?$AA@ 100fca88     LIBCMTD:mbsnbico.obj
 0002:00026aa8       ??_C@_1GE@NJHAJPKI@?$AAf?$AA?3?$AA?2?$AAd?$AAd?$AA?2?$AAv?$AAc?$AAt?$AAo?$AAo?$AAl?$AAs?$AA?2?$AAc?$AAr?$AAt?$AA_?$AAb?$AAl?$AAd?$AA?2?$AAs?$AAe?$AAl?$AAf?$AA_?$AAx?$AA8?$AA6?$AA?2?$AAc@ 100fcaa8     LIBCMTD:mbsnbico.obj
 0002:00026b0c       ??_C@_1BG@MODEICJK@?$AAs?$AA1?$AA?5?$AA?$CB?$AA?$DN?$AA?5?$AAN?$AAU?$AAL?$AAL?$AA?$AA@ 100fcb0c     LIBCMTD:mbsnbico.obj
 0002:00026b24       ??_C@_0DC@CAFDLBC@f?3?2dd?2vctools?2crt_bld?2self_x86?2c@ 100fcb24     LIBCMTD:wtombenv.obj
 0002:00026b58       ??_C@_1BC@CFJEPFGF@?$AAs?$AAt?$AAr?$AAc?$AAp?$AAy?$AA_?$AAs?$AA?$AA@ 100fcb58     LIBCMTD:strcpy_s.obj
 0002:00026b70       ??_C@_1FC@NCPEPIBI@?$AA?$CI?$AA?$CI?$AA_?$AAD?$AAs?$AAt?$AA?$CJ?$AA?$CJ?$AA?5?$AA?$CB?$AA?$DN?$AA?5?$AAN?$AAU?$AAL?$AAL?$AA?5?$AA?$CG?$AA?$CG?$AA?5?$AA?$CI?$AA?$CI?$AA_?$AAS?$AAi?$AAz?$AAe?$AAI?$AAn?$AAB?$AAy?$AAt@ 100fcb70     LIBCMTD:strcpy_s.obj
 0002:00026bc8       ??_C@_1JE@ECKHFIFP@?$AA?$CI?$AA?$CC?$AAI?$AAn?$AAv?$AAa?$AAl?$AAi?$AAd?$AA?5?$AAf?$AAi?$AAl?$AAe?$AA?5?$AAd?$AAe?$AAs?$AAc?$AAr?$AAi?$AAp?$AAt?$AAo?$AAr?$AA?4?$AA?5?$AAF?$AAi?$AAl?$AAe?$AA?5@ 100fcbc8     LIBCMTD:close.obj
 0002:00026c5c       ??_C@_1CM@OKGMMMDH@?$AA?$CI?$AA_?$AAo?$AAs?$AAf?$AAi?$AAl?$AAe?$AA?$CI?$AAf?$AAh?$AA?$CJ?$AA?5?$AA?$CG?$AA?5?$AAF?$AAO?$AAP?$AAE?$AAN?$AA?$CJ?$AA?$AA@ 100fcc5c     LIBCMTD:close.obj
 0002:00026c88       ??_C@_1O@EDEJGJBM@?$AA_?$AAc?$AAl?$AAo?$AAs?$AAe?$AA?$AA@ 100fcc88     LIBCMTD:close.obj
 0002:00026c98       ??_C@_1FO@NNGNFGFH@?$AAf?$AA?3?$AA?2?$AAd?$AAd?$AA?2?$AAv?$AAc?$AAt?$AAo?$AAo?$AAl?$AAs?$AA?2?$AAc?$AAr?$AAt?$AA_?$AAb?$AAl?$AAd?$AA?2?$AAs?$AAe?$AAl?$AAf?$AA_?$AAx?$AA8?$AA6?$AA?2?$AAc@ 100fcc98     LIBCMTD:close.obj
 0002:00026cf8       ??_C@_1FO@LPCLHKGE@?$AA?$CI?$AAf?$AAh?$AA?5?$AA?$DO?$AA?$DN?$AA?5?$AA0?$AA?5?$AA?$CG?$AA?$CG?$AA?5?$AA?$CI?$AAu?$AAn?$AAs?$AAi?$AAg?$AAn?$AAe?$AAd?$AA?$CJ?$AAf?$AAh?$AA?5?$AA?$DM?$AA?5?$AA?$CI?$AAu?$AAn?$AAs?$AAi@ 100fccf8     LIBCMTD:close.obj
 0002:00026d58       ??_C@_1BA@JGHIEKKM@?$AA_?$AAf?$AAi?$AAl?$AAe?$AAn?$AAo?$AA?$AA@ 100fcd58     LIBCMTD:fileno.obj
 0002:00026d68       ??_C@_1GA@PBJHELNC@?$AAf?$AA?3?$AA?2?$AAd?$AAd?$AA?2?$AAv?$AAc?$AAt?$AAo?$AAo?$AAl?$AAs?$AA?2?$AAc?$AAr?$AAt?$AA_?$AAb?$AAl?$AAd?$AA?2?$AAs?$AAe?$AAl?$AAf?$AA_?$AAx?$AA8?$AA6?$AA?2?$AAc@ 100fcd68     LIBCMTD:fileno.obj
 0002:00026dc8       ??_C@_1GE@MIMBMOF@?$AAf?$AA?3?$AA?2?$AAd?$AAd?$AA?2?$AAv?$AAc?$AAt?$AAo?$AAo?$AAl?$AAs?$AA?2?$AAc?$AAr?$AAt?$AA_?$AAb?$AAl?$AAd?$AA?2?$AAs?$AAe?$AAl?$AAf?$AA_?$AAx?$AA8?$AA6?$AA?2?$AAc@ 100fcdc8     LIBCMTD:_freebuf.obj
 0002:00026e2c       ??_C@_1BO@KIJENGPH@?$AAs?$AAt?$AAr?$AAe?$AAa?$AAm?$AA?5?$AA?$CB?$AA?$DN?$AA?5?$AAN?$AAU?$AAL?$AAL?$AA?$AA@ 100fce2c     LIBCMTD:_freebuf.obj
 0002:00026e4c       ??_C@_1O@EDOIKGHF@?$AA_?$AAl?$AAs?$AAe?$AAe?$AAk?$AA?$AA@ 100fce4c     LIBCMTD:lseek.obj
 0002:00026e60       ??_C@_1FO@LGKMLCAL@?$AAf?$AA?3?$AA?2?$AAd?$AAd?$AA?2?$AAv?$AAc?$AAt?$AAo?$AAo?$AAl?$AAs?$AA?2?$AAc?$AAr?$AAt?$AA_?$AAb?$AAl?$AAd?$AA?2?$AAs?$AAe?$AAl?$AAf?$AA_?$AAx?$AA8?$AA6?$AA?2?$AAc@ 100fce60     LIBCMTD:lseek.obj
 0002:00026ec0       ??_C@_1DM@LMLOLGJ@?$AA?$CI?$AA?$CC?$AAI?$AAn?$AAv?$AAa?$AAl?$AAi?$AAd?$AA?5?$AAf?$AAi?$AAl?$AAe?$AA?5?$AAd?$AAe?$AAs?$AAc?$AAr?$AAi?$AAp?$AAt?$AAo?$AAr?$AA?$CC?$AA?0?$AA0?$AA?$CJ?$AA?$AA@ 100fcec0     LIBCMTD:lseek.obj
 0002:00026f1c       ??_C@_1CI@KEDPFCAL@?$AA?$CI?$AA?$CK?$AAm?$AAo?$AAd?$AAe?$AA?5?$AA?$DN?$AA?$DN?$AA?5?$AA_?$AAT?$AA?$CI?$AA?8?$AA?2?$AA0?$AA?8?$AA?$CJ?$AA?$CJ?$AA?$AA@ 100fcf1c     LIBCMTD:_open.obj
 0002:00026f44       ??_C@_1BE@DONHJJKE@?$AA_?$AAo?$AAp?$AAe?$AAn?$AAf?$AAi?$AAl?$AAe?$AA?$AA@ 100fcf44     LIBCMTD:_open.obj
 0002:00026f58       ??_C@_1DK@PKMJBLLN@?$AA?$CI?$AA?$CC?$AAI?$AAn?$AAv?$AAa?$AAl?$AAi?$AAd?$AA?5?$AAf?$AAi?$AAl?$AAe?$AA?5?$AAo?$AAp?$AAe?$AAn?$AA?5?$AAm?$AAo?$AAd?$AAe?$AA?$CC?$AA?0?$AA0?$AA?$CJ?$AA?$AA@ 100fcf58     LIBCMTD:_open.obj
 0002:00026f94       ??_C@_1BK@HGLMNMEC@?$AAm?$AAo?$AAd?$AAe?$AA?5?$AA?$CB?$AA?$DN?$AA?5?$AAN?$AAU?$AAL?$AAL?$AA?$AA@ 100fcf94     LIBCMTD:_open.obj
 0002:00026fb0       ??_C@_1FO@POGAHKND@?$AAf?$AA?3?$AA?2?$AAd?$AAd?$AA?2?$AAv?$AAc?$AAt?$AAo?$AAo?$AAl?$AAs?$AA?2?$AAc?$AAr?$AAt?$AA_?$AAb?$AAl?$AAd?$AA?2?$AAs?$AAe?$AAl?$AAf?$AA_?$AAx?$AA8?$AA6?$AA?2?$AAc@ 100fcfb0     LIBCMTD:_open.obj
 0002:00027010       ??_C@_1CC@JBMDNKJP@?$AAf?$AAi?$AAl?$AAe?$AAn?$AAa?$AAm?$AAe?$AA?5?$AA?$CB?$AA?$DN?$AA?5?$AAN?$AAU?$AAL?$AAL?$AA?$AA@ 100fd010     LIBCMTD:_open.obj
 0002:00027034       ??_C@_0DA@NLPACBPK@f?3?2dd?2vctools?2crt_bld?2self_x86?2c@ 100fd034     LIBCMTD:stream.obj
 0002:00027064       ??_C@_1BA@IIKEPOGH@?$AA_?$AAf?$AAi?$AAl?$AAb?$AAu?$AAf?$AA?$AA@ 100fd064     LIBCMTD:_filbuf.obj
 0002:00027078       ??_C@_1GC@CHFNJKFB@?$AAf?$AA?3?$AA?2?$AAd?$AAd?$AA?2?$AAv?$AAc?$AAt?$AAo?$AAo?$AAl?$AAs?$AA?2?$AAc?$AAr?$AAt?$AA_?$AAb?$AAl?$AAd?$AA?2?$AAs?$AAe?$AAl?$AAf?$AA_?$AAx?$AA8?$AA6?$AA?2?$AAc@ 100fd078     LIBCMTD:_filbuf.obj
 0002:000270dc       ??_C@_1CC@HBLPFNKH@?$AA?$CI?$AAc?$AAn?$AAt?$AA?5?$AA?$DM?$AA?$DN?$AA?5?$AAI?$AAN?$AAT?$AA_?$AAM?$AAA?$AAX?$AA?$CJ?$AA?$AA@ 100fd0dc     LIBCMTD:read.obj
 0002:00027100       ??_C@_1M@NHJOLLDM@?$AA_?$AAr?$AAe?$AAa?$AAd?$AA?$AA@ 100fd100     LIBCMTD:read.obj
 0002:00027110       ??_C@_1FM@NGICBHLO@?$AAf?$AA?3?$AA?2?$AAd?$AAd?$AA?2?$AAv?$AAc?$AAt?$AAo?$AAo?$AAl?$AAs?$AA?2?$AAc?$AAr?$AAt?$AA_?$AAb?$AAl?$AAd?$AA?2?$AAs?$AAe?$AAl?$AAf?$AA_?$AAx?$AA8?$AA6?$AA?2?$AAc@ 100fd110     LIBCMTD:read.obj
 0002:0002716c       ??_C@_0CO@CEGKNHEH@f?3?2dd?2vctools?2crt_bld?2self_x86?2c@ 100fd16c     LIBCMTD:read.obj
 0002:0002719c       ??_C@_1CC@EEOLPHGO@?$AA?$CI?$AA?$CI?$AAc?$AAn?$AAt?$AA?5?$AA?$CG?$AA?5?$AA1?$AA?$CJ?$AA?5?$AA?$DN?$AA?$DN?$AA?5?$AA0?$AA?$CJ?$AA?$AA@ 100fd19c     LIBCMTD:read.obj
 0002:000271c0       ??_C@_1CG@OHLJHGGK@?$AA?$CI?$AAi?$AAn?$AAp?$AAu?$AAt?$AAb?$AAu?$AAf?$AA?5?$AA?$CB?$AA?$DN?$AA?5?$AAN?$AAU?$AAL?$AAL?$AA?$CJ?$AA?$AA@ 100fd1c0     LIBCMTD:read.obj
 0002:000271e8       ??_C@_1BK@JJBHNDKJ@?$AA_?$AAr?$AAe?$AAa?$AAd?$AA_?$AAn?$AAo?$AAl?$AAo?$AAc?$AAk?$AA?$AA@ 100fd1e8     LIBCMTD:read.obj
 0002:00027204       ??_C@_1CK@DDKKOLAN@?$AAs?$AAi?$AAz?$AAe?$AAI?$AAn?$AAB?$AAy?$AAt?$AAe?$AAs?$AA?5?$AA?$DO?$AA?$DN?$AA?5?$AAc?$AAo?$AAu?$AAn?$AAt?$AA?$AA@ 100fd204     LIBCMTD:memcpy_s.obj
 0002:00027230       ??_C@_1BC@GKHDJMGB@?$AAm?$AAe?$AAm?$AAc?$AAp?$AAy?$AA_?$AAs?$AA?$AA@ 100fd230     LIBCMTD:memcpy_s.obj
 0002:00027248       ??_C@_1GE@NEOPGGBM@?$AAf?$AA?3?$AA?2?$AAd?$AAd?$AA?2?$AAv?$AAc?$AAt?$AAo?$AAo?$AAl?$AAs?$AA?2?$AAc?$AAr?$AAt?$AA_?$AAb?$AAl?$AAd?$AA?2?$AAs?$AAe?$AAl?$AAf?$AA_?$AAx?$AA8?$AA6?$AA?2?$AAc@ 100fd248     LIBCMTD:memcpy_s.obj
 0002:000272e4       ??_C@_01KDCPPGHE@r?$AA@    100fd2e4     LIBCMTD:_pdblkup_.obj
 0002:000272e8       ??_C@_0BB@KCIACLNC@PDBOpenValidate5?$AA@ 100fd2e8     LIBCMTD:_pdblkup_.obj
 0002:000272fc       ??_C@_1CK@HHHCOJPD@?$AAE?$AAn?$AAv?$AAi?$AAr?$AAo?$AAn?$AAm?$AAe?$AAn?$AAt?$AAD?$AAi?$AAr?$AAe?$AAc?$AAt?$AAo?$AAr?$AAy?$AA?$AA@ 100fd2fc     LIBCMTD:_pdblkup_.obj
 0002:00027328       ??_C@_1FM@DNCABAP@?$AAS?$AAO?$AAF?$AAT?$AAW?$AAA?$AAR?$AAE?$AA?2?$AAM?$AAi?$AAc?$AAr?$AAo?$AAs?$AAo?$AAf?$AAt?$AA?2?$AAV?$AAi?$AAs?$AAu?$AAa?$AAl?$AAS?$AAt?$AAu?$AAd?$AAi?$AAo?$AA?2@ 100fd328     LIBCMTD:_pdblkup_.obj
 0002:00027384       ??_C@_0M@HLOHPNFA@RegCloseKey?$AA@ 100fd384     LIBCMTD:_pdblkup_.obj
 0002:00027390       ??_C@_0BB@GLNAEDBD@RegQueryValueExW?$AA@ 100fd390     LIBCMTD:_pdblkup_.obj
 0002:000273a4       ??_C@_0O@COHOBMLB@RegOpenKeyExW?$AA@ 100fd3a4     LIBCMTD:_pdblkup_.obj
 0002:000273d0       ??_C@_03KHICJKCI@?4?4?4?$AA@ 100fd3d0     LIBCMTD:dbgrpt.obj
 0002:000273d4       ??_C@_0BB@NAGLCMLI@Assertion?5Failed?$AA@ 100fd3d4     LIBCMTD:dbgrpt.obj
 0002:000273e8       ??_C@_05NAOIJFC@Error?$AA@ 100fd3e8     LIBCMTD:dbgrpt.obj
 0002:000273f0       ??_C@_07KGMMFLDN@Warning?$AA@ 100fd3f0     LIBCMTD:dbgrpt.obj
 0002:00027404       ??_C@_1CG@GNMJDMIO@?$AA_?$AAC?$AAr?$AAt?$AAS?$AAe?$AAt?$AAR?$AAe?$AAp?$AAo?$AAr?$AAt?$AAH?$AAo?$AAo?$AAk?$AA2?$AA?$AA@ 100fd404     LIBCMTD:dbgrpt.obj
 0002:0002742c       ??_C@_0CD@EBCGLDDL@Microsoft?5Visual?5C?$CL?$CL?5Debug?5Libra@ 100fd42c     LIBCMTD:dbgrpt.obj
 0002:00027450       ??_C@_0CL@EACFGMNB@_CrtDbgReport?3?5String?5too?5long?5o@ 100fd450     LIBCMTD:dbgrpt.obj
 0002:00027480       ??_C@_1JG@CPKCIOEE@?$AAs?$AAt?$AAr?$AAc?$AAp?$AAy?$AA_?$AAs?$AA?$CI?$AAs?$AAz?$AAO?$AAu?$AAt?$AAM?$AAe?$AAs?$AAs?$AAa?$AAg?$AAe?$AA?0?$AA?5?$AA4?$AA0?$AA9?$AA6?$AA?0?$AA?5?$AA?$CC?$AA_?$AAC@ 100fd480     LIBCMTD:dbgrpt.obj
 0002:00027518       ??_C@_0FF@CCONDJCB@Debug?5?$CFs?$CB?6?6Program?3?5?$CFs?$CFs?$CFs?$CFs?$CFs?$CFs@ 100fd518     LIBCMTD:dbgrpt.obj
 0002:00027570       ??_C@_09OFBFHMBK@?6Module?3?5?$AA@ 100fd570     LIBCMTD:dbgrpt.obj
 0002:0002757c       ??_C@_07OPHPPLBG@?6File?3?5?$AA@ 100fd57c     LIBCMTD:dbgrpt.obj
 0002:00027584       ??_C@_07DBMPPHDI@?6Line?3?5?$AA@ 100fd584     LIBCMTD:dbgrpt.obj
 0002:0002758c       ??_C@_02PHMGELLB@?6?6?$AA@ 100fd58c     LIBCMTD:dbgrpt.obj
 0002:00027590       ??_C@_0N@MEECIJGN@Expression?3?5?$AA@ 100fd590     LIBCMTD:dbgrpt.obj
 0002:000275a0       ??_C@_0HD@GNBNFCCL@?6?6For?5information?5on?5how?5your?5pr@ 100fd5a0     LIBCMTD:dbgrpt.obj
 0002:00027614       ??_C@_0BH@DNAGHKFM@?$DMprogram?5name?5unknown?$DO?$AA@ 100fd614     LIBCMTD:dbgrpt.obj
 0002:00027630       ??_C@_1GG@DLDHOIGE@?$AAs?$AAt?$AAr?$AAc?$AAp?$AAy?$AA_?$AAs?$AA?$CI?$AAs?$AAz?$AAE?$AAx?$AAe?$AAN?$AAa?$AAm?$AAe?$AA?0?$AA?5?$AA2?$AA6?$AA0?$AA?0?$AA?5?$AA?$CC?$AA?$DM?$AAp?$AAr?$AAo?$AAg?$AAr@ 100fd630     LIBCMTD:dbgrpt.obj
 0002:00027698       ??_C@_1CI@IDOKFLAJ@?$AA_?$AA_?$AAc?$AAr?$AAt?$AAM?$AAe?$AAs?$AAs?$AAa?$AAg?$AAe?$AAW?$AAi?$AAn?$AAd?$AAo?$AAw?$AAA?$AA?$AA@ 100fd698     LIBCMTD:dbgrpt.obj
 0002:000276c0       ??_C@_1DG@LNNHNFHJ@?$AA?$CI?$AA_?$AAo?$AAs?$AAf?$AAi?$AAl?$AAe?$AA?$CI?$AAf?$AAi?$AAl?$AAe?$AAd?$AAe?$AAs?$AA?$CJ?$AA?5?$AA?$CG?$AA?5?$AAF?$AAO?$AAP?$AAE?$AAN?$AA?$CJ?$AA?$AA@ 100fd6c0     LIBCMTD:commit.obj
 0002:000276f8       ??_C@_1BA@FLNMBBIM@?$AA_?$AAc?$AAo?$AAm?$AAm?$AAi?$AAt?$AA?$AA@ 100fd6f8     LIBCMTD:commit.obj
 0002:00027708       ??_C@_1GA@BOPCOCFN@?$AAf?$AA?3?$AA?2?$AAd?$AAd?$AA?2?$AAv?$AAc?$AAt?$AAo?$AAo?$AAl?$AAs?$AA?2?$AAc?$AAr?$AAt?$AA_?$AAb?$AAl?$AAd?$AA?2?$AAs?$AAe?$AAl?$AAf?$AA_?$AAx?$AA8?$AA6?$AA?2?$AAc@ 100fd708     LIBCMTD:commit.obj
 0002:00027768       ??_C@_1HC@KFLBHHBC@?$AA?$CI?$AAf?$AAi?$AAl?$AAe?$AAd?$AAe?$AAs?$AA?5?$AA?$DO?$AA?$DN?$AA?5?$AA0?$AA?5?$AA?$CG?$AA?$CG?$AA?5?$AA?$CI?$AAu?$AAn?$AAs?$AAi?$AAg?$AAn?$AAe?$AAd?$AA?$CJ?$AAf?$AAi?$AAl?$AAe?$AAd@ 100fd768     LIBCMTD:commit.obj
 0002:000277dc       ??_C@_1O@KOFKDHPL@?$AA_?$AAw?$AAr?$AAi?$AAt?$AAe?$AA?$AA@ 100fd7dc     LIBCMTD:write.obj
 0002:000277f0       ??_C@_1FO@EPLDPDDL@?$AAf?$AA?3?$AA?2?$AAd?$AAd?$AA?2?$AAv?$AAc?$AAt?$AAo?$AAo?$AAl?$AAs?$AA?2?$AAc?$AAr?$AAt?$AA_?$AAb?$AAl?$AAd?$AA?2?$AAs?$AAe?$AAl?$AAf?$AA_?$AAx?$AA8?$AA6?$AA?2?$AAc@ 100fd7f0     LIBCMTD:write.obj
 0002:00027850       ??_C@_1DI@CNMHHHLG@?$AAi?$AAs?$AAl?$AAe?$AAa?$AAd?$AAb?$AAy?$AAt?$AAe?$AA?$CI?$AA_?$AAd?$AAb?$AAc?$AAs?$AAB?$AAu?$AAf?$AAf?$AAe?$AAr?$AA?$CI?$AAf?$AAh?$AA?$CJ?$AA?$CJ?$AA?$AA@ 100fd850     LIBCMTD:write.obj
 0002:00027888       ??_C@_1BM@NCANHCIP@?$AA_?$AAw?$AAr?$AAi?$AAt?$AAe?$AA_?$AAn?$AAo?$AAl?$AAo?$AAc?$AAk?$AA?$AA@ 100fd888     LIBCMTD:write.obj
 0002:000278a4       ??_C@_1BM@KFJLMBPG@?$AA?$CI?$AAb?$AAu?$AAf?$AA?5?$AA?$CB?$AA?$DN?$AA?5?$AAN?$AAU?$AAL?$AAL?$AA?$CJ?$AA?$AA@ 100fd8a4     LIBCMTD:write.obj
 0002:000278c0       ??_C@_1BG@BBCDFOMA@?$AA_?$AAw?$AAo?$AAu?$AAt?$AAp?$AAu?$AAt?$AA_?$AAl?$AA?$AA@ 100fd8c0     LIBCMTD:woutput.obj
 0002:000278d8       ??_C@_1CC@MONNFDCM@?$AAv?$AAf?$AAw?$AAp?$AAr?$AAi?$AAn?$AAt?$AAf?$AA_?$AAh?$AAe?$AAl?$AAp?$AAe?$AAr?$AA?$AA@ 100fd8d8     LIBCMTD:vfwprint.obj
 0002:00027900       ??_C@_1GE@MBMBDAGC@?$AAf?$AA?3?$AA?2?$AAd?$AAd?$AA?2?$AAv?$AAc?$AAt?$AAo?$AAo?$AAl?$AAs?$AA?2?$AAc?$AAr?$AAt?$AA_?$AAb?$AAl?$AAd?$AA?2?$AAs?$AAe?$AAl?$AAf?$AA_?$AAx?$AA8?$AA6?$AA?2?$AAc@ 100fd900     LIBCMTD:vfwprint.obj
 0002:00027964       ??_C@_1BK@ONMFGLDB@?$AA_?$AAw?$AAo?$AAu?$AAt?$AAp?$AAu?$AAt?$AA_?$AAs?$AA_?$AAl?$AA?$AA@ 100fd964     LIBCMTD:woutputs.obj
 0002:00027980       ??_C@_1BK@GDEKGMNC@?$AA_?$AAw?$AAo?$AAu?$AAt?$AAp?$AAu?$AAt?$AA_?$AAp?$AA_?$AAl?$AA?$AA@ 100fd980     LIBCMTD:woutputp.obj
 0002:0002799c       ??_C@_1BK@CDOALEA@?$AA_?$AAc?$AAo?$AAn?$AAt?$AAr?$AAo?$AAl?$AAf?$AAp?$AA_?$AAs?$AA?$AA@ 100fd99c     LIBCMTD:_contrlfp_.obj
 0002:000279b8       ??_C@_1HI@JIOCECAH@?$AAf?$AA?3?$AA?2?$AAd?$AAd?$AA?2?$AAv?$AAc?$AAt?$AAo?$AAo?$AAl?$AAs?$AA?2?$AAc?$AAr?$AAt?$AA_?$AAb?$AAl?$AAd?$AA?2?$AAs?$AAe?$AAl?$AAf?$AA_?$AAx?$AA8?$AA6?$AA?2?$AAc@ 100fd9b8     LIBCMTD:_contrlfp_.obj
 0002:00027a30       ??_C@_1DG@JNDMIEJL@?$AA?$CI?$AA?$CC?$AAI?$AAn?$AAv?$AAa?$AAl?$AAi?$AAd?$AA?5?$AAi?$AAn?$AAp?$AAu?$AAt?$AA?5?$AAv?$AAa?$AAl?$AAu?$AAe?$AA?$CC?$AA?0?$AA?5?$AA0?$AA?$CJ?$AA?$AA@ 100fda30     LIBCMTD:_contrlfp_.obj
 0002:00027a68       ??_C@_1BK@CLIEHFDF@?$AAp?$AAf?$AAl?$AAt?$AA?5?$AA?$CB?$AA?$DN?$AA?5?$AAN?$AAU?$AAL?$AAL?$AA?$AA@ 100fda68     LIBCMTD:_fptostr.obj
 0002:00027a88       ??_C@_1GM@CEDLGDDI@?$AAs?$AAi?$AAz?$AAe?$AAI?$AAn?$AAB?$AAy?$AAt?$AAe?$AAs?$AA?5?$AA?$DO?$AA?5?$AA?$CI?$AAs?$AAi?$AAz?$AAe?$AA_?$AAt?$AA?$CJ?$AA?$CI?$AA?$CI?$AAd?$AAi?$AAg?$AAi?$AAt?$AAs?$AA?5?$AA?$DO@ 100fda88     LIBCMTD:_fptostr.obj
 0002:00027af4       ??_C@_1BC@OPALLEB@?$AA_?$AAf?$AAp?$AAt?$AAo?$AAs?$AAt?$AAr?$AA?$AA@ 100fdaf4     LIBCMTD:_fptostr.obj
 0002:00027b08       ??_C@_1GE@BDKOPHIO@?$AAf?$AA?3?$AA?2?$AAd?$AAd?$AA?2?$AAv?$AAc?$AAt?$AAo?$AAo?$AAl?$AAs?$AA?2?$AAc?$AAr?$AAt?$AA_?$AAb?$AAl?$AAd?$AA?2?$AAs?$AAe?$AAl?$AAf?$AA_?$AAx?$AA8?$AA6?$AA?2?$AAc@ 100fdb08     LIBCMTD:_fptostr.obj
 0002:00027b70       ??_C@_1FK@KODCOBKF@?$AAs?$AAt?$AAr?$AAc?$AAp?$AAy?$AA_?$AAs?$AA?$CI?$AAr?$AAe?$AAs?$AAu?$AAl?$AAt?$AAs?$AAt?$AAr?$AA?0?$AA?5?$AAr?$AAe?$AAs?$AAu?$AAl?$AAt?$AAs?$AAi?$AAz?$AAe?$AA?0?$AA?5@ 100fdb70     LIBCMTD:_cfout_.obj
 0002:00027bcc       ??_C@_1BC@BPMMEHLK@?$AA_?$AAf?$AAl?$AAt?$AAo?$AAu?$AAt?$AA2?$AA?$AA@ 100fdbcc     LIBCMTD:_cfout_.obj
 0002:00027be0       ??_C@_1HC@PKFDNKN@?$AAf?$AA?3?$AA?2?$AAd?$AAd?$AA?2?$AAv?$AAc?$AAt?$AAo?$AAo?$AAl?$AAs?$AA?2?$AAc?$AAr?$AAt?$AA_?$AAb?$AAl?$AAd?$AA?2?$AAs?$AAe?$AAl?$AAf?$AA_?$AAx?$AA8?$AA6?$AA?2?$AAc@ 100fdbe0     LIBCMTD:_cfout_.obj
 0002:00027c54       ??_C@_1CG@EBJECAJM@?$AA_?$AAs?$AAe?$AAt?$AA_?$AAo?$AAu?$AAt?$AAp?$AAu?$AAt?$AA_?$AAf?$AAo?$AAr?$AAm?$AAa?$AAt?$AA?$AA@ 100fdc54     LIBCMTD:outputformat.obj
 0002:00027c80       ??_C@_1GM@NFGGJJCM@?$AAf?$AA?3?$AA?2?$AAd?$AAd?$AA?2?$AAv?$AAc?$AAt?$AAo?$AAo?$AAl?$AAs?$AA?2?$AAc?$AAr?$AAt?$AA_?$AAb?$AAl?$AAd?$AA?2?$AAs?$AAe?$AAl?$AAf?$AA_?$AAx?$AA8?$AA6?$AA?2?$AAc@ 100fdc80     LIBCMTD:outputformat.obj
 0002:00027cf0       ??_C@_1EM@EGEEBJLG@?$AA?$CI?$AAo?$AAp?$AAt?$AAi?$AAo?$AAn?$AAs?$AA?5?$AA?$CG?$AA?5?$AA?$HO?$AA_?$AAT?$AAW?$AAO?$AA_?$AAD?$AAI?$AAG?$AAI?$AAT?$AA_?$AAE?$AAX?$AAP?$AAO?$AAN?$AAE?$AAN?$AAT?$AA?$CJ@ 100fdcf0     LIBCMTD:outputformat.obj
 0002:00027d40       ??_C@_1NK@LOFHIHFC@?$AAf?$AAM?$AAo?$AAd?$AAe?$AA?5?$AA?$DN?$AA?$DN?$AA?5?$AA_?$AAC?$AAR?$AAT?$AAD?$AAB?$AAG?$AA_?$AAR?$AAE?$AAP?$AAO?$AAR?$AAT?$AA_?$AAM?$AAO?$AAD?$AAE?$AA?5?$AA?$HM?$AA?$HM?$AA?5@ 100fdd40     LIBCMTD:dbgrptt.obj
 0002:00027e1c       ??_C@_1CE@FIHIECNJ@?$AA_?$AAC?$AAr?$AAt?$AAS?$AAe?$AAt?$AAR?$AAe?$AAp?$AAo?$AAr?$AAt?$AAM?$AAo?$AAd?$AAe?$AA?$AA@ 100fde1c     LIBCMTD:dbgrptt.obj
 0002:00027e40       ??_C@_1GC@FIGJJMEN@?$AAf?$AA?3?$AA?2?$AAd?$AAd?$AA?2?$AAv?$AAc?$AAt?$AAo?$AAo?$AAl?$AAs?$AA?2?$AAc?$AAr?$AAt?$AA_?$AAb?$AAl?$AAd?$AA?2?$AAs?$AAe?$AAl?$AAf?$AA_?$AAx?$AA8?$AA6?$AA?2?$AAc@ 100fde40     LIBCMTD:dbgrptt.obj
 0002:00027ea8       ??_C@_1FA@IFFFOLDJ@?$AAn?$AAR?$AAp?$AAt?$AAT?$AAy?$AAp?$AAe?$AA?5?$AA?$DO?$AA?$DN?$AA?5?$AA0?$AA?5?$AA?$CG?$AA?$CG?$AA?5?$AAn?$AAR?$AAp?$AAt?$AAT?$AAy?$AAp?$AAe?$AA?5?$AA?$DM?$AA?5?$AA_?$AAC?$AAR?$AAT@ 100fdea8     LIBCMTD:dbgrptt.obj
 0002:00027ef8       ??_C@_1CE@IKKEDCME@?$AA_?$AAC?$AAr?$AAt?$AAS?$AAe?$AAt?$AAR?$AAe?$AAp?$AAo?$AAr?$AAt?$AAF?$AAi?$AAl?$AAe?$AA?$AA@ 100fdef8     LIBCMTD:dbgrptt.obj
 0002:00027f20       ??_C@_1HO@PJOFIKFE@?$AA_?$AAC?$AAr?$AAt?$AAD?$AAb?$AAg?$AAR?$AAe?$AAp?$AAo?$AAr?$AAt?$AA?3?$AA?5?$AAS?$AAt?$AAr?$AAi?$AAn?$AAg?$AA?5?$AAt?$AAo?$AAo?$AA?5?$AAl?$AAo?$AAn?$AAg?$AA?5?$AAo@ 100fdf20     LIBCMTD:dbgrptt.obj
 0002:00027fa0       ??_C@_1MC@IGEECMDB@?$AAw?$AAc?$AAs?$AAc?$AAp?$AAy?$AA_?$AAs?$AA?$CI?$AAs?$AAz?$AAO?$AAu?$AAt?$AAM?$AAe?$AAs?$AAs?$AAa?$AAg?$AAe?$AA2?$AA?0?$AA?5?$AA4?$AA0?$AA9?$AA6?$AA?0?$AA?5?$AAL?$AA?$CC@ 100fdfa0     LIBCMTD:dbgrptt.obj
 0002:00028068       ??_C@_1IM@OOKIFKOH@?$AAe?$AA?5?$AA?$DN?$AA?5?$AAm?$AAb?$AAs?$AAt?$AAo?$AAw?$AAc?$AAs?$AA_?$AAs?$AA?$CI?$AA?$CG?$AAr?$AAe?$AAt?$AA?0?$AA?5?$AAs?$AAz?$AAO?$AAu?$AAt?$AAM?$AAe?$AAs?$AAs?$AAa?$AAg@ 100fe068     LIBCMTD:dbgrptt.obj
 0002:000280f8       ??_C@_1FI@IBIOIHEG@?$AAs?$AAt?$AAr?$AAc?$AAp?$AAy?$AA_?$AAs?$AA?$CI?$AAs?$AAz?$AAO?$AAu?$AAt?$AAM?$AAe?$AAs?$AAs?$AAa?$AAg?$AAe?$AA?0?$AA?5?$AA4?$AA0?$AA9?$AA6?$AA?0?$AA?5?$AAs?$AAz?$AAL@ 100fe0f8     LIBCMTD:dbgrptt.obj
 0002:00028150       ??_C@_0M@IPILFDFN@?$CFs?$CI?$CFd?$CJ?5?3?5?$CFs?$AA@ 100fe150     LIBCMTD:dbgrptt.obj
 0002:00028160       ??_C@_1EI@LDHJEDO@?$AAs?$AAt?$AAr?$AAc?$AAa?$AAt?$AA_?$AAs?$AA?$CI?$AAs?$AAz?$AAL?$AAi?$AAn?$AAe?$AAM?$AAe?$AAs?$AAs?$AAa?$AAg?$AAe?$AA?0?$AA?5?$AA4?$AA0?$AA9?$AA6?$AA?0?$AA?5?$AA?$CC?$AA?2@ 100fe160     LIBCMTD:dbgrptt.obj
 0002:000281a8       ??_C@_01LIIJDEN@?$AN?$AA@  100fe1a8     LIBCMTD:dbgrptt.obj
 0002:000281b0       ??_C@_1EI@CACDLAFK@?$AAs?$AAt?$AAr?$AAc?$AAa?$AAt?$AA_?$AAs?$AA?$CI?$AAs?$AAz?$AAL?$AAi?$AAn?$AAe?$AAM?$AAe?$AAs?$AAs?$AAa?$AAg?$AAe?$AA?0?$AA?5?$AA4?$AA0?$AA9?$AA6?$AA?0?$AA?5?$AA?$CC?$AA?2@ 100fe1b0     LIBCMTD:dbgrptt.obj
 0002:000281f8       ??_C@_1FK@NPGBPOFO@?$AAs?$AAt?$AAr?$AAc?$AAa?$AAt?$AA_?$AAs?$AA?$CI?$AAs?$AAz?$AAL?$AAi?$AAn?$AAe?$AAM?$AAe?$AAs?$AAs?$AAa?$AAg?$AAe?$AA?0?$AA?5?$AA4?$AA0?$AA9?$AA6?$AA?0?$AA?5?$AAs?$AAz@ 100fe1f8     LIBCMTD:dbgrptt.obj
 0002:00028258       ??_C@_1KK@GIGAEDMO@?$AAs?$AAt?$AAr?$AAc?$AAp?$AAy?$AA_?$AAs?$AA?$CI?$AAs?$AAz?$AAL?$AAi?$AAn?$AAe?$AAM?$AAe?$AAs?$AAs?$AAa?$AAg?$AAe?$AA?0?$AA?5?$AA4?$AA0?$AA9?$AA6?$AA?0?$AA?5?$AAs?$AAz@ 100fe258     LIBCMTD:dbgrptt.obj
 0002:00028304       ??_C@_0BC@LAIDCHCH@Assertion?5failed?$CB?$AA@ 100fe304     LIBCMTD:dbgrptt.obj
 0002:00028318       ??_C@_0BD@CAENFOHP@Assertion?5failed?3?5?$AA@ 100fe318     LIBCMTD:dbgrptt.obj
 0002:00028330       ??_C@_1JI@GAALPGBM@?$AAs?$AAt?$AAr?$AAc?$AAp?$AAy?$AA_?$AAs?$AA?$CI?$AAs?$AAz?$AAU?$AAs?$AAe?$AAr?$AAM?$AAe?$AAs?$AAs?$AAa?$AAg?$AAe?$AA?0?$AA?5?$AA4?$AA0?$AA9?$AA6?$AA?0?$AA?5?$AA?$CC?$AA_@ 100fe330     LIBCMTD:dbgrptt.obj
 0002:000283c8       ??_C@_07BHGABMGB@?0?5Line?5?$AA@ 100fe3c8     LIBCMTD:dbgrptt.obj
 0002:000283d0       ??_C@_0P@DFJNDPOP@?$DMfile?5unknown?$DO?$AA@ 100fe3d0     LIBCMTD:dbgrptt.obj
 0002:000283e0       ??_C@_0CG@BNGLOCEO@Second?5Chance?5Assertion?5Failed?3?5@ 100fe3e0     LIBCMTD:dbgrptt.obj
 0002:00028408       ??_C@_1FA@JPHJBHEM@?$AA_?$AAi?$AAt?$AAo?$AAa?$AA_?$AAs?$AA?$CI?$AAn?$AAL?$AAi?$AAn?$AAe?$AA?0?$AA?5?$AAs?$AAz?$AAL?$AAi?$AAn?$AAe?$AAM?$AAe?$AAs?$AAs?$AAa?$AAg?$AAe?$AA?0?$AA?5?$AA4?$AA0@ 100fe408     LIBCMTD:dbgrptt.obj
 0002:00028458       ??_C@_1CA@KHJHLKA@?$AA_?$AAV?$AAC?$AAr?$AAt?$AAD?$AAb?$AAg?$AAR?$AAe?$AAp?$AAo?$AAr?$AAt?$AAA?$AA?$AA@ 100fe458     LIBCMTD:dbgrptt.obj
 0002:00028478       ??_C@_1IE@CPGKIAGP@?$AAw?$AAc?$AAs?$AAt?$AAo?$AAm?$AAb?$AAs?$AA_?$AAs?$AA?$CI?$AA?$CG?$AAr?$AAe?$AAt?$AA?0?$AA?5?$AAs?$AAz?$AAa?$AAO?$AAu?$AAt?$AAM?$AAe?$AAs?$AAs?$AAa?$AAg?$AAe?$AA?0?$AA?5@ 100fe478     LIBCMTD:dbgrptt.obj
 0002:000284fc       ??_C@_0DP@GNPEPHJD@_CrtDbgReport?3?5String?5too?5long?5o@ 100fe4fc     LIBCMTD:dbgrptt.obj
 0002:00028540       ??_C@_1MA@LBAMNNOB@?$AAs?$AAt?$AAr?$AAc?$AAp?$AAy?$AA_?$AAs?$AA?$CI?$AAs?$AAz?$AAO?$AAu?$AAt?$AAM?$AAe?$AAs?$AAs?$AAa?$AAg?$AAe?$AA2?$AA?0?$AA?5?$AA4?$AA0?$AA9?$AA6?$AA?0?$AA?5?$AA?$CC?$AA_@ 100fe540     LIBCMTD:dbgrptt.obj
 0002:00028600       ??_C@_1JC@EOAPFDLN@?$AAw?$AAc?$AAs?$AAt?$AAo?$AAm?$AAb?$AAs?$AA_?$AAs?$AA?$CI?$AA?$CI?$AA?$CI?$AAv?$AAo?$AAi?$AAd?$AA?5?$AA?$CK?$AA?$CJ?$AA0?$AA?$CJ?$AA?0?$AA?5?$AAs?$AAz?$AAO?$AAu?$AAt?$AAM?$AAe?$AAs@ 100fe600     LIBCMTD:dbgrptt.obj
 0002:00028698       ??_C@_1FI@DBAIJPJE@?$AAw?$AAc?$AAs?$AAc?$AAp?$AAy?$AA_?$AAs?$AA?$CI?$AAs?$AAz?$AAO?$AAu?$AAt?$AAM?$AAe?$AAs?$AAs?$AAa?$AAg?$AAe?$AA?0?$AA?5?$AA4?$AA0?$AA9?$AA6?$AA?0?$AA?5?$AAs?$AAz?$AAL@ 100fe698     LIBCMTD:dbgrptt.obj
 0002:000286f0       ??_C@_1BI@JIDBEPIG@?$AA?$CF?$AAs?$AA?$CI?$AA?$CF?$AAd?$AA?$CJ?$AA?5?$AA?3?$AA?5?$AA?$CF?$AAs?$AA?$AA@ 100fe6f0     LIBCMTD:dbgrptt.obj
 0002:00028708       ??_C@_1EK@PHCBEDKB@?$AAw?$AAc?$AAs?$AAc?$AAa?$AAt?$AA_?$AAs?$AA?$CI?$AAs?$AAz?$AAL?$AAi?$AAn?$AAe?$AAM?$AAe?$AAs?$AAs?$AAa?$AAg?$AAe?$AA?0?$AA?5?$AA4?$AA0?$AA9?$AA6?$AA?0?$AA?5?$AAL?$AA?$CC@ 100fe708     LIBCMTD:dbgrptt.obj
 0002:00028754       ??_C@_13CMNBPIDO@?$AA?$AN?$AA?$AA@ 100fe754     LIBCMTD:dbgrptt.obj
 0002:00028758       ??_C@_1EK@NMDFGHMF@?$AAw?$AAc?$AAs?$AAc?$AAa?$AAt?$AA_?$AAs?$AA?$CI?$AAs?$AAz?$AAL?$AAi?$AAn?$AAe?$AAM?$AAe?$AAs?$AAs?$AAa?$AAg?$AAe?$AA?0?$AA?5?$AA4?$AA0?$AA9?$AA6?$AA?0?$AA?5?$AAL?$AA?$CC@ 100fe758     LIBCMTD:dbgrptt.obj
 0002:000287a8       ??_C@_1FK@HPADHBBD@?$AAw?$AAc?$AAs?$AAc?$AAa?$AAt?$AA_?$AAs?$AA?$CI?$AAs?$AAz?$AAL?$AAi?$AAn?$AAe?$AAM?$AAe?$AAs?$AAs?$AAa?$AAg?$AAe?$AA?0?$AA?5?$AA4?$AA0?$AA9?$AA6?$AA?0?$AA?5?$AAs?$AAz@ 100fe7a8     LIBCMTD:dbgrptt.obj
 0002:00028808       ??_C@_1KO@DGAHENCH@?$AAw?$AAc?$AAs?$AAc?$AAp?$AAy?$AA_?$AAs?$AA?$CI?$AAs?$AAz?$AAL?$AAi?$AAn?$AAe?$AAM?$AAe?$AAs?$AAs?$AAa?$AAg?$AAe?$AA?0?$AA?5?$AA4?$AA0?$AA9?$AA6?$AA?0?$AA?5?$AAs?$AAz@ 100fe808     LIBCMTD:dbgrptt.obj
 0002:000288b8       ??_C@_1CG@FFFGGODN@?$AAA?$AAs?$AAs?$AAe?$AAr?$AAt?$AAi?$AAo?$AAn?$AA?5?$AAf?$AAa?$AAi?$AAl?$AAe?$AAd?$AA?3?$AA?5?$AA?$AA@ 100fe8b8     LIBCMTD:dbgrptt.obj
 0002:000288e0       ??_C@_1JK@KHFABAEO@?$AAw?$AAc?$AAs?$AAc?$AAp?$AAy?$AA_?$AAs?$AA?$CI?$AAs?$AAz?$AAU?$AAs?$AAe?$AAr?$AAM?$AAe?$AAs?$AAs?$AAa?$AAg?$AAe?$AA?0?$AA?5?$AA4?$AA0?$AA9?$AA6?$AA?0?$AA?5?$AAL?$AA?$CC@ 100fe8e0     LIBCMTD:dbgrptt.obj
 0002:0002897c       ??_C@_1BA@ELMMDCFC@?$AA?0?$AA?5?$AAL?$AAi?$AAn?$AAe?$AA?5?$AA?$AA@ 100fe97c     LIBCMTD:dbgrptt.obj
 0002:0002898c       ??_C@_1BO@OCHMLCAG@?$AA?$DM?$AAf?$AAi?$AAl?$AAe?$AA?5?$AAu?$AAn?$AAk?$AAn?$AAo?$AAw?$AAn?$AA?$DO?$AA?$AA@ 100fe98c     LIBCMTD:dbgrptt.obj
 0002:000289b0       ??_C@_1EM@MJFLEDMB@?$AAS?$AAe?$AAc?$AAo?$AAn?$AAd?$AA?5?$AAC?$AAh?$AAa?$AAn?$AAc?$AAe?$AA?5?$AAA?$AAs?$AAs?$AAe?$AAr?$AAt?$AAi?$AAo?$AAn?$AA?5?$AAF?$AAa?$AAi?$AAl?$AAe?$AAd?$AA?3?$AA?5@ 100fe9b0     LIBCMTD:dbgrptt.obj
 0002:00028a00       ??_C@_1FA@CNLLOMHI@?$AA_?$AAi?$AAt?$AAo?$AAw?$AA_?$AAs?$AA?$CI?$AAn?$AAL?$AAi?$AAn?$AAe?$AA?0?$AA?5?$AAs?$AAz?$AAL?$AAi?$AAn?$AAe?$AAM?$AAe?$AAs?$AAs?$AAa?$AAg?$AAe?$AA?0?$AA?5?$AA4?$AA0@ 100fea00     LIBCMTD:dbgrptt.obj
 0002:00028a50       ??_C@_1CA@HPALHDOD@?$AA_?$AAV?$AAC?$AAr?$AAt?$AAD?$AAb?$AAg?$AAR?$AAe?$AAp?$AAo?$AAr?$AAt?$AAW?$AA?$AA@ 100fea50     LIBCMTD:dbgrptt.obj
 0002:00028a70       ??_C@_1BE@BMIJMLDD@?$AA_?$AAs?$AAw?$AAp?$AAr?$AAi?$AAn?$AAt?$AAf?$AA?$AA@ 100fea70     LIBCMTD:swprintf.obj
 0002:00028a88       ??_C@_1GE@DKGHLBLP@?$AAf?$AA?3?$AA?2?$AAd?$AAd?$AA?2?$AAv?$AAc?$AAt?$AAo?$AAo?$AAl?$AAs?$AA?2?$AAc?$AAr?$AAt?$AA_?$AAb?$AAl?$AAd?$AA?2?$AAs?$AAe?$AAl?$AAf?$AA_?$AAx?$AA8?$AA6?$AA?2?$AAc@ 100fea88     LIBCMTD:swprintf.obj
 0002:00028af0       ??_C@_1GE@GJCMHHMH@?$AAf?$AA?3?$AA?2?$AAd?$AAd?$AA?2?$AAv?$AAc?$AAt?$AAo?$AAo?$AAl?$AAs?$AA?2?$AAc?$AAr?$AAt?$AA_?$AAb?$AAl?$AAd?$AA?2?$AAs?$AAe?$AAl?$AAf?$AA_?$AAx?$AA8?$AA6?$AA?2?$AAc@ 100feaf0     LIBCMTD:inittime.obj
 0002:00028b58       ??_C@_1EE@FDHCFDHN@?$AAp?$AAl?$AAo?$AAc?$AAi?$AA?9?$AA?$DO?$AAl?$AAc?$AA_?$AAt?$AAi?$AAm?$AAe?$AA_?$AAc?$AAu?$AAr?$AAr?$AA?9?$AA?$DO?$AAr?$AAe?$AAf?$AAc?$AAo?$AAu?$AAn?$AAt?$AA?5?$AA?$DO?$AA?5@ 100feb58     LIBCMTD:inittime.obj
 0002:00028b9c       ??_C@_0DC@KICHHNFK@f?3?2dd?2vctools?2crt_bld?2self_x86?2c@ 100feb9c     LIBCMTD:inittime.obj
 0002:00028bd0       ??_C@_1GC@EDJOCBCL@?$AAf?$AA?3?$AA?2?$AAd?$AAd?$AA?2?$AAv?$AAc?$AAt?$AAo?$AAo?$AAl?$AAs?$AA?2?$AAc?$AAr?$AAt?$AA_?$AAb?$AAl?$AAd?$AA?2?$AAs?$AAe?$AAl?$AAf?$AA_?$AAx?$AA8?$AA6?$AA?2?$AAc@ 100febd0     LIBCMTD:initnum.obj
 0002:00028c34       ??_C@_1DM@IFKAINNE@?$AAp?$AAl?$AAo?$AAc?$AAi?$AA?9?$AA?$DO?$AAl?$AAc?$AAo?$AAn?$AAv?$AA_?$AAn?$AAu?$AAm?$AA_?$AAr?$AAe?$AAf?$AAc?$AAo?$AAu?$AAn?$AAt?$AA?5?$AA?$DO?$AA?5?$AA0?$AA?$AA@ 100fec34     LIBCMTD:initnum.obj
 0002:00028c70       ??_C@_0DB@KKFMDHFI@f?3?2dd?2vctools?2crt_bld?2self_x86?2c@ 100fec70     LIBCMTD:initnum.obj
 0002:00028ca8       ??_C@_1GC@IKADOFBJ@?$AAf?$AA?3?$AA?2?$AAd?$AAd?$AA?2?$AAv?$AAc?$AAt?$AAo?$AAo?$AAl?$AAs?$AA?2?$AAc?$AAr?$AAt?$AA_?$AAb?$AAl?$AAd?$AA?2?$AAs?$AAe?$AAl?$AAf?$AA_?$AAx?$AA8?$AA6?$AA?2?$AAc@ 100feca8     LIBCMTD:initmon.obj
 0002:00028d0c       ??_C@_1DM@GKAPAMDO@?$AAp?$AAl?$AAo?$AAc?$AAi?$AA?9?$AA?$DO?$AAl?$AAc?$AAo?$AAn?$AAv?$AA_?$AAm?$AAo?$AAn?$AA_?$AAr?$AAe?$AAf?$AAc?$AAo?$AAu?$AAn?$AAt?$AA?5?$AA?$DO?$AA?5?$AA0?$AA?$AA@ 100fed0c     LIBCMTD:initmon.obj
 0002:00028d48       ??_C@_0DB@BECNGFDL@f?3?2dd?2vctools?2crt_bld?2self_x86?2c@ 100fed48     LIBCMTD:initmon.obj
 0002:00028d80       ___newctype                100fed80     LIBCMTD:ctype.obj
 0002:00029080       __wctype                   100ff080     LIBCMTD:ctype.obj
 0002:00029288       ___newclmap                100ff288     LIBCMTD:ctype.obj
 0002:00029408       ___newcumap                100ff408     LIBCMTD:ctype.obj
 0002:00029588       ??_C@_1DG@NMBGBDM@?$AAp?$AAl?$AAo?$AAc?$AAi?$AA?9?$AA?$DO?$AAc?$AAt?$AAy?$AAp?$AAe?$AA1?$AA_?$AAr?$AAe?$AAf?$AAc?$AAo?$AAu?$AAn?$AAt?$AA?5?$AA?$DO?$AA?5?$AA0?$AA?$AA@ 100ff588     LIBCMTD:initctyp.obj
 0002:000295c0       ??_C@_1GE@OCPKBDKE@?$AAf?$AA?3?$AA?2?$AAd?$AAd?$AA?2?$AAv?$AAc?$AAt?$AAo?$AAo?$AAl?$AAs?$AA?2?$AAc?$AAr?$AAt?$AA_?$AAb?$AAl?$AAd?$AA?2?$AAs?$AAe?$AAl?$AAf?$AA_?$AAx?$AA8?$AA6?$AA?2?$AAc@ 100ff5c0     LIBCMTD:initctyp.obj
 0002:00029624       ??_C@_0DC@EHLBFILA@f?3?2dd?2vctools?2crt_bld?2self_x86?2c@ 100ff624     LIBCMTD:initctyp.obj
 0002:00029658       ??_C@_1BE@NDMJHJJG@?$AAs?$AAt?$AAr?$AAn?$AAc?$AAp?$AAy?$AA_?$AAs?$AA?$AA@ 100ff658     LIBCMTD:strncpy_s.obj
 0002:0002966c       ??_C@_1BC@HGPNAKGC@?$AAs?$AAt?$AAr?$AAc?$AAa?$AAt?$AA_?$AAs?$AA?$AA@ 100ff66c     LIBCMTD:strcat_s.obj
 0002:00029680       ??_C@_0O@FMJNFNKE@united?9states?$AA@ 100ff680     LIBCMTD:getqloc.obj
 0002:00029690       ??_C@_0P@NDHFFKCA@united?9kingdom?$AA@ 100ff690     LIBCMTD:getqloc.obj
 0002:000296a0       ??_C@_0BC@HHDADLGF@trinidad?5?$CG?5tobago?$AA@ 100ff6a0     LIBCMTD:getqloc.obj
 0002:000296b4       ??_C@_0M@IOAEBDAC@south?9korea?$AA@ 100ff6b4     LIBCMTD:getqloc.obj
 0002:000296c0       ??_C@_0N@FIELFKIJ@south?9africa?$AA@ 100ff6c0     LIBCMTD:getqloc.obj
 0002:000296d0       ??_C@_0M@OPNDHCMC@south?5korea?$AA@ 100ff6d0     LIBCMTD:getqloc.obj
 0002:000296dc       ??_C@_0N@MDEOEPFI@south?5africa?$AA@ 100ff6dc     LIBCMTD:getqloc.obj
 0002:000296ec       ??_C@_06FKAPCJLB@slovak?$AA@ 100ff6ec     LIBCMTD:getqloc.obj
 0002:000296f4       ??_C@_0M@EFJANOAL@puerto?9rico?$AA@ 100ff6f4     LIBCMTD:getqloc.obj
 0002:00029700       ??_C@_08PGOJKDAI@pr?9china?$AA@ 100ff700     LIBCMTD:getqloc.obj
 0002:0002970c       ??_C@_08JHDOMCMI@pr?5china?$AA@ 100ff70c     LIBCMTD:getqloc.obj
 0002:00029718       ??_C@_02JHCHFBLL@nz?$AA@   100ff718     LIBCMTD:getqloc.obj
 0002:0002971c       ??_C@_0M@LINHDHKP@new?9zealand?$AA@ 100ff71c     LIBCMTD:getqloc.obj
 0002:00029728       ??_C@_09IIIPPBDB@hong?9kong?$AA@ 100ff728     LIBCMTD:getqloc.obj
 0002:00029734       ??_C@_07HJLCKBG@holland?$AA@ 100ff734     LIBCMTD:getqloc.obj
 0002:0002973c       ??_C@_0O@LEHGMHAG@great?5britain?$AA@ 100ff73c     LIBCMTD:getqloc.obj
 0002:0002974c       ??_C@_07FACOMELA@england?$AA@ 100ff74c     LIBCMTD:getqloc.obj
 0002:00029754       ??_C@_05JIHCEICB@czech?$AA@ 100ff754     LIBCMTD:getqloc.obj
 0002:0002975c       ??_C@_05BBJOBLGB@china?$AA@ 100ff75c     LIBCMTD:getqloc.obj
 0002:00029764       ??_C@_07GPKPHICP@britain?$AA@ 100ff764     LIBCMTD:getqloc.obj
 0002:0002976c       ??_C@_07MHIPBHMG@america?$AA@ 100ff76c     LIBCMTD:getqloc.obj
 0002:00029774       ??_C@_03KIALPMKC@usa?$AA@  100ff774     LIBCMTD:getqloc.obj
 0002:00029778       ??_C@_02FGJGKGGD@us?$AA@   100ff778     LIBCMTD:getqloc.obj
 0002:0002977c       ??_C@_02NEINDODK@uk?$AA@   100ff77c     LIBCMTD:getqloc.obj
 0002:00029780       ??_C@_05JMPCFJFJ@swiss?$AA@ 100ff780     LIBCMTD:getqloc.obj
 0002:00029788       ??_C@_0BA@HLOCPIOD@swedish?9finland?$AA@ 100ff788     LIBCMTD:getqloc.obj
 0002:00029798       ??_C@_0BC@PKCNIABK@spanish?9venezuela?$AA@ 100ff798     LIBCMTD:getqloc.obj
 0002:000297ac       ??_C@_0BA@GBHHMIJI@spanish?9uruguay?$AA@ 100ff7ac     LIBCMTD:getqloc.obj
 0002:000297bc       ??_C@_0BE@BHDOHPMC@spanish?9puerto?5rico?$AA@ 100ff7bc     LIBCMTD:getqloc.obj
 0002:000297d0       ??_C@_0N@KMOIDGGN@spanish?9peru?$AA@ 100ff7d0     LIBCMTD:getqloc.obj
 0002:000297e0       ??_C@_0BB@HMHLPGPH@spanish?9paraguay?$AA@ 100ff7e0     LIBCMTD:getqloc.obj
 0002:000297f4       ??_C@_0P@MCPKNGFD@spanish?9panama?$AA@ 100ff7f4     LIBCMTD:getqloc.obj
 0002:00029804       ??_C@_0BC@IHOHGAIL@spanish?9nicaragua?$AA@ 100ff804     LIBCMTD:getqloc.obj
 0002:00029818       ??_C@_0P@KLMJDNFJ@spanish?9modern?$AA@ 100ff818     LIBCMTD:getqloc.obj
 0002:00029828       ??_C@_0BA@BPAPGBCM@spanish?9mexican?$AA@ 100ff828     LIBCMTD:getqloc.obj
 0002:00029838       ??_C@_0BB@PDECHHHE@spanish?9honduras?$AA@ 100ff838     LIBCMTD:getqloc.obj
 0002:0002984c       ??_C@_0BC@KLHKFGDB@spanish?9guatemala?$AA@ 100ff84c     LIBCMTD:getqloc.obj
 0002:00029860       ??_C@_0BE@MFOOKJAI@spanish?9el?5salvador?$AA@ 100ff860     LIBCMTD:getqloc.obj
 0002:00029874       ??_C@_0BA@FCOKFPFC@spanish?9ecuador?$AA@ 100ff874     LIBCMTD:getqloc.obj
 0002:00029884       ??_C@_0BL@PLMGIMOO@spanish?9dominican?5republic?$AA@ 100ff884     LIBCMTD:getqloc.obj
 0002:000298a0       ??_C@_0BD@HLGDNMHB@spanish?9costa?5rica?$AA@ 100ff8a0     LIBCMTD:getqloc.obj
 0002:000298b4       ??_C@_0BB@PKCBKCPE@spanish?9colombia?$AA@ 100ff8b4     LIBCMTD:getqloc.obj
 0002:000298c8       ??_C@_0O@MCBIJGNE@spanish?9chile?$AA@ 100ff8c8     LIBCMTD:getqloc.obj
 0002:000298d8       ??_C@_0BA@BEFEIGJJ@spanish?9bolivia?$AA@ 100ff8d8     LIBCMTD:getqloc.obj
 0002:000298e8       ??_C@_0BC@EMECMPD@spanish?9argentina?$AA@ 100ff8e8     LIBCMTD:getqloc.obj
 0002:000298fc       ??_C@_0BF@EALFLENP@portuguese?9brazilian?$AA@ 100ff8fc     LIBCMTD:getqloc.obj
 0002:00029914       ??_C@_0BC@HBLEBLNN@norwegian?9nynorsk?$AA@ 100ff914     LIBCMTD:getqloc.obj
 0002:00029928       ??_C@_0BB@HMACDDCK@norwegian?9bokmal?$AA@ 100ff928     LIBCMTD:getqloc.obj
 0002:0002993c       ??_C@_09BAFFPPHE@norwegian?$AA@ 100ff93c     LIBCMTD:getqloc.obj
 0002:00029948       ??_C@_0O@EAJFJDFG@italian?9swiss?$AA@ 100ff948     LIBCMTD:getqloc.obj
 0002:00029958       ??_C@_0O@CNOMPGD@irish?9english?$AA@ 100ff958     LIBCMTD:getqloc.obj
 0002:00029968       ??_C@_0N@EDHBGCKG@german?9swiss?$AA@ 100ff968     LIBCMTD:getqloc.obj
 0002:00029978       ??_C@_0BC@JACMHNBP@german?9luxembourg?$AA@ 100ff978     LIBCMTD:getqloc.obj
 0002:0002998c       ??_C@_0BE@HBGMGFEG@german?9lichtenstein?$AA@ 100ff98c     LIBCMTD:getqloc.obj
 0002:000299a0       ??_C@_0BA@HKKBIBKL@german?9austrian?$AA@ 100ff9a0     LIBCMTD:getqloc.obj
 0002:000299b0       ??_C@_0N@GCAEPEBK@french?9swiss?$AA@ 100ff9b0     LIBCMTD:getqloc.obj
 0002:000299c0       ??_C@_0BC@DJFJJCK@french?9luxembourg?$AA@ 100ff9c0     LIBCMTD:getqloc.obj
 0002:000299d4       ??_C@_0BA@NNCEDFIC@french?9canadian?$AA@ 100ff9d4     LIBCMTD:getqloc.obj
 0002:000299e4       ??_C@_0P@CMPOCLM@french?9belgian?$AA@ 100ff9e4     LIBCMTD:getqloc.obj
 0002:000299f4       ??_C@_0M@GHHDJOK@english?9usa?$AA@ 100ff9f4     LIBCMTD:getqloc.obj
 0002:00029a00       ??_C@_0L@PLDJKEIL@english?9us?$AA@ 100ffa00     LIBCMTD:getqloc.obj
 0002:00029a0c       ??_C@_0L@HJCCDMNC@english?9uk?$AA@ 100ffa0c     LIBCMTD:getqloc.obj
 0002:00029a18       ??_C@_0BK@CKLIAGJB@english?9trinidad?5y?5tobago?$AA@ 100ffa18     LIBCMTD:getqloc.obj
 0002:00029a34       ??_C@_0BF@JMJMGNNF@english?9south?5africa?$AA@ 100ffa34     LIBCMTD:getqloc.obj
 0002:00029a4c       ??_C@_0L@DKIIFDFD@english?9nz?$AA@ 100ffa4c     LIBCMTD:getqloc.obj
 0002:00029a58       ??_C@_0BA@ONHGJCLH@english?9jamaica?$AA@ 100ffa58     LIBCMTD:getqloc.obj
 0002:00029a68       ??_C@_0M@HJBGHOPO@english?9ire?$AA@ 100ffa68     LIBCMTD:getqloc.obj
 0002:00029a74       ??_C@_0BC@LFEKMIFB@english?9caribbean?$AA@ 100ffa74     LIBCMTD:getqloc.obj
 0002:00029a88       ??_C@_0M@OLDPFKHI@english?9can?$AA@ 100ffa88     LIBCMTD:getqloc.obj
 0002:00029a94       ??_C@_0P@OMDEHBMP@english?9belize?$AA@ 100ffa94     LIBCMTD:getqloc.obj
 0002:00029aa4       ??_C@_0M@KFHFPFED@english?9aus?$AA@ 100ffaa4     LIBCMTD:getqloc.obj
 0002:00029ab0       ??_C@_0BB@MNMBKDFE@english?9american?$AA@ 100ffab0     LIBCMTD:getqloc.obj
 0002:00029ac4       ??_C@_0O@KIDLNNBA@dutch?9belgian?$AA@ 100ffac4     LIBCMTD:getqloc.obj
 0002:00029ad4       ??_C@_0BE@JBKABBMH@chinese?9traditional?$AA@ 100ffad4     LIBCMTD:getqloc.obj
 0002:00029ae8       ??_C@_0BC@MJJMPKCG@chinese?9singapore?$AA@ 100ffae8     LIBCMTD:getqloc.obj
 0002:00029afc       ??_C@_0BD@FDKADDCP@chinese?9simplified?$AA@ 100ffafc     LIBCMTD:getqloc.obj
 0002:00029b10       ??_C@_0BB@DBEFDDME@chinese?9hongkong?$AA@ 100ffb10     LIBCMTD:getqloc.obj
 0002:00029b24       ??_C@_07DHNMFMCI@chinese?$AA@ 100ffb24     LIBCMTD:getqloc.obj
 0002:00029b2c       ??_C@_03FNDDCHI@chi?$AA@   100ffb2c     LIBCMTD:getqloc.obj
 0002:00029b30       ??_C@_03BMMIADDJ@chh?$AA@  100ffb30     LIBCMTD:getqloc.obj
 0002:00029b34       ??_C@_08OAIPJDGI@canadian?$AA@ 100ffb34     LIBCMTD:getqloc.obj
 0002:00029b40       ??_C@_07HBPMNPNJ@belgian?$AA@ 100ffb40     LIBCMTD:getqloc.obj
 0002:00029b48       ??_C@_0L@OEKOPBEL@australian?$AA@ 100ffb48     LIBCMTD:getqloc.obj
 0002:00029b54       ??_C@_0BB@MEIMBEDG@american?9english?$AA@ 100ffb54     LIBCMTD:getqloc.obj
 0002:00029b68       ??_C@_0BB@DFMDPDGB@american?5english?$AA@ 100ffb68     LIBCMTD:getqloc.obj
 0002:00029b7c       ??_C@_08IJLOKOLL@american?$AA@ 100ffb7c     LIBCMTD:getqloc.obj
 0002:00029b88       ___rg_language             100ffb88     LIBCMTD:getqloc.obj
 0002:00029d90       ___rg_country              100ffd90     LIBCMTD:getqloc.obj
 0002:00029e48       ___rglangidNotDefault      100ffe48     LIBCMTD:getqloc.obj
 0002:00029e5c       ??_C@_0BC@NFIEMBLL@Norwegian?9Nynorsk?$AA@ 100ffe5c     LIBCMTD:getqloc.obj
 0002:00029e70       ??_C@_1OM@OECHDGCF@?$AAs?$AAt?$AAr?$AAc?$AAp?$AAy?$AA_?$AAs?$AA?$CI?$AAl?$AAp?$AAO?$AAu?$AAt?$AAS?$AAt?$AAr?$AA?9?$AA?$DO?$AAs?$AAz?$AAL?$AAa?$AAn?$AAg?$AAu?$AAa?$AAg?$AAe?$AA?0?$AA?5?$AA?$CI@ 100ffe70     LIBCMTD:getqloc.obj
 0002:00029f5c       ??_C@_1CO@NJACLALJ@?$AA_?$AA_?$AAg?$AAe?$AAt?$AA_?$AAq?$AAu?$AAa?$AAl?$AAi?$AAf?$AAi?$AAe?$AAd?$AA_?$AAl?$AAo?$AAc?$AAa?$AAl?$AAe?$AA?$AA@ 100fff5c     LIBCMTD:getqloc.obj
 0002:00029f90       ??_C@_1GC@FECJGAE@?$AAf?$AA?3?$AA?2?$AAd?$AAd?$AA?2?$AAv?$AAc?$AAt?$AAo?$AAo?$AAl?$AAs?$AA?2?$AAc?$AAr?$AAt?$AA_?$AAb?$AAl?$AAd?$AA?2?$AAs?$AAe?$AAl?$AAf?$AA_?$AAx?$AA8?$AA6?$AA?2?$AAc@ 100fff90     LIBCMTD:getqloc.obj
 0002:00029ff4       ??_C@_03NFKLAGEF@OCP?$AA@  100ffff4     LIBCMTD:getqloc.obj
 0002:00029ff8       ??_C@_03DFHEHBHG@ACP?$AA@  100ffff8     LIBCMTD:getqloc.obj
 0002:0002a068       ??_C@_05EOHGHCHD@exp10?$AA@ 10100068     LIBCMTD:_libm_error_.obj
 0002:0002a070       __atan_table               10100070     LIBCMTD:_atan_table_.obj
 0002:0002b880       ??_C@_1GA@GFFDGGFH@?$AAf?$AA?3?$AA?2?$AAd?$AAd?$AA?2?$AAv?$AAc?$AAt?$AAo?$AAo?$AAl?$AAs?$AA?2?$AAc?$AAr?$AAt?$AA_?$AAb?$AAl?$AAd?$AA?2?$AAs?$AAe?$AAl?$AAf?$AA_?$AAx?$AA8?$AA6?$AA?2?$AAc@ 10101880     LIBCMTD:mbtowc.obj
 0002:0002b8e0       ??_C@_1NC@EINCOKCO@?$AA_?$AAl?$AAo?$AAc?$AA_?$AAu?$AAp?$AAd?$AAa?$AAt?$AAe?$AA?4?$AAG?$AAe?$AAt?$AAL?$AAo?$AAc?$AAa?$AAl?$AAe?$AAT?$AA?$CI?$AA?$CJ?$AA?9?$AA?$DO?$AAl?$AAo?$AAc?$AAi?$AAn?$AAf@ 101018e0     LIBCMTD:mbtowc.obj
 0002:0002b9b4       ??_C@_1O@JDPLECOK@?$AAu?$AAn?$AAg?$AAe?$AAt?$AAc?$AA?$AA@ 101019b4     LIBCMTD:ungetc.obj
 0002:0002b9c8       ??_C@_1GA@OAFAANFO@?$AAf?$AA?3?$AA?2?$AAd?$AAd?$AA?2?$AAv?$AAc?$AAt?$AAo?$AAo?$AAl?$AAs?$AA?2?$AAc?$AAr?$AAt?$AA_?$AAb?$AAl?$AAd?$AA?2?$AAs?$AAe?$AAl?$AAf?$AA_?$AAx?$AA8?$AA6?$AA?2?$AAc@ 101019c8     LIBCMTD:ungetc.obj
 0002:0002ba28       ??_C@_1BO@OLMLKKEA@?$AA_?$AAu?$AAn?$AAg?$AAe?$AAt?$AAc?$AA_?$AAn?$AAo?$AAl?$AAo?$AAc?$AAk?$AA?$AA@ 10101a28     LIBCMTD:ungetc.obj
 0002:0002ba48       ??_C@_1HC@OEJDDIIH@?$AAf?$AA?3?$AA?2?$AAd?$AAd?$AA?2?$AAv?$AAc?$AAt?$AAo?$AAo?$AAl?$AAs?$AA?2?$AAc?$AAr?$AAt?$AA_?$AAb?$AAl?$AAd?$AA?2?$AAs?$AAe?$AAl?$AAf?$AA_?$AAx?$AA8?$AA6?$AA?2?$AAc@ 10101a48     LIBCMTD:ungetc.obj
 0002:0002babc       ??_C@_1BE@KHFBJMNM@?$AA_?$AAl?$AAs?$AAe?$AAe?$AAk?$AAi?$AA6?$AA4?$AA?$AA@ 10101abc     LIBCMTD:lseeki64.obj
 0002:0002bad0       ??_C@_1GE@MINKPNPH@?$AAf?$AA?3?$AA?2?$AAd?$AAd?$AA?2?$AAv?$AAc?$AAt?$AAo?$AAo?$AAl?$AAs?$AA?2?$AAc?$AAr?$AAt?$AA_?$AAb?$AAl?$AAd?$AA?2?$AAs?$AAe?$AAl?$AAf?$AA_?$AAx?$AA8?$AA6?$AA?2?$AAc@ 10101ad0     LIBCMTD:lseeki64.obj
 0002:0002bb34       ??_C@_0DB@JEHOCBEJ@f?3?2dd?2vctools?2crt_bld?2self_x86?2c@ 10101b34     LIBCMTD:_getbuf.obj
 0002:0002bb68       ??_C@_1GC@DKMGNNCC@?$AAf?$AA?3?$AA?2?$AAd?$AAd?$AA?2?$AAv?$AAc?$AAt?$AAo?$AAo?$AAl?$AAs?$AA?2?$AAc?$AAr?$AAt?$AA_?$AAb?$AAl?$AAd?$AA?2?$AAs?$AAe?$AAl?$AAf?$AA_?$AAx?$AA8?$AA6?$AA?2?$AAc@ 10101b68     LIBCMTD:_getbuf.obj
 0002:0002bbcc       ??_C@_1BA@LEBDGIHM@?$AA_?$AAi?$AAs?$AAa?$AAt?$AAt?$AAy?$AA?$AA@ 10101bcc     LIBCMTD:isatty.obj
 0002:0002bbe0       ??_C@_1GA@LPGDJDEN@?$AAf?$AA?3?$AA?2?$AAd?$AAd?$AA?2?$AAv?$AAc?$AAt?$AAo?$AAo?$AAl?$AAs?$AA?2?$AAc?$AAr?$AAt?$AA_?$AAb?$AAl?$AAd?$AA?2?$AAs?$AAe?$AAl?$AAf?$AA_?$AAx?$AA8?$AA6?$AA?2?$AAc@ 10101be0     LIBCMTD:isatty.obj
 0002:0002bc40       ??_C@_1O@GKDHFACN@?$AAp?$AAr?$AAi?$AAn?$AAt?$AAf?$AA?$AA@ 10101c40     LIBCMTD:printf.obj
 0002:0002bc50       ??_C@_1GA@LHEGHOAF@?$AAf?$AA?3?$AA?2?$AAd?$AAd?$AA?2?$AAv?$AAc?$AAt?$AAo?$AAo?$AAl?$AAs?$AA?2?$AAc?$AAr?$AAt?$AA_?$AAb?$AAl?$AAd?$AA?2?$AAs?$AAe?$AAl?$AAf?$AA_?$AAx?$AA8?$AA6?$AA?2?$AAc@ 10101c50     LIBCMTD:printf.obj
 0002:0002bcb0       ??_C@_1BI@IEADNOHF@?$AA_?$AAw?$AAc?$AAt?$AAo?$AAm?$AAb?$AA_?$AAs?$AA_?$AAl?$AA?$AA@ 10101cb0     LIBCMTD:wctomb.obj
 0002:0002bcc8       ??_C@_1GA@LDLHPOO@?$AAf?$AA?3?$AA?2?$AAd?$AAd?$AA?2?$AAv?$AAc?$AAt?$AAo?$AAo?$AAl?$AAs?$AA?2?$AAc?$AAr?$AAt?$AA_?$AAb?$AAl?$AAd?$AA?2?$AAs?$AAe?$AAl?$AAf?$AA_?$AAx?$AA8?$AA6?$AA?2?$AAc@ 10101cc8     LIBCMTD:wctomb.obj
 0002:0002bd28       ??_C@_1CO@HFMIILNF@?$AAs?$AAi?$AAz?$AAe?$AAI?$AAn?$AAB?$AAy?$AAt?$AAe?$AAs?$AA?5?$AA?$DM?$AA?$DN?$AA?5?$AAI?$AAN?$AAT?$AA_?$AAM?$AAA?$AAX?$AA?$AA@ 10101d28     LIBCMTD:wctomb.obj
 0002:0002bd58       ??_C@_1BK@JMCGJOCC@?$AA_?$AAe?$AAx?$AAp?$AAa?$AAn?$AAd?$AA_?$AAb?$AAa?$AAs?$AAe?$AA?$AA@ 10101d58     LIBCMTD:expand.obj
 0002:0002bd78       ??_C@_1GA@EBHFLDNH@?$AAf?$AA?3?$AA?2?$AAd?$AAd?$AA?2?$AAv?$AAc?$AAt?$AAo?$AAo?$AAl?$AAs?$AA?2?$AAc?$AAr?$AAt?$AA_?$AAb?$AAl?$AAd?$AA?2?$AAs?$AAe?$AAl?$AAf?$AA_?$AAx?$AA8?$AA6?$AA?2?$AAc@ 10101d78     LIBCMTD:expand.obj
 0002:0002bdd8       ??_C@_1BO@KFIJIAEA@?$AAp?$AAB?$AAl?$AAo?$AAc?$AAk?$AA?5?$AA?$CB?$AA?$DN?$AA?5?$AAN?$AAU?$AAL?$AAL?$AA?$AA@ 10101dd8     LIBCMTD:expand.obj
 0002:0002bdf8       ??_C@_1FO@IFEMNBMO@?$AAf?$AA?3?$AA?2?$AAd?$AAd?$AA?2?$AAv?$AAc?$AAt?$AAo?$AAo?$AAl?$AAs?$AA?2?$AAc?$AAr?$AAt?$AA_?$AAb?$AAl?$AAd?$AA?2?$AAs?$AAe?$AAl?$AAf?$AA_?$AAx?$AA8?$AA6?$AA?2?$AAc@ 10101df8     LIBCMTD:a_cmp.obj
 0002:0002be58       ??_C@_1HK@ELDMAMK@?$AAc?$AAc?$AAh?$AAC?$AAo?$AAu?$AAn?$AAt?$AA1?$AA?$DN?$AA?$DN?$AA0?$AA?5?$AA?$CG?$AA?$CG?$AA?5?$AAc?$AAc?$AAh?$AAC?$AAo?$AAu?$AAn?$AAt?$AA2?$AA?$DN?$AA?$DN?$AA1?$AA?5?$AA?$HM?$AA?$HM?$AA?5@ 10101e58     LIBCMTD:a_cmp.obj
 0002:0002bed4       ??_C@_1CC@JLPHKJPH@?$AAc?$AAo?$AAu?$AAn?$AAt?$AA?5?$AA?$DM?$AA?$DN?$AA?5?$AAI?$AAN?$AAT?$AA_?$AAM?$AAA?$AAX?$AA?$AA@ 10101ed4     LIBCMTD:strnicol.obj
 0002:0002bef8       ??_C@_1CC@CNADELFK@?$AA_?$AAs?$AAt?$AAr?$AAi?$AAn?$AAg?$AA2?$AA?5?$AA?$CB?$AA?$DN?$AA?5?$AAN?$AAU?$AAL?$AAL?$AA?$AA@ 10101ef8     LIBCMTD:strnicol.obj
 0002:0002bf1c       ??_C@_1BK@IOJEBPLP@?$AA_?$AAs?$AAt?$AAr?$AAn?$AAi?$AAc?$AAo?$AAl?$AAl?$AA_?$AAl?$AA?$AA@ 10101f1c     LIBCMTD:strnicol.obj
 0002:0002bf38       ??_C@_1GE@BDOBNJJ@?$AAf?$AA?3?$AA?2?$AAd?$AAd?$AA?2?$AAv?$AAc?$AAt?$AAo?$AAo?$AAl?$AAs?$AA?2?$AAc?$AAr?$AAt?$AA_?$AAb?$AAl?$AAd?$AA?2?$AAs?$AAe?$AAl?$AAf?$AA_?$AAx?$AA8?$AA6?$AA?2?$AAc@ 10101f38     LIBCMTD:strnicol.obj
 0002:0002bf9c       ??_C@_1CC@ICKKAGJA@?$AA_?$AAs?$AAt?$AAr?$AAi?$AAn?$AAg?$AA1?$AA?5?$AA?$CB?$AA?$DN?$AA?5?$AAN?$AAU?$AAL?$AAL?$AA?$AA@ 10101f9c     LIBCMTD:strnicol.obj
 0002:0002bfc0       ??_C@_1FG@OKIAKKPK@?$AAs?$AAt?$AAr?$AAc?$AAp?$AAy?$AA_?$AAs?$AA?$CI?$AAn?$AAa?$AAm?$AAe?$AA?0?$AA?5?$AAs?$AAt?$AAr?$AAl?$AAe?$AAn?$AA?$CI?$AAo?$AAp?$AAt?$AAi?$AAo?$AAn?$AA?$CJ?$AA?5?$AA?$CL?$AA?5@ 10101fc0     LIBCMTD:setenv.obj
 0002:0002c018       ??_C@_1EI@GHDNAPMG@?$AA?$CI?$AA?$CC?$AAC?$AAR?$AAT?$AA?5?$AAL?$AAo?$AAg?$AAi?$AAc?$AA?5?$AAe?$AAr?$AAr?$AAo?$AAr?$AA?5?$AAd?$AAu?$AAr?$AAi?$AAn?$AAg?$AA?5?$AAs?$AAe?$AAt?$AAe?$AAn?$AAv?$AA?$CC@ 10102018     LIBCMTD:setenv.obj
 0002:0002c060       ??_C@_0DA@NHJGCDK@f?3?2dd?2vctools?2crt_bld?2self_x86?2c@ 10102060     LIBCMTD:setenv.obj
 0002:0002c090       ??_C@_1FC@EEJIEIDF@?$AA_?$AAt?$AAc?$AAs?$AAn?$AAl?$AAe?$AAn?$AA?$CI?$AAe?$AAq?$AAu?$AAa?$AAl?$AA?5?$AA?$CL?$AA?5?$AA1?$AA?0?$AA?5?$AA_?$AAM?$AAA?$AAX?$AA_?$AAE?$AAN?$AAV?$AA?$CJ?$AA?5?$AA?$DM?$AA?5@ 10102090     LIBCMTD:setenv.obj
 0002:0002c0e4       ??_C@_1DE@EEHFNNGH@?$AAe?$AAq?$AAu?$AAa?$AAl?$AA?5?$AA?9?$AA?5?$AAo?$AAp?$AAt?$AAi?$AAo?$AAn?$AA?5?$AA?$DM?$AA?5?$AA_?$AAM?$AAA?$AAX?$AA_?$AAE?$AAN?$AAV?$AA?$AA@ 101020e4     LIBCMTD:setenv.obj
 0002:0002c118       ??_C@_1BI@CDAFOAAL@?$AA_?$AA_?$AAc?$AAr?$AAt?$AAs?$AAe?$AAt?$AAe?$AAn?$AAv?$AA?$AA@ 10102118     LIBCMTD:setenv.obj
 0002:0002c130       ??_C@_1GA@KKPDKNLP@?$AAf?$AA?3?$AA?2?$AAd?$AAd?$AA?2?$AAv?$AAc?$AAt?$AAo?$AAo?$AAl?$AAs?$AA?2?$AAc?$AAr?$AAt?$AA_?$AAb?$AAl?$AAd?$AA?2?$AAs?$AAe?$AAl?$AAf?$AA_?$AAx?$AA8?$AA6?$AA?2?$AAc@ 10102130     LIBCMTD:setenv.obj
 0002:0002c190       ??_C@_1CA@LMBEKBDN@?$AAp?$AAo?$AAp?$AAt?$AAi?$AAo?$AAn?$AA?5?$AA?$CB?$AA?$DN?$AA?5?$AAN?$AAU?$AAL?$AAL?$AA?$AA@ 10102190     LIBCMTD:setenv.obj
 0002:0002c1b0       ??_C@_1FK@DNFLNPD@?$AAs?$AAt?$AAr?$AAc?$AAp?$AAy?$AA_?$AAs?$AA?$CI?$AA?$CK?$AAn?$AAe?$AAw?$AAe?$AAn?$AAv?$AAp?$AAt?$AAr?$AA?0?$AA?5?$AAe?$AAn?$AAv?$AAp?$AAt?$AAr?$AAS?$AAi?$AAz?$AAe?$AA?0@ 101021b0     LIBCMTD:setenv.obj
 0002:0002c20c       ??_C@_1BK@ECKIJLPM@?$AAc?$AAo?$AAp?$AAy?$AA_?$AAe?$AAn?$AAv?$AAi?$AAr?$AAo?$AAn?$AA?$AA@ 1010220c     LIBCMTD:setenv.obj
 0002:0002c228       ??_C@_0DB@KIKNCIEC@f?3?2dd?2vctools?2crt_bld?2self_x86?2c@ 10102228     LIBCMTD:osfinfo.obj
 0002:0002c25c       ??_C@_1BO@EMBOBGKE@?$AA_?$AAg?$AAe?$AAt?$AA_?$AAo?$AAs?$AAf?$AAh?$AAa?$AAn?$AAd?$AAl?$AAe?$AA?$AA@ 1010225c     LIBCMTD:osfinfo.obj
 0002:0002c280       ??_C@_1GC@MLKLDJJG@?$AAf?$AA?3?$AA?2?$AAd?$AAd?$AA?2?$AAv?$AAc?$AAt?$AAo?$AAo?$AAl?$AAs?$AA?2?$AAc?$AAr?$AAt?$AA_?$AAb?$AAl?$AAd?$AA?2?$AAs?$AAe?$AAl?$AAf?$AA_?$AAx?$AA8?$AA6?$AA?2?$AAc@ 10102280     LIBCMTD:osfinfo.obj
 0002:0002c2e4       ??_C@_1M@MFLJCMFJ@?$AA_?$AAo?$AAp?$AAe?$AAn?$AA?$AA@ 101022e4     LIBCMTD:open.obj
 0002:0002c2f0       ??_C@_1FM@LFKHNNH@?$AAf?$AA?3?$AA?2?$AAd?$AAd?$AA?2?$AAv?$AAc?$AAt?$AAo?$AAo?$AAl?$AAs?$AA?2?$AAc?$AAr?$AAt?$AA_?$AAb?$AAl?$AAd?$AA?2?$AAs?$AAe?$AAl?$AAf?$AA_?$AAx?$AA8?$AA6?$AA?2?$AAc@ 101022f0     LIBCMTD:open.obj
 0002:0002c34c       ??_C@_1BO@DPAOGEII@?$AA?$CI?$AAp?$AAa?$AAt?$AAh?$AA?5?$AA?$CB?$AA?$DN?$AA?5?$AAN?$AAU?$AAL?$AAL?$AA?$CJ?$AA?$AA@ 1010234c     LIBCMTD:open.obj
 0002:0002c370       ??_C@_1FG@NFINBJCM@?$AA?$CI?$AA?$CI?$AAp?$AAm?$AAo?$AAd?$AAe?$AA?5?$AA?$CG?$AA?5?$AA?$CI?$AA?$HO?$AA?$CI?$AA_?$AAS?$AA_?$AAI?$AAR?$AAE?$AAA?$AAD?$AA?5?$AA?$HM?$AA?5?$AA_?$AAS?$AA_?$AAI?$AAW?$AAR?$AAI?$AAT@ 10102370     LIBCMTD:open.obj
 0002:0002c3c8       ??_C@_1BM@IOBAMMHO@?$AA_?$AAs?$AAo?$AAp?$AAe?$AAn?$AA_?$AAh?$AAe?$AAl?$AAp?$AAe?$AAr?$AA?$AA@ 101023c8     LIBCMTD:open.obj
 0002:0002c3e4       ??_C@_1BM@PGEEHLHE@?$AA?$CI?$AAp?$AAf?$AAh?$AA?5?$AA?$CB?$AA?$DN?$AA?5?$AAN?$AAU?$AAL?$AAL?$AA?$CJ?$AA?$AA@ 101023e4     LIBCMTD:open.obj
 0002:0002c400       ??_C@_1IA@IENOJNJF@?$AA0?$AA?5?$AA?$CG?$AA?$CG?$AA?5?$AA?$CC?$AAO?$AAn?$AAl?$AAy?$AA?5?$AAU?$AAT?$AAF?$AA?9?$AA1?$AA6?$AA?5?$AAl?$AAi?$AAt?$AAt?$AAl?$AAe?$AA?5?$AAe?$AAn?$AAd?$AAi?$AAa?$AAn?$AA?5@ 10102400     LIBCMTD:open.obj
 0002:0002c480       ??_C@_1CM@IDLMKMPG@?$AA0?$AA?5?$AA?$CG?$AA?$CG?$AA?5?$AA?$CC?$AAI?$AAn?$AAt?$AAe?$AAr?$AAn?$AAa?$AAl?$AA?5?$AAE?$AAr?$AAr?$AAo?$AAr?$AA?$CC?$AA?$AA@ 10102480     LIBCMTD:open.obj
 0002:0002c4b0       ??_C@_1HM@GJANBLHJ@?$AA?$CI?$AAo?$AAf?$AAl?$AAa?$AAg?$AA?5?$AA?$CG?$AA?5?$AA?$CI?$AA_?$AAO?$AA_?$AAT?$AAE?$AAX?$AAT?$AA?5?$AA?$HM?$AA?5?$AA_?$AAO?$AA_?$AAW?$AAT?$AAE?$AAX?$AAT?$AA?5?$AA?$HM?$AA?5?$AA_@ 101024b0     LIBCMTD:open.obj
 0002:0002c52c       ??_C@_1DO@PJLMOANO@?$AA?$CI?$AA?5?$AA?$CC?$AAI?$AAn?$AAv?$AAa?$AAl?$AAi?$AAd?$AA?5?$AAs?$AAh?$AAa?$AAr?$AAi?$AAn?$AAg?$AA?5?$AAf?$AAl?$AAa?$AAg?$AA?$CC?$AA?5?$AA?0?$AA?5?$AA0?$AA?5?$AA?$CJ?$AA?$AA@ 1010252c     LIBCMTD:open.obj
 0002:0002c56c       ??_C@_1DI@DGKIFCCE@?$AA?$CI?$AA?5?$AA?$CC?$AAI?$AAn?$AAv?$AAa?$AAl?$AAi?$AAd?$AA?5?$AAo?$AAp?$AAe?$AAn?$AA?5?$AAf?$AAl?$AAa?$AAg?$AA?$CC?$AA?5?$AA?0?$AA?5?$AA0?$AA?5?$AA?$CJ?$AA?$AA@ 1010256c     LIBCMTD:open.obj
 0002:0002c5a4       ??_C@_1CG@ICBEBDJJ@?$AA_?$AAg?$AAe?$AAt?$AA_?$AAf?$AAm?$AAo?$AAd?$AAe?$AA?$CI?$AA?$CG?$AAf?$AAm?$AAo?$AAd?$AAe?$AA?$CJ?$AA?$AA@ 101025a4     LIBCMTD:open.obj
 0002:0002c5cc       ??_C@_1BO@JOPFMPGH@?$AA_?$AAt?$AAs?$AAo?$AAp?$AAe?$AAn?$AA_?$AAn?$AAo?$AAl?$AAo?$AAc?$AAk?$AA?$AA@ 101025cc     LIBCMTD:open.obj
 0002:0002c5ec       ??_C@_1BK@GEJONGBG@?$AA_?$AAm?$AAb?$AAs?$AAn?$AAb?$AAi?$AAc?$AAm?$AAp?$AA_?$AAl?$AA?$AA@ 101025ec     LIBCMTD:mbsnbicm.obj
 0002:0002c608       ??_C@_1GE@JLFFJINF@?$AAf?$AA?3?$AA?2?$AAd?$AAd?$AA?2?$AAv?$AAc?$AAt?$AAo?$AAo?$AAl?$AAs?$AA?2?$AAc?$AAr?$AAt?$AA_?$AAb?$AAl?$AAd?$AA?2?$AAs?$AAe?$AAl?$AAf?$AA_?$AAx?$AA8?$AA6?$AA?2?$AAc@ 10102608     LIBCMTD:mbsnbicm.obj
 0002:0002c66c       ??_C@_1BI@LPHOHGHI@?$AA_?$AAm?$AAb?$AAs?$AAn?$AAb?$AAc?$AAm?$AAp?$AA_?$AAl?$AA?$AA@ 1010266c     LIBCMTD:mbsnbcmp.obj
 0002:0002c688       ??_C@_1GE@IIBFGEPN@?$AAf?$AA?3?$AA?2?$AAd?$AAd?$AA?2?$AAv?$AAc?$AAt?$AAo?$AAo?$AAl?$AAs?$AA?2?$AAc?$AAr?$AAt?$AA_?$AAb?$AAl?$AAd?$AA?2?$AAs?$AAe?$AAl?$AAf?$AA_?$AAx?$AA8?$AA6?$AA?2?$AAc@ 10102688     LIBCMTD:mbsnbcmp.obj
 0002:0002c6ec       ??_C@_1BK@KHBCJPCH@?$AA_?$AAw?$AAm?$AAa?$AAk?$AAe?$AAp?$AAa?$AAt?$AAh?$AA_?$AAs?$AA?$AA@ 101026ec     LIBCMTD:wmakepath_s.obj
 0002:0002c708       ??_C@_1GO@DHMODCKM@?$AAf?$AA?3?$AA?2?$AAd?$AAd?$AA?2?$AAv?$AAc?$AAt?$AAo?$AAo?$AAl?$AAs?$AA?2?$AAc?$AAr?$AAt?$AA_?$AAb?$AAl?$AAd?$AA?2?$AAs?$AAe?$AAl?$AAf?$AA_?$AAx?$AA8?$AA6?$AA?2?$AAc@ 10102708     LIBCMTD:wmakepath_s.obj
 0002:0002c778       ??_C@_1DE@MLEJGPLF@?$AA?$CI?$AAL?$AA?$CC?$AAI?$AAn?$AAv?$AAa?$AAl?$AAi?$AAd?$AA?5?$AAp?$AAa?$AAr?$AAa?$AAm?$AAe?$AAt?$AAe?$AAr?$AA?$CC?$AA?0?$AA?5?$AA0?$AA?$CJ?$AA?$AA@ 10102778     LIBCMTD:wsplitpath_s.obj
 0002:0002c7ac       ??_C@_1BM@OEAFIBCF@?$AA_?$AAw?$AAs?$AAp?$AAl?$AAi?$AAt?$AAp?$AAa?$AAt?$AAh?$AA_?$AAs?$AA?$AA@ 101027ac     LIBCMTD:wsplitpath_s.obj
 0002:0002c7c8       ??_C@_1HA@GHKPFCBF@?$AAf?$AA?3?$AA?2?$AAd?$AAd?$AA?2?$AAv?$AAc?$AAt?$AAo?$AAo?$AAl?$AAs?$AA?2?$AAc?$AAr?$AAt?$AA_?$AAb?$AAl?$AAd?$AA?2?$AAs?$AAe?$AAl?$AAf?$AA_?$AAx?$AA8?$AA6?$AA?2?$AAc@ 101027c8     LIBCMTD:wsplitpath_s.obj
 0002:0002c838       ??_C@_1CI@MLPLHPBP@?$AA?$CI?$AA?$CI?$AA?$CI?$AA_?$AAP?$AAa?$AAt?$AAh?$AA?$CJ?$AA?$CJ?$AA?$CJ?$AA?5?$AA?$CB?$AA?$DN?$AA?5?$AAN?$AAU?$AAL?$AAL?$AA?$AA@ 10102838     LIBCMTD:wsplitpath_s.obj
 0002:0002c860       ??_C@_0BK@CIDNPOGP@GetUserObjectInformationA?$AA@ 10102860     LIBCMTD:crtmbox.obj
 0002:0002c87c       ??_C@_0M@CHKKJDAI@MessageBoxA?$AA@ 1010287c     LIBCMTD:crtmbox.obj
 0002:0002c888       ??_C@_1O@HJNPHHHB@?$AAf?$AAp?$AAu?$AAt?$AAw?$AAc?$AA?$AA@ 10102888     LIBCMTD:fputwc.obj
 0002:0002c898       ??_C@_1GA@BJIGKGEA@?$AAf?$AA?3?$AA?2?$AAd?$AAd?$AA?2?$AAv?$AAc?$AAt?$AAo?$AAo?$AAl?$AAs?$AA?2?$AAc?$AAr?$AAt?$AA_?$AAb?$AAl?$AAd?$AA?2?$AAs?$AAe?$AAl?$AAf?$AA_?$AAx?$AA8?$AA6?$AA?2?$AAc@ 10102898     LIBCMTD:fputwc.obj
 0002:0002c8f8       ??_C@_1BA@PCFLFGNC@?$AAw?$AAc?$AAs?$AAt?$AAo?$AAx?$AAl?$AA?$AA@ 101028f8     LIBCMTD:wcstol.obj
 0002:0002c908       ??_C@_1GA@CADFOND@?$AAf?$AA?3?$AA?2?$AAd?$AAd?$AA?2?$AAv?$AAc?$AAt?$AAo?$AAo?$AAl?$AAs?$AA?2?$AAc?$AAr?$AAt?$AA_?$AAb?$AAl?$AAd?$AA?2?$AAs?$AAe?$AAl?$AAf?$AA_?$AAx?$AA8?$AA6?$AA?2?$AAc@ 10102908     LIBCMTD:wcstol.obj
 0002:0002c968       ?commonFlags@?1??_control87@@9@9 10102968     LIBCMTD:_ieee87_.obj
 0002:0002c970       ??_C@_1GO@OKJGOMCB@?$AA_?$AAc?$AAo?$AAn?$AAt?$AAr?$AAo?$AAl?$AAf?$AAp?$AA_?$AAs?$AA?$CI?$AA?$CI?$AA?$CI?$AAv?$AAo?$AAi?$AAd?$AA?5?$AA?$CK?$AA?$CJ?$AA0?$AA?$CJ?$AA?0?$AA?5?$AAn?$AAe?$AAw?$AAc?$AAt?$AAr@ 10102970     LIBCMTD:_ieee87_.obj
 0002:0002c9e0       ??_C@_1BO@OFDNCLL@?$AA_?$AAs?$AAe?$AAt?$AA_?$AAc?$AAo?$AAn?$AAt?$AAr?$AAo?$AAl?$AAf?$AAp?$AA?$AA@ 101029e0     LIBCMTD:_ieee87_.obj
 0002:0002ca00       ??_C@_1HO@BFDKGHOI@?$AAf?$AA?3?$AA?2?$AAd?$AAd?$AA?2?$AAv?$AAc?$AAt?$AAo?$AAo?$AAl?$AAs?$AA?2?$AAc?$AAr?$AAt?$AA_?$AAb?$AAl?$AAd?$AA?2?$AAs?$AAe?$AAl?$AAf?$AA_?$AAx?$AA8?$AA6?$AA?2?$AAc@ 10102a00     LIBCMTD:_ieee87_.obj
 0002:0002ca80       ??_C@_1BO@IHLJHOPI@?$AA_?$AA_?$AAs?$AAt?$AAr?$AAg?$AAt?$AAo?$AAl?$AAd?$AA1?$AA2?$AA_?$AAl?$AA?$AA@ 10102a80     LIBCMTD:_strgtold_.obj
 0002:0002caa0       ??_C@_1IG@IGKPPFIM@?$AAf?$AA?3?$AA?2?$AAd?$AAd?$AA?2?$AAv?$AAc?$AAt?$AAo?$AAo?$AAl?$AAs?$AA?2?$AAc?$AAr?$AAt?$AA_?$AAb?$AAl?$AAd?$AA?2?$AAs?$AAe?$AAl?$AAf?$AA_?$AAx?$AA8?$AA6?$AA?2?$AAc@ 10102aa0     LIBCMTD:_strgtold_.obj
 0002:0002cb28       ??_C@_1CA@MBDBOHIB@?$AA_?$AAL?$AAo?$AAc?$AAa?$AAl?$AAe?$AA?5?$AA?$CB?$AA?$DN?$AA?5?$AAN?$AAU?$AAL?$AAL?$AA?$AA@ 10102b28     LIBCMTD:_strgtold_.obj
 0002:0002cb48       ??_C@_06IMKFLFPG@1?$CDQNAN?$AA@ 10102b48     LIBCMTD:_x10fout_.obj
 0002:0002cb50       ??_C@_1EG@MCFPJJEM@?$AAs?$AAt?$AAr?$AAc?$AAp?$AAy?$AA_?$AAs?$AA?$CI?$AAf?$AAo?$AAs?$AA?9?$AA?$DO?$AAm?$AAa?$AAn?$AA?0?$AA?5?$AA2?$AA1?$AA?$CL?$AA1?$AA?0?$AA?5?$AA?$CC?$AA1?$AA?$CD?$AAQ?$AAN?$AAA?$AAN@ 10102b50     LIBCMTD:_x10fout_.obj
 0002:0002cb98       ??_C@_05DNEBIAHO@1?$CDINF?$AA@ 10102b98     LIBCMTD:_x10fout_.obj
 0002:0002cba0       ??_C@_1EE@ICBBBPAI@?$AAs?$AAt?$AAr?$AAc?$AAp?$AAy?$AA_?$AAs?$AA?$CI?$AAf?$AAo?$AAs?$AA?9?$AA?$DO?$AAm?$AAa?$AAn?$AA?0?$AA?5?$AA2?$AA1?$AA?$CL?$AA1?$AA?0?$AA?5?$AA?$CC?$AA1?$AA?$CD?$AAI?$AAN?$AAF?$AA?$CC@ 10102ba0     LIBCMTD:_x10fout_.obj
 0002:0002cbe4       ??_C@_05PHHOCPM@1?$CDIND?$AA@ 10102be4     LIBCMTD:_x10fout_.obj
 0002:0002cbf0       ??_C@_1EE@MADEBIHF@?$AAs?$AAt?$AAr?$AAc?$AAp?$AAy?$AA_?$AAs?$AA?$CI?$AAf?$AAo?$AAs?$AA?9?$AA?$DO?$AAm?$AAa?$AAn?$AA?0?$AA?5?$AA2?$AA1?$AA?$CL?$AA1?$AA?0?$AA?5?$AA?$CC?$AA1?$AA?$CD?$AAI?$AAN?$AAD?$AA?$CC@ 10102bf0     LIBCMTD:_x10fout_.obj
 0002:0002cc34       ??_C@_06PGGFOGJG@1?$CDSNAN?$AA@ 10102c34     LIBCMTD:_x10fout_.obj
 0002:0002cc40       ??_C@_1EG@CDDBFNOB@?$AAs?$AAt?$AAr?$AAc?$AAp?$AAy?$AA_?$AAs?$AA?$CI?$AAf?$AAo?$AAs?$AA?9?$AA?$DO?$AAm?$AAa?$AAn?$AA?0?$AA?5?$AA2?$AA1?$AA?$CL?$AA1?$AA?0?$AA?5?$AA?$CC?$AA1?$AA?$CD?$AAS?$AAN?$AAA?$AAN@ 10102c40     LIBCMTD:_x10fout_.obj
 0002:0002cc88       ??_C@_1BI@ELMAAFLN@?$AA$?$AAI?$AA1?$AA0?$AA_?$AAO?$AAU?$AAT?$AAP?$AAU?$AAT?$AA?$AA@ 10102c88     LIBCMTD:_x10fout_.obj
 0002:0002cca0       ??_C@_1HG@HFJMHCFK@?$AAf?$AA?3?$AA?2?$AAd?$AAd?$AA?2?$AAv?$AAc?$AAt?$AAo?$AAo?$AAl?$AAs?$AA?2?$AAc?$AAr?$AAt?$AA_?$AAb?$AAl?$AAd?$AA?2?$AAs?$AAe?$AAl?$AAf?$AA_?$AAx?$AA8?$AA6?$AA?2?$AAc@ 10102ca0     LIBCMTD:_x10fout_.obj
 0002:0002cd18       ??_C@_1CG@JEHFHLNG@?$AA_?$AAm?$AAb?$AAs?$AAt?$AAo?$AAw?$AAc?$AAs?$AA_?$AAl?$AA_?$AAh?$AAe?$AAl?$AAp?$AAe?$AAr?$AA?$AA@ 10102d18     LIBCMTD:mbstowcs.obj
 0002:0002cd40       ??_C@_1GE@LCCDHBMH@?$AAf?$AA?3?$AA?2?$AAd?$AAd?$AA?2?$AAv?$AAc?$AAt?$AAo?$AAo?$AAl?$AAs?$AA?2?$AAc?$AAr?$AAt?$AA_?$AAb?$AAl?$AAd?$AA?2?$AAs?$AAe?$AAl?$AAf?$AA_?$AAx?$AA8?$AA6?$AA?2?$AAc@ 10102d40     LIBCMTD:mbstowcs.obj
 0002:0002cda4       ??_C@_1BE@EEKACIGI@?$AAs?$AA?5?$AA?$CB?$AA?$DN?$AA?5?$AAN?$AAU?$AAL?$AAL?$AA?$AA@ 10102da4     LIBCMTD:mbstowcs.obj
 0002:0002cdb8       ??_C@_1CO@JNPEPJAL@?$AAr?$AAe?$AAt?$AAs?$AAi?$AAz?$AAe?$AA?5?$AA?$DM?$AA?$DN?$AA?5?$AAs?$AAi?$AAz?$AAe?$AAI?$AAn?$AAW?$AAo?$AAr?$AAd?$AAs?$AA?$AA@ 10102db8     LIBCMTD:mbstowcs.obj
 0002:0002cde8       ??_C@_1CM@LLECFMFH@?$AAb?$AAu?$AAf?$AAf?$AAe?$AAr?$AAS?$AAi?$AAz?$AAe?$AA?5?$AA?$DM?$AA?$DN?$AA?5?$AAI?$AAN?$AAT?$AA_?$AAM?$AAA?$AAX?$AA?$AA@ 10102de8     LIBCMTD:mbstowcs.obj
 0002:0002ce14       ??_C@_1BM@PHENIGHD@?$AA_?$AAm?$AAb?$AAs?$AAt?$AAo?$AAw?$AAc?$AAs?$AA_?$AAs?$AA_?$AAl?$AA?$AA@ 10102e14     LIBCMTD:mbstowcs.obj
 0002:0002ce30       ??_C@_1JA@JKDFMOPO@?$AA?$CI?$AAp?$AAw?$AAc?$AAs?$AA?5?$AA?$DN?$AA?$DN?$AA?5?$AAN?$AAU?$AAL?$AAL?$AA?5?$AA?$CG?$AA?$CG?$AA?5?$AAs?$AAi?$AAz?$AAe?$AAI?$AAn?$AAW?$AAo?$AAr?$AAd?$AAs?$AA?5?$AA?$DN?$AA?$DN?$AA?5@ 10102e30     LIBCMTD:mbstowcs.obj
 0002:0002cec0       ??_C@_1O@GIMBNLEI@?$AAx?$AAt?$AAo?$AAa?$AA_?$AAs?$AA?$AA@ 10102ec0     LIBCMTD:xtoas.obj
 0002:0002ced0       ??_C@_1BC@MJJNBNFN@?$AAx?$AA6?$AA4?$AAt?$AAo?$AAa?$AA_?$AAs?$AA?$AA@ 10102ed0     LIBCMTD:xtoas.obj
 0002:0002cee4       ??_C@_1CG@LLJCAOHF@?$AA_?$AAw?$AAc?$AAs?$AAt?$AAo?$AAm?$AAb?$AAs?$AA_?$AAl?$AA_?$AAh?$AAe?$AAl?$AAp?$AAe?$AAr?$AA?$AA@ 10102ee4     LIBCMTD:wcstombs.obj
 0002:0002cf10       ??_C@_1GE@OAENIBOD@?$AAf?$AA?3?$AA?2?$AAd?$AAd?$AA?2?$AAv?$AAc?$AAt?$AAo?$AAo?$AAl?$AAs?$AA?2?$AAc?$AAr?$AAt?$AA_?$AAb?$AAl?$AAd?$AA?2?$AAs?$AAe?$AAl?$AAf?$AA_?$AAx?$AA8?$AA6?$AA?2?$AAc@ 10102f10     LIBCMTD:wcstombs.obj
 0002:0002cf74       ??_C@_1BK@OIBENBPM@?$AAp?$AAw?$AAc?$AAs?$AA?5?$AA?$CB?$AA?$DN?$AA?5?$AAN?$AAU?$AAL?$AAL?$AA?$AA@ 10102f74     LIBCMTD:wcstombs.obj
 0002:0002cf90       ??_C@_1CM@KEOGBFLI@?$AAs?$AAi?$AAz?$AAe?$AAI?$AAn?$AAB?$AAy?$AAt?$AAe?$AAs?$AA?5?$AA?$DO?$AA?5?$AAr?$AAe?$AAt?$AAs?$AAi?$AAz?$AAe?$AA?$AA@ 10102f90     LIBCMTD:wcstombs.obj
 0002:0002cfbc       ??_C@_1BM@BDMCLLDL@?$AA_?$AAw?$AAc?$AAs?$AAt?$AAo?$AAm?$AAb?$AAs?$AA_?$AAs?$AA_?$AAl?$AA?$AA@ 10102fbc     LIBCMTD:wcstombs.obj
 0002:0002cfd8       ??_C@_1IM@MFGKHGBP@?$AA?$CI?$AAd?$AAs?$AAt?$AA?5?$AA?$CB?$AA?$DN?$AA?5?$AAN?$AAU?$AAL?$AAL?$AA?5?$AA?$CG?$AA?$CG?$AA?5?$AAs?$AAi?$AAz?$AAe?$AAI?$AAn?$AAB?$AAy?$AAt?$AAe?$AAs?$AA?5?$AA?$DO?$AA?5?$AA0?$AA?$CJ@ 10102fd8     LIBCMTD:wcstombs.obj
 0002:0002d064       ??_C@_1BK@EPLNBKAK@?$AA_?$AAv?$AAs?$AAw?$AAp?$AAr?$AAi?$AAn?$AAt?$AAf?$AA_?$AAl?$AA?$AA@ 10103064     LIBCMTD:vswprint.obj
 0002:0002d080       ??_C@_1CG@IMMIEPNA@?$AA_?$AAv?$AAs?$AAc?$AAw?$AAp?$AAr?$AAi?$AAn?$AAt?$AAf?$AA_?$AAh?$AAe?$AAl?$AAp?$AAe?$AAr?$AA?$AA@ 10103080     LIBCMTD:vswprint.obj
 0002:0002d0a8       __pDestructExceptionObject 101030a8     LIBCMTD:frame.obj
 0002:0002d0ac       ??_C@_0O@DPKOEFFH@bad?5exception?$AA@ 101030ac     LIBCMTD:frame.obj
 0002:0002d0c0       ??_7bad_exception@std@@6B@ 101030c0     LIBCMTD:frame.obj
 0002:0002d0c8       ??_C@_1BI@BJLEPLEF@?$AA_?$AAs?$AAt?$AAr?$AAn?$AAi?$AAc?$AAm?$AAp?$AA_?$AAl?$AA?$AA@ 101030c8     LIBCMTD:strnicmp.obj
 0002:0002d0e0       ??_C@_1GE@CONPOJMA@?$AAf?$AA?3?$AA?2?$AAd?$AAd?$AA?2?$AAv?$AAc?$AAt?$AAo?$AAo?$AAl?$AAs?$AA?2?$AAc?$AAr?$AAt?$AA_?$AAb?$AAl?$AAd?$AA?2?$AAs?$AAe?$AAl?$AAf?$AA_?$AAx?$AA8?$AA6?$AA?2?$AAc@ 101030e0     LIBCMTD:strnicmp.obj
 0002:0002d144       ??_C@_1BE@BHJDFFNA@?$AA_?$AAs?$AAt?$AAr?$AAn?$AAi?$AAc?$AAm?$AAp?$AA?$AA@ 10103144     LIBCMTD:strnicmp.obj
 0002:0002d158       ??_C@_1BE@JKKFLIKJ@?$AA_?$AAm?$AAb?$AAs?$AAc?$AAh?$AAr?$AA_?$AAl?$AA?$AA@ 10103158     LIBCMTD:mbschr.obj
 0002:0002d170       ??_C@_1GA@GDCAGKMG@?$AAf?$AA?3?$AA?2?$AAd?$AAd?$AA?2?$AAv?$AAc?$AAt?$AAo?$AAo?$AAl?$AAs?$AA?2?$AAc?$AAr?$AAt?$AA_?$AAb?$AAl?$AAd?$AA?2?$AAs?$AAe?$AAl?$AAf?$AA_?$AAx?$AA8?$AA6?$AA?2?$AAc@ 10103170     LIBCMTD:mbschr.obj
 0002:0002d1d0       ??_C@_1BO@JIBAMMGI@?$AAs?$AAt?$AAr?$AAi?$AAn?$AAg?$AA?5?$AA?$CB?$AA?$DN?$AA?5?$AAN?$AAU?$AAL?$AAL?$AA?$AA@ 101031d0     LIBCMTD:mbschr.obj
 0002:0002d1f0       ??_C@_1BI@GALBKMKE@?$AA?$CI?$AAs?$AAi?$AAz?$AAe?$AA?5?$AA?$DO?$AA?$DN?$AA?5?$AA0?$AA?$CJ?$AA?$AA@ 101031f0     LIBCMTD:chsize.obj
 0002:0002d208       ??_C@_1BE@MAFDNGED@?$AA_?$AAc?$AAh?$AAs?$AAi?$AAz?$AAe?$AA_?$AAs?$AA?$AA@ 10103208     LIBCMTD:chsize.obj
 0002:0002d220       ??_C@_1GA@DBKMEDOF@?$AAf?$AA?3?$AA?2?$AAd?$AAd?$AA?2?$AAv?$AAc?$AAt?$AAo?$AAo?$AAl?$AAs?$AA?2?$AAc?$AAr?$AAt?$AA_?$AAb?$AAl?$AAd?$AA?2?$AAs?$AAe?$AAl?$AAf?$AA_?$AAx?$AA8?$AA6?$AA?2?$AAc@ 10103220     LIBCMTD:chsize.obj
 0002:0002d280       ??_C@_1BC@JBGGJDCM@?$AA_?$AAs?$AAe?$AAt?$AAm?$AAo?$AAd?$AAe?$AA?$AA@ 10103280     LIBCMTD:setmode.obj
 0002:0002d298       ??_C@_1GC@KODPFLLJ@?$AAf?$AA?3?$AA?2?$AAd?$AAd?$AA?2?$AAv?$AAc?$AAt?$AAo?$AAo?$AAl?$AAs?$AA?2?$AAc?$AAr?$AAt?$AA_?$AAb?$AAl?$AAd?$AA?2?$AAs?$AAe?$AAl?$AAf?$AA_?$AAx?$AA8?$AA6?$AA?2?$AAc@ 10103298     LIBCMTD:setmode.obj
 0002:0002d300       ??_C@_1OA@HGPJIFPM@?$AA?$CI?$AA?$CI?$AAm?$AAo?$AAd?$AAe?$AA?5?$AA?$DN?$AA?$DN?$AA?5?$AA_?$AAO?$AA_?$AAT?$AAE?$AAX?$AAT?$AA?$CJ?$AA?5?$AA?$HM?$AA?$HM?$AA?5?$AA?$CI?$AAm?$AAo?$AAd?$AAe?$AA?5?$AA?$DN?$AA?$DN?$AA?5?$AA_@ 10103300     LIBCMTD:setmode.obj
 0002:0002d3e0       ??_C@_1BG@IEEHLOCL@?$AA_?$AAs?$AAe?$AAt?$AA_?$AAf?$AAm?$AAo?$AAd?$AAe?$AA?$AA@ 101033e0     LIBCMTD:setmode.obj
 0002:0002d3f8       ??_C@_1IC@NDCJMLB@?$AA?$CI?$AA?$CI?$AAm?$AAo?$AAd?$AAe?$AA?5?$AA?$DN?$AA?$DN?$AA?5?$AA_?$AAO?$AA_?$AAT?$AAE?$AAX?$AAT?$AA?$CJ?$AA?5?$AA?$HM?$AA?$HM?$AA?5?$AA?$CI?$AAm?$AAo?$AAd?$AAe?$AA?5?$AA?$DN?$AA?$DN?$AA?5?$AA_@ 101033f8     LIBCMTD:setmode.obj
 0002:0002d47c       ??_C@_1BG@CKGMPOFH@?$AA_?$AAg?$AAe?$AAt?$AA_?$AAf?$AAm?$AAo?$AAd?$AAe?$AA?$AA@ 1010347c     LIBCMTD:setmode.obj
 0002:0002d494       ??_C@_1CA@GPIGPPFN@?$AA?$CI?$AAp?$AAM?$AAo?$AAd?$AAe?$AA?5?$AA?$CB?$AA?$DN?$AA?5?$AAN?$AAU?$AAL?$AAL?$AA?$CJ?$AA?$AA@ 10103494     LIBCMTD:setmode.obj
 0002:0002d4b4       ??_C@_1BA@BALFACEM@?$AAC?$AAO?$AAN?$AAO?$AAU?$AAT?$AA$?$AA?$AA@ 101034b4     LIBCMTD:initcon.obj
 0002:0002d4e8       ??_7type_info@@6B@         101034e8     LIBCMTD:typinfo.obj
 0002:0002d4f0       ??_7exception@std@@6B@     101034f0     LIBCMTD:stdexcpt.obj
 0002:0002d4f8       ??_C@_0BC@EOODALEL@Unknown?5exception?$AA@ 101034f8     LIBCMTD:stdexcpt.obj
 0002:0002d510       ??_7bad_cast@std@@6B@      10103510     LIBCMTD:stdexcpt.obj
 0002:0002d51c       ??_7bad_typeid@std@@6B@    1010351c     LIBCMTD:stdexcpt.obj
 0002:0002d528       ??_7__non_rtti_object@std@@6B@ 10103528     LIBCMTD:stdexcpt.obj
 0002:0002d530       ??_C@_1GE@BDAODJCD@?$AAf?$AA?3?$AA?2?$AAd?$AAd?$AA?2?$AAv?$AAc?$AAt?$AAo?$AAo?$AAl?$AAs?$AA?2?$AAc?$AAr?$AAt?$AA_?$AAb?$AAl?$AAd?$AA?2?$AAs?$AAe?$AAl?$AAf?$AA_?$AAx?$AA8?$AA6?$AA?2?$AAc@ 10103530     LIBCMTD:dbgdel.obj
 0002:0002d598       ??_C@_1HG@KNCBMCDD@?$AAf?$AA?3?$AA?2?$AAd?$AAd?$AA?2?$AAv?$AAc?$AAt?$AAo?$AAo?$AAl?$AAs?$AA?2?$AAc?$AAr?$AAt?$AA_?$AAb?$AAl?$AAd?$AA?2?$AAs?$AAe?$AAl?$AAf?$AA_?$AAx?$AA8?$AA6?$AA?2?$AAc@ 10103598     LIBCMTD:typname.obj
 0002:0002d610       ??_C@_1CK@GELGGBDK@?$AAp?$AAN?$AAo?$AAd?$AAe?$AA?9?$AA?$DO?$AA_?$AAN?$AAe?$AAx?$AAt?$AA?5?$AA?$CB?$AA?$DN?$AA?5?$AAN?$AAU?$AAL?$AAL?$AA?$AA@ 10103610     LIBCMTD:typname.obj
 0002:0002d640       ??_C@_1JK@NAFNEPGC@?$AAs?$AAt?$AAr?$AAc?$AAp?$AAy?$AA_?$AAs?$AA?5?$AA?$CI?$AA?$CI?$AAc?$AAh?$AAa?$AAr?$AA?5?$AA?$CK?$AA?$CJ?$AA?$CI?$AA?$CI?$AAt?$AAy?$AAp?$AAe?$AA_?$AAi?$AAn?$AAf?$AAo?$AA?5?$AA?$CK?$AA?$CJ@ 10103640     LIBCMTD:typname.obj
 0002:0002d6dc       ??_C@_1CM@OOICDMK@?$AAt?$AAy?$AAp?$AAe?$AA_?$AAi?$AAn?$AAf?$AAo?$AA?3?$AA?3?$AA_?$AAN?$AAa?$AAm?$AAe?$AA_?$AAb?$AAa?$AAs?$AAe?$AA?$AA@ 101036dc     LIBCMTD:typname.obj
 0002:0002d708       ??_C@_1GI@EAJKJPED@?$AAs?$AAt?$AAr?$AAc?$AAp?$AAy?$AA_?$AAs?$AA?5?$AA?$CI?$AAp?$AAT?$AAm?$AAp?$AAT?$AAy?$AAp?$AAe?$AAN?$AAa?$AAm?$AAe?$AA?0?$AA?5?$AAl?$AAe?$AAn?$AA?$CL?$AA2?$AA?0?$AA?5?$AA?$CI@ 10103708     LIBCMTD:typname.obj
 0002:0002d770       ??_C@_1DO@OJJLFJPE@?$AAt?$AAy?$AAp?$AAe?$AA_?$AAi?$AAn?$AAf?$AAo?$AA?3?$AA?3?$AA_?$AAN?$AAa?$AAm?$AAe?$AA_?$AAb?$AAa?$AAs?$AAe?$AA_?$AAi?$AAn?$AAt?$AAe?$AAr?$AAn?$AAa?$AAl?$AA?$AA@ 10103770     LIBCMTD:typname.obj
 0002:0002d7b0       ??_C@_0BK@CFCOFLF@?5Complete?5Object?5Locator?8?$AA@ 101037b0     LIBCMTD:undname.obj
 0002:0002d7cc       ??_C@_0BN@MECKDCOJ@?5Class?5Hierarchy?5Descriptor?8?$AA@ 101037cc     LIBCMTD:undname.obj
 0002:0002d7ec       ??_C@_0BD@LGICGFMM@?5Base?5Class?5Array?8?$AA@ 101037ec     LIBCMTD:undname.obj
 0002:0002d800       ??_C@_0BM@LDKODKLH@?5Base?5Class?5Descriptor?5at?5?$CI?$AA@ 10103800     LIBCMTD:undname.obj
 0002:0002d81c       ??_C@_0BC@DAFEJGAK@?5Type?5Descriptor?8?$AA@ 1010381c     LIBCMTD:undname.obj
 0002:0002d830       ??_C@_0BM@PMGGMLDN@?$GAlocal?5static?5thread?5guard?8?$AA@ 10103830     LIBCMTD:undname.obj
 0002:0002d84c       ??_C@_0CL@FGIJHLCE@?$GAmanaged?5vector?5copy?5constructor@ 1010384c     LIBCMTD:undname.obj
 0002:0002d878       ??_C@_0CJ@GJELGAMM@?$GAvector?5vbase?5copy?5constructor?5i@ 10103878     LIBCMTD:undname.obj
 0002:0002d8a4       ??_C@_0CD@CGAJBKEJ@?$GAvector?5copy?5constructor?5iterato@ 101038a4     LIBCMTD:undname.obj
 0002:0002d8c8       ??_C@_0CB@PDBIFEP@?$GAdynamic?5atexit?5destructor?5for?5?8@ 101038c8     LIBCMTD:undname.obj
 0002:0002d8ec       ??_C@_0BL@CLIPGLGB@?$GAdynamic?5initializer?5for?5?8?$AA@ 101038ec     LIBCMTD:undname.obj
 0002:0002d908       ??_C@_0CM@FCBBDIGB@?$GAeh?5vector?5vbase?5copy?5constructo@ 10103908     LIBCMTD:undname.obj
 0002:0002d934       ??_C@_0CG@HLDDJMAG@?$GAeh?5vector?5copy?5constructor?5iter@ 10103934     LIBCMTD:undname.obj
 0002:0002d95c       ??_C@_0CF@IMGKMJNO@?$GAmanaged?5vector?5destructor?5itera@ 1010395c     LIBCMTD:undname.obj
 0002:0002d984       ??_C@_0CG@CFDHKGGD@?$GAmanaged?5vector?5constructor?5iter@ 10103984     LIBCMTD:undname.obj
 0002:0002d9ac       ??_C@_0BN@CKNJLHMB@?$GAplacement?5delete?$FL?$FN?5closure?8?$AA@ 101039ac     LIBCMTD:undname.obj
 0002:0002d9cc       ??_C@_0BL@CNOONJFP@?$GAplacement?5delete?5closure?8?$AA@ 101039cc     LIBCMTD:undname.obj
 0002:0002d9e8       ??_C@_0P@HJKNJFNN@?$GAomni?5callsig?8?$AA@ 101039e8     LIBCMTD:undname.obj
 0002:0002d9f8       ??_C@_09LBNFPBCA@?5delete?$FL?$FN?$AA@ 101039f8     LIBCMTD:undname.obj
 0002:0002da04       ??_C@_06FHBGPFGH@?5new?$FL?$FN?$AA@ 10103a04     LIBCMTD:undname.obj
 0002:0002da0c       ??_C@_0CE@IIHCMGGL@?$GAlocal?5vftable?5constructor?5closu@ 10103a0c     LIBCMTD:undname.obj
 0002:0002da30       ??_C@_0BA@KKLDJDLB@?$GAlocal?5vftable?8?$AA@ 10103a30     LIBCMTD:undname.obj
 0002:0002da40       ??_C@_05KHLCHHI@?$GARTTI?$AA@ 10103a40     LIBCMTD:undname.obj
 0002:0002da48       ??_C@_03KLGMFNMG@?$GAEH?$AA@ 10103a48     LIBCMTD:undname.obj
 0002:0002da4c       ??_C@_0BA@KBCDOMBN@?$GAudt?5returning?8?$AA@ 10103a4c     LIBCMTD:undname.obj
 0002:0002da5c       ??_C@_0BL@LLKPOHJI@?$GAcopy?5constructor?5closure?8?$AA@ 10103a5c     LIBCMTD:undname.obj
 0002:0002da78       ??_C@_0CH@OOJPLCPH@?$GAeh?5vector?5vbase?5constructor?5ite@ 10103a78     LIBCMTD:undname.obj
 0002:0002daa0       ??_C@_0CA@GCEOPDGL@?$GAeh?5vector?5destructor?5iterator?8?$AA@ 10103aa0     LIBCMTD:undname.obj
 0002:0002dac0       ??_C@_0CB@JONCMFFK@?$GAeh?5vector?5constructor?5iterator?8@ 10103ac0     LIBCMTD:undname.obj
 0002:0002dae4       ??_C@_0BL@NILFHHPC@?$GAvirtual?5displacement?5map?8?$AA@ 10103ae4     LIBCMTD:undname.obj
 0002:0002db00       ??_C@_0CE@IKBNEHA@?$GAvector?5vbase?5constructor?5iterat@ 10103b00     LIBCMTD:undname.obj
 0002:0002db24       ??_C@_0BN@LFPFMEDL@?$GAvector?5destructor?5iterator?8?$AA@ 10103b24     LIBCMTD:undname.obj
 0002:0002db44       ??_C@_0BO@PFGOCPJJ@?$GAvector?5constructor?5iterator?8?$AA@ 10103b44     LIBCMTD:undname.obj
 0002:0002db64       ??_C@_0BN@IMDCHIKM@?$GAscalar?5deleting?5destructor?8?$AA@ 10103b64     LIBCMTD:undname.obj
 0002:0002db84       ??_C@_0BO@OBMKPJIG@?$GAdefault?5constructor?5closure?8?$AA@ 10103b84     LIBCMTD:undname.obj
 0002:0002dba4       ??_C@_0BN@DEGPLNFK@?$GAvector?5deleting?5destructor?8?$AA@ 10103ba4     LIBCMTD:undname.obj
 0002:0002dbc4       ??_C@_0BD@JDLKDPAB@?$GAvbase?5destructor?8?$AA@ 10103bc4     LIBCMTD:undname.obj
 0002:0002dbd8       ??_C@_08OBABFOLI@?$GAstring?8?$AA@ 10103bd8     LIBCMTD:undname.obj
 0002:0002dbe4       ??_C@_0BF@KDPPACIK@?$GAlocal?5static?5guard?8?$AA@ 10103be4     LIBCMTD:undname.obj
 0002:0002dbfc       ??_C@_08LLFFHHDJ@?$GAtypeof?8?$AA@ 10103bfc     LIBCMTD:undname.obj
 0002:0002dc08       ??_C@_07FEEIOKP@?$GAvcall?8?$AA@ 10103c08     LIBCMTD:undname.obj
 0002:0002dc10       ??_C@_09BLBHBJP@?$GAvbtable?8?$AA@ 10103c10     LIBCMTD:undname.obj
 0002:0002dc1c       ??_C@_09IFPLHPGF@?$GAvftable?8?$AA@ 10103c1c     LIBCMTD:undname.obj
 0002:0002dc28       ??_C@_02MHEGNOJ@?$FO?$DN?$AA@ 10103c28     LIBCMTD:undname.obj
 0002:0002dc2c       ??_C@_02DHLNPPGH@?$HM?$DN?$AA@ 10103c2c     LIBCMTD:undname.obj
 0002:0002dc30       ??_C@_02FGJGFEAB@?$CG?$DN?$AA@ 10103c30     LIBCMTD:undname.obj
 0002:0002dc34       ??_C@_03CDNPDDLA@?$DM?$DM?$DN?$AA@ 10103c34     LIBCMTD:undname.obj
 0002:0002dc38       ??_C@_03IKFCCPFF@?$DO?$DO?$DN?$AA@ 10103c38     LIBCMTD:undname.obj
 0002:0002dc3c       ??_C@_02FENAOKFI@?$CF?$DN?$AA@ 10103c3c     LIBCMTD:undname.obj
 0002:0002dc40       ??_C@_02FJEHGPIO@?1?$DN?$AA@ 10103c40     LIBCMTD:undname.obj
 0002:0002dc44       ??_C@_02FKMDLLOA@?9?$DN?$AA@ 10103c44     LIBCMTD:undname.obj
 0002:0002dc48       ??_C@_02FOEOMHFC@?$CL?$DN?$AA@ 10103c48     LIBCMTD:undname.obj
 0002:0002dc4c       ??_C@_02FPIMKNGF@?$CK?$DN?$AA@ 10103c4c     LIBCMTD:undname.obj
 0002:0002dc50       ??_C@_02NONPIBCD@?$HM?$HM?$AA@ 10103c50     LIBCMTD:undname.obj
 0002:0002dc54       ??_C@_02PPKAJPJL@?$CG?$CG?$AA@ 10103c54     LIBCMTD:undname.obj
 0002:0002dc58       ??_C@_01DNKMNLPK@?$HM?$AA@ 10103c58     LIBCMTD:undname.obj
 0002:0002dc5c       ??_C@_01JKBOJNNK@?$FO?$AA@ 10103c5c     LIBCMTD:undname.obj
 0002:0002dc60       ??_C@_01PJKLJHI@?$HO?$AA@  10103c60     LIBCMTD:undname.obj
 0002:0002dc64       ??_C@_02HCKGKOFO@?$CI?$CJ?$AA@ 10103c64     LIBCMTD:undname.obj
 0002:0002dc68       ??_C@_01IHBHIGKO@?0?$AA@   10103c68     LIBCMTD:undname.obj
 0002:0002dc6c       ??_C@_02EEKDKGMJ@?$DO?$DN?$AA@ 10103c6c     LIBCMTD:undname.obj
 0002:0002dc70       ??_C@_01PPODPGHN@?$DO?$AA@ 10103c70     LIBCMTD:undname.obj
 0002:0002dc74       ??_C@_02EHCHHCKH@?$DM?$DN?$AA@ 10103c74     LIBCMTD:undname.obj
 0002:0002dc78       ??_C@_01MNNFJEPP@?$DM?$AA@ 10103c78     LIBCMTD:undname.obj
 0002:0002dc7c       ??_C@_01FGNFDNOH@?$CF?$AA@ 10103c7c     LIBCMTD:undname.obj
 0002:0002dc80       ??_C@_01KMDKNFGN@?1?$AA@   10103c80     LIBCMTD:undname.obj
 0002:0002dc84       ??_C@_03MNHNFDLC@?9?$DO?$CK?$AA@ 10103c84     LIBCMTD:undname.obj
 0002:0002dc88       ??_C@_01HNPIGOCE@?$CG?$AA@ 10103c88     LIBCMTD:undname.obj
 0002:0002dc8c       ??_C@_01MIFGBAGJ@?$CL?$AA@ 10103c8c     LIBCMTD:undname.obj
 0002:0002dc90       ??_C@_01JOAMLHOP@?9?$AA@   10103c90     LIBCMTD:undname.obj
 0002:0002dc94       ??_C@_02BAABKJLB@?9?9?$AA@ 10103c94     LIBCMTD:undname.obj
 0002:0002dc98       ??_C@_02ECNGHCIF@?$CL?$CL?$AA@ 10103c98     LIBCMTD:undname.obj
 0002:0002dc9c       ??_C@_01NBENCBCI@?$CK?$AA@ 10103c9c     LIBCMTD:undname.obj
 0002:0002dca0       ??_C@_02HBOOOICD@?9?$DO?$AA@ 10103ca0     LIBCMTD:undname.obj
 0002:0002dca4       ??_C@_08LHJFAFGD@operator?$AA@ 10103ca4     LIBCMTD:undname.obj
 0002:0002dcb0       ??_C@_02GPECMEKF@?$FL?$FN?$AA@ 10103cb0     LIBCMTD:undname.obj
 0002:0002dcb4       ??_C@_02FDNJECIE@?$CB?$DN?$AA@ 10103cb4     LIBCMTD:undname.obj
 0002:0002dcb8       ??_C@_02EGOFBIJA@?$DN?$DN?$AA@ 10103cb8     LIBCMTD:undname.obj
 0002:0002dcbc       ??_C@_01DCLJPIOD@?$CB?$AA@ 10103cbc     LIBCMTD:undname.obj
 0002:0002dcc0       ??_C@_02FODMEDOG@?$DM?$DM?$AA@ 10103cc0     LIBCMTD:undname.obj
 0002:0002dcc4       ??_C@_02GPIOPFAK@?$DO?$DO?$AA@ 10103cc4     LIBCMTD:undname.obj
 0002:0002dcc8       ??_C@_07FPCDHGMM@?5delete?$AA@ 10103cc8     LIBCMTD:undname.obj
 0002:0002dcd0       ??_C@_04NIHEBCM@?5new?$AA@ 10103cd0     LIBCMTD:undname.obj
 0002:0002dcd8       ??_C@_0M@GFIIJFMG@__unaligned?$AA@ 10103cd8     LIBCMTD:undname.obj
 0002:0002dce4       ??_C@_0L@PILCLIHE@__restrict?$AA@ 10103ce4     LIBCMTD:undname.obj
 0002:0002dcf0       ??_C@_07JOMMBBKO@__ptr64?$AA@ 10103cf0     LIBCMTD:undname.obj
 0002:0002dcf8       ??_C@_06GHPCKEAG@__eabi?$AA@ 10103cf8     LIBCMTD:undname.obj
 0002:0002dd00       ??_C@_09HIJEGCPM@__clrcall?$AA@ 10103d00     LIBCMTD:undname.obj
 0002:0002dd0c       ??_C@_0L@JMKHOMEK@__fastcall?$AA@ 10103d0c     LIBCMTD:undname.obj
 0002:0002dd18       ??_C@_0L@NPHFGOKO@__thiscall?$AA@ 10103d18     LIBCMTD:undname.obj
 0002:0002dd24       ??_C@_09IFJBGAPI@__stdcall?$AA@ 10103d24     LIBCMTD:undname.obj
 0002:0002dd30       ??_C@_08GHMPAG@__pascal?$AA@ 10103d30     LIBCMTD:undname.obj
 0002:0002dd3c       ??_C@_07KOLFKCDI@__cdecl?$AA@ 10103d3c     LIBCMTD:undname.obj
 0002:0002dd44       ??_C@_08EHJDFFNH@__based?$CI?$AA@ 10103d44     LIBCMTD:undname.obj
 0002:0002ded4       ??_C@_04HEJADOOB@CV?3?5?$AA@ 10103ed4     LIBCMTD:undname.obj
 0002:0002dedc       ??_C@_02MOLJINC@?3?3?$AA@  10103edc     LIBCMTD:undname.obj
 0002:0002dee0       ??_C@_01GEODFPGF@?8?$AA@   10103ee0     LIBCMTD:undname.obj
 0002:0002dee4       ??_C@_01NLNLIGKH@?$GA?$AA@ 10103ee4     LIBCMTD:undname.obj
 0002:0002dee8       ??_C@_0O@KHGCOMHP@generic?9type?9?$AA@ 10103ee8     LIBCMTD:undname.obj
 0002:0002def8       ??_C@_0BE@JAEOCHPE@template?9parameter?9?$AA@ 10103ef8     LIBCMTD:undname.obj
 0002:0002df0c       ??_C@_02OHHJMEON@?8?8?$AA@ 10103f0c     LIBCMTD:undname.obj
 0002:0002df10       ??_C@_0BG@JNJLAMPM@?$GAanonymous?5namespace?8?$AA@ 10103f10     LIBCMTD:undname.obj
 0002:0002df28       ??_C@_0BN@IBLMMFAP@?$GAnon?9type?9template?9parameter?$AA@ 10103f28     LIBCMTD:undname.obj
 0002:0002df48       ??_C@_0BE@EODMJLIF@?$GAtemplate?9parameter?$AA@ 10103f48     LIBCMTD:undname.obj
 0002:0002df5c       ??_C@_04GKJNKENE@void?$AA@ 10103f5c     LIBCMTD:undname.obj
 0002:0002df64       ??_C@_04HIBGFPH@NULL?$AA@  10103f64     LIBCMTD:undname.obj
 0002:0002df6c       ??_C@_0M@DHNBOJMP@extern?5?$CCC?$CC?5?$AA@ 10103f6c     LIBCMTD:undname.obj
 0002:0002df78       ??_C@_08KJLFOPNE@?$FLthunk?$FN?3?$AA@ 10103f78     LIBCMTD:undname.obj
 0002:0002df84       ??_C@_08GPDDCMKI@public?3?5?$AA@ 10103f84     LIBCMTD:undname.obj
 0002:0002df90       ??_C@_0M@GAIFPFIP@protected?3?5?$AA@ 10103f90     LIBCMTD:undname.obj
 0002:0002df9c       ??_C@_09LAPHOOG@private?3?5?$AA@ 10103f9c     LIBCMTD:undname.obj
 0002:0002dfa8       ??_C@_08NIEOINHE@virtual?5?$AA@ 10103fa8     LIBCMTD:undname.obj
 0002:0002dfb4       ??_C@_07PGOEDBHP@static?5?$AA@ 10103fb4     LIBCMTD:undname.obj
 0002:0002dfbc       ??_C@_0DA@HGFJFBBE@?$GAtemplate?5static?5data?5member?5des@ 10103fbc     LIBCMTD:undname.obj
 0002:0002dfec       ??_C@_0DB@ILEFOCIJ@?$GAtemplate?5static?5data?5member?5con@ 10103fec     LIBCMTD:undname.obj
 0002:0002e020       ??_C@_0CB@KJDOOODE@?$GAlocal?5static?5destructor?5helper?8@ 10104020     LIBCMTD:undname.obj
 0002:0002e044       ??_C@_0L@HNGCOGAE@?$GAadjustor?$HL?$AA@ 10104044     LIBCMTD:undname.obj
 0002:0002e050       ??_C@_0L@GHPFDFH@?$GAvtordisp?$HL?$AA@ 10104050     LIBCMTD:undname.obj
 0002:0002e05c       ??_C@_0N@CBHHHENL@?$GAvtordispex?$HL?$AA@ 1010405c     LIBCMTD:undname.obj
 0002:0002e06c       ??_C@_01CLKCMJKC@?5?$AA@   1010406c     LIBCMTD:undname.obj
 0002:0002e070       ??_C@_02IGFCGPIL@?$HN?8?$AA@ 10104070     LIBCMTD:undname.obj
 0002:0002e074       ??_C@_03OPGICMGF@?$HN?8?5?$AA@ 10104074     LIBCMTD:undname.obj
 0002:0002e078       ??_C@_02KCKGHPCA@?$CJ?5?$AA@ 10104078     LIBCMTD:undname.obj
 0002:0002e07c       ??_C@_05BEFAKPML@void?5?$AA@ 1010407c     LIBCMTD:undname.obj
 0002:0002e084       ??_C@_0P@GCOCNKDM@std?3?3nullptr_t?$AA@ 10104084     LIBCMTD:undname.obj
 0002:0002e094       ??_C@_08PABEKFH@volatile?$AA@ 10104094     LIBCMTD:undname.obj
 0002:0002e0a0       ??_C@_0M@ELJOJFFH@?0?$DMellipsis?$DO?$AA@ 101040a0     LIBCMTD:undname.obj
 0002:0002e0ac       ??_C@_04EENFHACM@?0?4?4?4?$AA@ 101040ac     LIBCMTD:undname.obj
 0002:0002e0b4       ??_C@_0L@EGPHHEKN@?$DMellipsis?$DO?$AA@ 101040b4     LIBCMTD:undname.obj
 0002:0002e0c0       ??_C@_07HDJPLPEK@?5throw?$CI?$AA@ 101040c0     LIBCMTD:undname.obj
 0002:0002e0c8       ??_C@_09EFNPDFFP@?5volatile?$AA@ 101040c8     LIBCMTD:undname.obj
 0002:0002e0d4       ??_C@_05BNCCCJPP@const?$AA@ 101040d4     LIBCMTD:undname.obj
 0002:0002e0dc       ??_C@_07EDHNAJHC@signed?5?$AA@ 101040dc     LIBCMTD:undname.obj
 0002:0002e0e4       ??_C@_09EBBEKKIH@unsigned?5?$AA@ 101040e4     LIBCMTD:undname.obj
 0002:0002e0f0       ??_C@_07NFANNNEC@UNKNOWN?$AA@ 101040f0     LIBCMTD:undname.obj
 0002:0002e0f8       ??_C@_06GCICPBLB@__w64?5?$AA@ 101040f8     LIBCMTD:undname.obj
 0002:0002e100       ??_C@_07CLGGIAMF@wchar_t?$AA@ 10104100     LIBCMTD:undname.obj
 0002:0002e108       ??_C@_09EEKGDCPH@?$DMunknown?$DO?$AA@ 10104108     LIBCMTD:undname.obj
 0002:0002e114       ??_C@_08GAHOLHEO@__int128?$AA@ 10104114     LIBCMTD:undname.obj
 0002:0002e120       ??_C@_07LFCOJCAC@__int64?$AA@ 10104120     LIBCMTD:undname.obj
 0002:0002e128       ??_C@_07OFLPPHGP@__int32?$AA@ 10104128     LIBCMTD:undname.obj
 0002:0002e130       ??_C@_07ICFHOGAF@__int16?$AA@ 10104130     LIBCMTD:undname.obj
 0002:0002e138       ??_C@_06EBGKOKIG@__int8?$AA@ 10104138     LIBCMTD:undname.obj
 0002:0002e140       ??_C@_04DDKJGDCM@bool?$AA@ 10104140     LIBCMTD:undname.obj
 0002:0002e148       ??_C@_06BNJCAIGJ@double?$AA@ 10104148     LIBCMTD:undname.obj
 0002:0002e150       ??_C@_05CJIMAING@long?5?$AA@ 10104150     LIBCMTD:undname.obj
 0002:0002e158       ??_C@_05KNFBNCOH@float?$AA@ 10104158     LIBCMTD:undname.obj
 0002:0002e160       ??_C@_04GOKPGOLB@long?$AA@ 10104160     LIBCMTD:undname.obj
 0002:0002e168       ??_C@_03JBIPMCLC@int?$AA@  10104168     LIBCMTD:undname.obj
 0002:0002e16c       ??_C@_05BFKKPKCG@short?$AA@ 1010416c     LIBCMTD:undname.obj
 0002:0002e174       ??_C@_04ENMBGAPA@char?$AA@ 10104174     LIBCMTD:undname.obj
 0002:0002e17c       ??_C@_05LJGMCFOG@enum?5?$AA@ 1010417c     LIBCMTD:undname.obj
 0002:0002e184       ??_C@_0N@DLIEFKNA@cointerface?5?$AA@ 10104184     LIBCMTD:undname.obj
 0002:0002e194       ??_C@_08KOFANOFK@coclass?5?$AA@ 10104194     LIBCMTD:undname.obj
 0002:0002e1a0       ??_C@_06LJBABKPM@class?5?$AA@ 101041a0     LIBCMTD:undname.obj
 0002:0002e1a8       ??_C@_07DIBCDNGL@struct?5?$AA@ 101041a8     LIBCMTD:undname.obj
 0002:0002e1b0       ??_C@_06MOJHIBMG@union?5?$AA@ 101041b0     LIBCMTD:undname.obj
 0002:0002e1b8       ??_C@_0P@GCIFDJCJ@?$GAunknown?5ecsu?8?$AA@ 101041b8     LIBCMTD:undname.obj
 0002:0002e1c8       ??_C@_04LAHKHJMA@int?5?$AA@ 101041c8     LIBCMTD:undname.obj
 0002:0002e1d0       ??_C@_06EHJMALKF@short?5?$AA@ 101041d0     LIBCMTD:undname.obj
 0002:0002e1d8       ??_C@_05CIHEBHNO@char?5?$AA@ 101041d8     LIBCMTD:undname.obj
 0002:0002e1e0       ??_C@_06LIJLOJAG@const?5?$AA@ 101041e0     LIBCMTD:undname.obj
 0002:0002e1e8       ??_C@_09GAIEOBLP@volatile?5?$AA@ 101041e8     LIBCMTD:undname.obj
 0002:0002e1f4       ??_C@_0O@GKABPPIF@cli?3?3pin_ptr?$DM?$AA@ 101041f4     LIBCMTD:undname.obj
 0002:0002e204       ??_C@_0M@EALIELKG@cli?3?3array?$DM?$AA@ 10104204     LIBCMTD:undname.obj
 0002:0002e210       ??_C@_02GOGNNPBN@?$CJ?$FL?$AA@ 10104210     LIBCMTD:undname.obj
 0002:0002e214       ??_C@_06EEGAIFAK@?$HLflat?$HN?$AA@ 10104214     LIBCMTD:undname.obj
 0002:0002e21c       ??_C@_02MDINNEEG@s?5?$AA@  1010421c     LIBCMTD:undname.obj
 0002:0002e220       ??_C@_05JIBOFOHK@?$HLfor?5?$AA@ 10104220     LIBCMTD:undname.obj
 0002:0002e228       ??_7DNameNode@@6B@         10104228     LIBCMTD:undname.obj
 0002:0002e234       ??_7charNode@@6B@          10104234     LIBCMTD:undname.obj
 0002:0002e240       ??_7pcharNode@@6B@         10104240     LIBCMTD:undname.obj
 0002:0002e24c       ??_7pDNameNode@@6B@        1010424c     LIBCMTD:undname.obj
 0002:0002e258       ??_7DNameStatusNode@@6B@   10104258     LIBCMTD:undname.obj
 0002:0002e264       ??_C@_04OKOHEJBO@?5?$DP?$DP?5?$AA@ 10104264     LIBCMTD:undname.obj
 0002:0002e26c       ??_7pairNode@@6B@          1010426c     LIBCMTD:undname.obj
 0002:0002e278       __load_config_used         10104278     LIBCMTD:loadcfg.obj
 0002:0002e314       ??_R4bad_exception@std@@6B@ 10104314     LIBCMTD:frame.obj
 0002:0002e328       ??_R3bad_exception@std@@8  10104328     LIBCMTD:frame.obj
 0002:0002e338       ??_R2bad_exception@std@@8  10104338     LIBCMTD:frame.obj
 0002:0002e344       ??_R1A@?0A@EA@bad_exception@std@@8 10104344     LIBCMTD:frame.obj
 0002:0002e360       ??_R1A@?0A@EA@exception@std@@8 10104360     LIBCMTD:frame.obj
 0002:0002e37c       ??_R3exception@std@@8      1010437c     LIBCMTD:frame.obj
 0002:0002e38c       ??_R2exception@std@@8      1010438c     LIBCMTD:frame.obj
 0002:0002e394       ??_R4type_info@@6B@        10104394     LIBCMTD:typinfo.obj
 0002:0002e3a8       ??_R3type_info@@8          101043a8     LIBCMTD:typinfo.obj
 0002:0002e3b8       ??_R2type_info@@8          101043b8     LIBCMTD:typinfo.obj
 0002:0002e3c0       ??_R1A@?0A@EA@type_info@@8 101043c0     LIBCMTD:typinfo.obj
 0002:0002e3dc       ??_R4exception@std@@6B@    101043dc     LIBCMTD:stdexcpt.obj
 0002:0002e3f0       ??_R4bad_cast@std@@6B@     101043f0     LIBCMTD:stdexcpt.obj
 0002:0002e404       ??_R3bad_cast@std@@8       10104404     LIBCMTD:stdexcpt.obj
 0002:0002e414       ??_R2bad_cast@std@@8       10104414     LIBCMTD:stdexcpt.obj
 0002:0002e420       ??_R1A@?0A@EA@bad_cast@std@@8 10104420     LIBCMTD:stdexcpt.obj
 0002:0002e43c       ??_R4bad_typeid@std@@6B@   1010443c     LIBCMTD:stdexcpt.obj
 0002:0002e450       ??_R3bad_typeid@std@@8     10104450     LIBCMTD:stdexcpt.obj
 0002:0002e460       ??_R2bad_typeid@std@@8     10104460     LIBCMTD:stdexcpt.obj
 0002:0002e46c       ??_R1A@?0A@EA@bad_typeid@std@@8 1010446c     LIBCMTD:stdexcpt.obj
 0002:0002e488       ??_R4__non_rtti_object@std@@6B@ 10104488     LIBCMTD:stdexcpt.obj
 0002:0002e49c       ??_R3__non_rtti_object@std@@8 1010449c     LIBCMTD:stdexcpt.obj
 0002:0002e4ac       ??_R2__non_rtti_object@std@@8 101044ac     LIBCMTD:stdexcpt.obj
 0002:0002e4bc       ??_R1A@?0A@EA@__non_rtti_object@std@@8 101044bc     LIBCMTD:stdexcpt.obj
 0002:0002e4e0       ___safe_se_handler_table   101044e0     <linker-defined>
 0002:0002e50c       ___rtc_iaa                 1010450c     LIBCMTD:_initsect_.obj
 0002:0002e580       ___rtc_izz                 10104580     LIBCMTD:_initsect_.obj
 0002:0002e584       ___rtc_taa                 10104584     LIBCMTD:_initsect_.obj
 0002:0002e5f8       ___rtc_tzz                 101045f8     LIBCMTD:_initsect_.obj
 0002:0002efdc       __TI2?AVbad_exception@std@@ 10104fdc     LIBCMTD:frame.obj
 0002:0002efec       __CTA2?AVbad_exception@std@@ 10104fec     LIBCMTD:frame.obj
 0002:0002eff8       __CT??_R0?AVbad_exception@std@@@8??0bad_exception@std@@QAE@ABV01@@Z12 10104ff8     LIBCMTD:frame.obj
 0002:0002f014       __CT??_R0?AVexception@std@@@8??0exception@std@@QAE@ABV01@@Z12 10105014     LIBCMTD:frame.obj
 0002:0002f320       __IMPORT_DESCRIPTOR_KERNEL32 10105320     kernel32:KERNEL32.dll
 0002:0002f334       __NULL_IMPORT_DESCRIPTOR   10105334     kernel32:KERNEL32.dll
 0003:00000640       _axis_identity             10106640     q_math.obj
 0003:00000664       _quat_identity             10106664     q_math.obj
 0003:00000680       _bytedirs                  10106680     q_math.obj
 0003:00000e18       _colorBlack                10106e18     q_math.obj
 0003:00000e28       _colorRed                  10106e28     q_math.obj
 0003:00000e38       _colorGreen                10106e38     q_math.obj
 0003:00000e48       _colorBlue                 10106e48     q_math.obj
 0003:00000e58       _colorYellow               10106e58     q_math.obj
 0003:00000e68       _colorOrange               10106e68     q_math.obj
 0003:00000e78       _colorMagenta              10106e78     q_math.obj
 0003:00000e88       _colorCyan                 10106e88     q_math.obj
 0003:00000e98       _colorWhite                10106e98     q_math.obj
 0003:00000ea8       _colorLtGrey               10106ea8     q_math.obj
 0003:00000eb8       _colorMdGrey               10106eb8     q_math.obj
 0003:00000ec8       _colorDkGrey               10106ec8     q_math.obj
 0003:00000ed8       _color_table               10106ed8     q_math.obj
 0003:00000fc0       _SOUND_EXTENSIONS          10106fc0     q_shared.obj
 0003:00000ff0       _IMAGE_EXTENSIONS          10106ff0     q_shared.obj
 0003:0000b920       ___security_cookie         10111920     LIBCMTD:gs_cookie.obj
 0003:0000b924       ___security_cookie_complement 10111924     LIBCMTD:gs_cookie.obj
 0003:0000b930       __fltused                  10111930     LIBCMTD:_fpinit_.obj
 0003:0000b934       __ldused                   10111934     LIBCMTD:_fpinit_.obj
 0003:0000b9b0       __half                     101119b0     LIBCMTD:_pow_.obj
 0003:0000b9c0       ?_RTC_ErrorLevels@@3PAHA   101119c0     LIBCMTD:_error_.obj
 0003:0000b9d8       __iob                      101119d8     LIBCMTD:_file.obj
 0003:0000bc58       ___abort_behavior          10111c58     LIBCMTD:abort.obj
 0003:0000bc5c       __cfltcvt_tab              10111c5c     LIBCMTD:cmiscdat.obj
 0003:0000be00       ___initialmbcinfo          10111e00     LIBCMTD:mbctype.obj
 0003:0000c020       __mbctype                  10112020     LIBCMTD:mbctype.obj
 0003:0000c128       __mbcasemap                10112128     LIBCMTD:mbctype.obj
 0003:0000c228       ___ptmbcinfo               10112228     LIBCMTD:mbctype.obj
 0003:0000c320       ___globallocalestatus      10112320     LIBCMTD:glstatus.obj
 0003:0000c324       ___clocalestr              10112324     LIBCMTD:nlsdata2.obj
 0003:0000c328       ___lc_time_c               10112328     LIBCMTD:nlsdata2.obj
 0003:0000c490       ___initiallocinfo          10112490     LIBCMTD:nlsdata2.obj
 0003:0000c568       ___ptlocinfo               10112568     LIBCMTD:nlsdata2.obj
 0003:0000c56c       ___initiallocalestructinfo 1011256c     LIBCMTD:nlsdata2.obj
 0003:0000c574       ___flsindex                10112574     LIBCMTD:tidtable.obj
 0003:0000c578       ___getvalueindex           10112578     LIBCMTD:tidtable.obj
 0003:0000c668       __d_inf                    10112668     LIBCMTD:_util_.obj
 0003:0000c670       __d_ind                    10112670     LIBCMTD:_util_.obj
 0003:0000c678       __d_max                    10112678     LIBCMTD:_util_.obj
 0003:0000c680       __d_min                    10112680     LIBCMTD:_util_.obj
 0003:0000c688       __d_mzero                  10112688     LIBCMTD:_util_.obj
 0003:0000c6b0       ___nullstring              101126b0     LIBCMTD:output.obj
 0003:0000c6b4       ___wnullstring             101126b4     LIBCMTD:output.obj
 0003:0000c6c0       __crtDbgFlag               101126c0     LIBCMTD:dbgheap.obj
 0003:0000c6c4       ___crtDebugFillThreshold   101126c4     LIBCMTD:dbgheap.obj
 0003:0000c6cc       __crtBreakAlloc            101126cc     LIBCMTD:dbgheap.obj
 0003:0000c6d8       ___badioinfo               101126d8     LIBCMTD:ioinit.obj
 0003:0000c720       __NLG_Destination          10112720     LIBCMTD:exsup.obj
 0003:0000c850       __lookuptrailbytes         10112850     LIBCMTD:read.obj
 0003:0000c960       __pfnAllocHook             10112960     LIBCMTD:dbghook.obj
 0003:0000c970       __crtAssertBusy            10112970     LIBCMTD:dbgrptt.obj
 0003:0000c974       __CrtDbgMode               10112974     LIBCMTD:dbgrptt.obj
 0003:0000c980       __CrtDbgFile               10112980     LIBCMTD:dbgrptt.obj
 0003:0000c990       ___lconv_static_decimal    10112990     LIBCMTD:lconv.obj
 0003:0000c994       ___lconv_static_W_decimal  10112994     LIBCMTD:lconv.obj
 0003:0000c998       ___lconv_c                 10112998     LIBCMTD:lconv.obj
 0003:0000c9e8       ___lconv                   101129e8     LIBCMTD:lconv.obj
 0003:0000c9ec       __pctype                   101129ec     LIBCMTD:ctype.obj
 0003:0000c9f0       __pwctype                  101129f0     LIBCMTD:ctype.obj
 0003:0000c9f4       ___mb_cur_max              101129f4     LIBCMTD:nlsdata1.obj
 0003:0000c9f8       ___decimal_point           101129f8     LIBCMTD:nlsdata1.obj
 0003:0000c9fc       ___decimal_point_length    101129fc     LIBCMTD:nlsdata1.obj
 0003:0000ca00       __matherr_flag             10112a00     LIBCMTD:_matherr_.obj
 0003:0000ca40       ??_R0?AVbad_exception@std@@@8 10112a40     LIBCMTD:frame.obj
 0003:0000ca60       ??_R0?AVexception@std@@@8  10112a60     LIBCMTD:frame.obj
 0003:0000ca80       __confh                    10112a80     LIBCMTD:initcon.obj
 0003:0000ca88       __pow10pos                 10112a88     LIBCMTD:_constpow_.obj
 0003:0000cbe8       __pow10neg                 10112be8     LIBCMTD:_constpow_.obj
 0003:0000cd44       ??_R0?AVtype_info@@@8      10112d44     LIBCMTD:typinfo.obj
 0003:0000cd5c       ??_R0?AVbad_cast@std@@@8   10112d5c     LIBCMTD:stdexcpt.obj
 0003:0000cd78       ??_R0?AVbad_typeid@std@@@8 10112d78     LIBCMTD:stdexcpt.obj
 0003:0000cd98       ??_R0?AV__non_rtti_object@std@@@8 10112d98     LIBCMTD:stdexcpt.obj
 0003:00016cc8       _ftLibrary                 1011ccc8     ftlib.obj
 0003:00016d20       _vec3_origin               1011cd20     q_math.obj
 0003:0001fb44       ___fastflag                10125b44     LIBCMTD:_fpinit_.obj
 0003:0001fb4c       __aenvptr                  10125b4c     LIBCMTD:dllcrt0.obj
 0003:0001fb50       __wenvptr                  10125b50     LIBCMTD:dllcrt0.obj
 0003:0001fb54       ___error_mode              10125b54     LIBCMTD:dllcrt0.obj
 0003:0001fb58       ___app_type                10125b58     LIBCMTD:dllcrt0.obj
 0003:0001fb5c       __umaskval                 10125b5c     LIBCMTD:crt0dat.obj
 0003:0001fb60       ___argc                    10125b60     LIBCMTD:crt0dat.obj
 0003:0001fb64       ___argv                    10125b64     LIBCMTD:crt0dat.obj
 0003:0001fb68       ___wargv                   10125b68     LIBCMTD:crt0dat.obj
 0003:0001fb6c       __environ                  10125b6c     LIBCMTD:crt0dat.obj
 0003:0001fb70       ___initenv                 10125b70     LIBCMTD:crt0dat.obj
 0003:0001fb74       __wenviron                 10125b74     LIBCMTD:crt0dat.obj
 0003:0001fb78       ___winitenv                10125b78     LIBCMTD:crt0dat.obj
 0003:0001fb7c       __pgmptr                   10125b7c     LIBCMTD:crt0dat.obj
 0003:0001fb80       __wpgmptr                  10125b80     LIBCMTD:crt0dat.obj
 0003:0001fb84       __exitflag                 10125b84     LIBCMTD:crt0dat.obj
 0003:0001fb88       __C_Termination_Done       10125b88     LIBCMTD:crt0dat.obj
 0003:0001fb8c       __C_Exit_Done              10125b8c     LIBCMTD:crt0dat.obj
 0003:0001fb94       ?wsprintffp@@3P6AHPADPBDZZA 10125b94     LIBCMTD:_error_.obj
 0003:0001fbc8       __cflush                   10125bc8     LIBCMTD:_file.obj
 0003:0001fbcc       ___pInvalidArgHandler      10125bcc     LIBCMTD:invarg.obj
 0003:0001fef8       ___mbulinfo                10125ef8     LIBCMTD:mbctype.obj
 0003:0001ff04       ___mbcodepage              10125f04     LIBCMTD:mbctype.obj
 0003:0001ff08       ___ismbcodepage            10125f08     LIBCMTD:mbctype.obj
 0003:0001ff0c       ___mblcid                  10125f0c     LIBCMTD:mbctype.obj
 0003:0001ff10       _gpFlsAlloc                10125f10     LIBCMTD:tidtable.obj
 0003:0001ff14       _gpFlsGetValue             10125f14     LIBCMTD:tidtable.obj
 0003:0001ff18       _gpFlsSetValue             10125f18     LIBCMTD:tidtable.obj
 0003:0001ff1c       _gpFlsFree                 10125f1c     LIBCMTD:tidtable.obj
 0003:0001ff20       ___locale_changed          10125f20     LIBCMTD:setlocal.obj
 0003:0001ff38       ?_pfnDumpClient@@3P6AXPAXI@ZA 10125f38     LIBCMTD:dbgheap.obj
 0003:0001ff40       ___crtDebugCheckCount      10125f40     LIBCMTD:dbgheap.obj
 0003:00020050       __crtheap                  10126050     LIBCMTD:heapinit.obj
 0003:00020054       __stdbuf                   10126054     LIBCMTD:_sftbuf.obj
 0003:000207f0       ?__pInconsistency@@3P6AXXZA 101267f0     LIBCMTD:hooks.obj
 0003:000207f8       ___pPurecall               101267f8     LIBCMTD:inithelp.obj
 0003:000207fc       ?_pnhHeap@@3P6AHI@ZA       101267fc     LIBCMTD:handler.obj
 0003:00020800       __newmode                  10126800     LIBCMTD:_newmode.obj
 0003:0002080c       __outputformat             1012680c     LIBCMTD:outputformat.obj
 0003:00020810       ___lconv_static_null       10126810     LIBCMTD:lconv.obj
 0003:00020814       ___lconv_static_W_null     10126814     LIBCMTD:lconv.obj
 0003:00020820       __commode                  10126820     LIBCMTD:ncommode.obj
 0003:00020838       __fmode                    10126838     LIBCMTD:txtmode.obj
 0003:00020858       ?pArgList@UnDecorator@@0PAVReplicator@@A 10126858     LIBCMTD:undname.obj
 0003:0002085c       ?pZNameList@UnDecorator@@0PAVReplicator@@A 1012685c     LIBCMTD:undname.obj
 0003:00020860       ?pTemplateArgList@UnDecorator@@0PAVReplicator@@A 10126860     LIBCMTD:undname.obj
 0003:00020864       ?gName@UnDecorator@@0PBDB  10126864     LIBCMTD:undname.obj
 0003:00020868       ?name@UnDecorator@@0PBDB   10126868     LIBCMTD:undname.obj
 0003:0002086c       ?outputString@UnDecorator@@0PADA 1012686c     LIBCMTD:undname.obj
 0003:00020870       ?maxStringLength@UnDecorator@@0HA 10126870     LIBCMTD:undname.obj
 0003:00020874       ?disableFlags@UnDecorator@@0KA 10126874     LIBCMTD:undname.obj
 0003:00020878       ?m_pGetParameter@UnDecorator@@0P6APADJ@ZA 10126878     LIBCMTD:undname.obj
 0003:0002087c       ?fExplicitTemplateParams@UnDecorator@@0_NA 1012687c     LIBCMTD:undname.obj
 0003:0002087d       ?fGetTemplateArgumentList@UnDecorator@@0_NA 1012687d     LIBCMTD:undname.obj
 0003:000208d0       ?nodes@?1??make@DNameStatusNode@@SAPAV2@W4DNameStatus@@@Z@4PAV2@A 101268d0     LIBCMTD:undname.obj
 0003:00020900       ??_B?1??make@DNameStatusNode@@SAPAV1@W4DNameStatus@@@Z@51 10126900     LIBCMTD:undname.obj
 0003:00020920       _FTLIB_IMPORT              10126920     <common>
 0003:000209c8       _ftlibPool                 101269c8     <common>
 0003:000209e0       _ft_trace_levels           101269e0     <common>
 0003:00020b38       __pmatherr                 10126b38     <common>
 0003:00020b3c       __pfnReportHook            10126b3c     <common>
 0003:00020b40       __pReportHookListW         10126b40     <common>
 0003:00020b44       __pReportHookList          10126b44     <common>
 0003:00020b48       __debugger_hook_dummy      10126b48     <common>
 0003:00020b4c       __nhandle                  10126b4c     <common>
 0003:00020b60       ___pioinfo                 10126b60     <common>
 0003:00020c60       ___use_sse2_mathfcns       10126c60     <common>
 0003:00020c64       ___setlc_active            10126c64     <common>
 0003:00020c68       ___unguarded_readlc_active 10126c68     <common>
 0003:00020c6c       ___sse2_available          10126c6c     <common>
 0003:00020c70       ___piob                    10126c70     <common>
 0003:00020c80       __bufin                    10126c80     <common>
 0003:00021c80       __nstream                  10127c80     <common>
 0003:00021c84       ___env_initialized         10127c84     <common>
 0003:00021c88       ___onexitend               10127c88     <common>
 0003:00021c8c       ___onexitbegin             10127c8c     <common>
 0003:00021c90       ___mbctype_initialized     10127c90     <common>
 0003:00021c94       ___dyn_tls_init_callback   10127c94     <common>
 0003:00021c98       __setjmpexused             10127c98     <common>
 0003:00021c9c       __acmdln                   10127c9c     <common>

 entry point at        0001:00084d40

 Static symbols

 0001:00000020       _QFT_Init                  10001020 f   ftlib.obj
 0001:000000c0       _QFT_PrecacheFonts         100010c0 f   ftlib.obj
 0001:000000f0       _QFT_PrecacheFontsByExt    100010f0 f   ftlib.obj
 0001:000002c0       _trap_FS_GetFileList       100012c0 f   ftlib.obj
 0001:00000300       _QFT_LoadFamilyFromFile    10001300 f   ftlib.obj
 0001:000003e0       _trap_FS_FOpenFile         100013e0 f   ftlib.obj
 0001:00000410       _trap_FS_Read              10001410 f   ftlib.obj
 0001:00000440       _trap_MemAlloc             10001440 f   ftlib.obj
 0001:00000470       _trap_MemFree              10001470 f   ftlib.obj
 0001:000004a0       _QFT_LoadFamily            100014a0 f   ftlib.obj
 0001:000006b0       _QFT_LoadFace              100016b0 f   ftlib.obj
 0001:00001a50       _trap_R_RegisterRawPic     10002a50 f   ftlib.obj
 0001:00001ca0       _trap_R_RegisterPic        10002ca0 f   ftlib.obj
 0001:00001ef0       _QFT_Shutdown              10002ef0 f   ftlib.obj
 0001:00002470       _trap_R_DrawStretchPic     10003470 f   ftlib_draw.obj
 0001:000027e0       _trap_R_SetScissorRegion   100037e0 f   ftlib_draw.obj
 0001:00002810       _trap_R_GetScissorRegion   10003810 f   ftlib_draw.obj
 0001:00002b00       _trap_Cmd_AddCommand       10003b00 f   ftlib_main.obj
 0001:00002b30       _trap_MemAllocPool         10003b30 f   ftlib_main.obj
 0001:00002ba0       _trap_Cmd_RemoveCommand    10003ba0 f   ftlib_main.obj
 0001:00002bd0       _trap_MemFreePool          10003bd0 f   ftlib_main.obj
 0001:00002c70       _trap_MemAlloc             10003c70 f   ftlib_main.obj
 0001:00002d50       _trap_Error                10003d50 f   ftlib_main.obj
 0001:00002e30       _trap_Print                10003e30 f   ftlib_main.obj
 0001:00002f20       _trap_Cvar_Value           10003f20 f   ftlib_main.obj
 0001:00007090       _DualQuat_SetVector        10008090 f   q_math.obj
 0001:00009be0       _Info_ValidateKey          1000abe0 f   q_shared.obj
 0001:00009c80       _Info_FindKey              1000ac80 f   q_shared.obj
 0001:0000a0b0       _Info_ValidateValue        1000b0b0 f   q_shared.obj
 0001:0000aa60       __ft_face_scale_advances   1000ba60 f   libfreetypestat:ftbase.obj
 0001:0000af80       _ft_multo64                1000bf80 f   libfreetypestat:ftbase.obj
 0001:0000b060       _ft_div64by32              1000c060 f   libfreetypestat:ftbase.obj
 0001:0000b0f0       _FT_Add64                  1000c0f0 f   libfreetypestat:ftbase.obj
 0001:0000b2d0       _FT_MulFix_i386            1000c2d0 f   libfreetypestat:ftbase.obj
 0001:0000be60       _FT_GlyphLoader_Adjust_Points 1000ce60 f   libfreetypestat:ftbase.obj
 0001:0000c250       _FT_GlyphLoader_Adjust_Subglyphs 1000d250 f   libfreetypestat:ftbase.obj
 0001:0000cb20       _ft_glyphslot_init         1000db20 f   libfreetypestat:ftbase.obj
 0001:0000cc30       _ft_glyphslot_done         1000dc30 f   libfreetypestat:ftbase.obj
 0001:0000d440       _ft_glyphslot_clear        1000e440 f   libfreetypestat:ftbase.obj
 0001:0000d530       _ft_glyphslot_grid_fit_metrics 1000e530 f   libfreetypestat:ftbase.obj
 0001:0000de00       _open_face                 1000ee00 f   libfreetypestat:ftbase.obj
 0001:0000e030       _destroy_charmaps          1000f030 f   libfreetypestat:ftbase.obj
 0001:0000e0d0       _find_unicode_charmap      1000f0d0 f   libfreetypestat:ftbase.obj
 0001:0000e240       _open_face_PS_from_sfnt_stream 1000f240 f   libfreetypestat:ftbase.obj
 0001:0000e3f0       _open_face_from_buffer     1000f3f0 f   libfreetypestat:ftbase.obj
 0001:0000e540       _memory_stream_close       1000f540 f   libfreetypestat:ftbase.obj
 0001:0000e5a0       _new_memory_stream         1000f5a0 f   libfreetypestat:ftbase.obj
 0001:0000e670       _ft_lookup_PS_in_sfnt_stream 1000f670 f   libfreetypestat:ftbase.obj
 0001:0000e890       _load_mac_face             1000f890 f   libfreetypestat:ftbase.obj
 0001:0000e9a0       _IsMacResource             1000f9a0 f   libfreetypestat:ftbase.obj
 0001:0000eb80       _Mac_Read_POST_Resource    1000fb80 f   libfreetypestat:ftbase.obj
 0001:0000efe0       _Mac_Read_sfnt_Resource    1000ffe0 f   libfreetypestat:ftbase.obj
 0001:0000f1c0       _IsMacBinary               100101c0 f   libfreetypestat:ftbase.obj
 0001:0000f350       _load_face_in_embedded_rfork 10010350 f   libfreetypestat:ftbase.obj
 0001:0000f960       _destroy_face              10010960 f   libfreetypestat:ftbase.obj
 0001:0000fac0       _destroy_size              10010ac0 f   libfreetypestat:ftbase.obj
 0001:00010130       _ft_recompute_scaled_metrics 10011130 f   libfreetypestat:ftbase.obj
 0001:00010db0       _ft_cmap_done_internal     10011db0 f   libfreetypestat:ftbase.obj
 0001:000114f0       _find_variant_selector_charmap 100124f0 f   libfreetypestat:ftbase.obj
 0001:000121f0       _ft_lookup_glyph_renderer  100131f0 f   libfreetypestat:ftbase.obj
 0001:00012850       _ft_add_renderer           10013850 f   libfreetypestat:ftbase.obj
 0001:000129c0       _ft_set_current_renderer   100139c0 f   libfreetypestat:ftbase.obj
 0001:00012d10       _Destroy_Module            10013d10 f   libfreetypestat:ftbase.obj
 0001:00012e10       _Destroy_Driver            10013e10 f   libfreetypestat:ftbase.obj
 0001:00012e60       _ft_remove_renderer        10013e60 f   libfreetypestat:ftbase.obj
 0001:000156c0       _ft_raccess_sort_ref_by_id 100166c0 f   libfreetypestat:ftbase.obj
 0001:000157d0       _raccess_rule_by_darwin_vfs 100167d0 f   libfreetypestat:ftbase.obj
 0001:00015810       _raccess_get_rule_type_from_rule_index 10016810 f   libfreetypestat:ftbase.obj
 0001:00015830       _raccess_guess_apple_double 10016830 f   libfreetypestat:ftbase.obj
 0001:00015890       _raccess_guess_apple_single 10016890 f   libfreetypestat:ftbase.obj
 0001:000158f0       _raccess_guess_darwin_ufs_export 100168f0 f   libfreetypestat:ftbase.obj
 0001:000159a0       _raccess_guess_darwin_hfsplus 100169a0 f   libfreetypestat:ftbase.obj
 0001:00015aa0       _raccess_guess_darwin_newvfs 10016aa0 f   libfreetypestat:ftbase.obj
 0001:00015ba0       _raccess_guess_vfat        10016ba0 f   libfreetypestat:ftbase.obj
 0001:00015c10       _raccess_guess_linux_cap   10016c10 f   libfreetypestat:ftbase.obj
 0001:00015c80       _raccess_guess_linux_double 10016c80 f   libfreetypestat:ftbase.obj
 0001:00015d30       _raccess_guess_linux_netatalk 10016d30 f   libfreetypestat:ftbase.obj
 0001:00015de0       _raccess_guess_apple_generic 10016de0 f   libfreetypestat:ftbase.obj
 0001:00015fc0       _raccess_guess_linux_double_from_file_name 10016fc0 f   libfreetypestat:ftbase.obj
 0001:000160a0       _raccess_make_file_name    100170a0 f   libfreetypestat:ftbase.obj
 0001:00017a50       _ft_trig_pseudo_rotate     10018a50 f   libfreetypestat:ftbase.obj
 0001:00017d20       _ft_trig_prenorm           10018d20 f   libfreetypestat:ftbase.obj
 0001:00017e70       _ft_trig_pseudo_polarize   10018e70 f   libfreetypestat:ftbase.obj
 0001:00018190       _ft_trig_downscale         10019190 f   libfreetypestat:ftbase.obj
 0001:00018f00       _bdf_cmap_init             10019f00 f   libfreetypestat:bdf.obj
 0001:00018f50       _bdf_cmap_done             10019f50 f   libfreetypestat:bdf.obj
 0001:00018f80       _bdf_cmap_char_index       10019f80 f   libfreetypestat:bdf.obj
 0001:00019030       _bdf_cmap_char_next        1001a030 f   libfreetypestat:bdf.obj
 0001:00019150       _BDF_Face_Done             1001a150 f   libfreetypestat:bdf.obj
 0001:000192c0       _bdf_free_font             1001a2c0 f   libfreetypestat:bdf.obj
 0001:00019680       _hash_free                 1001a680 f   libfreetypestat:bdf.obj
 0001:00019730       _BDF_Face_Init             1001a730 f   libfreetypestat:bdf.obj
 0001:00019f40       _bdf_load_font             1001af40 f   libfreetypestat:bdf.obj
 0001:0001a4f0       __bdf_list_init            1001b4f0 f   libfreetypestat:bdf.obj
 0001:0001a520       __bdf_list_done            1001b520 f   libfreetypestat:bdf.obj
 0001:0001a580       __bdf_readstream           1001b580 f   libfreetypestat:bdf.obj
 0001:0001a8e0       __bdf_parse_start          1001b8e0 f   libfreetypestat:bdf.obj
 0001:0001b2c0       _hash_init                 1001c2c0 f   libfreetypestat:bdf.obj
 0001:0001b370       _hash_insert               1001c370 f   libfreetypestat:bdf.obj
 0001:0001b470       _hash_bucket               1001c470 f   libfreetypestat:bdf.obj
 0001:0001b550       _hash_rehash               1001c550 f   libfreetypestat:bdf.obj
 0001:0001b690       __bdf_list_shift           1001c690 f   libfreetypestat:bdf.obj
 0001:0001b730       __bdf_list_join            1001c730 f   libfreetypestat:bdf.obj
 0001:0001b820       __bdf_list_split           1001c820 f   libfreetypestat:bdf.obj
 0001:0001bb40       __bdf_list_ensure          1001cb40 f   libfreetypestat:bdf.obj
 0001:0001bc40       __bdf_atoul                1001cc40 f   libfreetypestat:bdf.obj
 0001:0001bd50       __bdf_atos                 1001cd50 f   libfreetypestat:bdf.obj
 0001:0001bea0       __bdf_add_comment          1001cea0 f   libfreetypestat:bdf.obj
 0001:0001bf90       __bdf_set_default_spacing  1001cf90 f   libfreetypestat:bdf.obj
 0001:0001c1b0       __bdf_add_property         1001d1b0 f   libfreetypestat:bdf.obj
 0001:0001c670       _hash_lookup               1001d670 f   libfreetypestat:bdf.obj
 0001:0001c6b0       __bdf_atol                 1001d6b0 f   libfreetypestat:bdf.obj
 0001:0001c7f0       _bdf_create_property       1001d7f0 f   libfreetypestat:bdf.obj
 0001:0001c9b0       __bdf_parse_glyphs         1001d9b0 f   libfreetypestat:bdf.obj
 0001:0001d820       _by_encoding               1001e820 f   libfreetypestat:bdf.obj
 0001:0001d870       __bdf_parse_properties     1001e870 f   libfreetypestat:bdf.obj
 0001:0001dc40       __bdf_is_atom              1001ec40 f   libfreetypestat:bdf.obj
 0001:0001ddc0       _bdf_get_property          1001edc0 f   libfreetypestat:bdf.obj
 0001:0001de50       _bdf_get_font_property     1001ee50 f   libfreetypestat:bdf.obj
 0001:0001dee0       _bdf_interpret_style       1001eee0 f   libfreetypestat:bdf.obj
 0001:0001e2e0       _BDF_Size_Select           1001f2e0 f   libfreetypestat:bdf.obj
 0001:0001e350       _BDF_Size_Request          1001f350 f   libfreetypestat:bdf.obj
 0001:0001e450       _BDF_Glyph_Load            1001f450 f   libfreetypestat:bdf.obj
 0001:0001e680       _bdf_get_bdf_property      1001f680 f   libfreetypestat:bdf.obj
 0001:0001e800       _bdf_get_charset_id        1001f800 f   libfreetypestat:bdf.obj
 0001:0001e830       _bdf_driver_requester      1001f830 f   libfreetypestat:bdf.obj
 0001:0001e860       _gray_move_to              1001f860 f   libfreetypestat:smooth.obj
 0001:0001e8e0       _gray_record_cell          1001f8e0 f   libfreetypestat:smooth.obj
 0001:0001e950       _gray_find_cell            1001f950 f   libfreetypestat:smooth.obj
 0001:0001ea50       _gray_start_cell           1001fa50 f   libfreetypestat:smooth.obj
 0001:0001eaf0       _gray_set_cell             1001faf0 f   libfreetypestat:smooth.obj
 0001:0001ebc0       _gray_line_to              1001fbc0 f   libfreetypestat:smooth.obj
 0001:0001ebf0       _gray_render_line          1001fbf0 f   libfreetypestat:smooth.obj
 0001:0001efd0       _gray_render_scanline      1001ffd0 f   libfreetypestat:smooth.obj
 0001:0001f250       _gray_conic_to             10020250 f   libfreetypestat:smooth.obj
 0001:0001f280       _gray_render_conic         10020280 f   libfreetypestat:smooth.obj
 0001:0001f500       _gray_split_conic          10020500 f   libfreetypestat:smooth.obj
 0001:0001f5e0       _gray_cubic_to             100205e0 f   libfreetypestat:smooth.obj
 0001:0001f610       _gray_render_cubic         10020610 f   libfreetypestat:smooth.obj
 0001:0001f990       _gray_split_cubic          10020990 f   libfreetypestat:smooth.obj
 0001:0001faf0       _gray_raster_render        10020af0 f   libfreetypestat:smooth.obj
 0001:0001fdc0       _gray_init_cells           10020dc0 f   libfreetypestat:smooth.obj
 0001:0001fe30       _gray_render_span          10020e30 f   libfreetypestat:smooth.obj
 0001:0001ffc0       _gray_convert_glyph        10020fc0 f   libfreetypestat:smooth.obj
 0001:00020540       _gray_compute_cbox         10021540 f   libfreetypestat:smooth.obj
 0001:000206b0       _gray_sweep                100216b0 f   libfreetypestat:smooth.obj
 0001:000208a0       _gray_hline                100218a0 f   libfreetypestat:smooth.obj
 0001:00020b60       _gray_convert_glyph_inner  10021b60 f   libfreetypestat:smooth.obj
 0001:00020bd0       _gray_raster_new           10021bd0 f   libfreetypestat:smooth.obj
 0001:00020c70       _gray_raster_done          10021c70 f   libfreetypestat:smooth.obj
 0001:00020cb0       _gray_raster_reset         10021cb0 f   libfreetypestat:smooth.obj
 0001:00020d50       _ft_smooth_init            10021d50 f   libfreetypestat:smooth.obj
 0001:00020db0       _ft_smooth_set_mode        10021db0 f   libfreetypestat:smooth.obj
 0001:00020df0       _ft_smooth_transform       10021df0 f   libfreetypestat:smooth.obj
 0001:00020e70       _ft_smooth_get_cbox        10021e70 f   libfreetypestat:smooth.obj
 0001:00020eb0       _ft_smooth_render          10021eb0 f   libfreetypestat:smooth.obj
 0001:00020ef0       _ft_smooth_render_generic  10021ef0 f   libfreetypestat:smooth.obj
 0001:000214a0       _ft_smooth_render_lcd      100224a0 f   libfreetypestat:smooth.obj
 0001:000214f0       _ft_smooth_render_lcd_v    100224f0 f   libfreetypestat:smooth.obj
 0001:00021540       _tt_face_goto_table        10022540 f   libfreetypestat:sfnt.obj
 0001:000215c0       _tt_face_lookup_table      100225c0 f   libfreetypestat:sfnt.obj
 0001:000216e0       _tt_face_load_font_dir     100226e0 f   libfreetypestat:sfnt.obj
 0001:00021a00       _check_table_dir           10022a00 f   libfreetypestat:sfnt.obj
 0001:00021d30       _tt_face_load_any          10022d30 f   libfreetypestat:sfnt.obj
 0001:00021df0       _tt_face_load_head         10022df0 f   libfreetypestat:sfnt.obj
 0001:00021e20       _tt_face_load_generic_header 10022e20 f   libfreetypestat:sfnt.obj
 0001:00021ef0       _tt_face_load_bhed         10022ef0 f   libfreetypestat:sfnt.obj
 0001:00021f20       _tt_face_load_maxp         10022f20 f   libfreetypestat:sfnt.obj
 0001:00022290       _tt_face_load_name         10023290 f   libfreetypestat:sfnt.obj
 0001:00022500       _tt_face_free_name         10023500 f   libfreetypestat:sfnt.obj
 0001:000225e0       _tt_face_load_cmap         100235e0 f   libfreetypestat:sfnt.obj
 0001:00022670       _tt_face_load_os2          10023670 f   libfreetypestat:sfnt.obj
 0001:00022d70       _tt_face_load_post         10023d70 f   libfreetypestat:sfnt.obj
 0001:00022e60       _tt_face_load_pclt         10023e60 f   libfreetypestat:sfnt.obj
 0001:00022ee0       _tt_face_load_gasp         10023ee0 f   libfreetypestat:sfnt.obj
 0001:00023110       _tt_face_load_hmtx         10024110 f   libfreetypestat:sfnt.obj
 0001:000234c0       _tt_face_load_hhea         100244c0 f   libfreetypestat:sfnt.obj
 0001:000237a0       _tt_face_get_metrics       100247a0 f   libfreetypestat:sfnt.obj
 0001:000238a0       _tt_cmap_init              100248a0 f   libfreetypestat:sfnt.obj
 0001:000238b0       _tt_cmap0_validate         100248b0 f   libfreetypestat:sfnt.obj
 0001:00023990       _tt_cmap0_char_index       10024990 f   libfreetypestat:sfnt.obj
 0001:000239e0       _tt_cmap0_char_next        100249e0 f   libfreetypestat:sfnt.obj
 0001:00023a60       _tt_cmap0_get_info         10024a60 f   libfreetypestat:sfnt.obj
 0001:00023ab0       _tt_cmap2_validate         10024ab0 f   libfreetypestat:sfnt.obj
 0001:00023d90       _tt_cmap2_char_index       10024d90 f   libfreetypestat:sfnt.obj
 0001:00023ee0       _tt_cmap2_get_subheader    10024ee0 f   libfreetypestat:sfnt.obj
 0001:00023fb0       _tt_cmap2_char_next        10024fb0 f   libfreetypestat:sfnt.obj
 0001:00024180       _tt_cmap2_get_info         10025180 f   libfreetypestat:sfnt.obj
 0001:000241d0       _tt_cmap4_init             100251d0 f   libfreetypestat:sfnt.obj
 0001:00024230       _tt_cmap4_validate         10025230 f   libfreetypestat:sfnt.obj
 0001:00024730       _tt_cmap4_char_index       10025730 f   libfreetypestat:sfnt.obj
 0001:00024780       _tt_cmap4_char_map_linear  10025780 f   libfreetypestat:sfnt.obj
 0001:000249e0       _tt_cmap4_char_map_binary  100259e0 f   libfreetypestat:sfnt.obj
 0001:00024ff0       _tt_cmap4_set_range        10025ff0 f   libfreetypestat:sfnt.obj
 0001:00025180       _tt_cmap4_next             10026180 f   libfreetypestat:sfnt.obj
 0001:00025300       _tt_cmap4_char_next        10026300 f   libfreetypestat:sfnt.obj
 0001:000253b0       _tt_cmap4_get_info         100263b0 f   libfreetypestat:sfnt.obj
 0001:00025400       _tt_cmap6_validate         10026400 f   libfreetypestat:sfnt.obj
 0001:00025520       _tt_cmap6_char_index       10026520 f   libfreetypestat:sfnt.obj
 0001:000255e0       _tt_cmap6_char_next        100265e0 f   libfreetypestat:sfnt.obj
 0001:00025700       _tt_cmap6_get_info         10026700 f   libfreetypestat:sfnt.obj
 0001:00025750       _tt_cmap8_validate         10026750 f   libfreetypestat:sfnt.obj
 0001:00025ab0       _tt_cmap8_char_index       10026ab0 f   libfreetypestat:sfnt.obj
 0001:00025c10       _tt_cmap8_char_next        10026c10 f   libfreetypestat:sfnt.obj
 0001:00025db0       _tt_cmap8_get_info         10026db0 f   libfreetypestat:sfnt.obj
 0001:00025e10       _tt_cmap10_validate        10026e10 f   libfreetypestat:sfnt.obj
 0001:00025f60       _tt_cmap10_char_index      10026f60 f   libfreetypestat:sfnt.obj
 0001:00026040       _tt_cmap10_char_next       10027040 f   libfreetypestat:sfnt.obj
 0001:00026170       _tt_cmap10_get_info        10027170 f   libfreetypestat:sfnt.obj
 0001:000261d0       _tt_cmap12_init            100271d0 f   libfreetypestat:sfnt.obj
 0001:00026220       _tt_cmap12_validate        10027220 f   libfreetypestat:sfnt.obj
 0001:00026450       _tt_cmap12_char_index      10027450 f   libfreetypestat:sfnt.obj
 0001:00026470       _tt_cmap12_char_map_binary 10027470 f   libfreetypestat:sfnt.obj
 0001:000266a0       _tt_cmap12_next            100276a0 f   libfreetypestat:sfnt.obj
 0001:00026820       _tt_cmap12_char_next       10027820 f   libfreetypestat:sfnt.obj
 0001:000268d0       _tt_cmap12_get_info        100278d0 f   libfreetypestat:sfnt.obj
 0001:00026930       _tt_cmap13_init            10027930 f   libfreetypestat:sfnt.obj
 0001:00026980       _tt_cmap13_validate        10027980 f   libfreetypestat:sfnt.obj
 0001:00026bb0       _tt_cmap13_char_index      10027bb0 f   libfreetypestat:sfnt.obj
 0001:00026bd0       _tt_cmap13_char_map_binary 10027bd0 f   libfreetypestat:sfnt.obj
 0001:00026df0       _tt_cmap13_next            10027df0 f   libfreetypestat:sfnt.obj
 0001:00026f60       _tt_cmap13_char_next       10027f60 f   libfreetypestat:sfnt.obj
 0001:00027010       _tt_cmap13_get_info        10028010 f   libfreetypestat:sfnt.obj
 0001:00027070       _tt_cmap14_done            10028070 f   libfreetypestat:sfnt.obj
 0001:000270d0       _tt_cmap14_init            100280d0 f   libfreetypestat:sfnt.obj
 0001:00027130       _tt_cmap14_validate        10028130 f   libfreetypestat:sfnt.obj
 0001:00027550       _tt_cmap14_char_index      10028550 f   libfreetypestat:sfnt.obj
 0001:00027570       _tt_cmap14_char_next       10028570 f   libfreetypestat:sfnt.obj
 0001:00027590       _tt_cmap14_get_info        10028590 f   libfreetypestat:sfnt.obj
 0001:000275b0       _tt_cmap14_char_var_index  100285b0 f   libfreetypestat:sfnt.obj
 0001:000276d0       _tt_cmap14_char_map_def_binary 100286d0 f   libfreetypestat:sfnt.obj
 0001:000277d0       _tt_cmap14_char_map_nondef_binary 100287d0 f   libfreetypestat:sfnt.obj
 0001:000278d0       _tt_cmap14_find_variant    100288d0 f   libfreetypestat:sfnt.obj
 0001:000279b0       _tt_cmap14_char_var_isdefault 100289b0 f   libfreetypestat:sfnt.obj
 0001:00027ac0       _tt_cmap14_variants        10028ac0 f   libfreetypestat:sfnt.obj
 0001:00027ba0       _tt_cmap14_ensure          10028ba0 f   libfreetypestat:sfnt.obj
 0001:00027c60       _tt_cmap14_char_variants   10028c60 f   libfreetypestat:sfnt.obj
 0001:00027df0       _tt_cmap14_variant_chars   10028df0 f   libfreetypestat:sfnt.obj
 0001:00028300       _tt_cmap14_def_char_count  10029300 f   libfreetypestat:sfnt.obj
 0001:00028390       _tt_cmap14_get_def_chars   10029390 f   libfreetypestat:sfnt.obj
 0001:000284c0       _tt_cmap14_get_nondef_chars 100294c0 f   libfreetypestat:sfnt.obj
 0001:000285b0       _tt_get_cmap_info          100295b0 f   libfreetypestat:sfnt.obj
 0001:00028600       _tt_face_load_kern         10029600 f   libfreetypestat:sfnt.obj
 0001:00028960       _tt_face_get_kerning       10029960 f   libfreetypestat:sfnt.obj
 0001:00028c80       _sfnt_init_face            10029c80 f   libfreetypestat:sfnt.obj
 0001:00028e20       _sfnt_open_font            10029e20 f   libfreetypestat:sfnt.obj
 0001:000290d0       _sfnt_load_face            1002a0d0 f   libfreetypestat:sfnt.obj
 0001:0002a7e0       _tt_face_build_cmaps       1002b7e0 f   libfreetypestat:sfnt.obj
 0001:0002ab40       _tt_face_get_name          1002bb40 f   libfreetypestat:sfnt.obj
 0001:0002aeb0       _tt_name_entry_ascii_from_utf16 1002beb0 f   libfreetypestat:sfnt.obj
 0001:0002afc0       _tt_name_entry_ascii_from_other 1002bfc0 f   libfreetypestat:sfnt.obj
 0001:0002b0c0       _sfnt_find_encoding        1002c0c0 f   libfreetypestat:sfnt.obj
 0001:0002b130       _sfnt_done_face            1002c130 f   libfreetypestat:sfnt.obj
 0001:0002b420       _tt_face_done_kern         1002c420 f   libfreetypestat:sfnt.obj
 0001:0002b490       _get_sfnt_table            1002c490 f   libfreetypestat:sfnt.obj
 0001:0002b5b0       _sfnt_table_info           1002c5b0 f   libfreetypestat:sfnt.obj
 0001:0002b640       _sfnt_get_glyph_name       1002c640 f   libfreetypestat:sfnt.obj
 0001:0002b6d0       _sfnt_get_name_index       1002c6d0 f   libfreetypestat:sfnt.obj
 0001:0002b7e0       _sfnt_get_ps_name          1002c7e0 f   libfreetypestat:sfnt.obj
 0001:0002bbb0       _sfnt_get_charset_id       1002cbb0 f   libfreetypestat:sfnt.obj
 0001:0002bc90       _sfnt_get_interface        1002cc90 f   libfreetypestat:sfnt.obj
 0001:0002bcc0       _tt_face_load_sfnt_header_stub 1002ccc0 f   libfreetypestat:sfnt.obj
 0001:0002bcf0       _tt_face_load_directory_stub 1002ccf0 f   libfreetypestat:sfnt.obj
 0001:0002bd10       _tt_face_load_hdmx_stub    1002cd10 f   libfreetypestat:sfnt.obj
 0001:0002bd30       _tt_face_free_hdmx_stub    1002cd30 f   libfreetypestat:sfnt.obj
 0001:0002bd40       _tt_face_set_sbit_strike_stub 1002cd40 f   libfreetypestat:sfnt.obj
 0001:0002bde0       _tt_face_load_sbit_stub    1002cde0 f   libfreetypestat:sfnt.obj
 0001:0002be00       _tt_face_free_sbit_stub    1002ce00 f   libfreetypestat:sfnt.obj
 0001:0002be10       _tt_face_load_charmap_stub 1002ce10 f   libfreetypestat:sfnt.obj
 0001:0002be30       _tt_face_free_charmap_stub 1002ce30 f   libfreetypestat:sfnt.obj
 0001:0002be50       _tt_face_load_eblc         1002ce50 f   libfreetypestat:sfnt.obj
 0001:0002c2b0       _Load_SBit_Range           1002d2b0 f   libfreetypestat:sfnt.obj
 0001:0002c4d0       _Load_SBit_Const_Metrics   1002d4d0 f   libfreetypestat:sfnt.obj
 0001:0002c570       _Load_SBit_Range_Codes     1002d570 f   libfreetypestat:sfnt.obj
 0001:0002c6f0       _tt_face_free_eblc         1002d6f0 f   libfreetypestat:sfnt.obj
 0001:0002c840       _tt_face_set_sbit_strike   1002d840 f   libfreetypestat:sfnt.obj
 0001:0002c870       _tt_face_load_strike_metrics 1002d870 f   libfreetypestat:sfnt.obj
 0001:0002c920       _tt_find_sbit_image        1002d920 f   libfreetypestat:sfnt.obj
 0001:0002c9c0       _find_sbit_range           1002d9c0 f   libfreetypestat:sfnt.obj
 0001:0002cb60       _tt_load_sbit_metrics      1002db60 f   libfreetypestat:sfnt.obj
 0001:0002ccd0       _tt_face_load_sbit_image   1002dcd0 f   libfreetypestat:sfnt.obj
 0001:0002ceb0       _crop_bitmap               1002deb0 f   libfreetypestat:sfnt.obj
 0001:0002d220       _Load_SBit_Image           1002e220 f   libfreetypestat:sfnt.obj
 0001:0002d660       _Load_SBit_Single          1002e660 f   libfreetypestat:sfnt.obj
 0001:0002d810       _blit_sbit                 1002e810 f   libfreetypestat:sfnt.obj
 0001:0002da80       _tt_face_free_ps_names     1002ea80 f   libfreetypestat:sfnt.obj
 0001:0002dbe0       _tt_face_get_ps_name       1002ebe0 f   libfreetypestat:sfnt.obj
 0001:0002ddd0       _load_post_names           1002edd0 f   libfreetypestat:sfnt.obj
 0001:0002df00       _load_format_20            1002ef00 f   libfreetypestat:sfnt.obj
 0001:0002e350       _load_format_25            1002f350 f   libfreetypestat:sfnt.obj
 0001:0002e4d0       _tt_face_free_bdf_props    1002f4d0 f   libfreetypestat:sfnt.obj
 0001:0002e550       _tt_face_find_bdf_prop     1002f550 f   libfreetypestat:sfnt.obj
 0001:0002e840       _tt_face_load_bdf_props    1002f840 f   libfreetypestat:sfnt.obj
 0001:0002ea80       _ft_black_new              1002fa80 f   libfreetypestat:raster.obj
 0001:0002eb20       _ft_black_init             1002fb20 f   libfreetypestat:raster.obj
 0001:0002eb30       _ft_black_done             1002fb30 f   libfreetypestat:raster.obj
 0001:0002eb70       _ft_black_reset            1002fb70 f   libfreetypestat:raster.obj
 0001:0002ebf0       _ft_black_set_mode         1002fbf0 f   libfreetypestat:raster.obj
 0001:0002ec10       _ft_black_render           1002fc10 f   libfreetypestat:raster.obj
 0001:0002ede0       _Render_Glyph              1002fde0 f   libfreetypestat:raster.obj
 0001:0002efe0       _Set_High_Precision        1002ffe0 f   libfreetypestat:raster.obj
 0001:0002f0a0       _Vertical_Sweep_Init       100300a0 f   libfreetypestat:raster.obj
 0001:0002f120       _Vertical_Sweep_Span       10030120 f   libfreetypestat:raster.obj
 0001:0002f2f0       _Vertical_Sweep_Drop       100302f0 f   libfreetypestat:raster.obj
 0001:0002f5e0       _Vertical_Sweep_Step       100305e0 f   libfreetypestat:raster.obj
 0001:0002f610       _Horizontal_Sweep_Init     10030610 f   libfreetypestat:raster.obj
 0001:0002f630       _Horizontal_Sweep_Span     10030630 f   libfreetypestat:raster.obj
 0001:0002f730       _Horizontal_Sweep_Drop     10030730 f   libfreetypestat:raster.obj
 0001:0002fa00       _Horizontal_Sweep_Step     10030a00 f   libfreetypestat:raster.obj
 0001:0002fa10       _Render_Single_Pass        10030a10 f   libfreetypestat:raster.obj
 0001:0002fc00       _Convert_Glyph             10030c00 f   libfreetypestat:raster.obj
 0001:0002fe30       _End_Profile               10030e30 f   libfreetypestat:raster.obj
 0001:0002ffb0       _Finalize_Profile_Table    10030fb0 f   libfreetypestat:raster.obj
 0001:00030100       _Insert_Y_Turn             10031100 f   libfreetypestat:raster.obj
 0001:00030200       _Decompose_Curve           10031200 f   libfreetypestat:raster.obj
 0001:00030860       _Line_To                   10031860 f   libfreetypestat:raster.obj
 0001:00030b20       _New_Profile               10031b20 f   libfreetypestat:raster.obj
 0001:00030ce0       _Line_Up                   10031ce0 f   libfreetypestat:raster.obj
 0001:00030f60       _Line_Down                 10031f60 f   libfreetypestat:raster.obj
 0001:00030fe0       _Conic_To                  10031fe0 f   libfreetypestat:raster.obj
 0001:00031260       _Split_Conic               10032260 f   libfreetypestat:raster.obj
 0001:00031340       _Bezier_Up                 10032340 f   libfreetypestat:raster.obj
 0001:000315f0       _Bezier_Down               100325f0 f   libfreetypestat:raster.obj
 0001:000316c0       _Cubic_To                  100326c0 f   libfreetypestat:raster.obj
 0001:00031970       _Split_Cubic               10032970 f   libfreetypestat:raster.obj
 0001:00031ae0       _Draw_Sweep                10032ae0 f   libfreetypestat:raster.obj
 0001:00032070       _Init_Linked               10033070 f   libfreetypestat:raster.obj
 0001:00032080       _InsNew                    10033080 f   libfreetypestat:raster.obj
 0001:000320f0       _DelOld                    100330f0 f   libfreetypestat:raster.obj
 0001:00032150       _Sort                      10033150 f   libfreetypestat:raster.obj
 0001:00032250       _Render_Gray_Glyph         10033250 f   libfreetypestat:raster.obj
 0001:00032260       _ft_raster1_init           10033260 f   libfreetypestat:raster.obj
 0001:000322c0       _ft_raster1_set_mode       100332c0 f   libfreetypestat:raster.obj
 0001:00032300       _ft_raster1_transform      10033300 f   libfreetypestat:raster.obj
 0001:00032380       _ft_raster1_get_cbox       10033380 f   libfreetypestat:raster.obj
 0001:000323c0       _ft_raster1_render         100333c0 f   libfreetypestat:raster.obj
 0001:00032a60       _FT_MulFix_i386            10033a60 f   libfreetypestat:pshinter.obj
 0001:00032aa0       _psh_globals_set_scale     10033aa0 f   libfreetypestat:pshinter.obj
 0001:00032b80       _psh_globals_scale_widths  10033b80 f   libfreetypestat:pshinter.obj
 0001:00032cb0       _psh_blues_scale_zones     10033cb0 f   libfreetypestat:pshinter.obj
 0001:00032fa0       _psh_hint_table_align_hints 10033fa0 f   libfreetypestat:pshinter.obj
 0001:00033010       _psh_hint_align            10034010 f   libfreetypestat:pshinter.obj
 0001:00033450       _psh_blues_snap_stem       10034450 f   libfreetypestat:pshinter.obj
 0001:000335c0       _psh_dimension_quantize_len 100345c0 f   libfreetypestat:pshinter.obj
 0001:00033690       _psh_hint_snap_stem_side_delta 10034690 f   libfreetypestat:pshinter.obj
 0001:00033710       _psh_glyph_done            10034710 f   libfreetypestat:pshinter.obj
 0001:000337c0       _psh_hint_table_done       100347c0 f   libfreetypestat:pshinter.obj
 0001:00033860       _psh_glyph_load_points     10034860 f   libfreetypestat:pshinter.obj
 0001:00033910       _psh_glyph_save_points     10034910 f   libfreetypestat:pshinter.obj
 0001:000339d0       _psh_glyph_init            100349d0 f   libfreetypestat:pshinter.obj
 0001:00033dc0       _psh_hint_table_init       10034dc0 f   libfreetypestat:pshinter.obj
 0001:00033ff0       _psh_hint_table_record     10034ff0 f   libfreetypestat:pshinter.obj
 0001:00034120       _psh_hint_overlap          10035120 f   libfreetypestat:pshinter.obj
 0001:00034170       _psh_hint_table_record_mask 10035170 f   libfreetypestat:pshinter.obj
 0001:00034220       _psh_glyph_compute_inflections 10035220 f   libfreetypestat:pshinter.obj
 0001:00034430       _psh_compute_dir           10035430 f   libfreetypestat:pshinter.obj
 0001:000344d0       _psh_glyph_compute_extrema 100354d0 f   libfreetypestat:pshinter.obj
 0001:00034700       _psh_glyph_find_strong_points 10035700 f   libfreetypestat:pshinter.obj
 0001:00034920       _psh_hint_table_activate_mask 10035920 f   libfreetypestat:pshinter.obj
 0001:00034ad0       _psh_hint_table_deactivate 10035ad0 f   libfreetypestat:pshinter.obj
 0001:00034b30       _psh_hint_table_find_strong_points 10035b30 f   libfreetypestat:pshinter.obj
 0001:00034e90       _psh_glyph_find_blue_points 10035e90 f   libfreetypestat:pshinter.obj
 0001:000350a0       _psh_glyph_interpolate_strong_points 100360a0 f   libfreetypestat:pshinter.obj
 0001:00035220       _psh_glyph_interpolate_normal_points 10036220 f   libfreetypestat:pshinter.obj
 0001:00035630       _psh_glyph_interpolate_other_points 10036630 f   libfreetypestat:pshinter.obj
 0001:00035910       _ps_hinter_done            10036910 f   libfreetypestat:pshinter.obj
 0001:00035950       _ps_hints_done             10036950 f   libfreetypestat:pshinter.obj
 0001:000359b0       _ps_dimension_done         100369b0 f   libfreetypestat:pshinter.obj
 0001:00035a00       _ps_hint_table_done        10036a00 f   libfreetypestat:pshinter.obj
 0001:00035a40       _ps_mask_table_done        10036a40 f   libfreetypestat:pshinter.obj
 0001:00035ae0       _ps_mask_done              10036ae0 f   libfreetypestat:pshinter.obj
 0001:00035b30       _ps_hinter_init            10036b30 f   libfreetypestat:pshinter.obj
 0001:00035bc0       _ps_hints_init             10036bc0 f   libfreetypestat:pshinter.obj
 0001:00035bf0       _t1_hints_funcs_init       10036bf0 f   libfreetypestat:pshinter.obj
 0001:00035c50       _ps_hints_t1stem3          10036c50 f   libfreetypestat:pshinter.obj
 0001:00035de0       _ps_dimension_add_t1stem   10036de0 f   libfreetypestat:pshinter.obj
 0001:00035f70       _ps_hint_table_alloc       10036f70 f   libfreetypestat:pshinter.obj
 0001:00036030       _ps_hint_table_ensure      10037030 f   libfreetypestat:pshinter.obj
 0001:000360f0       _ps_mask_set_bit           100370f0 f   libfreetypestat:pshinter.obj
 0001:00036190       _ps_mask_ensure            10037190 f   libfreetypestat:pshinter.obj
 0001:00036260       _ps_mask_table_last        10037260 f   libfreetypestat:pshinter.obj
 0001:00036310       _ps_mask_table_alloc       10037310 f   libfreetypestat:pshinter.obj
 0001:000363c0       _ps_mask_table_ensure      100373c0 f   libfreetypestat:pshinter.obj
 0001:00036480       _ps_dimension_add_counter  10037480 f   libfreetypestat:pshinter.obj
 0001:000365d0       _ps_mask_test_bit          100375d0 f   libfreetypestat:pshinter.obj
 0001:00036610       _ps_hints_t1reset          10037610 f   libfreetypestat:pshinter.obj
 0001:000366b0       _ps_dimension_reset_mask   100376b0 f   libfreetypestat:pshinter.obj
 0001:00036730       _ps_dimension_end_mask     10037730 f   libfreetypestat:pshinter.obj
 0001:00036780       _ps_hints_close            10037780 f   libfreetypestat:pshinter.obj
 0001:00036810       _ps_dimension_end          10037810 f   libfreetypestat:pshinter.obj
 0001:00036840       _ps_mask_table_merge_all   10037840 f   libfreetypestat:pshinter.obj
 0001:000368f0       _ps_mask_table_test_intersect 100378f0 f   libfreetypestat:pshinter.obj
 0001:000369e0       _ps_mask_table_merge       100379e0 f   libfreetypestat:pshinter.obj
 0001:00036c10       _ps_mask_clear_bit         10037c10 f   libfreetypestat:pshinter.obj
 0001:00036c60       _t1_hints_open             10037c60 f   libfreetypestat:pshinter.obj
 0001:00036c80       _ps_hints_open             10037c80 f   libfreetypestat:pshinter.obj
 0001:00036d10       _ps_dimension_init         10037d10 f   libfreetypestat:pshinter.obj
 0001:00036d40       _t1_hints_stem             10037d40 f   libfreetypestat:pshinter.obj
 0001:00036de0       _ps_hints_stem             10037de0 f   libfreetypestat:pshinter.obj
 0001:00036f10       _t2_hints_funcs_init       10037f10 f   libfreetypestat:pshinter.obj
 0001:00036f70       _ps_hints_t2mask           10037f70 f   libfreetypestat:pshinter.obj
 0001:00037060       _ps_dimension_set_mask_bits 10038060 f   libfreetypestat:pshinter.obj
 0001:000370d0       _ps_mask_table_set_bits    100380d0 f   libfreetypestat:pshinter.obj
 0001:00037230       _ps_hints_t2counter        10038230 f   libfreetypestat:pshinter.obj
 0001:00037320       _t2_hints_open             10038320 f   libfreetypestat:pshinter.obj
 0001:00037340       _t2_hints_stems            10038340 f   libfreetypestat:pshinter.obj
 0001:000374b0       _psh_globals_funcs_init    100384b0 f   libfreetypestat:pshinter.obj
 0001:000374e0       _psh_globals_destroy       100384e0 f   libfreetypestat:pshinter.obj
 0001:00037570       _psh_globals_new           10038570 f   libfreetypestat:pshinter.obj
 0001:000377d0       _psh_blues_set_zones       100387d0 f   libfreetypestat:pshinter.obj
 0001:00037a60       _psh_blues_set_zones_0     10038a60 f   libfreetypestat:pshinter.obj
 0001:00037c00       _pshinter_get_globals_funcs 10038c00 f   libfreetypestat:pshinter.obj
 0001:00037c10       _pshinter_get_t1_funcs     10038c10 f   libfreetypestat:pshinter.obj
 0001:00037c20       _pshinter_get_t2_funcs     10038c20 f   libfreetypestat:pshinter.obj
 0001:00037c30       _ps_unicode_value          10038c30 f   libfreetypestat:psmodule.obj
 0001:00037e60       _ft_get_adobe_glyph_index  10038e60 f   libfreetypestat:psmodule.obj
 0001:00038060       _ps_unicodes_init          10039060 f   libfreetypestat:psmodule.obj
 0001:00038330       _compare_uni_maps          10039330 f   libfreetypestat:psmodule.obj
 0001:000383d0       _ps_check_extra_glyph_name 100393d0 f   libfreetypestat:psmodule.obj
 0001:00038450       _ps_check_extra_glyph_unicode 10039450 f   libfreetypestat:psmodule.obj
 0001:000384a0       _ps_unicodes_char_index    100394a0 f   libfreetypestat:psmodule.obj
 0001:00038570       _ps_unicodes_char_next     10039570 f   libfreetypestat:psmodule.obj
 0001:00038680       _ps_get_macintosh_name     10039680 f   libfreetypestat:psmodule.obj
 0001:000386b0       _ps_get_standard_strings   100396b0 f   libfreetypestat:psmodule.obj
 0001:000386e0       _psnames_get_service       100396e0 f   libfreetypestat:psmodule.obj
 0001:00038710       _ps_table_new              10039710 f   libfreetypestat:psaux.obj
 0001:00038850       _ps_table_add              10039850 f   libfreetypestat:psaux.obj
 0001:000389b0       _reallocate_t1_table       100399b0 f   libfreetypestat:psaux.obj
 0001:00038aa0       _shift_elements            10039aa0 f   libfreetypestat:psaux.obj
 0001:00038b10       _ps_table_done             10039b10 f   libfreetypestat:psaux.obj
 0001:00038c00       _ps_table_release          10039c00 f   libfreetypestat:psaux.obj
 0001:00038ca0       _ps_parser_skip_PS_token   10039ca0 f   libfreetypestat:psaux.obj
 0001:00038f60       _skip_spaces               10039f60 f   libfreetypestat:psaux.obj
 0001:00039040       _skip_comment              1003a040 f   libfreetypestat:psaux.obj
 0001:00039090       _skip_literal_string       1003a090 f   libfreetypestat:psaux.obj
 0001:00039210       _skip_string               1003a210 f   libfreetypestat:psaux.obj
 0001:00039320       _skip_procedure            1003a320 f   libfreetypestat:psaux.obj
 0001:000394f0       _ps_parser_skip_spaces     1003a4f0 f   libfreetypestat:psaux.obj
 0001:00039510       _ps_parser_to_token        1003a510 f   libfreetypestat:psaux.obj
 0001:00039760       _ps_parser_to_token_array  1003a760 f   libfreetypestat:psaux.obj
 0001:000398a0       _ps_parser_load_field      1003a8a0 f   libfreetypestat:psaux.obj
 0001:00039d10       _ps_tofixedarray           1003ad10 f   libfreetypestat:psaux.obj
 0001:00039e90       _ps_tobool                 1003ae90 f   libfreetypestat:psaux.obj
 0001:00039f60       _ps_parser_load_field_table 1003af60 f   libfreetypestat:psaux.obj
 0001:0003a160       _ps_parser_to_int          1003b160 f   libfreetypestat:psaux.obj
 0001:0003a190       _ps_parser_to_bytes        1003b190 f   libfreetypestat:psaux.obj
 0001:0003a2b0       _ps_parser_to_fixed        1003b2b0 f   libfreetypestat:psaux.obj
 0001:0003a2e0       _ps_parser_to_coord_array  1003b2e0 f   libfreetypestat:psaux.obj
 0001:0003a320       _ps_tocoordarray           1003b320 f   libfreetypestat:psaux.obj
 0001:0003a4a0       _ps_parser_to_fixed_array  1003b4a0 f   libfreetypestat:psaux.obj
 0001:0003a4e0       _ps_parser_init            1003b4e0 f   libfreetypestat:psaux.obj
 0001:0003a530       _ps_parser_done            1003b530 f   libfreetypestat:psaux.obj
 0001:0003a540       _t1_builder_init           1003b540 f   libfreetypestat:psaux.obj
 0001:0003a650       _t1_builder_done           1003b650 f   libfreetypestat:psaux.obj
 0001:0003a6a0       _t1_builder_check_points   1003b6a0 f   libfreetypestat:psaux.obj
 0001:0003a710       _t1_builder_add_point      1003b710 f   libfreetypestat:psaux.obj
 0001:0003a7c0       _t1_builder_add_point1     1003b7c0 f   libfreetypestat:psaux.obj
 0001:0003a810       _t1_builder_add_contour    1003b810 f   libfreetypestat:psaux.obj
 0001:0003a920       _t1_builder_start_point    1003b920 f   libfreetypestat:psaux.obj
 0001:0003a990       _t1_builder_close_contour  1003b990 f   libfreetypestat:psaux.obj
 0001:0003aad0       _t1_decrypt                1003bad0 f   libfreetypestat:psaux.obj
 0001:0003ab00       _t1_decoder_parse_charstrings 1003bb00 f   libfreetypestat:psaux.obj
 0001:0003c7b0       _FT_MulFix_i386            1003d7b0 f   libfreetypestat:psaux.obj
 0001:0003c7f0       _t1operator_seac           1003d7f0 f   libfreetypestat:psaux.obj
 0001:0003cb10       _t1_lookup_glyph_by_stdcharcode 1003db10 f   libfreetypestat:psaux.obj
 0001:0003cbf0       _t1_decoder_parse_glyph    1003dbf0 f   libfreetypestat:psaux.obj
 0001:0003cc20       _t1_decoder_init           1003dc20 f   libfreetypestat:psaux.obj
 0001:0003cd40       _t1_decoder_done           1003dd40 f   libfreetypestat:psaux.obj
 0001:0003cd60       _t1_cmap_std_done          1003dd60 f   libfreetypestat:psaux.obj
 0001:0003cd90       _t1_cmap_std_char_index    1003dd90 f   libfreetypestat:psaux.obj
 0001:0003ce60       _t1_cmap_std_char_next     1003de60 f   libfreetypestat:psaux.obj
 0001:0003cee0       _t1_cmap_standard_init     1003dee0 f   libfreetypestat:psaux.obj
 0001:0003cf00       _t1_cmap_std_init          1003df00 f   libfreetypestat:psaux.obj
 0001:0003cfb0       _t1_cmap_expert_init       1003dfb0 f   libfreetypestat:psaux.obj
 0001:0003cfd0       _t1_cmap_custom_init       1003dfd0 f   libfreetypestat:psaux.obj
 0001:0003d080       _t1_cmap_custom_done       1003e080 f   libfreetypestat:psaux.obj
 0001:0003d0b0       _t1_cmap_custom_char_index 1003e0b0 f   libfreetypestat:psaux.obj
 0001:0003d100       _t1_cmap_custom_char_next  1003e100 f   libfreetypestat:psaux.obj
 0001:0003d190       _t1_cmap_unicode_init      1003e190 f   libfreetypestat:psaux.obj
 0001:0003d210       _t1_get_glyph_name         1003e210 f   libfreetypestat:psaux.obj
 0001:0003d230       _t1_cmap_unicode_done      1003e230 f   libfreetypestat:psaux.obj
 0001:0003d290       _t1_cmap_unicode_char_index 1003e290 f   libfreetypestat:psaux.obj
 0001:0003d2f0       _t1_cmap_unicode_char_next 1003e2f0 f   libfreetypestat:psaux.obj
 0001:0003d350       _afm_parser_init           1003e350 f   libfreetypestat:psaux.obj
 0001:0003d420       _afm_parser_done           1003e420 f   libfreetypestat:psaux.obj
 0001:0003d470       _afm_parser_parse          1003e470 f   libfreetypestat:psaux.obj
 0001:0003d800       _afm_parser_read_vals      1003e800 f   libfreetypestat:psaux.obj
 0001:0003da20       _afm_stream_read_one       1003ea20 f   libfreetypestat:psaux.obj
 0001:0003db10       _afm_stream_skip_spaces    1003eb10 f   libfreetypestat:psaux.obj
 0001:0003dbe0       _afm_stream_read_string    1003ebe0 f   libfreetypestat:psaux.obj
 0001:0003dcb0       _afm_parser_next_key       1003ecb0 f   libfreetypestat:psaux.obj
 0001:0003ddd0       _afm_tokenize              1003edd0 f   libfreetypestat:psaux.obj
 0001:0003de80       _afm_parser_read_int       1003ee80 f   libfreetypestat:psaux.obj
 0001:0003df00       _afm_parse_kern_data       1003ef00 f   libfreetypestat:psaux.obj
 0001:0003e040       _afm_parse_track_kern      1003f040 f   libfreetypestat:psaux.obj
 0001:0003e2a0       _afm_parse_kern_pairs      1003f2a0 f   libfreetypestat:psaux.obj
 0001:0003e530       _afm_compare_kern_pairs    1003f530 f   libfreetypestat:psaux.obj
 0001:0003e5a0       _afm_parser_skip_section   1003f5a0 f   libfreetypestat:psaux.obj
 0001:0003e680       _PS_Conv_ToInt             1003f680 f   libfreetypestat:psaux.obj
 0001:0003e700       _PS_Conv_Strtol            1003f700 f   libfreetypestat:psaux.obj
 0001:0003e850       _PS_Conv_ToFixed           1003f850 f   libfreetypestat:psaux.obj
 0001:0003eb00       _PS_Conv_ASCIIHexDecode    1003fb00 f   libfreetypestat:psaux.obj
 0001:0003ec30       _PS_Conv_EexecDecode       1003fc30 f   libfreetypestat:psaux.obj
 0001:0003ecf0       _pcf_cmap_init             1003fcf0 f   libfreetypestat:pcf.obj
 0001:0003ed40       _pcf_cmap_done             1003fd40 f   libfreetypestat:pcf.obj
 0001:0003ed70       _pcf_cmap_char_index       1003fd70 f   libfreetypestat:pcf.obj
 0001:0003ee20       _pcf_cmap_char_next        1003fe20 f   libfreetypestat:pcf.obj
 0001:0003ef40       _PCF_Face_Done             1003ff40 f   libfreetypestat:pcf.obj
 0001:0003f1b0       _PCF_Face_Init             100401b0 f   libfreetypestat:pcf.obj
 0001:0003f460       _pcf_load_font             10040460 f   libfreetypestat:pcf.obj
 0001:0003f920       _pcf_read_TOC              10040920 f   libfreetypestat:pcf.obj
 0001:0003fd40       _pcf_has_table_type        10040d40 f   libfreetypestat:pcf.obj
 0001:0003fd90       _pcf_find_property         10040d90 f   libfreetypestat:pcf.obj
 0001:0003fe30       _pcf_get_properties        10040e30 f   libfreetypestat:pcf.obj
 0001:000403c0       _pcf_seek_to_table_type    100413c0 f   libfreetypestat:pcf.obj
 0001:000404b0       _pcf_get_metrics           100414b0 f   libfreetypestat:pcf.obj
 0001:00040830       _pcf_get_metric            10041830 f   libfreetypestat:pcf.obj
 0001:00040960       _pcf_get_bitmaps           10041960 f   libfreetypestat:pcf.obj
 0001:00040d80       _pcf_get_encodings         10041d80 f   libfreetypestat:pcf.obj
 0001:000411f0       _pcf_get_accel             100421f0 f   libfreetypestat:pcf.obj
 0001:00041450       _pcf_interpret_style       10042450 f   libfreetypestat:pcf.obj
 0001:00041820       _PCF_Size_Select           10042820 f   libfreetypestat:pcf.obj
 0001:00041890       _PCF_Size_Request          10042890 f   libfreetypestat:pcf.obj
 0001:00041990       _PCF_Glyph_Load            10042990 f   libfreetypestat:pcf.obj
 0001:00041d60       _BitOrderInvert            10042d60 f   libfreetypestat:pcf.obj
 0001:00041df0       _TwoByteSwap               10042df0 f   libfreetypestat:pcf.obj
 0001:00041e40       _FourByteSwap              10042e40 f   libfreetypestat:pcf.obj
 0001:00041eb0       _pcf_get_bdf_property      10042eb0 f   libfreetypestat:pcf.obj
 0001:00041f80       _pcf_get_charset_id        10042f80 f   libfreetypestat:pcf.obj
 0001:00041fb0       _pcf_driver_requester      10042fb0 f   libfreetypestat:pcf.obj
 0001:00041fe0       _fnt_cmap_init             10042fe0 f   libfreetypestat:winfnt.obj
 0001:00042040       _fnt_cmap_char_index       10043040 f   libfreetypestat:winfnt.obj
 0001:00042080       _fnt_cmap_char_next        10043080 f   libfreetypestat:winfnt.obj
 0001:00042110       _FNT_Face_Done             10043110 f   libfreetypestat:winfnt.obj
 0001:00042180       _fnt_font_done             10043180 f   libfreetypestat:winfnt.obj
 0001:00042240       _FNT_Face_Init             10043240 f   libfreetypestat:winfnt.obj
 0001:00042740       _fnt_font_load             10043740 f   libfreetypestat:winfnt.obj
 0001:00042900       _fnt_face_get_dll_font     10043900 f   libfreetypestat:winfnt.obj
 0001:00043450       _FNT_Size_Select           10044450 f   libfreetypestat:winfnt.obj
 0001:000434e0       _FNT_Size_Request          100444e0 f   libfreetypestat:winfnt.obj
 0001:000435e0       _FNT_Load_Glyph            100445e0 f   libfreetypestat:winfnt.obj
 0001:00043950       _winfnt_get_header         10044950 f   libfreetypestat:winfnt.obj
 0001:00043990       _winfnt_get_service        10044990 f   libfreetypestat:winfnt.obj
 0001:000439c0       _T42_Face_Init             100449c0 f   libfreetypestat:type42.obj
 0001:00043f40       _T42_Open_Face             10044f40 f   libfreetypestat:type42.obj
 0001:00044350       _T42_Face_Done             10045350 f   libfreetypestat:type42.obj
 0001:00044610       _T42_Driver_Init           10045610 f   libfreetypestat:type42.obj
 0001:00044650       _T42_Driver_Done           10045650 f   libfreetypestat:type42.obj
 0001:00044660       _T42_Size_Init             10045660 f   libfreetypestat:type42.obj
 0001:00044700       _T42_Size_Request          10045700 f   libfreetypestat:type42.obj
 0001:00044780       _T42_Size_Select           10045780 f   libfreetypestat:type42.obj
 0001:00044800       _T42_Size_Done             10045800 f   libfreetypestat:type42.obj
 0001:00044880       _T42_GlyphSlot_Init        10045880 f   libfreetypestat:type42.obj
 0001:00044940       _T42_GlyphSlot_Done        10045940 f   libfreetypestat:type42.obj
 0001:00044960       _T42_GlyphSlot_Load        10045960 f   libfreetypestat:type42.obj
 0001:00044b30       _t42_glyphslot_clear       10045b30 f   libfreetypestat:type42.obj
 0001:00044c00       _t42_parser_init           10045c00 f   libfreetypestat:type42.obj
 0001:00044e40       _t42_parse_font_matrix     10045e40 f   libfreetypestat:type42.obj
 0001:00044fc0       _t42_parse_encoding        10045fc0 f   libfreetypestat:type42.obj
 0001:00045500       _t42_is_space              10046500 f   libfreetypestat:type42.obj
 0001:00045560       _t42_parse_sfnts           10046560 f   libfreetypestat:type42.obj
 0001:00045b30       _t42_parse_charstrings     10046b30 f   libfreetypestat:type42.obj
 0001:00046260       _t42_parse_dict            10047260 f   libfreetypestat:type42.obj
 0001:000465e0       _t42_load_keyword          100475e0 f   libfreetypestat:type42.obj
 0001:00046740       _t42_loader_init           10047740 f   libfreetypestat:type42.obj
 0001:000467a0       _t42_loader_done           100477a0 f   libfreetypestat:type42.obj
 0001:00046890       _t42_parser_done           10047890 f   libfreetypestat:type42.obj
 0001:00046900       _t42_get_glyph_name        10047900 f   libfreetypestat:type42.obj
 0001:00046930       _t42_get_name_index        10047930 f   libfreetypestat:type42.obj
 0001:000469d0       _t42_get_ps_font_name      100479d0 f   libfreetypestat:type42.obj
 0001:000469e0       _t42_ps_get_font_info      100479e0 f   libfreetypestat:type42.obj
 0001:00046a00       _t42_ps_get_font_extra     10047a00 f   libfreetypestat:type42.obj
 0001:00046a20       _t42_ps_has_glyph_names    10047a20 f   libfreetypestat:type42.obj
 0001:00046a30       _t42_ps_get_font_private   10047a30 f   libfreetypestat:type42.obj
 0001:00046a50       _T42_Get_Interface         10047a50 f   libfreetypestat:type42.obj
 0001:00046a80       _pfr_extra_item_load_bitmap_info 10047a80 f   libfreetypestat:pfr.obj
 0001:00046e10       _pfr_extra_item_load_font_id 10047e10 f   libfreetypestat:pfr.obj
 0001:00046ee0       _pfr_extra_item_load_stem_snaps 10047ee0 f   libfreetypestat:pfr.obj
 0001:00047060       _pfr_extra_item_load_kerning_pairs 10048060 f   libfreetypestat:pfr.obj
 0001:000473f0       _pfr_cmap_init             100483f0 f   libfreetypestat:pfr.obj
 0001:00047490       _pfr_cmap_done             10048490 f   libfreetypestat:pfr.obj
 0001:000474b0       _pfr_cmap_char_index       100484b0 f   libfreetypestat:pfr.obj
 0001:00047540       _pfr_cmap_char_next        10048540 f   libfreetypestat:pfr.obj
 0001:00047640       _pfr_face_done             10048640 f   libfreetypestat:pfr.obj
 0001:000476d0       _pfr_phy_font_done         100486d0 f   libfreetypestat:pfr.obj
 0001:000478a0       _pfr_face_init             100488a0 f   libfreetypestat:pfr.obj
 0001:00047e40       _pfr_header_load           10048e40 f   libfreetypestat:pfr.obj
 0001:00047eb0       _pfr_header_check          10048eb0 f   libfreetypestat:pfr.obj
 0001:00047f00       _pfr_log_font_count        10048f00 f   libfreetypestat:pfr.obj
 0001:00047fb0       _pfr_log_font_load         10048fb0 f   libfreetypestat:pfr.obj
 0001:00048420       _pfr_extra_items_skip      10049420 f   libfreetypestat:pfr.obj
 0001:00048440       _pfr_extra_items_parse     10049440 f   libfreetypestat:pfr.obj
 0001:000485a0       _pfr_phy_font_load         100495a0 f   libfreetypestat:pfr.obj
 0001:00048e10       _pfr_aux_name_load         10049e10 f   libfreetypestat:pfr.obj
 0001:00048f30       _pfr_slot_init             10049f30 f   libfreetypestat:pfr.obj
 0001:00048f80       _pfr_glyph_init            10049f80 f   libfreetypestat:pfr.obj
 0001:00048fc0       _pfr_slot_done             10049fc0 f   libfreetypestat:pfr.obj
 0001:00049000       _pfr_glyph_done            1004a000 f   libfreetypestat:pfr.obj
 0001:000490a0       _pfr_slot_load             1004a0a0 f   libfreetypestat:pfr.obj
 0001:00049410       _FT_MulFix_i386            1004a410 f   libfreetypestat:pfr.obj
 0001:00049450       _pfr_glyph_load            1004a450 f   libfreetypestat:pfr.obj
 0001:000494a0       _pfr_glyph_load_rec        1004a4a0 f   libfreetypestat:pfr.obj
 0001:000497b0       _pfr_glyph_load_simple     1004a7b0 f   libfreetypestat:pfr.obj
 0001:0004a0e0       _pfr_glyph_start           1004b0e0 f   libfreetypestat:pfr.obj
 0001:0004a0f0       _pfr_glyph_line_to         1004b0f0 f   libfreetypestat:pfr.obj
 0001:0004a1f0       _pfr_glyph_curve_to        1004b1f0 f   libfreetypestat:pfr.obj
 0001:0004a320       _pfr_glyph_move_to         1004b320 f   libfreetypestat:pfr.obj
 0001:0004a3e0       _pfr_glyph_close_contour   1004b3e0 f   libfreetypestat:pfr.obj
 0001:0004a4f0       _pfr_glyph_end             1004b4f0 f   libfreetypestat:pfr.obj
 0001:0004a520       _pfr_glyph_load_compound   1004b520 f   libfreetypestat:pfr.obj
 0001:0004a9a0       _pfr_face_get_kerning      1004b9a0 f   libfreetypestat:pfr.obj
 0001:0004ad50       _pfr_get_kerning           1004bd50 f   libfreetypestat:pfr.obj
 0001:0004ae00       _pfr_get_advance           1004be00 f   libfreetypestat:pfr.obj
 0001:0004ae90       _pfr_get_metrics           1004be90 f   libfreetypestat:pfr.obj
 0001:0004af70       _pfr_get_service           1004bf70 f   libfreetypestat:pfr.obj
 0001:0004afa0       _pfr_slot_load_bitmap      1004bfa0 f   libfreetypestat:pfr.obj
 0001:0004b490       _pfr_lookup_bitmap_data    1004c490 f   libfreetypestat:pfr.obj
 0001:0004b650       _pfr_load_bitmap_metrics   1004c650 f   libfreetypestat:pfr.obj
 0001:0004baa0       _pfr_load_bitmap_bits      1004caa0 f   libfreetypestat:pfr.obj
 0001:0004bbb0       _pfr_bitwriter_init        1004cbb0 f   libfreetypestat:pfr.obj
 0001:0004bc30       _pfr_bitwriter_decode_bytes 1004cc30 f   libfreetypestat:pfr.obj
 0001:0004bd80       _pfr_bitwriter_decode_rle1 1004cd80 f   libfreetypestat:pfr.obj
 0001:0004bf40       _pfr_bitwriter_decode_rle2 1004cf40 f   libfreetypestat:pfr.obj
 0001:0004c0a0       _parse_font_matrix         1004d0a0 f   libfreetypestat:type1cid.obj
 0001:0004c250       _parse_fd_array            1004d250 f   libfreetypestat:type1cid.obj
 0001:0004c370       _parse_expansion_factor    1004d370 f   libfreetypestat:type1cid.obj
 0001:0004c3f0       _cid_slot_done             1004d3f0 f   libfreetypestat:type1cid.obj
 0001:0004c410       _cid_slot_init             1004d410 f   libfreetypestat:type1cid.obj
 0001:0004c4b0       _cid_size_done             1004d4b0 f   libfreetypestat:type1cid.obj
 0001:0004c520       _cid_size_get_globals_funcs 1004d520 f   libfreetypestat:type1cid.obj
 0001:0004c5c0       _cid_size_init             1004d5c0 f   libfreetypestat:type1cid.obj
 0001:0004c6b0       _cid_size_request          1004d6b0 f   libfreetypestat:type1cid.obj
 0001:0004c730       _cid_face_done             1004d730 f   libfreetypestat:type1cid.obj
 0001:0004c9e0       _cid_face_init             1004d9e0 f   libfreetypestat:type1cid.obj
 0001:0004cdb0       _cid_face_open             1004ddb0 f   libfreetypestat:type1cid.obj
 0001:0004cfa0       _cid_parser_new            1004dfa0 f   libfreetypestat:type1cid.obj
 0001:0004d510       _cid_parse_dict            1004e510 f   libfreetypestat:type1cid.obj
 0001:0004d760       _cid_load_keyword          1004e760 f   libfreetypestat:type1cid.obj
 0001:0004d930       _cid_read_subrs            1004e930 f   libfreetypestat:type1cid.obj
 0001:0004ddc0       _cid_get_offset            1004edc0 f   libfreetypestat:type1cid.obj
 0001:0004de30       _t1_init_loader            1004ee30 f   libfreetypestat:type1cid.obj
 0001:0004de60       _t1_done_loader            1004ee60 f   libfreetypestat:type1cid.obj
 0001:0004de90       _cid_parser_done           1004ee90 f   libfreetypestat:type1cid.obj
 0001:0004def0       _cid_hex_to_binary         1004eef0 f   libfreetypestat:type1cid.obj
 0001:0004e240       _cid_driver_init           1004f240 f   libfreetypestat:type1cid.obj
 0001:0004e250       _cid_driver_done           1004f250 f   libfreetypestat:type1cid.obj
 0001:0004e260       _cid_get_postscript_name   1004f260 f   libfreetypestat:type1cid.obj
 0001:0004e2a0       _cid_ps_get_font_info      1004f2a0 f   libfreetypestat:type1cid.obj
 0001:0004e2c0       _cid_ps_get_font_extra     1004f2c0 f   libfreetypestat:type1cid.obj
 0001:0004e2e0       _cid_get_ros               1004f2e0 f   libfreetypestat:type1cid.obj
 0001:0004e330       _cid_get_is_cid            1004f330 f   libfreetypestat:type1cid.obj
 0001:0004e360       _cid_get_cid_from_glyph_index 1004f360 f   libfreetypestat:type1cid.obj
 0001:0004e390       _cid_get_interface         1004f390 f   libfreetypestat:type1cid.obj
 0001:0004e3c0       _cid_slot_load_glyph       1004f3c0 f   libfreetypestat:type1cid.obj
 0001:0004e9d0       _FT_MulFix_i386            1004f9d0 f   libfreetypestat:type1cid.obj
 0001:0004ea10       _cid_load_glyph            1004fa10 f   libfreetypestat:type1cid.obj
 0001:0004ef40       _cff_get_kerning           1004ff40 f   libfreetypestat:cff.obj
 0001:0004efc0       _Load_Glyph                1004ffc0 f   libfreetypestat:cff.obj
 0001:0004f060       _cff_get_advances          10050060 f   libfreetypestat:cff.obj
 0001:0004f120       _cff_get_glyph_name        10050120 f   libfreetypestat:cff.obj
 0001:0004f1c0       _cff_get_name_index        100501c0 f   libfreetypestat:cff.obj
 0001:0004f2e0       _cff_ps_has_glyph_names    100502e0 f   libfreetypestat:cff.obj
 0001:0004f300       _cff_ps_get_font_info      10050300 f   libfreetypestat:cff.obj
 0001:0004f4a0       _cff_get_ps_name           100504a0 f   libfreetypestat:cff.obj
 0001:0004f4d0       _cff_get_cmap_info         100504d0 f   libfreetypestat:cff.obj
 0001:0004f5a0       _cff_get_ros               100505a0 f   libfreetypestat:cff.obj
 0001:0004f6f0       _cff_get_is_cid            100506f0 f   libfreetypestat:cff.obj
 0001:0004f760       _cff_get_cid_from_glyph_index 10050760 f   libfreetypestat:cff.obj
 0001:0004f7f0       _cff_get_interface         100507f0 f   libfreetypestat:cff.obj
 0001:0004f890       _cff_parse_font_matrix     10050890 f   libfreetypestat:cff.obj
 0001:0004fb50       _cff_parse_fixed_scaled    10050b50 f   libfreetypestat:cff.obj
 0001:0004fbc0       _cff_parse_integer         10050bc0 f   libfreetypestat:cff.obj
 0001:0004fd20       _cff_parse_real            10050d20 f   libfreetypestat:cff.obj
 0001:00050160       _cff_parse_fixed_dynamic   10051160 f   libfreetypestat:cff.obj
 0001:000502a0       _cff_parse_font_bbox       100512a0 f   libfreetypestat:cff.obj
 0001:00050410       _cff_parse_fixed           10051410 f   libfreetypestat:cff.obj
 0001:00050480       _cff_parse_private_dict    10051480 f   libfreetypestat:cff.obj
 0001:00050510       _cff_parse_num             10051510 f   libfreetypestat:cff.obj
 0001:00050580       _cff_parse_cid_ros         10051580 f   libfreetypestat:cff.obj
 0001:000506d0       _cff_index_get_string      100516d0 f   libfreetypestat:cff.obj
 0001:00050710       _cff_index_get_sid_string  10051710 f   libfreetypestat:cff.obj
 0001:00050780       _cff_size_done             10051780 f   libfreetypestat:cff.obj
 0001:00050850       _cff_size_get_globals_funcs 10051850 f   libfreetypestat:cff.obj
 0001:000508f0       _cff_size_init             100518f0 f   libfreetypestat:cff.obj
 0001:00050ae0       _cff_make_private_dict     10051ae0 f   libfreetypestat:cff.obj
 0001:00050d70       _cff_size_select           10051d70 f   libfreetypestat:cff.obj
 0001:00050ef0       _cff_size_request          10051ef0 f   libfreetypestat:cff.obj
 0001:00051100       _cff_slot_done             10052100 f   libfreetypestat:cff.obj
 0001:00051120       _cff_slot_init             10052120 f   libfreetypestat:cff.obj
 0001:000511c0       _cff_face_init             100521c0 f   libfreetypestat:cff.obj
 0001:00051f50       _cff_index_get_name        10052f50 f   libfreetypestat:cff.obj
 0001:00052060       _cff_index_access_element  10053060 f   libfreetypestat:cff.obj
 0001:000522b0       _cff_index_read_offset     100532b0 f   libfreetypestat:cff.obj
 0001:00052380       _cff_index_forget_element  10053380 f   libfreetypestat:cff.obj
 0001:000523c0       _cff_font_load             100533c0 f   libfreetypestat:cff.obj
 0001:00052980       _cff_index_init            10053980 f   libfreetypestat:cff.obj
 0001:00052b80       _cff_index_done            10053b80 f   libfreetypestat:cff.obj
 0001:00052c10       _cff_index_get_pointers    10053c10 f   libfreetypestat:cff.obj
 0001:00052e90       _cff_index_load_offsets    10053e90 f   libfreetypestat:cff.obj
 0001:00053110       _CFF_Load_FD_Select        10054110 f   libfreetypestat:cff.obj
 0001:00053230       _cff_charset_load          10054230 f   libfreetypestat:cff.obj
 0001:000536d0       _cff_charset_compute_cids  100546d0 f   libfreetypestat:cff.obj
 0001:00053800       _cff_encoding_load         10054800 f   libfreetypestat:cff.obj
 0001:00053d20       _cff_charset_cid_to_gindex 10054d20 f   libfreetypestat:cff.obj
 0001:00053d60       _cff_subfont_load          10054d60 f   libfreetypestat:cff.obj
 0001:00054150       _cff_parser_init           10055150 f   libfreetypestat:cff.obj
 0001:000541a0       _cff_parser_run            100551a0 f   libfreetypestat:cff.obj
 0001:000545b0       _cff_strcpy                100555b0 f   libfreetypestat:cff.obj
 0001:00054630       _remove_subset_prefix      10055630 f   libfreetypestat:cff.obj
 0001:00054720       _remove_style              10055720 f   libfreetypestat:cff.obj
 0001:00054820       _cff_face_done             10055820 f   libfreetypestat:cff.obj
 0001:000548d0       _cff_font_done             100558d0 f   libfreetypestat:cff.obj
 0001:00054ad0       _CFF_Done_FD_Select        10055ad0 f   libfreetypestat:cff.obj
 0001:00054b20       _cff_charset_done          10055b20 f   libfreetypestat:cff.obj
 0001:00054b90       _cff_charset_free_cids     10055b90 f   libfreetypestat:cff.obj
 0001:00054bd0       _cff_encoding_done         10055bd0 f   libfreetypestat:cff.obj
 0001:00054c00       _cff_subfont_done          10055c00 f   libfreetypestat:cff.obj
 0001:00054c50       _cff_driver_init           10055c50 f   libfreetypestat:cff.obj
 0001:00054c60       _cff_driver_done           10055c60 f   libfreetypestat:cff.obj
 0001:00054c70       _cff_slot_load             10055c70 f   libfreetypestat:cff.obj
 0001:00055990       _FT_MulFix_i386            10056990 f   libfreetypestat:cff.obj
 0001:000559d0       _cff_fd_select_get         100569d0 f   libfreetypestat:cff.obj
 0001:00055b00       _cff_builder_done          10056b00 f   libfreetypestat:cff.obj
 0001:00055b50       _cff_decoder_init          10056b50 f   libfreetypestat:cff.obj
 0001:00055c00       _cff_builder_init          10056c00 f   libfreetypestat:cff.obj
 0001:00055d20       _cff_compute_bias          10056d20 f   libfreetypestat:cff.obj
 0001:00055d70       _cff_decoder_prepare       10056d70 f   libfreetypestat:cff.obj
 0001:00055f20       _cff_get_glyph_data        10056f20 f   libfreetypestat:cff.obj
 0001:00056010       _cff_free_glyph_data       10057010 f   libfreetypestat:cff.obj
 0001:000560e0       _cff_decoder_parse_charstrings 100570e0 f   libfreetypestat:cff.obj
 0001:00058d70       _check_points              10059d70 f   libfreetypestat:cff.obj
 0001:00058de0       _cff_builder_add_point     10059de0 f   libfreetypestat:cff.obj
 0001:00058e70       _cff_builder_add_point1    10059e70 f   libfreetypestat:cff.obj
 0001:00058ec0       _cff_builder_start_point   10059ec0 f   libfreetypestat:cff.obj
 0001:00058f30       _cff_builder_add_contour   10059f30 f   libfreetypestat:cff.obj
 0001:00059020       _cff_builder_close_contour 1005a020 f   libfreetypestat:cff.obj
 0001:00059160       _cff_operator_seac         1005a160 f   libfreetypestat:cff.obj
 0001:00059510       _cff_lookup_glyph_by_stdcharcode 1005a510 f   libfreetypestat:cff.obj
 0001:000595b0       _cff_get_standard_encoding 1005a5b0 f   libfreetypestat:cff.obj
 0001:000595f0       _cff_cmap_encoding_init    1005a5f0 f   libfreetypestat:cff.obj
 0001:00059640       _cff_cmap_encoding_done    1005a640 f   libfreetypestat:cff.obj
 0001:00059650       _cff_cmap_encoding_char_index 1005a650 f   libfreetypestat:cff.obj
 0001:00059690       _cff_cmap_encoding_char_next 1005a690 f   libfreetypestat:cff.obj
 0001:00059720       _cff_cmap_unicode_init     1005a720 f   libfreetypestat:cff.obj
 0001:000597c0       _cff_sid_to_glyph_name     1005a7c0 f   libfreetypestat:cff.obj
 0001:00059830       _cff_cmap_unicode_done     1005a830 f   libfreetypestat:cff.obj
 0001:00059890       _cff_cmap_unicode_char_index 1005a890 f   libfreetypestat:cff.obj
 0001:00059900       _cff_cmap_unicode_char_next 1005a900 f   libfreetypestat:cff.obj
 0001:00059970       _T1_Get_Multi_Master       1005a970 f   libfreetypestat:type1.obj
 0001:00059a40       _T1_Get_MM_Var             1005aa40 f   libfreetypestat:type1.obj
 0001:00059d50       _mm_axis_unmap             1005ad50 f   libfreetypestat:type1.obj
 0001:00059e60       _mm_weights_unmap          1005ae60 f   libfreetypestat:type1.obj
 0001:0005a010       _T1_Set_MM_Blend           1005b010 f   libfreetypestat:type1.obj
 0001:0005a130       _FT_MulFix_i386            1005b130 f   libfreetypestat:type1.obj
 0001:0005a170       _T1_Set_MM_Design          1005b170 f   libfreetypestat:type1.obj
 0001:0005a340       _T1_Set_Var_Design         1005b340 f   libfreetypestat:type1.obj
 0001:0005a410       _parse_blend_axis_types    1005b410 f   libfreetypestat:type1.obj
 0001:0005a5f0       _t1_allocate_blend         1005b5f0 f   libfreetypestat:type1.obj
 0001:0005a910       _parse_blend_design_positions 1005b910 f   libfreetypestat:type1.obj
 0001:0005ac90       _parse_blend_design_map    1005bc90 f   libfreetypestat:type1.obj
 0001:0005afd0       _parse_weight_vector       1005bfd0 f   libfreetypestat:type1.obj
 0001:0005b280       _parse_buildchar           1005c280 f   libfreetypestat:type1.obj
 0001:0005b2c0       _parse_private             1005c2c0 f   libfreetypestat:type1.obj
 0001:0005b2e0       _parse_font_matrix         1005c2e0 f   libfreetypestat:type1.obj
 0001:0005b4b0       _parse_encoding            1005c4b0 f   libfreetypestat:type1.obj
 0001:0005bad0       _parse_subrs               1005cad0 f   libfreetypestat:type1.obj
 0001:0005bed0       _read_binary_data          1005ced0 f   libfreetypestat:type1.obj
 0001:0005bfe0       _parse_charstrings         1005cfe0 f   libfreetypestat:type1.obj
 0001:0005c900       _T1_Size_Done              1005d900 f   libfreetypestat:type1.obj
 0001:0005c960       _T1_Size_Get_Globals_Funcs 1005d960 f   libfreetypestat:type1.obj
 0001:0005ca00       _T1_Size_Init              1005da00 f   libfreetypestat:type1.obj
 0001:0005cac0       _T1_Size_Request           1005dac0 f   libfreetypestat:type1.obj
 0001:0005cb40       _T1_GlyphSlot_Done         1005db40 f   libfreetypestat:type1.obj
 0001:0005cb60       _T1_GlyphSlot_Init         1005db60 f   libfreetypestat:type1.obj
 0001:0005cc00       _T1_Face_Done              1005dc00 f   libfreetypestat:type1.obj
 0001:0005cf80       _T1_Done_Blend             1005df80 f   libfreetypestat:type1.obj
 0001:0005d1e0       _T1_Face_Init              1005e1e0 f   libfreetypestat:type1.obj
 0001:0005d7d0       _T1_Open_Face              1005e7d0 f   libfreetypestat:type1.obj
 0001:0005de70       _T1_New_Parser             1005ee70 f   libfreetypestat:type1.obj
 0001:0005e130       _read_pfb_tag              1005f130 f   libfreetypestat:type1.obj
 0001:0005e200       _check_type1_format        1005f200 f   libfreetypestat:type1.obj
 0001:0005e320       _T1_Get_Private_Dict       1005f320 f   libfreetypestat:type1.obj
 0001:0005e920       _parse_dict                1005f920 f   libfreetypestat:type1.obj
 0001:0005f090       _t1_load_keyword           10060090 f   libfreetypestat:type1.obj
 0001:0005f320       _t1_init_loader            10060320 f   libfreetypestat:type1.obj
 0001:0005f3c0       _t1_done_loader            100603c0 f   libfreetypestat:type1.obj
 0001:0005f4e0       _T1_Finalize_Parser        100604e0 f   libfreetypestat:type1.obj
 0001:0005f570       _T1_Driver_Init            10060570 f   libfreetypestat:type1.obj
 0001:0005f580       _T1_Driver_Done            10060580 f   libfreetypestat:type1.obj
 0001:0005f590       _t1_get_glyph_name         10060590 f   libfreetypestat:type1.obj
 0001:0005f5c0       _t1_get_name_index         100605c0 f   libfreetypestat:type1.obj
 0001:0005f640       _t1_get_ps_name            10060640 f   libfreetypestat:type1.obj
 0001:0005f650       _t1_ps_get_font_info       10060650 f   libfreetypestat:type1.obj
 0001:0005f670       _t1_ps_get_font_extra      10060670 f   libfreetypestat:type1.obj
 0001:0005f690       _t1_ps_has_glyph_names     10060690 f   libfreetypestat:type1.obj
 0001:0005f6a0       _t1_ps_get_font_private    100606a0 f   libfreetypestat:type1.obj
 0001:0005f6c0       _Get_Interface             100606c0 f   libfreetypestat:type1.obj
 0001:0005f6f0       _Get_Kerning               100606f0 f   libfreetypestat:type1.obj
 0001:0005f740       _T1_Compute_Max_Advance    10060740 f   libfreetypestat:type1.obj
 0001:0005f950       _T1_Parse_Glyph            10060950 f   libfreetypestat:type1.obj
 0001:0005fa20       _T1_Parse_Glyph_And_Get_Char_String 10060a20 f   libfreetypestat:type1.obj
 0001:0005fc30       _T1_Get_Advances           10060c30 f   libfreetypestat:type1.obj
 0001:0005fe40       _T1_Load_Glyph             10060e40 f   libfreetypestat:type1.obj
 0001:000606d0       _T1_Done_Metrics           100616d0 f   libfreetypestat:type1.obj
 0001:00060750       _T1_Read_Metrics           10061750 f   libfreetypestat:type1.obj
 0001:00060a60       _t1_get_index              10061a60 f   libfreetypestat:type1.obj
 0001:00060b20       _T1_Read_PFM               10061b20 f   libfreetypestat:type1.obj
 0001:00060e50       _compare_kern_pairs        10061e50 f   libfreetypestat:type1.obj
 0001:00060ec0       _T1_Get_Kerning            10061ec0 f   libfreetypestat:type1.obj
 0001:00060f90       _T1_Get_Track_Kerning      10061f90 f   libfreetypestat:type1.obj
 0001:00061080       _tt_get_kerning            10062080 f   libfreetypestat:truetype.obj
 0001:00061100       _tt_get_advances           10062100 f   libfreetypestat:truetype.obj
 0001:00061220       _tt_size_select            10062220 f   libfreetypestat:truetype.obj
 0001:000612f0       _tt_size_request           100622f0 f   libfreetypestat:truetype.obj
 0001:00061420       _Load_Glyph                10062420 f   libfreetypestat:truetype.obj
 0001:00061530       _tt_get_interface          10062530 f   libfreetypestat:truetype.obj
 0001:000615e0       _tt_face_get_location      100625e0 f   libfreetypestat:truetype.obj
 0001:00061830       _TT_Get_HMetrics           10062830 f   libfreetypestat:truetype.obj
 0001:000618b0       _TT_Get_VMetrics           100628b0 f   libfreetypestat:truetype.obj
 0001:00061960       _TT_Load_Glyph             10062960 f   libfreetypestat:truetype.obj
 0001:00061ca0       _load_truetype_glyph       10062ca0 f   libfreetypestat:truetype.obj
 0001:000628b0       _FT_MulFix_i386            100638b0 f   libfreetypestat:truetype.obj
 0001:000628f0       _tt_get_metrics            100638f0 f   libfreetypestat:truetype.obj
 0001:00062a30       _tt_get_metrics_incr_overrides 10063a30 f   libfreetypestat:truetype.obj
 0001:00062b90       _TT_Process_Simple_Glyph   10063b90 f   libfreetypestat:truetype.obj
 0001:00062f10       _tt_prepare_zone           10063f10 f   libfreetypestat:truetype.obj
 0001:00062fa0       _TT_Hint_Glyph             10063fa0 f   libfreetypestat:truetype.obj
 0001:00063380       _translate_array           10064380 f   libfreetypestat:truetype.obj
 0001:00063400       _TT_Process_Composite_Component 10064400 f   libfreetypestat:truetype.obj
 0001:000636a0       _TT_Process_Composite_Glyph 100646a0 f   libfreetypestat:truetype.obj
 0001:00063a80       _compute_glyph_metrics     10064a80 f   libfreetypestat:truetype.obj
 0001:00063db0       _tt_face_get_device_metrics 10064db0 f   libfreetypestat:truetype.obj
 0001:00063e50       _load_sbit_image           10064e50 f   libfreetypestat:truetype.obj
 0001:00063fd0       _tt_loader_init            10064fd0 f   libfreetypestat:truetype.obj
 0001:000642c0       _tt_face_init              100652c0 f   libfreetypestat:truetype.obj
 0001:00064550       _tt_face_load_loca         10065550 f   libfreetypestat:truetype.obj
 0001:00064860       _tt_face_load_cvt          10065860 f   libfreetypestat:truetype.obj
 0001:00064a70       _tt_face_load_fpgm         10065a70 f   libfreetypestat:truetype.obj
 0001:00064bb0       _tt_face_load_prep         10065bb0 f   libfreetypestat:truetype.obj
 0001:00064cf0       _tt_face_load_hdmx         10065cf0 f   libfreetypestat:truetype.obj
 0001:00064f60       _TT_Init_Glyph_Loading     10065f60 f   libfreetypestat:truetype.obj
 0001:00064fb0       _TT_Access_Glyph_Frame     10065fb0 f   libfreetypestat:truetype.obj
 0001:00065060       _TT_Forget_Glyph_Frame     10066060 f   libfreetypestat:truetype.obj
 0001:00065090       _TT_Load_Glyph_Header      10066090 f   libfreetypestat:truetype.obj
 0001:00065220       _TT_Load_Simple_Glyph      10066220 f   libfreetypestat:truetype.obj
 0001:000658a0       _TT_Load_Composite_Glyph   100668a0 f   libfreetypestat:truetype.obj
 0001:00065c50       _tt_check_trickyness       10066c50 f   libfreetypestat:truetype.obj
 0001:00065cb0       _tt_check_trickyness_family 10066cb0 f   libfreetypestat:truetype.obj
 0001:00065d10       _tt_check_trickyness_sfnt_ids 10066d10 f   libfreetypestat:truetype.obj
 0001:00065f60       _tt_get_sfnt_checksum      10066f60 f   libfreetypestat:truetype.obj
 0001:00065ff0       _tt_synth_sfnt_checksum    10066ff0 f   libfreetypestat:truetype.obj
 0001:000660c0       _tt_check_single_notdef    100670c0 f   libfreetypestat:truetype.obj
 0001:00066200       _tt_face_done              10067200 f   libfreetypestat:truetype.obj
 0001:00066360       _tt_face_done_loca         10067360 f   libfreetypestat:truetype.obj
 0001:000663b0       _tt_face_free_hdmx         100673b0 f   libfreetypestat:truetype.obj
 0001:00066420       _tt_size_run_prep          10067420 f   libfreetypestat:truetype.obj
 0001:000665a0       _tt_size_ready_bytecode    100675a0 f   libfreetypestat:truetype.obj
 0001:00066750       _tt_size_init_bytecode     10067750 f   libfreetypestat:truetype.obj
 0001:00066a10       _tt_glyphzone_new          10067a10 f   libfreetypestat:truetype.obj
 0001:00066b70       _tt_glyphzone_done         10067b70 f   libfreetypestat:truetype.obj
 0001:00066c70       _tt_size_run_fpgm          10067c70 f   libfreetypestat:truetype.obj
 0001:00066e70       _tt_size_done_bytecode     10067e70 f   libfreetypestat:truetype.obj
 0001:00067000       _tt_size_init              10068000 f   libfreetypestat:truetype.obj
 0001:00067050       _tt_size_done              10068050 f   libfreetypestat:truetype.obj
 0001:00067090       _tt_size_reset             10068090 f   libfreetypestat:truetype.obj
 0001:000672b0       _tt_driver_init            100682b0 f   libfreetypestat:truetype.obj
 0001:000672f0       _tt_driver_done            100682f0 f   libfreetypestat:truetype.obj
 0001:00067340       _tt_slot_init              10068340 f   libfreetypestat:truetype.obj
 0001:00067360       _TT_Goto_CodeRange         10068360 f   libfreetypestat:truetype.obj
 0001:00067430       _TT_Set_CodeRange          10068430 f   libfreetypestat:truetype.obj
 0001:00067490       _TT_Clear_CodeRange        10068490 f   libfreetypestat:truetype.obj
 0001:000674f0       _TT_Done_Context           100684f0 f   libfreetypestat:truetype.obj
 0001:00067600       _Update_Max                10068600 f   libfreetypestat:truetype.obj
 0001:000676b0       _TT_Load_Context           100686b0 f   libfreetypestat:truetype.obj
 0001:000679e0       _TT_Save_Context           100689e0 f   libfreetypestat:truetype.obj
 0001:00067a80       _TT_Run_Context            10068a80 f   libfreetypestat:truetype.obj
 0001:00067c80       _Init_Context              10068c80 f   libfreetypestat:truetype.obj
 0001:000694a0       _Current_Ppem              1006a4a0 f   libfreetypestat:truetype.obj
 0001:000694d0       _Current_Ratio             1006a4d0 f   libfreetypestat:truetype.obj
 0001:000695c0       _TT_VecLen                 1006a5c0 f   libfreetypestat:truetype.obj
 0001:00069630       _Read_CVT                  1006a630 f   libfreetypestat:truetype.obj
 0001:00069650       _Read_CVT_Stretched        1006a650 f   libfreetypestat:truetype.obj
 0001:00069690       _Write_CVT                 1006a690 f   libfreetypestat:truetype.obj
 0001:000696b0       _Write_CVT_Stretched       1006a6b0 f   libfreetypestat:truetype.obj
 0001:000696f0       _Move_CVT                  1006a6f0 f   libfreetypestat:truetype.obj
 0001:00069720       _Move_CVT_Stretched        1006a720 f   libfreetypestat:truetype.obj
 0001:00069770       _Ins_Goto_CodeRange        1006a770 f   libfreetypestat:truetype.obj
 0001:00069810       _Round_None                1006a810 f   libfreetypestat:truetype.obj
 0001:00069870       _Round_To_Grid             1006a870 f   libfreetypestat:truetype.obj
 0001:000698e0       _Round_To_Half_Grid        1006a8e0 f   libfreetypestat:truetype.obj
 0001:00069940       _Round_Down_To_Grid        1006a940 f   libfreetypestat:truetype.obj
 0001:000699b0       _Round_Up_To_Grid          1006a9b0 f   libfreetypestat:truetype.obj
 0001:00069a20       _Round_To_Double_Grid      1006aa20 f   libfreetypestat:truetype.obj
 0001:00069a90       _Round_Super               1006aa90 f   libfreetypestat:truetype.obj
 0001:00069b40       _Round_Super_45            1006ab40 f   libfreetypestat:truetype.obj
 0001:00069c00       _Compute_Round             1006ac00 f   libfreetypestat:truetype.obj
 0001:00069cc0       _SetSuperRound             1006acc0 f   libfreetypestat:truetype.obj
 0001:00069f80       _Compute_Funcs             1006af80 f   libfreetypestat:truetype.obj
 0001:0006a190       _Direct_Move               1006b190 f   libfreetypestat:truetype.obj
 0001:0006a280       _Direct_Move_Orig          1006b280 f   libfreetypestat:truetype.obj
 0001:0006a340       _Direct_Move_X             1006b340 f   libfreetypestat:truetype.obj
 0001:0006a390       _Direct_Move_Y             1006b390 f   libfreetypestat:truetype.obj
 0001:0006a3e0       _Direct_Move_Orig_X        1006b3e0 f   libfreetypestat:truetype.obj
 0001:0006a410       _Direct_Move_Orig_Y        1006b410 f   libfreetypestat:truetype.obj
 0001:0006a440       _Project                   1006b440 f   libfreetypestat:truetype.obj
 0001:0006a480       _TT_DotFix14               1006b480 f   libfreetypestat:truetype.obj
 0001:0006a5b0       _Dual_Project              1006b5b0 f   libfreetypestat:truetype.obj
 0001:0006a5f0       _Project_x                 1006b5f0 f   libfreetypestat:truetype.obj
 0001:0006a610       _Project_y                 1006b610 f   libfreetypestat:truetype.obj
 0001:0006a630       _Normalize                 1006b630 f   libfreetypestat:truetype.obj
 0001:0006a840       _Ins_SxVTL                 1006b840 f   libfreetypestat:truetype.obj
 0001:0006a920       _Ins_MINDEX                1006b920 f   libfreetypestat:truetype.obj
 0001:0006a9e0       _Ins_ROLL                  1006b9e0 f   libfreetypestat:truetype.obj
 0001:0006aa40       _Ins_IF                    1006ba40 f   libfreetypestat:truetype.obj
 0001:0006aaf0       _SkipCode                  1006baf0 f   libfreetypestat:truetype.obj
 0001:0006abf0       _Ins_ELSE                  1006bbf0 f   libfreetypestat:truetype.obj
 0001:0006ac70       _Ins_FDEF                  1006bc70 f   libfreetypestat:truetype.obj
 0001:0006add0       _Ins_ENDF                  1006bdd0 f   libfreetypestat:truetype.obj
 0001:0006aea0       _Ins_CALL                  1006bea0 f   libfreetypestat:truetype.obj
 0001:0006b030       _Ins_LOOPCALL              1006c030 f   libfreetypestat:truetype.obj
 0001:0006b1d0       _Ins_IDEF                  1006c1d0 f   libfreetypestat:truetype.obj
 0001:0006b340       _Ins_NPUSHB                1006c340 f   libfreetypestat:truetype.obj
 0001:0006b400       _Ins_NPUSHW                1006c400 f   libfreetypestat:truetype.obj
 0001:0006b4d0       _GetShortIns               1006c4d0 f   libfreetypestat:truetype.obj
 0001:0006b520       _Ins_PUSHB                 1006c520 f   libfreetypestat:truetype.obj
 0001:0006b5c0       _Ins_PUSHW                 1006c5c0 f   libfreetypestat:truetype.obj
 0001:0006b680       _Ins_GC                    1006c680 f   libfreetypestat:truetype.obj
 0001:0006b770       _Ins_SCFS                  1006c770 f   libfreetypestat:truetype.obj
 0001:0006b870       _Ins_MD                    1006c870 f   libfreetypestat:truetype.obj
 0001:0006ba90       _Ins_SDPVTL                1006ca90 f   libfreetypestat:truetype.obj
 0001:0006bc20       _Ins_SZP0                  1006cc20 f   libfreetypestat:truetype.obj
 0001:0006bcb0       _Ins_SZP1                  1006ccb0 f   libfreetypestat:truetype.obj
 0001:0006bd40       _Ins_SZP2                  1006cd40 f   libfreetypestat:truetype.obj
 0001:0006bdd0       _Ins_SZPS                  1006cdd0 f   libfreetypestat:truetype.obj
 0001:0006bea0       _Ins_INSTCTRL              1006cea0 f   libfreetypestat:truetype.obj
 0001:0006bf20       _Ins_SCANCTRL              1006cf20 f   libfreetypestat:truetype.obj
 0001:0006c050       _Ins_SCANTYPE              1006d050 f   libfreetypestat:truetype.obj
 0001:0006c070       _Ins_FLIPPT                1006d070 f   libfreetypestat:truetype.obj
 0001:0006c180       _Ins_FLIPRGON              1006d180 f   libfreetypestat:truetype.obj
 0001:0006c240       _Ins_FLIPRGOFF             1006d240 f   libfreetypestat:truetype.obj
 0001:0006c300       _Ins_SHP                   1006d300 f   libfreetypestat:truetype.obj
 0001:0006c490       _Compute_Point_Displacement 1006d490 f   libfreetypestat:truetype.obj
 0001:0006c620       _Move_Zp2_Point            1006d620 f   libfreetypestat:truetype.obj
 0001:0006c6e0       _Ins_SHC                   1006d6e0 f   libfreetypestat:truetype.obj
 0001:0006c8a0       _Ins_SHZ                   1006d8a0 f   libfreetypestat:truetype.obj
 0001:0006ca50       _Ins_SHPIX                 1006da50 f   libfreetypestat:truetype.obj
 0001:0006cb90       _TT_MulFix14               1006db90 f   libfreetypestat:truetype.obj
 0001:0006cc70       _Ins_MSIRP                 1006dc70 f   libfreetypestat:truetype.obj
 0001:0006ce40       _Ins_MDAP                  1006de40 f   libfreetypestat:truetype.obj
 0001:0006cf70       _Ins_MIAP                  1006df70 f   libfreetypestat:truetype.obj
 0001:0006d180       _Ins_MDRP                  1006e180 f   libfreetypestat:truetype.obj
 0001:0006d580       _Ins_MIRP                  1006e580 f   libfreetypestat:truetype.obj
 0001:0006d9c0       _Ins_ALIGNRP               1006e9c0 f   libfreetypestat:truetype.obj
 0001:0006db60       _Ins_ISECT                 1006eb60 f   libfreetypestat:truetype.obj
 0001:0006deb0       _Ins_ALIGNPTS              1006eeb0 f   libfreetypestat:truetype.obj
 0001:0006dfe0       _Ins_IP                    1006efe0 f   libfreetypestat:truetype.obj
 0001:0006e410       _Ins_UTP                   1006f410 f   libfreetypestat:truetype.obj
 0001:0006e4b0       _Ins_IUP                   1006f4b0 f   libfreetypestat:truetype.obj
 0001:0006e710       __iup_worker_shift         1006f710 f   libfreetypestat:truetype.obj
 0001:0006e7c0       __iup_worker_interpolate   1006f7c0 f   libfreetypestat:truetype.obj
 0001:0006e9d0       _Ins_DELTAP                1006f9d0 f   libfreetypestat:truetype.obj
 0001:0006eb90       _Ins_DELTAC                1006fb90 f   libfreetypestat:truetype.obj
 0001:0006ed40       _Ins_GETINFO               1006fd40 f   libfreetypestat:truetype.obj
 0001:0006ede0       _Ins_UNKNOWN               1006fde0 f   libfreetypestat:truetype.obj
 0001:0006ef30       _TT_Get_MM_Var             1006ff30 f   libfreetypestat:truetype.obj
 0001:0006f590       _TT_Set_MM_Blend           10070590 f   libfreetypestat:truetype.obj
 0001:0006f800       _ft_var_load_gvar          10070800 f   libfreetypestat:truetype.obj
 0001:0006fb60       _TT_Set_Var_Design         10070b60 f   libfreetypestat:truetype.obj
 0001:0006fea0       _ft_var_load_avar          10070ea0 f   libfreetypestat:truetype.obj
 0001:00070150       _tt_face_vary_cvt          10071150 f   libfreetypestat:truetype.obj
 0001:00070750       _ft_var_readpackedpoints   10071750 f   libfreetypestat:truetype.obj
 0001:000709a0       _ft_var_readpackeddeltas   100719a0 f   libfreetypestat:truetype.obj
 0001:00070b90       _ft_var_apply_tuple        10071b90 f   libfreetypestat:truetype.obj
 0001:00070db0       _TT_Vary_Get_Glyph_Deltas  10071db0 f   libfreetypestat:truetype.obj
 0001:000714a0       _tt_done_blend             100724a0 f   libfreetypestat:truetype.obj
 0001:00071650       _af_dummy_hints_init       10072650 f   libfreetypestat:autofit.obj
 0001:00071670       _af_glyph_hints_rescale    10072670 f   libfreetypestat:autofit.obj
 0001:00071690       _af_dummy_hints_apply      10072690 f   libfreetypestat:autofit.obj
 0001:000716b0       _af_latin_metrics_init     100726b0 f   libfreetypestat:autofit.obj
 0001:00071790       _af_latin_metrics_init_widths 10072790 f   libfreetypestat:autofit.obj
 0001:00071bc0       _af_sort_widths            10072bc0 f   libfreetypestat:autofit.obj
 0001:00071ce0       _af_glyph_hints_init       10072ce0 f   libfreetypestat:autofit.obj
 0001:00071d10       _af_glyph_hints_done       10072d10 f   libfreetypestat:autofit.obj
 0001:00071e60       _af_glyph_hints_reload     10072e60 f   libfreetypestat:autofit.obj
 0001:000723d0       _FT_MulFix_i386            100733d0 f   libfreetypestat:autofit.obj
 0001:00072410       _af_direction_compute      10073410 f   libfreetypestat:autofit.obj
 0001:000724f0       _af_latin_metrics_init_blues 100734f0 f   libfreetypestat:autofit.obj
 0001:00072cf0       _af_sort_pos               10073cf0 f   libfreetypestat:autofit.obj
 0001:00072d90       _af_latin_metrics_check_digits 10073d90 f   libfreetypestat:autofit.obj
 0001:00072e80       _af_latin_metrics_scale    10073e80 f   libfreetypestat:autofit.obj
 0001:00072ed0       _af_latin_metrics_scale_dim 10073ed0 f   libfreetypestat:autofit.obj
 0001:00073220       _af_latin_hints_compute_segments 10074220 f   libfreetypestat:autofit.obj
 0001:000738a0       _af_axis_hints_new_segment 100748a0 f   libfreetypestat:autofit.obj
 0001:000739d0       _af_latin_hints_link_segments 100749d0 f   libfreetypestat:autofit.obj
 0001:00073be0       _af_latin_hints_init       10074be0 f   libfreetypestat:autofit.obj
 0001:00073cf0       _af_latin_hints_apply      10074cf0 f   libfreetypestat:autofit.obj
 0001:00073e20       _af_glyph_hints_save       10074e20 f   libfreetypestat:autofit.obj
 0001:00073ed0       _af_glyph_hints_align_edge_points 10074ed0 f   libfreetypestat:autofit.obj
 0001:00074010       _af_glyph_hints_align_strong_points 10075010 f   libfreetypestat:autofit.obj
 0001:000742f0       _af_glyph_hints_align_weak_points 100752f0 f   libfreetypestat:autofit.obj
 0001:00074590       _af_iup_shift              10075590 f   libfreetypestat:autofit.obj
 0001:00074620       _af_iup_interp             10075620 f   libfreetypestat:autofit.obj
 0001:000747f0       _af_latin_hints_detect_features 100757f0 f   libfreetypestat:autofit.obj
 0001:00074850       _af_latin_hints_compute_edges 10075850 f   libfreetypestat:autofit.obj
 0001:00074d20       _af_axis_hints_new_edge    10075d20 f   libfreetypestat:autofit.obj
 0001:00074ed0       _af_latin_hints_compute_blue_edges 10075ed0 f   libfreetypestat:autofit.obj
 0001:000750b0       _af_latin_hint_edges       100760b0 f   libfreetypestat:autofit.obj
 0001:00075e80       _af_latin_compute_stem_width 10076e80 f   libfreetypestat:autofit.obj
 0001:00076120       _af_latin_snap_width       10077120 f   libfreetypestat:autofit.obj
 0001:000761e0       _af_latin_align_linked_edge 100771e0 f   libfreetypestat:autofit.obj
 0001:000762c0       _af_latin_align_serif_edge 100772c0 f   libfreetypestat:autofit.obj
 0001:000762f0       _af_cjk_metrics_init       100772f0 f   libfreetypestat:autofit.obj
 0001:00076390       _af_cjk_metrics_init_widths 10077390 f   libfreetypestat:autofit.obj
 0001:000767c0       _af_cjk_metrics_init_blues 100777c0 f   libfreetypestat:autofit.obj
 0001:00077090       _af_cjk_metrics_check_digits 10078090 f   libfreetypestat:autofit.obj
 0001:00077180       _af_cjk_metrics_scale      10078180 f   libfreetypestat:autofit.obj
 0001:000771d0       _af_cjk_metrics_scale_dim  100781d0 f   libfreetypestat:autofit.obj
 0001:000774b0       _af_cjk_hints_init         100784b0 f   libfreetypestat:autofit.obj
 0001:000775a0       _af_cjk_hints_apply        100785a0 f   libfreetypestat:autofit.obj
 0001:000776f0       _af_cjk_hints_detect_features 100786f0 f   libfreetypestat:autofit.obj
 0001:00077750       _af_cjk_hints_compute_segments 10078750 f   libfreetypestat:autofit.obj
 0001:00077870       _af_cjk_hints_link_segments 10078870 f   libfreetypestat:autofit.obj
 0001:00077cc0       _af_cjk_hints_compute_edges 10078cc0 f   libfreetypestat:autofit.obj
 0001:00078230       _af_cjk_hints_compute_blue_edges 10079230 f   libfreetypestat:autofit.obj
 0001:00078450       _af_cjk_hint_edges         10079450 f   libfreetypestat:autofit.obj
 0001:00078b00       _af_cjk_align_linked_edge  10079b00 f   libfreetypestat:autofit.obj
 0001:00078b70       _af_cjk_compute_stem_width 10079b70 f   libfreetypestat:autofit.obj
 0001:00078dc0       _af_cjk_snap_width         10079dc0 f   libfreetypestat:autofit.obj
 0001:00078e80       _af_cjk_align_serif_edge   10079e80 f   libfreetypestat:autofit.obj
 0001:00078eb0       _af_hint_normal_stem       10079eb0 f   libfreetypestat:autofit.obj
 0001:00079170       _af_cjk_align_edge_points  1007a170 f   libfreetypestat:autofit.obj
 0001:00079320       _af_indic_metrics_init     1007a320 f   libfreetypestat:autofit.obj
 0001:000793b0       _af_indic_metrics_scale    1007a3b0 f   libfreetypestat:autofit.obj
 0001:000793d0       _af_indic_hints_init       1007a3d0 f   libfreetypestat:autofit.obj
 0001:000793f0       _af_indic_hints_apply      1007a3f0 f   libfreetypestat:autofit.obj
 0001:00079410       _af_autofitter_init        1007a410 f   libfreetypestat:autofit.obj
 0001:00079440       _af_loader_init            1007a440 f   libfreetypestat:autofit.obj
 0001:00079490       _af_autofitter_done        1007a490 f   libfreetypestat:autofit.obj
 0001:000794b0       _af_loader_done            1007a4b0 f   libfreetypestat:autofit.obj
 0001:00079500       _af_autofitter_load_glyph  1007a500 f   libfreetypestat:autofit.obj
 0001:00079530       _af_loader_load_glyph      1007a530 f   libfreetypestat:autofit.obj
 0001:00079700       _af_face_globals_get_metrics 1007a700 f   libfreetypestat:autofit.obj
 0001:000798c0       _af_loader_reset           1007a8c0 f   libfreetypestat:autofit.obj
 0001:00079950       _af_face_globals_new       1007a950 f   libfreetypestat:autofit.obj
 0001:00079a30       _af_face_globals_compute_script_coverage 1007aa30 f   libfreetypestat:autofit.obj
 0001:00079ca0       _af_face_globals_free      1007aca0 f   libfreetypestat:autofit.obj
 0001:00079de0       _af_loader_load_g          1007ade0 f   libfreetypestat:autofit.obj
 0001:0007aa80       _af_face_globals_is_digit  1007ba80 f   libfreetypestat:autofit.obj
 0001:0007aef0       _ft_ansi_stream_close      1007bef0 f   libfreetypestat:ftsystem.obj
 0001:0007af30       _ft_ansi_stream_io         1007bf30 f   libfreetypestat:ftsystem.obj
 0001:0007b000       _ft_alloc                  1007c000 f   libfreetypestat:ftsystem.obj
 0001:0007b020       _ft_realloc                1007c020 f   libfreetypestat:ftsystem.obj
 0001:0007b050       _ft_free                   1007c050 f   libfreetypestat:ftsystem.obj
 0001:0007b1c0       _ft_lzw_check_header       1007c1c0 f   libfreetypestat:ftlzw.obj
 0001:0007b270       _ft_lzw_file_init          1007c270 f   libfreetypestat:ftlzw.obj
 0001:0007b320       _ft_lzw_stream_close       1007c320 f   libfreetypestat:ftlzw.obj
 0001:0007b390       _ft_lzw_file_done          1007c390 f   libfreetypestat:ftlzw.obj
 0001:0007b3d0       _ft_lzw_stream_io          1007c3d0 f   libfreetypestat:ftlzw.obj
 0001:0007b410       _ft_lzw_file_io            1007c410 f   libfreetypestat:ftlzw.obj
 0001:0007b5a0       _ft_lzw_file_reset         1007c5a0 f   libfreetypestat:ftlzw.obj
 0001:0007b630       _ft_lzw_file_fill_output   1007c630 f   libfreetypestat:ftlzw.obj
 0001:0007b6c0       _ft_lzw_file_skip_output   1007c6c0 f   libfreetypestat:ftlzw.obj
 0001:0007bde0       _ft_lzwstate_get_code      1007cde0 f   libfreetypestat:ftlzw.obj
 0001:0007bfa0       _ft_lzwstate_refill        1007cfa0 f   libfreetypestat:ftlzw.obj
 0001:0007c050       _ft_lzwstate_stack_grow    1007d050 f   libfreetypestat:ftlzw.obj
 0001:0007c140       _ft_lzwstate_prefix_grow   1007d140 f   libfreetypestat:ftlzw.obj
 0001:0007c480       _ft_gzip_check_header      1007d480 f   libfreetypestat:ftgzip.obj
 0001:0007c630       _ft_gzip_file_init         1007d630 f   libfreetypestat:ftgzip.obj
 0001:0007c750       _inflateInit2_             1007d750 f   libfreetypestat:ftgzip.obj
 0001:0007c8d0       _inflate_blocks_new        1007d8d0 f   libfreetypestat:ftgzip.obj
 0001:0007ca20       _inflate_blocks_reset      1007da20 f   libfreetypestat:ftgzip.obj
 0001:0007cb00       _inflate_codes_free        1007db00 f   libfreetypestat:ftgzip.obj
 0001:0007cb30       _inflateReset              1007db30 f   libfreetypestat:ftgzip.obj
 0001:0007cbb0       _inflateEnd                1007dbb0 f   libfreetypestat:ftgzip.obj
 0001:0007cc30       _inflate_blocks_free       1007dc30 f   libfreetypestat:ftgzip.obj
 0001:0007ccc0       _adler32                   1007dcc0 f   libfreetypestat:ftgzip.obj
 0001:0007cf20       _ft_gzip_alloc             1007df20 f   libfreetypestat:ftgzip.obj
 0001:0007cfa0       _ft_gzip_free              1007dfa0 f   libfreetypestat:ftgzip.obj
 0001:0007cfd0       _zcalloc                   1007dfd0 f   libfreetypestat:ftgzip.obj
 0001:0007cff0       _zcfree                    1007dff0 f   libfreetypestat:ftgzip.obj
 0001:0007d010       _ft_gzip_file_done         1007e010 f   libfreetypestat:ftgzip.obj
 0001:0007d0a0       _ft_gzip_file_io           1007e0a0 f   libfreetypestat:ftgzip.obj
 0001:0007d1e0       _ft_gzip_file_reset        1007e1e0 f   libfreetypestat:ftgzip.obj
 0001:0007d2b0       _ft_gzip_file_fill_output  1007e2b0 f   libfreetypestat:ftgzip.obj
 0001:0007d3a0       _inflate                   1007e3a0 f   libfreetypestat:ftgzip.obj
 0001:0007da90       _inflate_blocks            1007ea90 f   libfreetypestat:ftgzip.obj
 0001:0007ef40       _inflate_trees_bits        1007ff40 f   libfreetypestat:ftgzip.obj
 0001:0007f050       _huft_build                10080050 f   libfreetypestat:ftgzip.obj
 0001:0007f810       _inflate_trees_dynamic     10080810 f   libfreetypestat:ftgzip.obj
 0001:0007fa10       _inflate_trees_fixed       10080a10 f   libfreetypestat:ftgzip.obj
 0001:0007fa50       _inflate_flush             10080a50 f   libfreetypestat:ftgzip.obj
 0001:0007fc60       _inflate_codes_new         10080c60 f   libfreetypestat:ftgzip.obj
 0001:0007fce0       _inflate_codes             10080ce0 f   libfreetypestat:ftgzip.obj
 0001:00080910       _ft_gzip_file_fill_input   10081910 f   libfreetypestat:ftgzip.obj
 0001:00080a10       _ft_gzip_file_skip_output  10081a10 f   libfreetypestat:ftgzip.obj
 0001:00080ab0       _ft_gzip_stream_close      10081ab0 f   libfreetypestat:ftgzip.obj
 0001:00080b20       _ft_gzip_stream_io         10081b20 f   libfreetypestat:ftgzip.obj
 0001:00080b60       _ft_gzip_get_uncompressed_size 10081b60 f   libfreetypestat:ftgzip.obj
 0001:000819f0       _swprintf                  100829f0 f   LIBCMTD:wassert.obj
 0001:00083a10       _vscan_fn                  10084a10 f   LIBCMTD:sscanf.obj
 0001:00084d70       ___DllMainCRTStartup       10085d70 f   LIBCMTD:dllcrt0.obj
 0001:00085240       _cmpBYTE                   10086240 f   LIBCMTD:memcmp.obj
 0001:00085270       _cmpResult                 10086270 f   LIBCMTD:memcmp.obj
 0001:00085290       _unaligned_memcmp          10086290 f   LIBCMTD:memcmp.obj
 0001:000859a0       _cmpWORD                   100869a0 f   LIBCMTD:memcmp.obj
 0001:00085a20       _cmpDWORD                  10086a20 f   LIBCMTD:memcmp.obj
 0001:00085fe0       _shortsort                 10086fe0 f   LIBCMTD:qsort.obj
 0001:00086050       _swap                      10087050 f   LIBCMTD:qsort.obj
 0001:00086ec0       _doexit                    10087ec0 f   LIBCMTD:crt0dat.obj
 0001:000871b0       __initterm                 100881b0 f   LIBCMTD:crt0dat.obj
 0001:00087700       __getenv_s_helper          10088700 f   LIBCMTD:getenv.obj
 0001:00087970       __dupenv_s_helper          10088970 f   LIBCMTD:getenv.obj
 0001:00088e60       ?failwithmessage@@YAXPAXHHPBD@Z 10089e60 f   LIBCMTD:_error_.obj
 0001:00089080       ?DebuggerProbe@@YAHK@Z     1008a080 f   LIBCMTD:_error_.obj
 0001:00089110       ?DebuggerRuntime@@YAHKHPAXPB_W@Z 1008a110 f   LIBCMTD:_error_.obj
 0001:000893f0       ?_getMemBlockDataString@@YAXPAD00I@Z 1008a3f0 f   LIBCMTD:_error_.obj
 0001:00089a50       _ctrlevent_capture@4       1008aa50 f   LIBCMTD:winsig.obj
 0001:00089e50       _siglookup                 1008ae50 f   LIBCMTD:winsig.obj
 0001:0008a170       _xtow_s@20                 1008b170 f   LIBCMTD:xtows.obj
 0001:0008a5a0       @x64tow_s@24               1008b5a0 f   LIBCMTD:xtows.obj
 0001:0008bb00       _flsall                    1008cb00 f   LIBCMTD:fflush.obj
 0001:0008dae0       __cftoe2_l                 1008eae0 f   LIBCMTD:cvt.obj
 0001:0008e880       __cftof2_l                 1008f880 f   LIBCMTD:cvt.obj
 0001:0008ee60       __shift                    1008fe60 f   LIBCMTD:cvt.obj
 0001:0008fd10       ?getSystemCP@@YAHH@Z       10090d10 f   LIBCMTD:mbctype.obj
 0001:00090170       ?CPtoLCID@@YAHH@Z          10091170 f   LIBCMTD:mbctype.obj
 0001:000901f0       ?setSBCS@@YAXPAUthreadmbcinfostruct@@@Z 100911f0 f   LIBCMTD:mbctype.obj
 0001:000902d0       ?setSBUpLow@@YAXPAUthreadmbcinfostruct@@@Z 100912d0 f   LIBCMTD:mbctype.obj
 0001:00091a30       __copytlocinfo_nolock      10092a30 f   LIBCMTD:setlocal.obj
 0001:00091e30       _sync_legacy_variables_lk  10092e30 f   LIBCMTD:setlocal.obj
 0001:00091e70       __setlocale_nolock         10092e70 f   LIBCMTD:setlocal.obj
 0001:00092260       __setlocale_set_cat        10093260 f   LIBCMTD:setlocal.obj
 0001:00092790       __setlocale_get_all        10093790 f   LIBCMTD:setlocal.obj
 0001:00094cd0       __get_fname                10095cd0 f   LIBCMTD:_fpexcept_.obj
 0001:00097ca0       ___check_float_string      10098ca0 f   LIBCMTD:input.obj
 0001:00097dc0       __hextodec                 10098dc0 f   LIBCMTD:input.obj
 0001:00097e00       __inc                      10098e00 f   LIBCMTD:input.obj
 0001:00097e60       __un_inc                   10098e60 f   LIBCMTD:input.obj
 0001:00097e80       __whiteout                 10098e80 f   LIBCMTD:input.obj
 0001:00099a00       ___check_float_string      1009aa00 f   LIBCMTD:inputs.obj
 0001:00099b00       __hextodec                 1009ab00 f   LIBCMTD:inputs.obj
 0001:00099b40       __inc                      1009ab40 f   LIBCMTD:inputs.obj
 0001:00099ba0       __un_inc                   1009aba0 f   LIBCMTD:inputs.obj
 0001:00099bc0       __whiteout                 1009abc0 f   LIBCMTD:inputs.obj
 0001:0009b1a0       _write_char                1009c1a0 f   LIBCMTD:output.obj
 0001:0009b250       _write_multi_char          1009c250 f   LIBCMTD:output.obj
 0001:0009b290       _write_string              1009c290 f   LIBCMTD:output.obj
 0001:0009b400       ?__crtLCMapStringA_stat@@YAHPAUlocaleinfo_struct@@KKPBDHPADHHH@Z 1009c400 f   LIBCMTD:a_map.obj
 0001:0009b730       ?strncnt@@YAHPBDH@Z        1009c730 f   LIBCMTD:a_map.obj
 0001:0009ca20       __nh_malloc_dbg_impl       1009da20 f   LIBCMTD:dbgheap.obj
 0001:0009cac0       __heap_alloc_dbg_impl      1009dac0 f   LIBCMTD:dbgheap.obj
 0001:0009d090       _realloc_help              1009e090 f   LIBCMTD:dbgheap.obj
 0001:0009e150       _CheckBytes                1009f150 f   LIBCMTD:dbgheap.obj
 0001:0009ef10       ?_CrtMemDumpAllObjectsSince_stat@@YAXPBU_CrtMemState@@PAUlocaleinfo_struct@@@Z 1009ff10 f   LIBCMTD:dbgheap.obj
 0001:0009f220       __printMemBlockData        100a0220 f   LIBCMTD:dbgheap.obj
 0001:000a0620       _parse_cmdline             100a1620 f   LIBCMTD:stdargv.obj
 0001:000a0d40       _ValidateLocalCookies      100a1d40 f   LIBCMTD:chandler4.obj
 0001:000a10b0       _xcptlookup                100a20b0 f   LIBCMTD:winxfltr.obj
 0001:000a1140       __unwind_handler           100a2140 f   LIBCMTD:exsup.obj
 0001:000a1cf0       ?strtoxl@@YAKPAUlocaleinfo_struct@@PBDPAPBDHH@Z 100a2cf0 f   LIBCMTD:strtol.obj
 0001:000a22d0       ?strtoxq@@YA_KPAUlocaleinfo_struct@@PBDPAPBDHH@Z 100a32d0 f   LIBCMTD:strtoq.obj
 0001:000a6580       _write_char                100a7580 f   LIBCMTD:outputp.obj
 0001:000a6630       _write_multi_char          100a7630 f   LIBCMTD:outputp.obj
 0001:000a6670       _write_string              100a7670 f   LIBCMTD:outputp.obj
 0001:000a7d60       _write_char                100a8d60 f   LIBCMTD:outputs.obj
 0001:000a7e10       _write_multi_char          100a8e10 f   LIBCMTD:outputs.obj
 0001:000a7e50       _write_string              100a8e50 f   LIBCMTD:outputs.obj
 0001:000a7f80       __onexit_nolock            100a8f80 f   LIBCMTD:onexit.obj
 0001:000aa9e0       __unwind_handler4          100ab9e0 f   LIBCMTD:exsup4.obj
 0001:000ac330       ?GetPdbDll@@YAPAUHINSTANCE__@@XZ 100ad330 f   LIBCMTD:_pdblkup_.obj
 0001:000ac420       ?GetPdbDllFromInstallPath@@YAPAUHINSTANCE__@@XZ 100ad420 f   LIBCMTD:_pdblkup_.obj
 0001:000ac5e0       ?GetPdbDllPathFromFilePath@@YAHPB_WPA_WI@Z 100ad5e0 f   LIBCMTD:_pdblkup_.obj
 0001:000aef90       _write_char                100aff90 f   LIBCMTD:woutput.obj
 0001:000aeff0       _write_multi_char          100afff0 f   LIBCMTD:woutput.obj
 0001:000af030       _write_string              100b0030 f   LIBCMTD:woutput.obj
 0001:000b06e0       _write_char                100b16e0 f   LIBCMTD:woutputs.obj
 0001:000b0740       _write_multi_char          100b1740 f   LIBCMTD:woutputs.obj
 0001:000b0780       _write_string              100b1780 f   LIBCMTD:woutputs.obj
 0001:000b40e0       _write_char                100b50e0 f   LIBCMTD:woutputp.obj
 0001:000b4140       _write_multi_char          100b5140 f   LIBCMTD:woutputp.obj
 0001:000b4180       _write_string              100b5180 f   LIBCMTD:woutputp.obj
 0001:000b67c0       ?CatchGuardHandler@@YA?AW4_EXCEPTION_DISPOSITION@@PAUEHExceptionRecord@@PAUCatchGuardRN@@PAX2@Z 100b77c0 f   LIBCMTD:_trnsctrl_.obj
 0001:000b6900       ?TranslatorGuardHandler@@YA?AW4_EXCEPTION_DISPOSITION@@PAUEHExceptionRecord@@PAUTranslatorGuardRN@@PAX2@Z 100b7900 f   LIBCMTD:_trnsctrl_.obj
 0001:000b6b50       ?__crtGetStringTypeA_stat@@YAHPAUlocaleinfo_struct@@KPBDHPAGHHH@Z 100b7b50 f   LIBCMTD:a_str.obj
 0001:000b6d50       __get_lc_time              100b7d50 f   LIBCMTD:inittime.obj
 0001:000b8330       _fix_grouping              100b9330 f   LIBCMTD:initnum.obj
 0001:000b89d0       _fix_grouping              100b99d0 f   LIBCMTD:initmon.obj
 0001:000b9ef0       _TranslateName             100baef0 f   LIBCMTD:getqloc.obj
 0001:000b9f80       _GetLcidFromLangCountry    100baf80 f   LIBCMTD:getqloc.obj
 0001:000ba040       _LangCountryEnumProc@4     100bb040 f   LIBCMTD:getqloc.obj
 0001:000ba480       _GetLcidFromLanguage       100bb480 f   LIBCMTD:getqloc.obj
 0001:000ba500       _LanguageEnumProc@4        100bb500 f   LIBCMTD:getqloc.obj
 0001:000ba6a0       _GetLcidFromCountry        100bb6a0 f   LIBCMTD:getqloc.obj
 0001:000ba6f0       _CountryEnumProc@4         100bb6f0 f   LIBCMTD:getqloc.obj
 0001:000ba7f0       _GetLcidFromDefault        100bb7f0 f   LIBCMTD:getqloc.obj
 0001:000ba830       _ProcessCodePage           100bb830 f   LIBCMTD:getqloc.obj
 0001:000ba8e0       _TestDefaultCountry        100bb8e0 f   LIBCMTD:getqloc.obj
 0001:000ba930       _TestDefaultLanguage       100bb930 f   LIBCMTD:getqloc.obj
 0001:000ba9b0       _LcidFromHexString         100bb9b0 f   LIBCMTD:getqloc.obj
 0001:000baa30       _GetPrimaryLen             100bba30 f   LIBCMTD:getqloc.obj
 0001:000bd190       __is_LFH_enabled           100be190 f   LIBCMTD:expand.obj
 0001:000bd680       ?x_ismbbtype_l@@YAHPAUlocaleinfo_struct@@IHH@Z 100be680 f   LIBCMTD:ismbbyte.obj
 0001:000bd7e0       ?__crtGetLocaleInfoA_stat@@YAHPAUlocaleinfo_struct@@KKPADH@Z 100be7e0 f   LIBCMTD:a_loc.obj
 0001:000bd950       ?__crtCompareStringA_stat@@YAHPAUlocaleinfo_struct@@KKPBDH1HH@Z 100be950 f   LIBCMTD:a_cmp.obj
 0001:000bdce0       ?strncnt@@YAHPBDH@Z        100bece0 f   LIBCMTD:a_cmp.obj
 0001:000be4a0       _findenv                   100bf4a0 f   LIBCMTD:setenv.obj
 0001:000be520       _copy_environ              100bf520 f   LIBCMTD:setenv.obj
 0001:000bf350       __tsopen_nolock            100c0350 f   LIBCMTD:open.obj
 0001:000c1ce0       ?wcstoxl@@YAKPB_WPAPB_WHH@Z 100c2ce0 f   LIBCMTD:wcstol.obj
 0001:000c2440       __abstract_cw              100c3440 f   LIBCMTD:_ieee87_.obj
 0001:000c2590       __hw_cw                    100c3590 f   LIBCMTD:_ieee87_.obj
 0001:000c26f0       __abstract_sw              100c36f0 f   LIBCMTD:_ieee87_.obj
 0001:000c2780       ___statusfp_sse2           100c3780 f   LIBCMTD:_ieee87_.obj
 0001:000c27a0       ___clearfp_sse2            100c37a0 f   LIBCMTD:_ieee87_.obj
 0001:000c27d0       ___control87_sse2          100c37d0 f   LIBCMTD:_ieee87_.obj
 0001:000c2850       ___abstract_cw_sse2        100c3850 f   LIBCMTD:_ieee87_.obj
 0001:000c29a0       ___hw_cw_sse2              100c39a0 f   LIBCMTD:_ieee87_.obj
 0001:000c2af0       ___abstract_sw_sse2        100c3af0 f   LIBCMTD:_ieee87_.obj
 0001:000c2b80       ___fpreset_sse2            100c3b80 f   LIBCMTD:_ieee87_.obj
 0001:000c5240       _xtoa_s@20                 100c6240 f   LIBCMTD:xtoas.obj
 0001:000c5660       @x64toa_s@24               100c6660 f   LIBCMTD:xtoas.obj
 0001:000c5f10       ?wcsncnt@@YAIPB_WI@Z       100c6f10 f   LIBCMTD:wcstombs.obj
 0001:000c6800       ?FindHandler@@YAXPAUEHExceptionRecord@@PAUEHRegistrationNode@@PAU_CONTEXT@@PAXPBU_s_FuncInfo@@EH1@Z 100c7800 f   LIBCMTD:frame.obj
 0001:000c6d50       ?FindHandlerForForeignException@@YAXPAUEHExceptionRecord@@PAUEHRegistrationNode@@PAU_CONTEXT@@PAXPBU_s_FuncInfo@@HH1@Z 100c7d50 f   LIBCMTD:frame.obj
 0001:000c7190       ?CatchIt@@YAXPAUEHExceptionRecord@@PAUEHRegistrationNode@@PAU_CONTEXT@@PAXPBU_s_FuncInfo@@PBU_s_HandlerType@@PBU_s_CatchableType@@PBU_s_TryBlockMapEntry@@H1E@Z 100c8190 f   LIBCMTD:frame.obj
 0001:000c7250       ?CallCatchBlock@@YAPAXPAUEHExceptionRecord@@PAUEHRegistrationNode@@PAU_CONTEXT@@PBU_s_FuncInfo@@PAXHK@Z 100c8250 f   LIBCMTD:frame.obj
 0001:000c74e0       ?ExFilterRethrow@@YAHPAU_EXCEPTION_POINTERS@@@Z 100c84e0 f   LIBCMTD:frame.obj
 0001:000c8150       ?IsInExceptionSpec@@YAEPAUEHExceptionRecord@@PBU_s_ESTypeList@@@Z 100c9150 f   LIBCMTD:frame.obj
 0001:000c8210       ?CallUnexpected@@YAXPBU_s_ESTypeList@@@Z 100c9210 f   LIBCMTD:frame.obj
 0001:000c825e       __catch$?CallUnexpected@@YAXPBU_s_ESTypeList@@@Z$0 100c925e f   LIBCMTD:frame.obj
 0001:000c82a0       ?Is_bad_exception_allowed@@YAEPBU_s_ESTypeList@@@Z 100c92a0 f   LIBCMTD:frame.obj
 0001:000d4610       ?und_strlen@@YAIPBD@Z      100d5610 f   LIBCMTD:undname.obj
 0001:000d4650       ?und_memcpy@@YAXPADPBDI@Z  100d5650 f   LIBCMTD:undname.obj
 0001:000d4690       ?und_strncmp@@YAIPBD0I@Z   100d5690 f   LIBCMTD:undname.obj
 0001:000d4990       __unwindfunclet$?getSystemCP@@YAHH@Z$0 100d5990 f   LIBCMTD:mbctype.obj
 0001:000d4998       __ehhandler$?getSystemCP@@YAHH@Z 100d5998 f   LIBCMTD:mbctype.obj
 0001:000d49c0       __unwindfunclet$?strtoxl@@YAKPAUlocaleinfo_struct@@PBDPAPBDHH@Z$0 100d59c0 f   LIBCMTD:strtol.obj
 0001:000d49c8       __ehhandler$?strtoxl@@YAKPAUlocaleinfo_struct@@PBDPAPBDHH@Z 100d59c8 f   LIBCMTD:strtol.obj
 0001:000d49f0       __unwindfunclet$?strtoxq@@YA_KPAUlocaleinfo_struct@@PBDPAPBDHH@Z$0 100d59f0 f   LIBCMTD:strtoq.obj
 0001:000d49f8       __ehhandler$?strtoxq@@YA_KPAUlocaleinfo_struct@@PBDPAPBDHH@Z 100d59f8 f   LIBCMTD:strtoq.obj
 0001:000d4a20       __unwindfunclet$?x_ismbbtype_l@@YAHPAUlocaleinfo_struct@@IHH@Z$0 100d5a20 f   LIBCMTD:ismbbyte.obj
 0001:000d4a28       __ehhandler$?x_ismbbtype_l@@YAHPAUlocaleinfo_struct@@IHH@Z 100d5a28 f   LIBCMTD:ismbbyte.obj
 0001:000d4a50       __ehhandler$?CallUnexpected@@YAXPBU_s_ESTypeList@@@Z 100d5a50 f   LIBCMTD:frame.obj
 0001:000d4a70       __unwindfunclet$?make@DNameStatusNode@@SAPAV1@W4DNameStatus@@@Z$0 100d5a70 f   LIBCMTD:undname.obj
 0001:000d4a7e       __ehhandler$?make@DNameStatusNode@@SAPAV1@W4DNameStatus@@@Z 100d5a7e f   LIBCMTD:undname.obj
