 snd_openal_x86

 Timestamp is 51ba2770 (Fri Jun 14 00:11:28 2013)

 Preferred load address is 10000000

 Start         Length     Name                   Class
 0001:00000000 00084c18H .text                   CODE
 0001:00084c20 00000109H .text$x                 CODE
 0002:00000000 00000158H .idata$5                DATA
 0002:00000158 00000004H .CRT$XCA                DATA
 0002:0000015c 00000004H .CRT$XCZ                DATA
 0002:00000160 00000004H .CRT$XIA                DATA
 0002:00000164 00000014H .CRT$XIC                DATA
 0002:00000178 00000004H .CRT$XIZ                DATA
 0002:0000017c 00000004H .CRT$XPA                DATA
 0002:00000180 00000008H .CRT$XPX                DATA
 0002:00000188 00000004H .CRT$XPXA               DATA
 0002:0000018c 00000004H .CRT$XPZ                DATA
 0002:00000190 00000004H .CRT$XTA                DATA
 0002:00000194 00000004H .CRT$XTZ                DATA
 0002:000001a0 00027d30H .rdata                  DATA
 0002:00027ed0 0000005bH .rdata$debug            DATA
 0002:00027f2c 000001c4H .rdata$r                DATA
 0002:000280f0 0000002cH .rdata$sxdata           DATA
 0002:0002811c 00000004H .rtc$IAA                DATA
 0002:00028120 00000080H .rtc$IMZ                DATA
 0002:000281a0 00000004H .rtc$IZZ                DATA
 0002:000281a4 00000004H .rtc$TAA                DATA
 0002:000281a8 00000080H .rtc$TMZ                DATA
 0002:00028228 00000004H .rtc$TZZ                DATA
 0002:00028230 00000ce0H .xdata$x                DATA
 0002:00028f10 00000014H .idata$2                DATA
 0002:00028f24 00000014H .idata$3                DATA
 0002:00028f38 00000158H .idata$4                DATA
 0002:00029090 00000624H .idata$6                DATA
 0002:000296c0 00000051H .edata                  DATA
 0003:00000000 00003ee4H .data                   DATA
 0003:00003f00 0005f444H .bss                    DATA

  Address         Publics by Value              Rva+Base       Lib:Object

 0000:00000000       __except_list              00000000     <absolute>
 0000:0000000b       ___safe_se_handler_count   0000000b     <absolute>
 0000:00000000       ___ImageBase               10000000     <linker-defined>
 0001:00000000       _DirToByte                 10001000 f   q_math.obj
 0001:00000150       _ByteToDir                 10001150 f   q_math.obj
 0001:000001c0       _ColorNormalize            100011c0 f   q_math.obj
 0001:000002c0       _NormToLatLong             100012c0 f   q_math.obj
 0001:000003b0       _MakeNormalVectors         100013b0 f   q_math.obj
 0001:000004e0       _RotatePointAroundVector   100014e0 f   q_math.obj
 0001:00000750       _AngleVectors              10001750 f   q_math.obj
 0001:00000970       _VecToAngles               10001970 f   q_math.obj
 0001:00000b00       _AnglesToAxis              10001b00 f   q_math.obj
 0001:00000b70       _NormalVectorToAxis        10001b70 f   q_math.obj
 0001:00000ca0       _BuildBoxPoints            10001ca0 f   q_math.obj
 0001:00000e40       _ProjectPointOntoPlane     10001e40 f   q_math.obj
 0001:00000f60       _PerpendicularVector       10001f60 f   q_math.obj
 0001:00001080       _ProjectPointOntoVector    10002080 f   q_math.obj
 0001:000011b0       _DistanceFromLineSquared   100021b0 f   q_math.obj
 0001:000013d0       _Q_RSqrt                   100023d0 f   q_math.obj
 0001:00001450       _Q_rand                    10002450 f   q_math.obj
 0001:00001490       _Q_bitcount                10002490 f   q_math.obj
 0001:000014f0       _LerpAngle                 100024f0 f   q_math.obj
 0001:00001550       _AngleSubtract             10002550 f   q_math.obj
 0001:000015b0       _AnglesSubtract            100025b0 f   q_math.obj
 0001:00001620       _AngleNormalize360         10002620 f   q_math.obj
 0001:00001670       _AngleNormalize180         10002670 f   q_math.obj
 0001:000016b0       _AngleDelta                100026b0 f   q_math.obj
 0001:000016f0       _anglemod                  100026f0 f   q_math.obj
 0001:00001730       _CalcFov                   10002730 f   q_math.obj
 0001:000017e0       _AdjustFov                 100027e0 f   q_math.obj
 0001:00001930       _BoxOnPlaneSide            10002930 f   q_math.obj
 0001:00001cb0       _SignbitsForPlane          10002cb0 f   q_math.obj
 0001:00001d20       _PlaneTypeForNormal        10002d20 f   q_math.obj
 0001:00001d80       _CategorizePlane           10002d80 f   q_math.obj
 0001:00001ea0       _PlaneFromPoints           10002ea0 f   q_math.obj
 0001:00001ff0       _ComparePlanes             10002ff0 f   q_math.obj
 0001:000020a0       _SnapVector                100030a0 f   q_math.obj
 0001:00002180       _SnapPlane                 10003180 f   q_math.obj
 0001:00002250       _ClearBounds               10003250 f   q_math.obj
 0001:000022a0       _BoundsIntersect           100032a0 f   q_math.obj
 0001:00002340       _BoundsAndSphereIntersect  10003340 f   q_math.obj
 0001:00002440       _AddPointToBounds          10003440 f   q_math.obj
 0001:000024c0       _RadiusFromBounds          100034c0 f   q_math.obj
 0001:000025f0       _VectorNormalize           100035f0 f   q_math.obj
 0001:000026a0       _VectorNormalize2          100036a0 f   q_math.obj
 0001:00002760       _Vector4Normalize          10003760 f   q_math.obj
 0001:00002830       _VectorNormalizeFast       10003830 f   q_math.obj
 0001:000028c0       __VectorMA                 100038c0 f   q_math.obj
 0001:00002910       __DotProduct               10003910 f   q_math.obj
 0001:00002950       __VectorSubtract           10003950 f   q_math.obj
 0001:00002990       __VectorAdd                10003990 f   q_math.obj
 0001:000029d0       __VectorCopy               100039d0 f   q_math.obj
 0001:00002a00       _Q_log2                    10003a00 f   q_math.obj
 0001:00002a30       _VectorReflect             10003a30 f   q_math.obj
 0001:00002ac0       _Matrix3_Identity          10003ac0 f   q_math.obj
 0001:00002b40       _Matrix3_Copy              10003b40 f   q_math.obj
 0001:00002b60       _Matrix3_Compare           10003b60 f   q_math.obj
 0001:00002bb0       _Matrix3_Multiply          10003bb0 f   q_math.obj
 0001:00002d50       _Matrix3_TransformVector   10003d50 f   q_math.obj
 0001:00002de0       _Matrix3_Transpose         10003de0 f   q_math.obj
 0001:00002e50       _Matrix3_FromAngles        10003e50 f   q_math.obj
 0001:00002e80       _Matrix3_ToAngles          10003e80 f   q_math.obj
 0001:00003000       _Matrix3_Rotate            10004000 f   q_math.obj
 0001:00003180       _Matrix3_FromPoints        10004180 f   q_math.obj
 0001:00003380       _Matrix3_Normalize         10004380 f   q_math.obj
 0001:000033c0       _Quat_Identity             100043c0 f   q_math.obj
 0001:000033f0       _Quat_Copy                 100043f0 f   q_math.obj
 0001:00003430       _Quat_Quat3                10004430 f   q_math.obj
 0001:00003500       _Quat_Compare              10004500 f   q_math.obj
 0001:00003560       _Quat_Conjugate            10004560 f   q_math.obj
 0001:000035a0       _Quat_DotProduct           100045a0 f   q_math.obj
 0001:000035f0       _Quat_Normalize            100045f0 f   q_math.obj
 0001:000036b0       _Quat_Inverse              100046b0 f   q_math.obj
 0001:000036e0       _Quat_FromMatrix3          100046e0 f   q_math.obj
 0001:00003920       _Quat_Multiply             10004920 f   q_math.obj
 0001:00003a10       _Quat_Lerp                 10004a10 f   q_math.obj
 0001:00003c30       _Quat_Vectors              10004c30 f   q_math.obj
 0001:00003d60       _Quat_ToMatrix3            10004d60 f   q_math.obj
 0001:00003d90       _Quat_TransformVector      10004d90 f   q_math.obj
 0001:00003ee0       _Quat_ConcatTransforms     10004ee0 f   q_math.obj
 0001:00003f50       _DualQuat_Identity         10004f50 f   q_math.obj
 0001:00003fa0       _DualQuat_Copy             10004fa0 f   q_math.obj
 0001:00003fe0       _DualQuat_FromAnglesAndVector 10004fe0 f   q_math.obj
 0001:00004070       _DualQuat_FromMatrix3AndVector 10005070 f   q_math.obj
 0001:00004180       _DualQuat_FromQuatAndVector 10005180 f   q_math.obj
 0001:000041b0       _DualQuat_FromQuat3AndVector 100051b0 f   q_math.obj
 0001:000041e0       _DualQuat_GetVector        100051e0 f   q_math.obj
 0001:00004340       _DualQuat_ToQuatAndVector  10005340 f   q_math.obj
 0001:00004370       _DualQuat_ToMatrix3AndVector 10005370 f   q_math.obj
 0001:000043a0       _DualQuat_Invert           100053a0 f   q_math.obj
 0001:00004470       _DualQuat_Normalize        10005470 f   q_math.obj
 0001:00004590       _DualQuat_Multiply         10005590 f   q_math.obj
 0001:00004680       _DualQuat_Lerp             10005680 f   q_math.obj
 0001:000046d0       _LogisticCDF               100056d0 f   q_math.obj
 0001:00004710       _LogisticPDF               10005710 f   q_math.obj
 0001:00004770       _NormalCDF                 10005770 f   q_math.obj
 0001:00004980       _NormalPDF                 10005980 f   q_math.obj
 0001:000049e0       _COM_SanitizeFilePath      100059e0 f   q_shared.obj
 0001:00004a50       _COM_ValidateFilename      10005a50 f   q_shared.obj
 0001:00004ab0       _COM_ValidateRelativeFilename 10005ab0 f   q_shared.obj
 0001:00004b20       _COM_StripExtension        10005b20 f   q_shared.obj
 0001:00004ba0       _COM_FileExtension         10005ba0 f   q_shared.obj
 0001:00004c30       _COM_DefaultExtension      10005c30 f   q_shared.obj
 0001:00004d20       _COM_ReplaceExtension      10005d20 f   q_shared.obj
 0001:00004dd0       _COM_FileBase              10005dd0 f   q_shared.obj
 0001:00004e10       _COM_StripFilename         10005e10 f   q_shared.obj
 0001:00004e50       _COM_FilePathLength        10005e50 f   q_shared.obj
 0001:00004e90       _ShortSwap                 10005e90 f   q_shared.obj
 0001:00004ed0       _LongSwap                  10005ed0 f   q_shared.obj
 0001:00004f40       _FloatSwap                 10005f40 f   q_shared.obj
 0001:00004fc0       _Swap_Init                 10005fc0 f   q_shared.obj
 0001:00004fd0       _tv                        10005fd0 f   q_shared.obj
 0001:00005020       _vtos                      10006020 f   q_shared.obj
 0001:000050a0       _va                        100060a0 f   q_shared.obj
 0001:00005110       _COM_Compress              10006110 f   q_shared.obj
 0001:00005320       _COM_ParseExt2             10006320 f   q_shared.obj
 0001:000055a0       _Q_GrabCharFromColorString 100065a0 f   q_shared.obj
 0001:000056a0       _Q_GrabWCharFromColorString 100066a0 f   q_shared.obj
 0001:000057b0       _COM_RemoveColorTokensExt  100067b0 f   q_shared.obj
 0001:000058f0       _COM_SanitizeColorString   100068f0 f   q_shared.obj
 0001:00005ad0       _Q_ColorStringTerminator   10006ad0 f   q_shared.obj
 0001:00005c50       _COM_RemoveJunkChars       10006c50 f   q_shared.obj
 0001:00005dc0       _COM_ReadColorRGBString    10006dc0 f   q_shared.obj
 0001:00005e20       _COM_ValidatePlayerColor   10006e20 f   q_shared.obj
 0001:00005ef0       _Q_memset32                10006ef0 f   q_shared.obj
 0001:00005f30       _Q_strncpyz                10006f30 f   q_shared.obj
 0001:00005f90       _Q_strncatz                10006f90 f   q_shared.obj
 0001:00006030       _Q_vsnprintfz              10007030 f   q_shared.obj
 0001:000060b0       _Q_snprintfz               100070b0 f   q_shared.obj
 0001:000060f0       _Q_strupr                  100070f0 f   q_shared.obj
 0001:00006150       _Q_strlwr                  10007150 f   q_shared.obj
 0001:000061b0       _Q_strlocate               100071b0 f   q_shared.obj
 0001:00006260       _Q_strcount                10007260 f   q_shared.obj
 0001:000062f0       _Q_strrstr                 100072f0 f   q_shared.obj
 0001:00006350       _Q_trim                    10007350 f   q_shared.obj
 0001:00006440       _Q_WCharToUtf8             10007440 f   q_shared.obj
 0001:00006540       _Q_Utf8SyncPos             10007540 f   q_shared.obj
 0001:000065b0       _Q_GrabWCharFromUtf8String 100075b0 f   q_shared.obj
 0001:00006770       _Q_isdigit                 10007770 f   q_shared.obj
 0001:000067c0       _Q_chrreplace              100077c0 f   q_shared.obj
 0001:00006810       _COM_ValidateConfigstring  10007810 f   q_shared.obj
 0001:000068b0       _Info_Validate             100078b0 f   q_shared.obj
 0001:00006a40       _Info_ValueForKey          10007a40 f   q_shared.obj
 0001:00006dd0       _Info_RemoveKey            10007dd0 f   q_shared.obj
 0001:00006f10       _Info_SetValueForKey       10007f10 f   q_shared.obj
 0001:00007150       _Q_GainForAttenuation      10008150 f   q_shared.obj
 0001:000073a0       _BlockAllocator            100083a0 f   q_shared.obj
 0001:00007440       _BA_Alloc                  10008440 f   q_shared.obj
 0001:00007560       _BlockAllocator_Free       10008560 f   q_shared.obj
 0001:000075f0       _LinearAllocator           100085f0 f   q_shared.obj
 0001:000076c0       _LA_Alloc                  100086c0 f   q_shared.obj
 0001:000077c0       _LA_Pointer                100087c0 f   q_shared.obj
 0001:00007800       _LA_Size                   10008800 f   q_shared.obj
 0001:00007810       _LinearAllocator_Free      10008810 f   q_shared.obj
 0001:00007840       _QAL_Init                  10008840 f   qal.obj
 0001:00007e30       _QAL_Shutdown              10008e30 f   qal.obj
 0001:00008130       _stereo_mono               10009130 f   snd_buffers.obj
 0001:00008360       _S_InitBuffers             10009360 f   snd_buffers.obj
 0001:000083c0       _S_ShutdownBuffers         100093c0 f   snd_buffers.obj
 0001:000084f0       _S_SoundList               100094f0 f   snd_buffers.obj
 0001:000085b0       _S_UseBuffer               100095b0 f   snd_buffers.obj
 0001:00008970       _S_GetALBuffer             10009970 f   snd_buffers.obj
 0001:00008980       _S_RegisterSound           10009980 f   snd_buffers.obj
 0001:00008b10       _S_BeginRegistration       10009b10 f   snd_buffers.obj
 0001:00008b40       _S_EndRegistration         10009b40 f   snd_buffers.obj
 0001:00008bf0       _S_FreeSounds              10009bf0 f   snd_buffers.obj
 0001:00008c10       _S_Clear                   10009c10 f   snd_buffers.obj
 0001:00008c20       _S_InitDecoders            10009c20 f   snd_decoder.obj
 0001:00008e70       _S_ShutdownDecoders        10009e70 f   snd_decoder.obj
 0001:00008ec0       _S_LoadSound               10009ec0 f   snd_decoder.obj
 0001:00008ff0       _S_OpenStream              10009ff0 f   snd_decoder.obj
 0001:000090b0       _S_ContOpenStream          1000a0b0 f   snd_decoder.obj
 0001:000090e0       _S_ReadStream              1000a0e0 f   snd_decoder.obj
 0001:00009110       _S_CloseStream             1000a110 f   snd_decoder.obj
 0001:00009140       _S_ResetStream             1000a140 f   snd_decoder.obj
 0001:00009170       _S_EoStream                1000a170 f   snd_decoder.obj
 0001:000091a0       _S_FTellSteam              1000a1a0 f   snd_decoder.obj
 0001:000091d0       _decoder_stream_init       1000a1d0 f   snd_decoder.obj
 0001:00009220       _decoder_stream_shutdown   1000a220 f   snd_decoder.obj
 0001:00009280       _SNDOGG_Shutdown           1000a280 f   snd_decoder_ogg.obj
 0001:00009290       _SNDOGG_Init               1000a290 f   snd_decoder_ogg.obj
 0001:000092a0       _decoder_ogg_load          1000a2a0 f   snd_decoder_ogg.obj
 0001:000099b0       _decoder_ogg_open          1000a9b0 f   snd_decoder_ogg.obj
 0001:00009b10       _decoder_ogg_cont_open     1000ab10 f   snd_decoder_ogg.obj
 0001:00009c90       _decoder_ogg_read          1000ac90 f   snd_decoder_ogg.obj
 0001:00009da0       _decoder_ogg_close         1000ada0 f   snd_decoder_ogg.obj
 0001:00009df0       _decoder_ogg_reset         1000adf0 f   snd_decoder_ogg.obj
 0001:00009e50       _decoder_ogg_eof           1000ae50 f   snd_decoder_ogg.obj
 0001:00009ec0       _decoder_ogg_tell          1000aec0 f   snd_decoder_ogg.obj
 0001:00009f00       _decoder_wav_load          1000af00 f   snd_decoder_wav.obj
 0001:0000a680       _decoder_wav_open          1000b680 f   snd_decoder_wav.obj
 0001:0000a7a0       _decoder_wav_cont_open     1000b7a0 f   snd_decoder_wav.obj
 0001:0000a810       _decoder_wav_read          1000b810 f   snd_decoder_wav.obj
 0001:0000a8d0       _decoder_wav_close         1000b8d0 f   snd_decoder_wav.obj
 0001:0000a910       _decoder_wav_reset         1000b910 f   snd_decoder_wav.obj
 0001:0000a9a0       _decoder_wav_eof           1000b9a0 f   snd_decoder_wav.obj
 0001:0000aa00       _decoder_wav_tell          1000ba00 f   snd_decoder_wav.obj
 0001:0000aa60       _S_BeginAviDemo            1000ba60 f   snd_main.obj
 0001:0000aa70       _S_StopAviDemo             1000ba70 f   snd_main.obj
 0001:0000aa80       _S_SoundFormat             1000ba80 f   snd_main.obj
 0001:0000aaf0       _S_GetBufferLength         1000baf0 f   snd_main.obj
 0001:0000ac40       _S_ErrorMessage            1000bc40 f   snd_main.obj
 0001:0000acd0       _S_API                     1000bcd0 f   snd_main.obj
 0001:0000ace0       _S_Error                   1000bce0 f   snd_main.obj
 0001:0000adc0       _Sys_Error                 1000bdc0 f   snd_main.obj
 0001:0000ae70       _Com_Printf                1000be70 f   snd_main.obj
 0001:0000af50       _S_Init                    1000bf50 f   snd_main.obj
 0001:0000ba60       _S_Shutdown                1000ca60 f   snd_main.obj
 0001:0000bbb0       _S_SetAttenuationModel     1000cbb0 f   snd_main.obj
 0001:0000bcb0       _S_Update                  1000ccb0 f   snd_main.obj
 0001:0000bee0       _S_StopAllSounds           1000cee0 f   snd_main.obj
 0001:0000bf00       _S_Activate                1000cf00 f   snd_main.obj
 0001:0000bf70       _S_UpdateMusic             1000cf70 f   snd_music.obj
 0001:0000c780       _S_StartBackgroundTrack    1000d780 f   snd_music.obj
 0001:0000d270       _S_StopBackgroundTrack     1000e270 f   snd_music.obj
 0001:0000d3d0       _S_PrevBackgroundTrack     1000e3d0 f   snd_music.obj
 0001:0000d3f0       _S_NextBackgroundTrack     1000e3f0 f   snd_music.obj
 0001:0000d410       _S_PauseBackgroundTrack    1000e410 f   snd_music.obj
 0001:0000d470       _S_LockBackgroundTrack     1000e470 f   snd_music.obj
 0001:0000d4a0       _S_InitSources             1000e4a0 f   snd_sources.obj
 0001:0000d5d0       _S_ShutdownSources         1000e5d0 f   snd_sources.obj
 0001:0000d6d0       _S_UpdateSources           1000e6d0 f   snd_sources.obj
 0001:0000da50       _S_AllocSource             1000ea50 f   snd_sources.obj
 0001:0000dbf0       _S_LockSource              1000ebf0 f   snd_sources.obj
 0001:0000dc00       _S_UnlockSource            1000ec00 f   snd_sources.obj
 0001:0000dc10       _S_GetALSource             1000ec10 f   snd_sources.obj
 0001:0000dc20       _S_StartLocalSound         1000ec20 f   snd_sources.obj
 0001:0000df20       _S_StartFixedSound         1000ef20 f   snd_sources.obj
 0001:0000e030       _S_StartRelativeSound      1000f030 f   snd_sources.obj
 0001:0000e060       _S_StartGlobalSound        1000f060 f   snd_sources.obj
 0001:0000e090       _S_AddLoopSound            1000f090 f   snd_sources.obj
 0001:0000e2f0       _S_StopAllSources          1000f2f0 f   snd_sources.obj
 0001:0000e340       _S_UpdateStream            1000f340 f   snd_stream.obj
 0001:0000e5c0       _S_StopStream              1000f5c0 f   snd_stream.obj
 0001:0000e610       _S_RawSamples              1000f610 f   snd_stream.obj
 0001:0000e9f0       _S_GetRawSamplesTime       1000f9f0 f   snd_stream.obj
 0001:0000ead0       _GetSoundAPI               1000fad0 f   snd_syscalls.obj
 0001:0000ebd0       _ov_clear                  1000fbd0 f   libvorbisfile_static:vorbisfile.obj
 0001:0000ed60       _ov_open_callbacks         1000fd60 f   libvorbisfile_static:vorbisfile.obj
 0001:000106b0       _ov_open                   100116b0 f   libvorbisfile_static:vorbisfile.obj
 0001:00010790       _ov_fopen                  10011790 f   libvorbisfile_static:vorbisfile.obj
 0001:00010800       _ov_halfrate               10011800 f   libvorbisfile_static:vorbisfile.obj
 0001:00010920       _ov_halfrate_p             10011920 f   libvorbisfile_static:vorbisfile.obj
 0001:00010950       _ov_test_callbacks         10011950 f   libvorbisfile_static:vorbisfile.obj
 0001:00010990       _ov_test                   10011990 f   libvorbisfile_static:vorbisfile.obj
 0001:00010a40       _ov_test_open              10011a40 f   libvorbisfile_static:vorbisfile.obj
 0001:00010a70       _ov_streams                10011a70 f   libvorbisfile_static:vorbisfile.obj
 0001:00010a80       _ov_seekable               10011a80 f   libvorbisfile_static:vorbisfile.obj
 0001:00010a90       _ov_bitrate                10011a90 f   libvorbisfile_static:vorbisfile.obj
 0001:00010cc0       _ov_bitrate_instant        10011cc0 f   libvorbisfile_static:vorbisfile.obj
 0001:00010d70       _ov_serialnumber           10011d70 f   libvorbisfile_static:vorbisfile.obj
 0001:00010de0       _ov_raw_total              10011de0 f   libvorbisfile_static:vorbisfile.obj
 0001:00010ec0       _ov_pcm_total              10011ec0 f   libvorbisfile_static:vorbisfile.obj
 0001:00010f90       _ov_time_total             10011f90 f   libvorbisfile_static:vorbisfile.obj
 0001:00011050       _ov_raw_seek               10012050 f   libvorbisfile_static:vorbisfile.obj
 0001:000117c0       _ov_pcm_seek_page          100127c0 f   libvorbisfile_static:vorbisfile.obj
 0001:00012300       _ov_pcm_seek               10013300 f   libvorbisfile_static:vorbisfile.obj
 0001:00012df0       _ov_time_seek              10013df0 f   libvorbisfile_static:vorbisfile.obj
 0001:00012f40       _ov_time_seek_page         10013f40 f   libvorbisfile_static:vorbisfile.obj
 0001:00013090       _ov_raw_tell               10014090 f   libvorbisfile_static:vorbisfile.obj
 0001:000130c0       _ov_pcm_tell               100140c0 f   libvorbisfile_static:vorbisfile.obj
 0001:000130f0       _ov_time_tell              100140f0 f   libvorbisfile_static:vorbisfile.obj
 0001:00013230       _ov_info                   10014230 f   libvorbisfile_static:vorbisfile.obj
 0001:000132a0       _ov_comment                100142a0 f   libvorbisfile_static:vorbisfile.obj
 0001:00013310       _ov_read_filter            10014310 f   libvorbisfile_static:vorbisfile.obj
 0001:000139e0       _ov_read                   100149e0 f   libvorbisfile_static:vorbisfile.obj
 0001:00013a20       _ov_read_float             10014a20 f   libvorbisfile_static:vorbisfile.obj
 0001:00013b70       _ov_crosslap               10014b70 f   libvorbisfile_static:vorbisfile.obj
 0001:00014220       _ov_raw_seek_lap           10015220 f   libvorbisfile_static:vorbisfile.obj
 0001:000144e0       _ov_pcm_seek_lap           100154e0 f   libvorbisfile_static:vorbisfile.obj
 0001:00014510       _ov_pcm_seek_page_lap      10015510 f   libvorbisfile_static:vorbisfile.obj
 0001:00014540       _ov_time_seek_lap          10015540 f   libvorbisfile_static:vorbisfile.obj
 0001:00014800       _ov_time_seek_page_lap     10015800 f   libvorbisfile_static:vorbisfile.obj
 0001:00014826       _LoadLibraryA@4            10015826 f   kernel32:KERNEL32.dll
 0001:0001482c       _GetProcAddress@8          1001582c f   kernel32:KERNEL32.dll
 0001:00014832       _FreeLibrary@4             10015832 f   kernel32:KERNEL32.dll
 0001:00014840       __fpmath                   10015840 f   LIBCMTD:_fpinit_.obj
 0001:00014860       __cfltcvt_init             10015860 f   LIBCMTD:_fpinit_.obj
 0001:000148d0       ___setfflag                100158d0 f   LIBCMTD:_fpinit_.obj
 0001:000148f0       __RTC_InitBase             100158f0 f   LIBCMTD:_init_.obj
 0001:00014920       __RTC_Shutdown             10015920 f   LIBCMTD:_init_.obj
 0001:00014940       _atan2                     10015940 f   LIBCMTD:_87ctriga_.obj
 0001:0001494a       __CIatan2                  1001594a f   LIBCMTD:_87ctriga_.obj
 0001:00014960       _acos                      10015960 f   LIBCMTD:_acos_.obj
 0001:000149a0       __CIacos                   100159a0 f   LIBCMTD:_acos_.obj
 0001:000149db       __CIacos_default           100159db f   LIBCMTD:_acos_.obj
 0001:000149ef       __acos_default             100159ef     LIBCMTD:_acos_.obj
 0001:00014ab0       __RTC_CheckEsp             10015ab0 f   LIBCMTD:_stack_.obj
 0001:00014ae0       @_RTC_CheckStackVars@8     10015ae0 f   LIBCMTD:_stack_.obj
 0001:00014b50       @_RTC_AllocaHelper@12      10015b50 f   LIBCMTD:_stack_.obj
 0001:00014b90       @_RTC_CheckStackVars2@12   10015b90 f   LIBCMTD:_stack_.obj
 0001:00014c70       __ftol2_sse                10015c70 f   LIBCMTD:ftol2.obj
 0001:00014c79       __ftol2_pentium4           10015c79 f   LIBCMTD:ftol2.obj
 0001:00014c8c       __ftol2_sse_excpt          10015c8c f   LIBCMTD:ftol2.obj
 0001:00014ca6       __ftol2                    10015ca6 f   LIBCMTD:ftol2.obj
 0001:00014d20       _sin                       10015d20 f   LIBCMTD:_sin_.obj
 0001:00014d60       __CIsin                    10015d60 f   LIBCMTD:_sin_.obj
 0001:00014d9b       __CIsin_default            10015d9b f   LIBCMTD:_sin_.obj
 0001:00014daf       __sin_default              10015daf     LIBCMTD:_sin_.obj
 0001:00014e50       _cos                       10015e50 f   LIBCMTD:_cos_.obj
 0001:00014e90       __CIcos                    10015e90 f   LIBCMTD:_cos_.obj
 0001:00014ecb       __CIcos_default            10015ecb f   LIBCMTD:_cos_.obj
 0001:00014edf       __cos_default              10015edf     LIBCMTD:_cos_.obj
 0001:00014f80       @__security_check_cookie@4 10015f80 f   LIBCMTD:secchk.obj
 0001:00014f90       __CIsqrt                   10015f90 f   LIBCMTD:_sqrt_.obj
 0001:00014fa4       _sqrt                      10015fa4     LIBCMTD:_sqrt_.obj
 0001:00015050       _fabs                      10016050 f   LIBCMTD:_fabs_.obj
 0001:00015150       _atan                      10016150 f   LIBCMTD:_atan_.obj
 0001:00015190       __CIatan                   10016190 f   LIBCMTD:_atan_.obj
 0001:000151cb       __CIatan_default           100161cb f   LIBCMTD:_atan_.obj
 0001:000151df       __atan_default             100161df     LIBCMTD:_atan_.obj
 0001:00015270       _tan                       10016270 f   LIBCMTD:_tan_.obj
 0001:000152b0       __CItan                    100162b0 f   LIBCMTD:_tan_.obj
 0001:000152eb       __CItan_default            100162eb f   LIBCMTD:_tan_.obj
 0001:000152ff       __tan_default              100162ff     LIBCMTD:_tan_.obj
 0001:000153a0       __wassert                  100163a0 f   LIBCMTD:wassert.obj
 0001:00015f30       __invoke_watson_if_error   10016f30 f i LIBCMTD:wassert.obj
 0001:00015fa0       _memcpy                    10016fa0 f   LIBCMTD:memcpy.obj
 0001:00016310       _asin                      10017310 f   LIBCMTD:_asin_.obj
 0001:00016350       __CIasin                   10017350 f   LIBCMTD:_asin_.obj
 0001:0001638b       __CIasin_default           1001738b f   LIBCMTD:_asin_.obj
 0001:0001639f       __asin_default             1001739f     LIBCMTD:_asin_.obj
 0001:00016460       _exp                       10017460 f   LIBCMTD:_87ctran_.obj
 0001:0001649c       __CIexp                    1001749c f   LIBCMTD:_87ctran_.obj
 0001:000164d7       __exp_default              100174d7 f   LIBCMTD:_87ctran_.obj
 0001:000164e1       __CIexp_default            100174e1 f   LIBCMTD:_87ctran_.obj
 0001:000164f0       _abs                       100174f0 f   LIBCMTD:abs.obj
 0001:00016520       __abs64                    10017520 f   LIBCMTD:abs.obj
 0001:00016580       _strchr                    10017580 f   LIBCMTD:strchr.obj
 0001:00016586       ___from_strstr_to_strchr   10017586     LIBCMTD:strchr.obj
 0001:00016640       _strstr                    10017640 f   LIBCMTD:strstr.obj
 0001:000166d0       _strrchr                   100176d0 f   LIBCMTD:strrchr.obj
 0001:00016700       _strlen                    10017700 f   LIBCMTD:strlen.obj
 0001:00016790       __isalpha_l                10017790 f i LIBCMTD:_ctype.obj
 0001:00016820       ??0_LocaleUpdate@@QAE@PAUlocaleinfo_struct@@@Z 10017820 f i LIBCMTD:_ctype.obj
 0001:00016900       ??1_LocaleUpdate@@QAE@XZ   10017900 f i LIBCMTD:_ctype.obj
 0001:00016930       ?GetLocaleT@_LocaleUpdate@@QAEPAUlocaleinfo_struct@@XZ 10017930 f i LIBCMTD:_ctype.obj
 0001:00016940       _isalpha                   10017940 f i LIBCMTD:_ctype.obj
 0001:00016980       __isupper_l                10017980 f i LIBCMTD:_ctype.obj
 0001:00016a00       _isupper                   10017a00 f i LIBCMTD:_ctype.obj
 0001:00016a30       __islower_l                10017a30 f i LIBCMTD:_ctype.obj
 0001:00016ab0       _islower                   10017ab0 f i LIBCMTD:_ctype.obj
 0001:00016ae0       __isdigit_l                10017ae0 f i LIBCMTD:_ctype.obj
 0001:00016b60       _isdigit                   10017b60 f i LIBCMTD:_ctype.obj
 0001:00016b90       __isxdigit_l               10017b90 f i LIBCMTD:_ctype.obj
 0001:00016c20       _isxdigit                  10017c20 f i LIBCMTD:_ctype.obj
 0001:00016c60       __isspace_l                10017c60 f i LIBCMTD:_ctype.obj
 0001:00016ce0       _isspace                   10017ce0 f i LIBCMTD:_ctype.obj
 0001:00016d10       __ispunct_l                10017d10 f i LIBCMTD:_ctype.obj
 0001:00016d90       _ispunct                   10017d90 f i LIBCMTD:_ctype.obj
 0001:00016dc0       __isalnum_l                10017dc0 f i LIBCMTD:_ctype.obj
 0001:00016e50       _isalnum                   10017e50 f i LIBCMTD:_ctype.obj
 0001:00016e90       __isprint_l                10017e90 f i LIBCMTD:_ctype.obj
 0001:00016f20       _isprint                   10017f20 f i LIBCMTD:_ctype.obj
 0001:00016f60       __isgraph_l                10017f60 f i LIBCMTD:_ctype.obj
 0001:00016ff0       _isgraph                   10017ff0 f i LIBCMTD:_ctype.obj
 0001:00017030       __iscntrl_l                10018030 f i LIBCMTD:_ctype.obj
 0001:000170b0       _iscntrl                   100180b0 f i LIBCMTD:_ctype.obj
 0001:000170e0       ___isascii                 100180e0 f i LIBCMTD:_ctype.obj
 0001:00017100       ___toascii                 10018100 f i LIBCMTD:_ctype.obj
 0001:00017110       __iscsymf_l                10018110 f i LIBCMTD:_ctype.obj
 0001:00017150       ___iscsymf                 10018150 f i LIBCMTD:_ctype.obj
 0001:00017190       __iscsym_l                 10018190 f i LIBCMTD:_ctype.obj
 0001:000171d0       ___iscsym                  100181d0 f i LIBCMTD:_ctype.obj
 0001:00017210       _sscanf                    10018210 f   LIBCMTD:sscanf.obj
 0001:000173a0       __sscanf_l                 100183a0 f   LIBCMTD:sscanf.obj
 0001:000173d0       _sscanf_s                  100183d0 f   LIBCMTD:sscanf.obj
 0001:00017400       __sscanf_s_l               10018400 f   LIBCMTD:sscanf.obj
 0001:00017430       __vsnprintf_l              10018430 f   LIBCMTD:vsnprint.obj
 0001:000175f0       __vsnprintf                100185f0 f   LIBCMTD:vsnprint.obj
 0001:00017620       __toupper                  10018620 f   LIBCMTD:toupper.obj
 0001:00017630       __toupper_l                10018630 f   LIBCMTD:toupper.obj
 0001:00017810       _toupper                   10018810 f   LIBCMTD:toupper.obj
 0001:00017860       __tolower                  10018860 f   LIBCMTD:tolower.obj
 0001:00017870       __tolower_l                10018870 f   LIBCMTD:tolower.obj
 0001:00017a50       _tolower                   10018a50 f   LIBCMTD:tolower.obj
 0001:00017aa0       _memmove                   10018aa0 f   LIBCMTD:memmove.obj
 0001:00017e10       _strncpy                   10018e10 f   LIBCMTD:strncpy.obj
 0001:00017f40       _strncmp                   10018f40 f   LIBCMTD:strncmp.obj
 0001:000180c0       _pow                       100190c0 f   LIBCMTD:_pow_.obj
 0001:00018100       __CIpow                    10019100 f   LIBCMTD:_pow_.obj
 0001:0001813b       __CIpow_default            1001913b f   LIBCMTD:_pow_.obj
 0001:00018154       __pow_default              10019154     LIBCMTD:_pow_.obj
 0001:00018350       _memset                    10019350 f   LIBCMTD:memset.obj
 0001:000183d0       __stricmp_l                100193d0 f   LIBCMTD:stricmp.obj
 0001:00018580       ___ascii_stricmp           10019580 f   LIBCMTD:stricmp.obj
 0001:00018600       __stricmp                  10019600 f   LIBCMTD:stricmp.obj
 0001:00018710       _ftell                     10019710 f   LIBCMTD:ftell.obj
 0001:00018800       __ftell_nolock             10019800 f   LIBCMTD:ftell.obj
 0001:00018ad0       _fclose                    10019ad0 f   LIBCMTD:fclose.obj
 0001:00018be0       __fclose_nolock            10019be0 f   LIBCMTD:fclose.obj
 0001:00018ce0       _fread_s                   10019ce0 f   LIBCMTD:fread.obj
 0001:00018e10       __fread_nolock_s           10019e10 f   LIBCMTD:fread.obj
 0001:000193f0       _fread                     1001a3f0 f   LIBCMTD:fread.obj
 0001:00019420       __fread_nolock             1001a420 f   LIBCMTD:fread.obj
 0001:00019450       __fseeki64                 1001a450 f   LIBCMTD:fseeki64.obj
 0001:000195d0       __fseeki64_nolock          1001a5d0 f   LIBCMTD:fseeki64.obj
 0001:00019710       __alloca_probe             1001a710     LIBCMTD:chkstk.obj
 0001:00019710       __chkstk                   1001a710 f   LIBCMTD:chkstk.obj
 0001:00019740       _strcmp                    1001a740 f   LIBCMTD:strcmp.obj
 0001:000197d0       _atol                      1001a7d0 f   LIBCMTD:atox.obj
 0001:000197f0       __atol_l                   1001a7f0 f   LIBCMTD:atox.obj
 0001:00019810       _atoi                      1001a810 f   LIBCMTD:atox.obj
 0001:00019830       __atoi_l                   1001a830 f   LIBCMTD:atox.obj
 0001:00019850       __atoi64                   1001a850 f   LIBCMTD:atox.obj
 0001:00019870       __atoi64_l                 1001a870 f   LIBCMTD:atox.obj
 0001:00019890       _strcpy                    1001a890 f   LIBCMTD:strcat.obj
 0001:000198a0       _strcat                    1001a8a0 f   LIBCMTD:strcat.obj
 0001:00019990       _srand                     1001a990 f   LIBCMTD:rand.obj
 0001:000199b0       _rand                      1001a9b0 f   LIBCMTD:rand.obj
 0001:000199f0       __time64                   1001a9f0 f   LIBCMTD:time64.obj
 0001:00019a70       _qsort                     1001aa70 f   LIBCMTD:qsort.obj
 0001:0001a020       __CRT_INIT@12              1001b020 f   LIBCMTD:dllcrt0.obj
 0001:0001a240       __DllMainCRTStartup@12     1001b240 f   LIBCMTD:dllcrt0.obj
 0001:0001a430       _free                      1001b430 f   LIBCMTD:dbgfree.obj
 0001:0001a450       _calloc                    1001b450 f   LIBCMTD:dbgcalloc.obj
 0001:0001a480       __dosmaperr                1001b480 f   LIBCMTD:dosmap.obj
 0001:0001a4b0       __get_errno_from_oserr     1001b4b0 f   LIBCMTD:dosmap.obj
 0001:0001a530       __set_errno                1001b530 f   LIBCMTD:dosmap.obj
 0001:0001a560       __get_errno                1001b560 f   LIBCMTD:dosmap.obj
 0001:0001a5e0       __set_doserrno             1001b5e0 f   LIBCMTD:dosmap.obj
 0001:0001a610       __get_doserrno             1001b610 f   LIBCMTD:dosmap.obj
 0001:0001a690       __errno                    1001b690 f   LIBCMTD:dosmap.obj
 0001:0001a6c0       ___doserrno                1001b6c0 f   LIBCMTD:dosmap.obj
 0001:0001a6f0       _malloc                    1001b6f0 f   LIBCMTD:dbgmalloc.obj
 0001:0001a720       _realloc                   1001b720 f   LIBCMTD:dbgrealloc.obj
 0001:0001a750       __alldiv                   1001b750 f   LIBCMTD:lldiv.obj
 0001:0001a800       _fseek                     1001b800 f   LIBCMTD:fseek.obj
 0001:0001a970       __fseek_nolock             1001b970 f   LIBCMTD:fseek.obj
 0001:0001aa50       __fsopen                   1001ba50 f   LIBCMTD:fopen.obj
 0001:0001ac60       _fopen                     1001bc60 f   LIBCMTD:fopen.obj
 0001:0001ac80       _fopen_s                   1001bc80 f   LIBCMTD:fopen.obj
 0001:0001ad20       _floor                     1001bd20 f   LIBCMTD:_floor_pentium4_.obj
 0001:0001ad60       __floor_pentium4           1001bd60 f   LIBCMTD:_floor_pentium4_.obj
 0001:0001ae50       __allmul                   1001be50 f   LIBCMTD:llmul.obj
 0001:0001ae90       __allshl                   1001be90 f   LIBCMTD:llshl.obj
 0001:0001aeb0       __allshr                   1001beb0 f   LIBCMTD:llshr.obj
 0001:0001aee0       __alloca_probe_16          1001bee0 f   LIBCMTD:alloca16.obj
 0001:0001aef6       __alloca_probe_8           1001bef6     LIBCMTD:alloca16.obj
 0001:0001af10       __setdefaultprecision      1001bf10 f   LIBCMTD:fp8.obj
 0001:0001af50       __forcdecpt                1001bf50 f   LIBCMTD:cvt.obj
 0001:0001af70       __forcdecpt_l              1001bf70 f   LIBCMTD:cvt.obj
 0001:0001b030       __cropzeros                1001c030 f   LIBCMTD:cvt.obj
 0001:0001b050       __cropzeros_l              1001c050 f   LIBCMTD:cvt.obj
 0001:0001b160       __positive                 1001c160 f   LIBCMTD:cvt.obj
 0001:0001b190       __fassign_l                1001c190 f   LIBCMTD:cvt.obj
 0001:0001b1f0       __fassign                  1001c1f0 f   LIBCMTD:cvt.obj
 0001:0001b210       __cftoe_l                  1001c210 f   LIBCMTD:cvt.obj
 0001:0001b760       __cftoe                    1001c760 f   LIBCMTD:cvt.obj
 0001:0001b790       __cftoa_l                  1001c790 f   LIBCMTD:cvt.obj
 0001:0001bf70       ?strrchr@@YAPADPADH@Z      1001cf70 f i LIBCMTD:cvt.obj
 0001:0001bf90       __cftoa                    1001cf90 f   LIBCMTD:cvt.obj
 0001:0001bfc0       __cftof_l                  1001cfc0 f   LIBCMTD:cvt.obj
 0001:0001c3d0       __cftof                    1001d3d0 f   LIBCMTD:cvt.obj
 0001:0001c400       __cftog_l                  1001d400 f   LIBCMTD:cvt.obj
 0001:0001c630       __cftog                    1001d630 f   LIBCMTD:cvt.obj
 0001:0001c660       __cfltcvt_l                1001d660 f   LIBCMTD:cvt.obj
 0001:0001c720       __cfltcvt                  1001d720 f   LIBCMTD:cvt.obj
 0001:0001c780       __initp_misc_cfltcvt_tab   1001d780 f   LIBCMTD:cmiscdat.obj
 0001:0001c7c0       __RTC_NumErrors            1001d7c0 f   LIBCMTD:_userapi_.obj
 0001:0001c7d0       __RTC_GetErrDesc           1001d7d0 f   LIBCMTD:_userapi_.obj
 0001:0001c7f0       __RTC_SetErrorType         1001d7f0 f   LIBCMTD:_userapi_.obj
 0001:0001c820       __RTC_SetErrorFunc         1001d820 f   LIBCMTD:_userapi_.obj
 0001:0001c840       __RTC_SetErrorFuncW        1001d840 f   LIBCMTD:_userapi_.obj
 0001:0001c860       ?_RTC_GetErrorFunc@@YAP6AHHPBDH00ZZPBX@Z 1001d860 f   LIBCMTD:_userapi_.obj
 0001:0001c870       ?_RTC_GetErrorFuncW@@YAP6AHHPB_WH00ZZPBX@Z 1001d870 f   LIBCMTD:_userapi_.obj
 0001:0001c880       __chkesp                   1001d880 f   LIBCMTD:chkesp.obj
 0001:0001c8c0       __CRT_RTC_INIT             1001d8c0 f   LIBCMTD:chkesp.obj
 0001:0001c8d0       __CRT_RTC_INITW            1001d8d0 f   LIBCMTD:chkesp.obj
 0001:0001c8fc       __fFATN2                   1001d8fc     LIBCMTD:_87triga_.obj
 0001:0001c94c       __rtpiby2                  1001d94c     LIBCMTD:_87triga_.obj
 0001:0001c990       __cintrindisp2             1001d990 f   LIBCMTD:_87cdisp_.obj
 0001:0001c9ce       __cintrindisp1             1001d9ce f   LIBCMTD:_87cdisp_.obj
 0001:0001ca0b       __ctrandisp2               1001da0b f   LIBCMTD:_87cdisp_.obj
 0001:0001cb9a       __ctrandisp1               1001db9a f   LIBCMTD:_87cdisp_.obj
 0001:0001cbcd       __fload                    1001dbcd f   LIBCMTD:_87cdisp_.obj
 0001:0001cc10       __set_SSE2_enable          1001dc10 f   LIBCMTD:_mathfcns_.obj
 0001:0001cc30       __sse2_mathfcns_init       1001dc30 f   LIBCMTD:_mathfcns_.obj
 0001:0001cc50       __CIacos_pentium4          1001dc50 f   LIBCMTD:_acos_pentium4_.obj
 0001:0001cc68       __acos_pentium4            1001dc68     LIBCMTD:_acos_pentium4_.obj
 0001:0001d1b0       __trandisp1                1001e1b0 f   LIBCMTD:_87disp_.obj
 0001:0001d217       __trandisp2                1001e217 f   LIBCMTD:_87disp_.obj
 0001:0001d2a3       __rttospopde               1001e2a3     LIBCMTD:_87disp_.obj
 0001:0001d2a8       __rttospop                 1001e2a8     LIBCMTD:_87disp_.obj
 0001:0001d2aa       __rtnospop                 1001e2aa     LIBCMTD:_87disp_.obj
 0001:0001d2ac       __rttosnpop                1001e2ac     LIBCMTD:_87disp_.obj
 0001:0001d2ad       __rtnospopde               1001e2ad     LIBCMTD:_87disp_.obj
 0001:0001d2b4       __rtzeropop                1001e2b4     LIBCMTD:_87disp_.obj
 0001:0001d2b6       __rtzeronpop               1001e2b6     LIBCMTD:_87disp_.obj
 0001:0001d2bb       __rtonepop                 1001e2bb     LIBCMTD:_87disp_.obj
 0001:0001d2bd       __rtonenpop                1001e2bd     LIBCMTD:_87disp_.obj
 0001:0001d2c2       __tosnan1                  1001e2c2     LIBCMTD:_87disp_.obj
 0001:0001d2ed       __nosnan2                  1001e2ed     LIBCMTD:_87disp_.obj
 0001:0001d2ef       __tosnan2                  1001e2ef     LIBCMTD:_87disp_.obj
 0001:0001d317       __nan2                     1001e317     LIBCMTD:_87disp_.obj
 0001:0001d356       __rtindfpop                1001e356     LIBCMTD:_87disp_.obj
 0001:0001d358       __rtindfnpop               1001e358     LIBCMTD:_87disp_.obj
 0001:0001d369       __rttosnpopde              1001e369     LIBCMTD:_87disp_.obj
 0001:0001d373       __rtchsifneg               1001e373     LIBCMTD:_87disp_.obj
 0001:0001d380       __startTwoArgErrorHandling 1001e380 f   LIBCMTD:_genexcep_.obj
 0001:0001d397       __startOneArgErrorHandling 1001e397 f   LIBCMTD:_genexcep_.obj
 0001:0001d3e0       __twoToTOS                 1001e3e0 f   LIBCMTD:_common_.obj
 0001:0001d3f5       __load_CW                  1001e3f5 f   LIBCMTD:_common_.obj
 0001:0001d40c       __convertTOStoQNaN         1001e40c f   LIBCMTD:_common_.obj
 0001:0001d425       __fload_withFB             1001e425 f   LIBCMTD:_common_.obj
 0001:0001d468       __checkTOS_withFB          1001e468 f   LIBCMTD:_common_.obj
 0001:0001d47e       __fast_exit                1001e47e f   LIBCMTD:_common_.obj
 0001:0001d48b       __math_exit                1001e48b f   LIBCMTD:_common_.obj
 0001:0001d4b5       __check_overflow_exit      1001e4b5 f   LIBCMTD:_common_.obj
 0001:0001d4c9       __check_range_exit         1001e4c9 f   LIBCMTD:_common_.obj
 0001:0001d570       ?_RTC_Failure@@YAXPAXH@Z   1001e570 f   LIBCMTD:_error_.obj
 0001:0001d920       ?_RTC_StackFailure@@YAXPAXPBD@Z 1001e920 f   LIBCMTD:_error_.obj
 0001:0001da20       ?_RTC_AllocaFailure@@YAXPAXPAU_RTC_ALLOCA_NODE@@H@Z 1001ea20 f   LIBCMTD:_error_.obj
 0001:0001dbd0       __RTC_UninitUse            1001ebd0 f   LIBCMTD:_error_.obj
 0001:0001dcc0       ___sse2_available_init     1001ecc0 f   LIBCMTD:cpu_disp.obj
 0001:0001dce0       __CIsin_pentium4           1001ece0 f   LIBCMTD:_sin_pentium4_.obj
 0001:0001dcf8       __sin_pentium4             1001ecf8     LIBCMTD:_sin_pentium4_.obj
 0001:0001deb0       __CIcos_pentium4           1001eeb0 f   LIBCMTD:_cos_pentium4_.obj
 0001:0001dec8       __cos_pentium4             1001eec8     LIBCMTD:_cos_pentium4_.obj
 0001:0001e060       ___report_gsfailure        1001f060 f   LIBCMTD:gs_report.obj
 0001:0001e170       __handle_qnan1             1001f170 f   LIBCMTD:_fpexcept_.obj
 0001:0001e1d0       __handle_qnan2             1001f1d0 f   LIBCMTD:_fpexcept_.obj
 0001:0001e240       __except1                  1001f240 f   LIBCMTD:_fpexcept_.obj
 0001:0001e340       __except2                  1001f340 f   LIBCMTD:_fpexcept_.obj
 0001:0001e450       __raise_exc_ex             1001f450 f   LIBCMTD:_fpexcept_.obj
 0001:0001e980       __raise_exc                1001f980 f   LIBCMTD:_fpexcept_.obj
 0001:0001e9b0       __raise_excf               1001f9b0 f   LIBCMTD:_fpexcept_.obj
 0001:0001e9e0       __handle_exc               1001f9e0 f   LIBCMTD:_fpexcept_.obj
 0001:0001ecf0       __umatherr                 1001fcf0 f   LIBCMTD:_fpexcept_.obj
 0001:0001ed90       __set_errno_from_matherr   1001fd90 f   LIBCMTD:_fpexcept_.obj
 0001:0001ee20       __errcode                  1001fe20 f   LIBCMTD:_fpexcept_.obj
 0001:0001ee90       __set_exp                  1001fe90 f   LIBCMTD:_util_.obj
 0001:0001eed0       __get_exp                  1001fed0 f   LIBCMTD:_util_.obj
 0001:0001ef00       __add_exp                  1001ff00 f   LIBCMTD:_util_.obj
 0001:0001ef40       __set_bexp                 1001ff40 f   LIBCMTD:_util_.obj
 0001:0001ef70       __sptype                   1001ff70 f   LIBCMTD:_util_.obj
 0001:0001eff0       __decomp                   1001fff0 f   LIBCMTD:_util_.obj
 0001:0001f120       __statfp                   10020120 f   LIBCMTD:_fpctrl_.obj
 0001:0001f140       __clrfp                    10020140 f   LIBCMTD:_fpctrl_.obj
 0001:0001f160       __ctrlfp                   10020160 f   LIBCMTD:_fpctrl_.obj
 0001:0001f190       __set_statfp               10020190 f   LIBCMTD:_fpctrl_.obj
 0001:0001f200       ___get_fpsr_sse2           10020200 f   LIBCMTD:_fpctrl_.obj
 0001:0001f230       ___set_fpsr_sse2           10020230 f   LIBCMTD:_fpctrl_.obj
 0001:0001f310       ___fclrf_sse2              10020310 f   LIBCMTD:_fpctrl_.obj
 0001:0001f330       ___statfp_sse2             10020330 f   LIBCMTD:_fpctrl_.obj
 0001:0001f360       ___clrfp_sse2              10020360 f   LIBCMTD:_fpctrl_.obj
 0001:0001f3a0       ___ctrlfp_sse2             100203a0 f   LIBCMTD:_fpctrl_.obj
 0001:0001f400       ___set_statfp_sse2         10020400 f   LIBCMTD:_fpctrl_.obj
 0001:0001f430       __CIatan_pentium4          10020430 f   LIBCMTD:_atan_pentium4_.obj
 0001:0001f448       __atan_pentium4            10020448     LIBCMTD:_atan_pentium4_.obj
 0001:0001f720       __CItan_pentium4           10020720 f   LIBCMTD:_tan_pentium4_.obj
 0001:0001f738       __tan_pentium4             10020738     LIBCMTD:_tan_pentium4_.obj
 0001:0001f980       __cinit                    10020980 f   LIBCMTD:crt0dat.obj
 0001:0001fa20       _exit                      10020a20 f   LIBCMTD:crt0dat.obj
 0001:0001fa40       __exit                     10020a40 f   LIBCMTD:crt0dat.obj
 0001:0001fa60       __cexit                    10020a60 f   LIBCMTD:crt0dat.obj
 0001:0001fa80       __c_exit                   10020a80 f   LIBCMTD:crt0dat.obj
 0001:0001faa0       __amsg_exit                10020aa0 f   LIBCMTD:crt0dat.obj
 0001:0001fad0       ___freeCrtMemory           10020ad0 f   LIBCMTD:crt0dat.obj
 0001:0001fe10       ___crtCorExitProcess       10020e10 f   LIBCMTD:crt0dat.obj
 0001:0001fe50       ___crtExitProcess          10020e50 f   LIBCMTD:crt0dat.obj
 0001:0001fe70       __lockexit                 10020e70 f   LIBCMTD:crt0dat.obj
 0001:0001fe90       __unlockexit               10020e90 f   LIBCMTD:crt0dat.obj
 0001:0001feb0       __init_pointers            10020eb0 f   LIBCMTD:crt0dat.obj
 0001:0001ff40       __initterm_e               10020f40 f   LIBCMTD:crt0dat.obj
 0001:0001ff80       __get_wpgmptr              10020f80 f   LIBCMTD:crt0dat.obj
 0001:00020070       __get_pgmptr               10021070 f   LIBCMTD:crt0dat.obj
 0001:00020160       __initp_misc_winsig        10021160 f   LIBCMTD:winsig.obj
 0001:00020190       _signal                    10021190 f   LIBCMTD:winsig.obj
 0001:00020630       _raise                     10021630 f   LIBCMTD:winsig.obj
 0001:000209a0       ___get_sigabrt             100219a0 f   LIBCMTD:winsig.obj
 0001:000209c0       ___fpecode                 100219c0 f   LIBCMTD:winsig.obj
 0001:000209d0       ___pxcptinfoptrs           100219d0 f   LIBCMTD:winsig.obj
 0001:000209e0       ___crtMessageBoxW          100219e0 f   LIBCMTD:crtmboxw.obj
 0001:00020c00       __itow_s                   10021c00 f   LIBCMTD:xtows.obj
 0001:00020fe0       __ltow_s                   10021fe0 f   LIBCMTD:xtows.obj
 0001:00021020       __ultow_s                  10022020 f   LIBCMTD:xtows.obj
 0001:00021040       __i64tow_s                 10022040 f   LIBCMTD:xtows.obj
 0001:00021460       __ui64tow_s                10022460 f   LIBCMTD:xtows.obj
 0001:00021480       _wcsncat_s                 10022480 f   LIBCMTD:wcsncat_s.obj
 0001:00021930       _wcsncpy_s                 10022930 f   LIBCMTD:wcsncpy_s.obj
 0001:00021d40       _wcscat_s                  10022d40 f   LIBCMTD:wcscat_s.obj
 0001:00022130       _wcscpy_s                  10023130 f   LIBCMTD:wcscpy_s.obj
 0001:00022410       _fflush                    10023410 f   LIBCMTD:fflush.obj
 0001:000224b0       __fflush_nolock            100234b0 f   LIBCMTD:fflush.obj
 0001:00022510       __flush                    10023510 f   LIBCMTD:fflush.obj
 0001:000225d0       __flushall                 100235d0 f   LIBCMTD:fflush.obj
 0001:000227a0       _fwprintf                  100237a0 f   LIBCMTD:fwprintf.obj
 0001:00022920       __fwprintf_l               10023920 f   LIBCMTD:fwprintf.obj
 0001:00022950       __fwprintf_s_l             10023950 f   LIBCMTD:fwprintf.obj
 0001:00022980       _fwprintf_s                10023980 f   LIBCMTD:fwprintf.obj
 0001:000229b0       __fwprintf_p_l             100239b0 f   LIBCMTD:fwprintf.obj
 0001:000229e0       __fwprintf_p               100239e0 f   LIBCMTD:fwprintf.obj
 0001:00022a10       _setvbuf                   10023a10 f   LIBCMTD:setvbuf.obj
 0001:00022ce0       ___iob_func                10023ce0 f   LIBCMTD:_file.obj
 0001:00022cf0       ___initstdio               10023cf0 f   LIBCMTD:_file.obj
 0001:00022e40       ___endstdio                10023e40 f   LIBCMTD:_file.obj
 0001:00022e70       __lock_file                10023e70 f   LIBCMTD:_file.obj
 0001:00022ed0       __lock_file2               10023ed0 f   LIBCMTD:_file.obj
 0001:00022f10       __unlock_file              10023f10 f   LIBCMTD:_file.obj
 0001:00022f70       __unlock_file2             10023f70 f   LIBCMTD:_file.obj
 0001:00022fb0       _abort                     10023fb0 f   LIBCMTD:abort.obj
 0001:00023010       __set_abort_behavior       10024010 f   LIBCMTD:abort.obj
 0001:00023040       _wcslen                    10024040 f   LIBCMTD:wcslen.obj
 0001:00023070       __set_error_mode           10024070 f   LIBCMTD:errmode.obj
 0001:00023130       ___set_app_type            10024130 f   LIBCMTD:errmode.obj
 0001:00023140       __initp_misc_invarg        10024140 f   LIBCMTD:invarg.obj
 0001:00023150       __invalid_parameter        10024150 f   LIBCMTD:invarg.obj
 0001:000231b0       __invoke_watson            100241b0 f   LIBCMTD:invarg.obj
 0001:000231e0       __call_reportfault         100241e0 f   LIBCMTD:invarg.obj
 0001:00023330       __set_invalid_parameter_handler 10024330 f   LIBCMTD:invarg.obj
 0001:00023370       __get_invalid_parameter_handler 10024370 f   LIBCMTD:invarg.obj
 0001:000233a0       ?_invalid_parameter@@YAXPBG00II@Z 100243a0 f   LIBCMTD:invarg.obj
 0001:000233d0       ?_invoke_watson@@YAXPBG00II@Z 100243d0 f   LIBCMTD:invarg.obj
 0001:000233f0       __vswprintf_helper         100243f0 f   LIBCMTD:vswprnc.obj
 0001:00023650       __vswprintf_c              10024650 f   LIBCMTD:vswprnc.obj
 0001:000236a0       __vswprintf_c_l            100246a0 f   LIBCMTD:vswprnc.obj
 0001:000236f0       __vswprintf_s_l            100246f0 f   LIBCMTD:vswprnc.obj
 0001:00023960       _vswprintf_s               10024960 f   LIBCMTD:vswprnc.obj
 0001:00023990       __vsnwprintf_s_l           10024990 f   LIBCMTD:vswprnc.obj
 0001:00023d40       __vsnwprintf_s             10024d40 f   LIBCMTD:vswprnc.obj
 0001:00023d70       __vswprintf_p              10024d70 f   LIBCMTD:vswprnc.obj
 0001:00023dc0       __vswprintf_p_l            10024dc0 f   LIBCMTD:vswprnc.obj
 0001:00023e10       __VEC_memcpy               10024e10 f   LIBCMTD:p4_memcpy.obj
 0001:00023f20       __CIasin_pentium4          10024f20 f   LIBCMTD:_asin_pentium4_.obj
 0001:00023f38       __asin_pentium4            10024f38     LIBCMTD:_asin_pentium4_.obj
 0001:000244a0       __CIexp_pentium4           100254a0 f   LIBCMTD:_exp_pentium4_.obj
 0001:000244b8       __exp_pentium4             100254b8     LIBCMTD:_exp_pentium4_.obj
 0001:00024771       __fFEXP                    10025771     LIBCMTD:_87tran_.obj
 0001:000247c8       __rtinfpopse               100257c8     LIBCMTD:_87tran_.obj
 0001:000247ca       __rtinfnpopse              100257ca     LIBCMTD:_87tran_.obj
 0001:000247da       __fFLN                     100257da     LIBCMTD:_87tran_.obj
 0001:0002488f       __rtinfpop                 1002588f     LIBCMTD:_87tran_.obj
 0001:00024891       __rtinfnpop                10025891     LIBCMTD:_87tran_.obj
 0001:000248ae       __ffexpm1                  100258ae     LIBCMTD:_87tran_.obj
 0001:00024960       __chvalidator              10025960 f   LIBCMTD:isctype.obj
 0001:000249b0       __chvalidator_l            100259b0 f   LIBCMTD:isctype.obj
 0001:00024a60       __isctype_l                10025a60 f   LIBCMTD:isctype.obj
 0001:00024b80       __isctype                  10025b80 f   LIBCMTD:isctype.obj
 0001:00024bc0       ___updatetmbcinfo          10025bc0 f   LIBCMTD:mbctype.obj
 0001:00024cd0       __setmbcp                  10025cd0 f   LIBCMTD:mbctype.obj
 0001:00025080       __setmbcp_nolock           10026080 f   LIBCMTD:mbctype.obj
 0001:00025870       __getmbcp                  10026870 f   LIBCMTD:mbctype.obj
 0001:000258e0       ___initmbctable            100268e0 f   LIBCMTD:mbctype.obj
 0001:00025910       ___addlocaleref            10026910 f   LIBCMTD:localref.obj
 0001:00025a30       ___removelocaleref         10026a30 f   LIBCMTD:localref.obj
 0001:00025b60       ___freetlocinfo            10026b60 f   LIBCMTD:localref.obj
 0001:00025e40       __updatetlocinfoEx_nolock  10026e40 f   LIBCMTD:localref.obj
 0001:00025ec0       ___updatetlocinfo          10026ec0 f   LIBCMTD:localref.obj
 0001:00025f90       __encoded_null             10026f90 f   LIBCMTD:tidtable.obj
 0001:00025fa0       ___crtTlsAlloc@4           10026fa0 f   LIBCMTD:tidtable.obj
 0001:00025fb0       ___fls_getvalue@4          10026fb0 f   LIBCMTD:tidtable.obj
 0001:00025fd0       ___get_flsindex            10026fd0 f   LIBCMTD:tidtable.obj
 0001:00025fe0       ___set_flsgetvalue         10026fe0 f   LIBCMTD:tidtable.obj
 0001:00026030       ___fls_setvalue@8          10027030 f   LIBCMTD:tidtable.obj
 0001:00026050       __mtinit                   10027050 f   LIBCMTD:tidtable.obj
 0001:00026250       __mtterm                   10027250 f   LIBCMTD:tidtable.obj
 0001:000262b0       __initptd                  100272b0 f   LIBCMTD:tidtable.obj
 0001:000263e0       __getptd_noexit            100273e0 f   LIBCMTD:tidtable.obj
 0001:000264a0       __getptd                   100274a0 f   LIBCMTD:tidtable.obj
 0001:000264d0       __freefls@4                100274d0 f   LIBCMTD:tidtable.obj
 0001:000266e0       __freeptd                  100276e0 f   LIBCMTD:tidtable.obj
 0001:00026760       ___threadid                10027760 f   LIBCMTD:tidtable.obj
 0001:00026770       ___threadhandle            10027770 f   LIBCMTD:tidtable.obj
 0001:00026780       ____setlc_active_func      10027780 f   LIBCMTD:setlocal.obj
 0001:00026790       ____unguarded_readlc_active_add_func 10027790 f   LIBCMTD:setlocal.obj
 0001:000267a0       __configthreadlocale       100277a0 f   LIBCMTD:setlocal.obj
 0001:000268b0       __locterm                  100278b0 f   LIBCMTD:setlocal.obj
 0001:00026950       __free_locale              10027950 f   LIBCMTD:setlocal.obj
 0001:00026a90       ___free_locale             10027a90 f   LIBCMTD:setlocal.obj
 0001:00026ab0       __create_locale            10027ab0 f   LIBCMTD:setlocal.obj
 0001:00026ce0       ___create_locale           10027ce0 f   LIBCMTD:setlocal.obj
 0001:00026d00       __get_current_locale       10027d00 f   LIBCMTD:setlocal.obj
 0001:00026e20       ___get_current_locale      10027e20 f   LIBCMTD:setlocal.obj
 0001:00026e30       _setlocale                 10027e30 f   LIBCMTD:setlocal.obj
 0001:00027ce0       __expandlocale             10028ce0 f   LIBCMTD:setlocal.obj
 0001:00027f90       ___init_dummy              10028f90 f   LIBCMTD:setlocal.obj
 0001:00027fa0       __strcats                  10028fa0 f   LIBCMTD:setlocal.obj
 0001:00028020       ___lc_strtolc              10029020 f   LIBCMTD:setlocal.obj
 0001:00028220       ___lc_lctostr              10029220 f   LIBCMTD:setlocal.obj
 0001:000282c0       __input_l                  100292c0 f   LIBCMTD:input.obj
 0001:00029b40       __INTRN_LOCALE_CONV        1002ab40 f i LIBCMTD:input.obj
 0001:00029c70       __CrtSetReportHookW2       1002ac70 f   LIBCMTD:dbgrptw.obj
 0001:00029fa0       __CrtDbgReportW            1002afa0 f   LIBCMTD:dbgrptw.obj
 0001:00029fe0       __CrtDbgReportWV           1002afe0 f i LIBCMTD:dbgrptw.obj
 0001:0002a010       ___crtMessageWindowW       1002b010 f   LIBCMTD:dbgrptw.obj
 0001:0002a410       __invoke_watson_if_oneof   1002b410 f i LIBCMTD:dbgrptw.obj
 0001:0002a450       ?_CrtDbgReportW@@YAHHPBGH00ZZ 1002b450 f   LIBCMTD:dbgrptw.obj
 0001:0002a490       __input_s_l                1002b490 f   LIBCMTD:inputs.obj
 0001:0002c1d0       __flsbuf                   1002d1d0 f   LIBCMTD:_flsbuf.obj
 0001:0002c490       __output_l                 1002d490 f   LIBCMTD:output.obj
 0001:0002d900       _get_int_arg               1002e900 f i LIBCMTD:output.obj
 0001:0002d920       _get_int64_arg             1002e920 f i LIBCMTD:output.obj
 0001:0002d940       _get_short_arg             1002e940 f i LIBCMTD:output.obj
 0001:0002d960       ___crtLCMapStringA         1002e960 f   LIBCMTD:a_map.obj
 0001:0002dc50       __MarkAllocaS              1002ec50 f i LIBCMTD:a_map.obj
 0001:0002dc80       __freea                    1002ec80 f i LIBCMTD:a_map.obj
 0001:0002dd40       __isleadbyte_l             1002ed40 f i LIBCMTD:_wctype.obj
 0001:0002dd90       _isleadbyte                1002ed90 f i LIBCMTD:_wctype.obj
 0001:0002ddb0       __iswalpha_l               1002edb0 f i LIBCMTD:_wctype.obj
 0001:0002ddd0       _iswalpha                  1002edd0 f i LIBCMTD:_wctype.obj
 0001:0002ddf0       __iswupper_l               1002edf0 f i LIBCMTD:_wctype.obj
 0001:0002de10       _iswupper                  1002ee10 f i LIBCMTD:_wctype.obj
 0001:0002de30       __iswlower_l               1002ee30 f i LIBCMTD:_wctype.obj
 0001:0002de50       _iswlower                  1002ee50 f i LIBCMTD:_wctype.obj
 0001:0002de70       __iswdigit_l               1002ee70 f i LIBCMTD:_wctype.obj
 0001:0002de90       _iswdigit                  1002ee90 f i LIBCMTD:_wctype.obj
 0001:0002deb0       __iswxdigit_l              1002eeb0 f i LIBCMTD:_wctype.obj
 0001:0002ded0       _iswxdigit                 1002eed0 f i LIBCMTD:_wctype.obj
 0001:0002def0       __iswspace_l               1002eef0 f i LIBCMTD:_wctype.obj
 0001:0002df10       _iswspace                  1002ef10 f i LIBCMTD:_wctype.obj
 0001:0002df30       __iswpunct_l               1002ef30 f i LIBCMTD:_wctype.obj
 0001:0002df50       _iswpunct                  1002ef50 f i LIBCMTD:_wctype.obj
 0001:0002df70       __iswalnum_l               1002ef70 f i LIBCMTD:_wctype.obj
 0001:0002df90       _iswalnum                  1002ef90 f i LIBCMTD:_wctype.obj
 0001:0002dfb0       __iswprint_l               1002efb0 f i LIBCMTD:_wctype.obj
 0001:0002dfd0       _iswprint                  1002efd0 f i LIBCMTD:_wctype.obj
 0001:0002dff0       __iswgraph_l               1002eff0 f i LIBCMTD:_wctype.obj
 0001:0002e010       _iswgraph                  1002f010 f i LIBCMTD:_wctype.obj
 0001:0002e030       __iswcntrl_l               1002f030 f i LIBCMTD:_wctype.obj
 0001:0002e050       _iswcntrl                  1002f050 f i LIBCMTD:_wctype.obj
 0001:0002e070       _iswascii                  1002f070 f i LIBCMTD:_wctype.obj
 0001:0002e090       __iswcsym_l                1002f090 f i LIBCMTD:_wctype.obj
 0001:0002e0d0       ___iswcsym                 1002f0d0 f i LIBCMTD:_wctype.obj
 0001:0002e110       __iswcsymf_l               1002f110 f i LIBCMTD:_wctype.obj
 0001:0002e150       ___iswcsymf                1002f150 f i LIBCMTD:_wctype.obj
 0001:0002e190       __CIpow_pentium4           1002f190 f   LIBCMTD:_pow_pentium4_.obj
 0001:0002e1a9       __pow_pentium4             1002f1a9     LIBCMTD:_pow_pentium4_.obj
 0001:0002ecf0       __powhlp                   1002fcf0 f   LIBCMTD:_powhlp_.obj
 0001:0002eea0       __d_inttype                1002fea0 f   LIBCMTD:_powhlp_.obj
 0001:0002ef30       __VEC_memzero              1002ff30 f   LIBCMTD:p4_memset.obj
 0001:0002eff0       __except_handler4          1002fff0 f   LIBCMTD:chandler4.obj
 0001:0002f210       __ioinit                   10030210 f   LIBCMTD:ioinit.obj
 0001:0002f620       __ioterm                   10030620 f   LIBCMTD:ioinit.obj
 0001:0002f6c0       __lseek                    100306c0 f   LIBCMTD:lseek.obj
 0001:0002f8f0       __lseek_nolock             100308f0 f   LIBCMTD:lseek.obj
 0001:0002f9d0       __fileno                   100309d0 f   LIBCMTD:fileno.obj
 0001:0002fa50       __malloc_dbg               10030a50 f   LIBCMTD:dbgheap.obj
 0001:0002fa80       __nh_malloc                10030a80 f   LIBCMTD:dbgheap.obj
 0001:0002faa0       __nh_malloc_dbg            10030aa0 f   LIBCMTD:dbgheap.obj
 0001:0002fb80       __heap_alloc               10030b80 f   LIBCMTD:dbgheap.obj
 0001:0002ff60       __heap_alloc_dbg           10030f60 f   LIBCMTD:dbgheap.obj
 0001:0002ffc0       __calloc_dbg_impl          10030fc0 f   LIBCMTD:dbgheap.obj
 0001:00030040       __calloc_dbg               10031040 f   LIBCMTD:dbgheap.obj
 0001:000300a0       __recalloc                 100310a0 f   LIBCMTD:dbgheap.obj
 0001:000300d0       __realloc_dbg              100310d0 f   LIBCMTD:dbgheap.obj
 0001:00030770       __recalloc_dbg             10031770 f   LIBCMTD:dbgheap.obj
 0001:00030820       __expand                   10031820 f   LIBCMTD:dbgheap.obj
 0001:00030850       __expand_dbg               10031850 f   LIBCMTD:dbgheap.obj
 0001:00030960       __free_nolock              10031960 f   LIBCMTD:dbgheap.obj
 0001:00030980       __free_dbg                 10031980 f   LIBCMTD:dbgheap.obj
 0001:00030a00       __free_dbg_nolock          10031a00 f   LIBCMTD:dbgheap.obj
 0001:00030ee0       __msize                    10031ee0 f   LIBCMTD:dbgheap.obj
 0001:00030f00       __msize_dbg                10031f00 f   LIBCMTD:dbgheap.obj
 0001:000310f0       __CrtSetBreakAlloc         100320f0 f   LIBCMTD:dbgheap.obj
 0001:00031110       __CrtSetDbgBlockType       10032110 f   LIBCMTD:dbgheap.obj
 0001:00031200       __CrtSetAllocHook          10032200 f   LIBCMTD:dbgheap.obj
 0001:00031220       __CrtGetAllocHook          10032220 f   LIBCMTD:dbgheap.obj
 0001:00031270       __CrtCheckMemory           10032270 f   LIBCMTD:dbgheap.obj
 0001:000316d0       __CrtSetDbgFlag            100326d0 f   LIBCMTD:dbgheap.obj
 0001:00031820       __CrtDoForAllClientObjects 10032820 f   LIBCMTD:dbgheap.obj
 0001:00031940       __CrtIsValidPointer        10032940 f   LIBCMTD:dbgheap.obj
 0001:00031950       __CrtIsValidHeapPointer    10032950 f   LIBCMTD:dbgheap.obj
 0001:000319a0       __CrtIsMemoryBlock         100329a0 f   LIBCMTD:dbgheap.obj
 0001:00031b10       __CrtReportBlockType       10032b10 f   LIBCMTD:dbgheap.obj
 0001:00031b40       __CrtSetDumpClient         10032b40 f   LIBCMTD:dbgheap.obj
 0001:00031b60       __CrtGetDumpClient         10032b60 f   LIBCMTD:dbgheap.obj
 0001:00031b70       __CrtMemCheckpoint         10032b70 f   LIBCMTD:dbgheap.obj
 0001:00031d90       __CrtMemDifference         10032d90 f   LIBCMTD:dbgheap.obj
 0001:00031fb0       __CrtMemDumpAllObjectsSince 10032fb0 f   LIBCMTD:dbgheap.obj
 0001:000324a0       __CrtDumpMemoryLeaks       100334a0 f   LIBCMTD:dbgheap.obj
 0001:00032520       __CrtMemDumpStatistics     10033520 f   LIBCMTD:dbgheap.obj
 0001:00032630       __aligned_malloc           10033630 f   LIBCMTD:dbgheap.obj
 0001:00032650       __aligned_malloc_dbg       10033650 f   LIBCMTD:dbgheap.obj
 0001:00032680       __aligned_realloc          10033680 f   LIBCMTD:dbgheap.obj
 0001:000326b0       __aligned_recalloc         100336b0 f   LIBCMTD:dbgheap.obj
 0001:000326e0       __aligned_realloc_dbg      100336e0 f   LIBCMTD:dbgheap.obj
 0001:00032710       __aligned_recalloc_dbg     10033710 f   LIBCMTD:dbgheap.obj
 0001:00032740       __aligned_offset_malloc    10033740 f   LIBCMTD:dbgheap.obj
 0001:00032760       __aligned_offset_malloc_dbg 10033760 f   LIBCMTD:dbgheap.obj
 0001:00032920       __aligned_offset_realloc   10033920 f   LIBCMTD:dbgheap.obj
 0001:00032950       __aligned_offset_recalloc  10033950 f   LIBCMTD:dbgheap.obj
 0001:00032980       __aligned_offset_realloc_dbg 10033980 f   LIBCMTD:dbgheap.obj
 0001:00032c70       __aligned_offset_recalloc_dbg 10033c70 f   LIBCMTD:dbgheap.obj
 0001:00032d30       __aligned_free             10033d30 f   LIBCMTD:dbgheap.obj
 0001:00032d50       __aligned_free_dbg         10033d50 f   LIBCMTD:dbgheap.obj
 0001:00032e00       __CrtSetDebugFillThreshold 10033e00 f   LIBCMTD:dbgheap.obj
 0001:00032e20       __CrtSetCheckCount         10033e20 f   LIBCMTD:dbgheap.obj
 0001:00032e40       __CrtGetCheckCount         10033e40 f   LIBCMTD:dbgheap.obj
 0001:00032e50       __aligned_msize            10033e50 f   LIBCMTD:dbgheap.obj
 0001:00032e70       __aligned_msize_dbg        10033e70 f   LIBCMTD:dbgheap.obj
 0001:00032f80       __close                    10033f80 f   LIBCMTD:close.obj
 0001:00033190       __close_nolock             10034190 f   LIBCMTD:close.obj
 0001:00033260       __freebuf                  10034260 f   LIBCMTD:_freebuf.obj
 0001:000332f0       __filbuf                   100342f0 f   LIBCMTD:_filbuf.obj
 0001:00033540       __read                     10034540 f   LIBCMTD:read.obj
 0001:000337d0       __read_nolock              100347d0 f   LIBCMTD:read.obj
 0001:00034720       _memcpy_s                  10035720 f   LIBCMTD:memcpy_s.obj
 0001:000348b0       __lseeki64                 100358b0 f   LIBCMTD:lseeki64.obj
 0001:00034b00       __lseeki64_nolock          10035b00 f   LIBCMTD:lseeki64.obj
 0001:00034bf0       __ftelli64                 10035bf0 f   LIBCMTD:ftelli64.obj
 0001:00034ce0       __ftelli64_nolock          10035ce0 f   LIBCMTD:ftelli64.obj
 0001:00035270       _strtol                    10036270 f   LIBCMTD:strtol.obj
 0001:000357a0       __strtol_l                 100367a0 f   LIBCMTD:strtol.obj
 0001:000357d0       _strtoul                   100367d0 f   LIBCMTD:strtol.obj
 0001:00035820       __strtoul_l                10036820 f   LIBCMTD:strtol.obj
 0001:00035850       __strtoi64                 10036850 f   LIBCMTD:strtoq.obj
 0001:00035dc0       __strtoi64_l               10036dc0 f   LIBCMTD:strtoq.obj
 0001:00035df0       __strtoui64                10036df0 f   LIBCMTD:strtoq.obj
 0001:00035e40       __strtoui64_l              10036e40 f   LIBCMTD:strtoq.obj
 0001:00035e70       __aulldiv                  10036e70 f   LIBCMTD:ulldiv.obj
 0001:00035ee0       __setenvp                  10036ee0 f   LIBCMTD:stdenvp.obj
 0001:00036080       __setargv                  10037080 f   LIBCMTD:stdargv.obj
 0001:000361a0       __set_pgmptr               100371a0 f i LIBCMTD:stdargv.obj
 0001:00036510       ___crtGetEnvironmentStringsA 10037510 f   LIBCMTD:a_env.obj
 0001:00036610       __RTC_Initialize           10037610 f   LIBCMTD:_initsect_.obj
 0001:00036640       __RTC_Terminate            10037640 f   LIBCMTD:_initsect_.obj
 0001:00036670       __heap_init                10037670 f   LIBCMTD:heapinit.obj
 0001:000366b0       __heap_term                100376b0 f   LIBCMTD:heapinit.obj
 0001:000366d0       __get_heap_handle          100376d0 f   LIBCMTD:heapinit.obj
 0001:00036710       ___security_init_cookie    10037710 f   LIBCMTD:gs_support.obj
 0001:000367f0       ___CppXcptFilter           100377f0 f   LIBCMTD:winxfltr.obj
 0001:00036820       __XcptFilter               10037820 f   LIBCMTD:winxfltr.obj
 0001:00036a80       _DllMain@12                10037a80 f   LIBCMTD:dllmain.obj
 0001:00036a90       __openfile                 10037a90 f   LIBCMTD:_open.obj
 0001:00037250       __getstream                10038250 f   LIBCMTD:stream.obj
 0001:000374b0       __local_unwind4            100384b0 f   LIBCMTD:exsup4.obj
 0001:00037586       __seh_longjmp_unwind4@4    10038586 f   LIBCMTD:exsup4.obj
 0001:000375a2       @_EH4_CallFilterFunc@8     100385a2 f   LIBCMTD:exsup4.obj
 0001:000375b9       @_EH4_TransferToHandler@8  100385b9 f   LIBCMTD:exsup4.obj
 0001:000375d2       @_EH4_GlobalUnwind2@8      100385d2 f   LIBCMTD:exsup4.obj
 0001:000375eb       @_EH4_LocalUnwind@16       100385eb f   LIBCMTD:exsup4.obj
 0001:00037610       ___libm_setusermatherr     10038610 f   LIBCMTD:_libm_error_.obj
 0001:00037650       ___libm_error_support      10038650 f   LIBCMTD:_libm_error_.obj
 0001:00038180       __floor_default            10039180 f   LIBCMTD:_floor_.obj
 0001:000382c0       __controlfp_s              100392c0 f   LIBCMTD:_contrlfp_.obj
 0001:000383a0       __atodbl_l                 100393a0 f   LIBCMTD:atodbl.obj
 0001:000384b0       __atodbl                   100394b0 f   LIBCMTD:atodbl.obj
 0001:000384d0       __atoldbl_l                100394d0 f   LIBCMTD:atodbl.obj
 0001:000385e0       __atoldbl                  100395e0 f   LIBCMTD:atodbl.obj
 0001:00038600       __atoflt_l                 10039600 f   LIBCMTD:atodbl.obj
 0001:00038710       __atoflt                   10039710 f   LIBCMTD:atodbl.obj
 0001:00038730       __fptostr                  10039730 f   LIBCMTD:_fptostr.obj
 0001:000389e0       __fltout2                  100399e0 f   LIBCMTD:_cfout_.obj
 0001:00038a90       ___dtold                   10039a90 f   LIBCMTD:_cfout_.obj
 0001:00038bf0       __set_output_format        10039bf0 f   LIBCMTD:outputformat.obj
 0001:00038c70       __get_output_format        10039c70 f   LIBCMTD:outputformat.obj
 0001:00038c80       _strcpy_s                  10039c80 f   LIBCMTD:strcpy_s.obj
 0001:00038f60       __allrem                   10039f60 f   LIBCMTD:llrem.obj
 0001:00039020       __aullshr                  1003a020 f   LIBCMTD:ullshr.obj
 0001:00039040       __fptrap                   1003a040 f   LIBCMTD:crt0fp.obj
 0001:00039060       __CrtSetReportHook2        1003a060 f   LIBCMTD:dbgrpt.obj
 0001:00039390       __CrtDbgReport             1003a390 f   LIBCMTD:dbgrpt.obj
 0001:000393d0       __CrtDbgReportV            1003a3d0 f i LIBCMTD:dbgrpt.obj
 0001:00039400       ___crtMessageWindowA       1003a400 f   LIBCMTD:dbgrpt.obj
 0001:00039800       __87except                 1003a800 f   LIBCMTD:_87except_.obj
 0001:000399b0       ?_RTC_GetSrcLine@@YAHPAEPA_WKPAH1K@Z 1003a9b0 f   LIBCMTD:_pdblkup_.obj
 0001:0003a000       __CrtDefaultAllocHook      1003b000 f   LIBCMTD:dbghook.obj
 0001:0003a010       __crt_debugger_hook        1003b010 f   LIBCMTD:dbghook.obj
 0001:0003a030       __matherr                  1003b030 f   LIBCMTD:_matherr_.obj
 0001:0003a040       __onexit                   1003b040 f   LIBCMTD:onexit.obj
 0001:0003a210       _atexit                    1003b210 f   LIBCMTD:onexit.obj
 0001:0003a230       ___onexitinit              1003b230 f   LIBCMTD:onexit.obj
 0001:0003a290       __ValidateImageBase        1003b290 f   LIBCMTD:pesect.obj
 0001:0003a2f0       __FindPESection            1003b2f0 f   LIBCMTD:pesect.obj
 0001:0003a370       __IsNonwritableInCurrentImage 1003b370 f   LIBCMTD:pesect.obj
 0001:0003a490       __FF_MSGBANNER             1003b490 f   LIBCMTD:crt0msg.obj
 0001:0003a4e0       __GET_RTERRMSG             1003b4e0 f   LIBCMTD:crt0msg.obj
 0001:0003a530       __NMSG_WRITE               1003b530 f   LIBCMTD:crt0msg.obj
 0001:0003a870       __mtinitlocks              1003b870 f   LIBCMTD:mlock.obj
 0001:0003a900       __mtdeletelocks            1003b900 f   LIBCMTD:mlock.obj
 0001:0003a9c0       __mtinitlocknum            1003b9c0 f   LIBCMTD:mlock.obj
 0001:0003ab10       __lock                     1003bb10 f   LIBCMTD:mlock.obj
 0001:0003ab50       __unlock                   1003bb50 f   LIBCMTD:mlock.obj
 0001:0003ab70       __lockerr_exit             1003bb70 f   LIBCMTD:mlock.obj
 0001:0003ab90       __initp_eh_hooks           1003bb90 f   LIBCMTD:hooks.obj
 0001:0003abb0       ?terminate@@YAXXZ          1003bbb0 f   LIBCMTD:hooks.obj
 0001:0003ac30       ?unexpected@@YAXXZ         1003bc30 f   LIBCMTD:hooks.obj
 0001:0003ac60       ?_inconsistency@@YAXXZ     1003bc60 f   LIBCMTD:hooks.obj
 0001:0003acf0       __initp_misc_rand_s        1003bcf0 f   LIBCMTD:rand_s.obj
 0001:0003ad00       _rand_s                    1003bd00 f   LIBCMTD:rand_s.obj
 0001:0003af20       ___getlocaleinfo           1003bf20 f   LIBCMTD:inithelp.obj
 0001:0003b200       __initp_misc_purevirt      1003c200 f   LIBCMTD:inithelp.obj
 0001:0003b210       __initp_heap_handler       1003c210 f   LIBCMTD:handler.obj
 0001:0003b220       ?_set_new_handler@@YAP6AHI@ZP6AHI@Z@Z 1003c220 f   LIBCMTD:handler.obj
 0001:0003b260       ?_set_new_handler@@YAP6AHI@ZH@Z 1003c260 f   LIBCMTD:handler.obj
 0001:0003b2a0       ?_query_new_handler@@YAP6AHI@ZXZ 1003c2a0 f   LIBCMTD:handler.obj
 0001:0003b2c0       __callnewh                 1003c2c0 f   LIBCMTD:handler.obj
 0001:0003b300       __aullrem                  1003c300 f   LIBCMTD:ullrem.obj
 0001:0003b380       __commit                   1003c380 f   LIBCMTD:commit.obj
 0001:0003b5a0       __write                    1003c5a0 f   LIBCMTD:write.obj
 0001:0003b7d0       __write_nolock             1003c7d0 f   LIBCMTD:write.obj
 0001:0003c310       __stbuf                    1003d310 f   LIBCMTD:_sftbuf.obj
 0001:0003c470       __ftbuf                    1003d470 f   LIBCMTD:_sftbuf.obj
 0001:0003c500       __woutput_l                1003d500 f   LIBCMTD:woutput.obj
 0001:0003d700       _vfwprintf_helper          1003e700 f   LIBCMTD:vfwprint.obj
 0001:0003d880       __vfwprintf_l              1003e880 f   LIBCMTD:vfwprint.obj
 0001:0003d8b0       __vfwprintf_s_l            1003e8b0 f   LIBCMTD:vfwprint.obj
 0001:0003d8e0       __vfwprintf_p_l            1003e8e0 f   LIBCMTD:vfwprint.obj
 0001:0003d910       _vfwprintf                 1003e910 f   LIBCMTD:vfwprint.obj
 0001:0003d940       _vfwprintf_s               1003e940 f   LIBCMTD:vfwprint.obj
 0001:0003d970       __vfwprintf_p              1003e970 f   LIBCMTD:vfwprint.obj
 0001:0003d9a0       __fcloseall                1003e9a0 f   LIBCMTD:closeall.obj
 0001:0003dad0       __woutput_s_l              1003ead0 f   LIBCMTD:woutputs.obj
 0001:0003ee20       __validate_param_reuseW    1003fe20 f   LIBCMTD:woutputp.obj
 0001:0003f090       __woutput_p_l              10040090 f   LIBCMTD:woutputp.obj
 0001:00042820       ___crtGetStringTypeA       10043820 f   LIBCMTD:a_str.obj
 0001:00042990       ?_JumpToContinuation@@YGXPAXPAUEHRegistrationNode@@@Z 10043990 f   LIBCMTD:_trnsctrl_.obj
 0001:000429d0       ?_CallMemberFunction0@@YGXPAX0@Z 100439d0 f   LIBCMTD:_trnsctrl_.obj
 0001:000429e0       ?_CallMemberFunction1@@YGXPAX00@Z 100439e0 f   LIBCMTD:_trnsctrl_.obj
 0001:000429f0       ?_CallMemberFunction2@@YGXPAX00H@Z 100439f0 f   LIBCMTD:_trnsctrl_.obj
 0001:00042a00       ?_UnwindNestedFrames@@YGXPAUEHRegistrationNode@@PAUEHExceptionRecord@@@Z 10043a00 f   LIBCMTD:_trnsctrl_.obj
 0001:00042a60       ___CxxFrameHandler         10043a60 f   LIBCMTD:_trnsctrl_.obj
 0001:00042aa0       ___CxxFrameHandler3        10043aa0 f   LIBCMTD:_trnsctrl_.obj
 0001:00042ae0       ___CxxFrameHandler2        10043ae0 f   LIBCMTD:_trnsctrl_.obj
 0001:00042b20       ___CxxLongjmpUnwind@4      10043b20 f   LIBCMTD:_trnsctrl_.obj
 0001:00042b50       ?_CallCatchBlock2@@YAPAXPAUEHRegistrationNode@@PBU_s_FuncInfo@@PAXHK@Z 10043b50 f   LIBCMTD:_trnsctrl_.obj
 0001:00042c10       ?_CallSETranslator@@YAHPAUEHExceptionRecord@@PAUEHRegistrationNode@@PAX2PBU_s_FuncInfo@@H1@Z 10043c10 f   LIBCMTD:_trnsctrl_.obj
 0001:00042db0       ?_GetRangeOfTrysToCheck@@YAPBU_s_TryBlockMapEntry@@PBU_s_FuncInfo@@HHPAI1@Z 10043db0 f   LIBCMTD:_trnsctrl_.obj
 0001:00042e30       __CreateFrameInfo          10043e30 f   LIBCMTD:_trnsctrl_.obj
 0001:00042e60       __IsExceptionObjectToBeDestroyed 10043e60 f   LIBCMTD:_trnsctrl_.obj
 0001:00042e90       __FindAndUnlinkFrame       10043e90 f   LIBCMTD:_trnsctrl_.obj
 0001:00042ef0       ___init_time               10043ef0 f   LIBCMTD:inittime.obj
 0001:00043c20       ___free_lc_time            10044c20 f   LIBCMTD:inittime.obj
 0001:00044290       ___init_numeric            10045290 f   LIBCMTD:initnum.obj
 0001:00044640       ___free_lconv_num          10045640 f   LIBCMTD:initnum.obj
 0001:000446f0       ___init_monetary           100456f0 f   LIBCMTD:initmon.obj
 0001:00044ce0       ___free_lconv_mon          10045ce0 f   LIBCMTD:initmon.obj
 0001:00044e90       _localeconv                10045e90 f   LIBCMTD:lconv.obj
 0001:00044ee0       ___pwctype_func            10045ee0 f   LIBCMTD:ctype.obj
 0001:00044ef0       ___pctype_func             10045ef0 f   LIBCMTD:ctype.obj
 0001:00044f40       ___init_ctype              10045f40 f   LIBCMTD:initctyp.obj
 0001:000454f0       ____mb_cur_max_func        100464f0 f   LIBCMTD:initctyp.obj
 0001:00045540       ____mb_cur_max_l_func      10046540 f   LIBCMTD:initctyp.obj
 0001:00045570       ____lc_codepage_func       10046570 f   LIBCMTD:initctyp.obj
 0001:000455c0       ____lc_collate_cp_func     100465c0 f   LIBCMTD:initctyp.obj
 0001:00045610       ____lc_handle_func         10046610 f   LIBCMTD:initctyp.obj
 0001:00045660       ___init_collate            10046660 f   LIBCMTD:initcoll.obj
 0001:00045670       _strncpy_s                 10046670 f   LIBCMTD:strncpy_s.obj
 0001:00045a60       _strcspn                   10046a60 f   LIBCMTD:strcspn.obj
 0001:00045ab0       _strpbrk                   10046ab0 f   LIBCMTD:strpbrk.obj
 0001:00045af0       _memcmp                    10046af0 f   LIBCMTD:memcmp.obj
 0001:00046560       _strcat_s                  10047560 f   LIBCMTD:strcat_s.obj
 0001:00046940       ___get_qualified_locale    10047940 f   LIBCMTD:getqloc.obj
 0001:000477a0       __mbtowc_l                 100487a0 f   LIBCMTD:mbtowc.obj
 0001:000479c0       _mbtowc                    100489c0 f   LIBCMTD:mbtowc.obj
 0001:000479e0       _ungetc                    100489e0 f   LIBCMTD:ungetc.obj
 0001:00047ad0       __ungetc_nolock            10048ad0 f   LIBCMTD:ungetc.obj
 0001:00047cf0       __CrtDbgBreak              10048cf0 f   LIBCMTD:dbgrptt.obj
 0001:00047d00       __CrtSetReportMode         10048d00 f   LIBCMTD:dbgrptt.obj
 0001:00047e40       __CrtSetReportFile         10048e40 f   LIBCMTD:dbgrptt.obj
 0001:00047f40       __CrtSetReportHook         10048f40 f   LIBCMTD:dbgrptt.obj
 0001:00047f60       __CrtGetReportHook         10048f60 f   LIBCMTD:dbgrptt.obj
 0001:00047f70       __VCrtDbgReportA           10048f70 f   LIBCMTD:dbgrptt.obj
 0001:000487a0       __VCrtDbgReportW           100497a0 f   LIBCMTD:dbgrptt.obj
 0001:000490d0       __swprintf                 1004a0d0 f   LIBCMTD:swprintf.obj
 0001:000492d0       ___swprintf_l              1004a2d0 f   LIBCMTD:swprintf.obj
 0001:00049300       _swprintf_s                1004a300 f   LIBCMTD:swprintf.obj
 0001:00049330       __snwprintf_s              1004a330 f   LIBCMTD:swprintf.obj
 0001:00049360       __swprintf_p               1004a360 f   LIBCMTD:swprintf.obj
 0001:00049390       __swprintf_s_l             1004a390 f   LIBCMTD:swprintf.obj
 0001:000493c0       __snwprintf_s_l            1004a3c0 f   LIBCMTD:swprintf.obj
 0001:000493f0       __swprintf_p_l             1004a3f0 f   LIBCMTD:swprintf.obj
 0001:00049420       __scwprintf                1004a420 f   LIBCMTD:swprintf.obj
 0001:00049440       __scwprintf_p              1004a440 f   LIBCMTD:swprintf.obj
 0001:00049460       __scwprintf_l              1004a460 f   LIBCMTD:swprintf.obj
 0001:00049490       __scwprintf_p_l            1004a490 f   LIBCMTD:swprintf.obj
 0001:000494c0       __getbuf                   1004a4c0 f   LIBCMTD:_getbuf.obj
 0001:00049590       __isatty                   1004a590 f   LIBCMTD:isatty.obj
 0001:00049650       _printf                    1004a650 f   LIBCMTD:printf.obj
 0001:00049790       __printf_l                 1004a790 f   LIBCMTD:printf.obj
 0001:000497c0       __printf_s_l               1004a7c0 f   LIBCMTD:printf.obj
 0001:000497f0       _printf_s                  1004a7f0 f   LIBCMTD:printf.obj
 0001:00049820       __printf_p_l               1004a820 f   LIBCMTD:printf.obj
 0001:00049850       __printf_p                 1004a850 f   LIBCMTD:printf.obj
 0001:00049880       __set_printf_count_output  1004a880 f   LIBCMTD:printf.obj
 0001:000498d0       __get_printf_count_output  1004a8d0 f   LIBCMTD:printf.obj
 0001:000498f0       __wctomb_s_l               1004a8f0 f   LIBCMTD:wctomb.obj
 0001:00049bf0       _wctomb_s                  1004abf0 f   LIBCMTD:wctomb.obj
 0001:00049c20       __wctomb_l                 1004ac20 f   LIBCMTD:wctomb.obj
 0001:00049ca0       _wctomb                    1004aca0 f   LIBCMTD:wctomb.obj
 0001:00049cf0       __iswctype_l               1004acf0 f   LIBCMTD:iswctype.obj
 0001:00049d10       _iswctype                  1004ad10 f   LIBCMTD:iswctype.obj
 0001:00049d70       _is_wctype                 1004ad70 f   LIBCMTD:iswctype.obj
 0001:00049d90       __frnd                     1004ad90 f   LIBCMTD:_frnd_.obj
 0001:00049db0       __copysign                 1004adb0 f   LIBCMTD:_ieeemisc_.obj
 0001:00049df0       __chgsign                  1004adf0 f   LIBCMTD:_ieeemisc_.obj
 0001:00049e30       __scalb                    1004ae30 f   LIBCMTD:_ieeemisc_.obj
 0001:00049e50       __logb                     1004ae50 f   LIBCMTD:_ieeemisc_.obj
 0001:00049f90       __nextafter                1004af90 f   LIBCMTD:_ieeemisc_.obj
 0001:0004a2b0       __finite                   1004b2b0 f   LIBCMTD:_ieeemisc_.obj
 0001:0004a2d0       __isnan                    1004b2d0 f   LIBCMTD:_ieeemisc_.obj
 0001:0004a320       __fpclass                  1004b320 f   LIBCMTD:_ieeemisc_.obj
 0001:0004a3f0       __alloc_osfhnd             1004b3f0 f   LIBCMTD:osfinfo.obj
 0001:0004a6a0       __set_osfhnd               1004b6a0 f   LIBCMTD:osfinfo.obj
 0001:0004a770       __free_osfhnd              1004b770 f   LIBCMTD:osfinfo.obj
 0001:0004a860       __get_osfhandle            1004b860 f   LIBCMTD:osfinfo.obj
 0001:0004a9d0       __open_osfhandle           1004b9d0 f   LIBCMTD:osfinfo.obj
 0001:0004ac00       ___lock_fhandle            1004bc00 f   LIBCMTD:osfinfo.obj
 0001:0004ad00       __unlock_fhandle           1004bd00 f   LIBCMTD:osfinfo.obj
 0001:0004ad30       __malloc_base              1004bd30 f   LIBCMTD:malloc.obj
 0001:0004adc0       __heap_alloc_base          1004bdc0 f i LIBCMTD:malloc.obj
 0001:0004ae20       __expand_base              1004be20 f   LIBCMTD:expand.obj
 0001:0004af80       __realloc_base             1004bf80 f   LIBCMTD:realloc.obj
 0001:0004b080       __free_base                1004c080 f   LIBCMTD:free.obj
 0001:0004b0d0       __heapchk                  1004c0d0 f   LIBCMTD:heapchk.obj
 0001:0004b100       __heapset                  1004c100 f   LIBCMTD:heapchk.obj
 0001:0004b110       _sprintf                   1004c110 f   LIBCMTD:sprintf.obj
 0001:0004b2b0       __sprintf_l                1004c2b0 f   LIBCMTD:sprintf.obj
 0001:0004b2e0       _sprintf_s                 1004c2e0 f   LIBCMTD:sprintf.obj
 0001:0004b310       __sprintf_s_l              1004c310 f   LIBCMTD:sprintf.obj
 0001:0004b340       __snprintf_s               1004c340 f   LIBCMTD:sprintf.obj
 0001:0004b370       __snprintf_s_l             1004c370 f   LIBCMTD:sprintf.obj
 0001:0004b3a0       __sprintf_p                1004c3a0 f   LIBCMTD:sprintf.obj
 0001:0004b3d0       __sprintf_p_l              1004c3d0 f   LIBCMTD:sprintf.obj
 0001:0004b400       __scprintf                 1004c400 f   LIBCMTD:sprintf.obj
 0001:0004b420       __scprintf_p               1004c420 f   LIBCMTD:sprintf.obj
 0001:0004b440       __scprintf_l               1004c440 f   LIBCMTD:sprintf.obj
 0001:0004b470       __scprintf_p_l             1004c470 f   LIBCMTD:sprintf.obj
 0001:0004b4a0       __ismbbkalnum_l            1004c4a0 f   LIBCMTD:ismbbyte.obj
 0001:0004b4c0       __ismbbkalnum              1004c4c0 f   LIBCMTD:ismbbyte.obj
 0001:0004b4e0       __ismbbkprint_l            1004c4e0 f   LIBCMTD:ismbbyte.obj
 0001:0004b500       __ismbbkprint              1004c500 f   LIBCMTD:ismbbyte.obj
 0001:0004b520       __ismbbkpunct_l            1004c520 f   LIBCMTD:ismbbyte.obj
 0001:0004b540       __ismbbkpunct              1004c540 f   LIBCMTD:ismbbyte.obj
 0001:0004b560       __ismbbalnum_l             1004c560 f   LIBCMTD:ismbbyte.obj
 0001:0004b580       __ismbbalnum               1004c580 f   LIBCMTD:ismbbyte.obj
 0001:0004b5a0       __ismbbalpha_l             1004c5a0 f   LIBCMTD:ismbbyte.obj
 0001:0004b5c0       __ismbbalpha               1004c5c0 f   LIBCMTD:ismbbyte.obj
 0001:0004b5e0       __ismbbgraph_l             1004c5e0 f   LIBCMTD:ismbbyte.obj
 0001:0004b600       __ismbbgraph               1004c600 f   LIBCMTD:ismbbyte.obj
 0001:0004b620       __ismbbprint_l             1004c620 f   LIBCMTD:ismbbyte.obj
 0001:0004b640       __ismbbprint               1004c640 f   LIBCMTD:ismbbyte.obj
 0001:0004b660       __ismbbpunct_l             1004c660 f   LIBCMTD:ismbbyte.obj
 0001:0004b680       __ismbbpunct               1004c680 f   LIBCMTD:ismbbyte.obj
 0001:0004b6a0       __ismbblead_l              1004c6a0 f   LIBCMTD:ismbbyte.obj
 0001:0004b6c0       __ismbblead                1004c6c0 f   LIBCMTD:ismbbyte.obj
 0001:0004b6e0       __ismbbtrail_l             1004c6e0 f   LIBCMTD:ismbbyte.obj
 0001:0004b700       __ismbbtrail               1004c700 f   LIBCMTD:ismbbyte.obj
 0001:0004b720       __ismbbkana_l              1004c720 f   LIBCMTD:ismbbyte.obj
 0001:0004b790       __ismbbkana                1004c790 f   LIBCMTD:ismbbyte.obj
 0001:0004b880       __open                     1004c880 f   LIBCMTD:open.obj
 0001:0004ba00       __sopen_helper             1004ca00 f   LIBCMTD:open.obj
 0001:0004cc60       __sopen                    1004dc60 f   LIBCMTD:open.obj
 0001:0004cce0       __sopen_s                  1004dce0 f   LIBCMTD:open.obj
 0001:0004cd10       __mbsnbicmp_l              1004dd10 f   LIBCMTD:mbsnbicm.obj
 0001:0004d1b0       __mbsnbicmp                1004e1b0 f   LIBCMTD:mbsnbicm.obj
 0001:0004d1d0       __mbsnbcmp_l               1004e1d0 f   LIBCMTD:mbsnbcmp.obj
 0001:0004d4b0       __mbsnbcmp                 1004e4b0 f   LIBCMTD:mbsnbcmp.obj
 0001:0004d4d0       __global_unwind2           1004e4d0 f   LIBCMTD:exsup.obj
 0001:0004d535       __local_unwind2            1004e535 f   LIBCMTD:exsup.obj
 0001:0004d5b9       __abnormal_termination     1004e5b9 f   LIBCMTD:exsup.obj
 0001:0004d5dc       __NLG_Notify1              1004e5dc f   LIBCMTD:exsup.obj
 0001:0004d5e5       __NLG_Notify               1004e5e5 f   LIBCMTD:exsup.obj
 0001:0004d5fc       __NLG_Dispatch             1004e5fc     LIBCMTD:exsup.obj
 0001:0004d5fc       __NLG_Dispatch2            1004e5fc     LIBCMTD:exsup.obj
 0001:0004d604       __NLG_Call                 1004e604 f   LIBCMTD:exsup.obj
 0001:0004d606       __NLG_Return2              1004e606     LIBCMTD:exsup.obj
 0001:0004d610       __statusfp2                1004e610 f   LIBCMTD:_ieee87_.obj
 0001:0004d650       __statusfp                 1004e650 f   LIBCMTD:_ieee87_.obj
 0001:0004d6a0       __clearfp                  1004e6a0 f   LIBCMTD:_ieee87_.obj
 0001:0004d6f0       ___control87_2             1004e6f0 f   LIBCMTD:_ieee87_.obj
 0001:0004d7a0       __controlfp                1004e7a0 f   LIBCMTD:_ieee87_.obj
 0001:0004d7c0       __control87                1004e7c0 f i LIBCMTD:_ieee87_.obj
 0001:0004d870       __set_controlfp            1004e870 f   LIBCMTD:_ieee87_.obj
 0001:0004d900       __fpreset                  1004e900 f   LIBCMTD:_ieee87_.obj
 0001:0004e0c0       __ld12tod                  1004f0c0 f   LIBCMTD:_intrncvt_.obj
 0001:0004e0e0       __ld12cvt                  1004f0e0 f i LIBCMTD:_intrncvt_.obj
 0001:0004e340       __RoundMan                 1004f340 f i LIBCMTD:_intrncvt_.obj
 0001:0004e420       __ZeroTail                 1004f420 f i LIBCMTD:_intrncvt_.obj
 0001:0004e4b0       __IncMan                   1004f4b0 f i LIBCMTD:_intrncvt_.obj
 0001:0004e560       ___addl                    1004f560 f i LIBCMTD:_intrncvt_.obj
 0001:0004e5a0       __CopyMan                  1004f5a0 f i LIBCMTD:_intrncvt_.obj
 0001:0004e5f0       __FillZeroMan              1004f5f0 f i LIBCMTD:_intrncvt_.obj
 0001:0004e630       __IsZeroMan                1004f630 f i LIBCMTD:_intrncvt_.obj
 0001:0004e670       __ShrMan                   1004f670 f i LIBCMTD:_intrncvt_.obj
 0001:0004e760       __ld12tof                  1004f760 f   LIBCMTD:_intrncvt_.obj
 0001:0004e780       __ld12told                 1004f780 f   LIBCMTD:_intrncvt_.obj
 0001:0004e850       ___strgtold12_l            1004f850 f   LIBCMTD:_strgtold_.obj
 0001:0004f300       ___multtenpow12            10050300 f i LIBCMTD:_strgtold_.obj
 0001:0004f3e0       ___ld12mul                 100503e0 f i LIBCMTD:_strgtold_.obj
 0001:0004f7e0       ___shl_12                  100507e0 f i LIBCMTD:_strgtold_.obj
 0001:0004f850       ___shr_12                  10050850 f i LIBCMTD:_strgtold_.obj
 0001:0004f8c0       ___STRINGTOLD_L            100508c0 f   LIBCMTD:_strgtold_.obj
 0001:0004f930       _$I10_OUTPUT               10050930 f   LIBCMTD:_x10fout_.obj
 0001:0004fee0       ___add_12                  10050ee0 f i LIBCMTD:_x10fout_.obj
 0001:0004ff90       ___crtMessageBoxA          10050f90 f   LIBCMTD:crtmbox.obj
 0001:000501b0       __wmakepath_s              100511b0 f   LIBCMTD:wmakepath_s.obj
 0001:00050560       __wsplitpath_s             10051560 f   LIBCMTD:wsplitpath_s.obj
 0001:00050b90       ___crtGetLocaleInfoA       10051b90 f   LIBCMTD:a_loc.obj
 0001:00050cf0       __putwch                   10051cf0 f   LIBCMTD:putwch.obj
 0001:00050d80       __putwch_nolock            10051d80 f   LIBCMTD:putwch.obj
 0001:00050dd0       _fputwc                    10051dd0 f   LIBCMTD:fputwc.obj
 0001:00050ed0       __fputwc_nolock            10051ed0 f   LIBCMTD:fputwc.obj
 0001:000511c0       _putwc                     100521c0 f   LIBCMTD:fputwc.obj
 0001:000511e0       __output_s_l               100521e0 f   LIBCMTD:outputs.obj
 0001:000527b0       __validate_param_reuseA    100537b0 f   LIBCMTD:outputp.obj
 0001:00052a20       __output_p_l               10053a20 f   LIBCMTD:outputp.obj
 0001:00056630       _get_crtdouble_arg         10057630 f i LIBCMTD:outputp.obj
 0001:00056650       _wcstol                    10057650 f   LIBCMTD:wcstol.obj
 0001:00056a20       __wcstol_l                 10057a20 f   LIBCMTD:wcstol.obj
 0001:00056a40       _wcstoul                   10057a40 f   LIBCMTD:wcstol.obj
 0001:00056a60       __wcstoul_l                10057a60 f   LIBCMTD:wcstol.obj
 0001:00056a80       ___InternalCxxFrameHandler 10057a80 f   LIBCMTD:frame.obj
 0001:00057080       ??0bad_exception@std@@QAE@PBD@Z 10058080 f i LIBCMTD:frame.obj
 0001:000570b0       ??1bad_exception@std@@UAE@XZ 100580b0 f i LIBCMTD:frame.obj
 0001:000570d0       ??_Gbad_exception@std@@UAEPAXI@Z 100580d0 f i LIBCMTD:frame.obj
 0001:000570d0       ??_Ebad_exception@std@@UAEPAXI@Z 100580d0 f i LIBCMTD:frame.obj
 0001:00057100       ??0bad_exception@std@@QAE@ABV01@@Z 10058100 f i LIBCMTD:frame.obj
 0001:000572c0       ___TypeMatch               100582c0 f   LIBCMTD:frame.obj
 0001:00057370       ___FrameUnwindFilter       10058370 f   LIBCMTD:frame.obj
 0001:000573f0       ___FrameUnwindToState      100583f0 f   LIBCMTD:frame.obj
 0001:00057930       ___BuildCatchObjectHelper  10058930 f   LIBCMTD:frame.obj
 0001:00057ba0       ___BuildCatchObject        10058ba0 f   LIBCMTD:frame.obj
 0001:00057cb0       ___DestructExceptionObject 10058cb0 f   LIBCMTD:frame.obj
 0001:00057d60       ___AdjustPointer           10058d60 f   LIBCMTD:frame.obj
 0001:00057db0       ?__uncaught_exception@@YA_NXZ 10058db0 f   LIBCMTD:frame.obj
 0001:00057dd0       ___CxxExceptionFilter      10058dd0 f   LIBCMTD:frame.obj
 0001:00057fd0       ___CxxRegisterExceptionObject 10058fd0 f   LIBCMTD:frame.obj
 0001:00058100       ___CxxDetectRethrow        10059100 f   LIBCMTD:frame.obj
 0001:00058190       ___CxxUnregisterExceptionObject 10059190 f   LIBCMTD:frame.obj
 0001:00058310       ___CxxQueryExceptionSize   10059310 f   LIBCMTD:frame.obj
 0001:00058320       ___CxxCallUnwindDtor       10059320 f   LIBCMTD:frame.obj
 0001:000583a0       ___CxxCallUnwindDelDtor    100593a0 f   LIBCMTD:frame.obj
 0001:00058420       ___CxxCallUnwindStdDelDtor 10059420 f   LIBCMTD:frame.obj
 0001:000584a0       ___CxxCallUnwindVecDtor    100594a0 f   LIBCMTD:frame.obj
 0001:000586d0       ?_is_exception_typeof@@YAHABVtype_info@@PAU_EXCEPTION_POINTERS@@@Z 100596d0 f   LIBCMTD:frame.obj
 0001:000587b0       __CallSettingFrame@12      100597b0 f   LIBCMTD:lowhelpr.obj
 0001:000587d7       __NLG_Return               100597d7     LIBCMTD:lowhelpr.obj
 0001:00058800       __itoa_s                   10059800 f   LIBCMTD:xtoas.obj
 0001:00058bd0       __ltoa_s                   10059bd0 f   LIBCMTD:xtoas.obj
 0001:00058c10       __ultoa_s                  10059c10 f   LIBCMTD:xtoas.obj
 0001:00058c30       __i64toa_s                 10059c30 f   LIBCMTD:xtoas.obj
 0001:00059030       __ui64toa_s                1005a030 f   LIBCMTD:xtoas.obj
 0001:00059050       __strnicmp_l               1005a050 f   LIBCMTD:strnicmp.obj
 0001:00059290       __strnicmp                 1005a290 f   LIBCMTD:strnicmp.obj
 0001:00059420       __mbstowcs_l_helper        1005a420 f   LIBCMTD:mbstowcs.obj
 0001:00059770       __mbstowcs_l               1005a770 f   LIBCMTD:mbstowcs.obj
 0001:00059790       _mbstowcs                  1005a790 f   LIBCMTD:mbstowcs.obj
 0001:000597e0       __mbstowcs_s_l             1005a7e0 f   LIBCMTD:mbstowcs.obj
 0001:00059b60       _mbstowcs_s                1005ab60 f   LIBCMTD:mbstowcs.obj
 0001:00059b90       __vsnprintf_helper         1005ab90 f   LIBCMTD:vsnprnc.obj
 0001:00059d80       __vsnprintf_c              1005ad80 f   LIBCMTD:vsnprnc.obj
 0001:00059dd0       __vsnprintf_c_l            1005add0 f   LIBCMTD:vsnprnc.obj
 0001:00059e20       __vsprintf_s_l             1005ae20 f   LIBCMTD:vsnprnc.obj
 0001:0005a090       _vsprintf_s                1005b090 f   LIBCMTD:vsnprnc.obj
 0001:0005a0c0       __vsnprintf_s_l            1005b0c0 f   LIBCMTD:vsnprnc.obj
 0001:0005a460       __vsnprintf_s              1005b460 f   LIBCMTD:vsnprnc.obj
 0001:0005a490       __vsprintf_p               1005b490 f   LIBCMTD:vsnprnc.obj
 0001:0005a4e0       __vsprintf_p_l             1005b4e0 f   LIBCMTD:vsnprnc.obj
 0001:0005a530       __wcstombs_l_helper        1005b530 f   LIBCMTD:wcstombs.obj
 0001:0005aa70       __wcstombs_l               1005ba70 f   LIBCMTD:wcstombs.obj
 0001:0005aa90       _wcstombs                  1005ba90 f   LIBCMTD:wcstombs.obj
 0001:0005aab0       __wcstombs_s_l             1005bab0 f   LIBCMTD:wcstombs.obj
 0001:0005ade0       _wcstombs_s                1005bde0 f   LIBCMTD:wcstombs.obj
 0001:0005ae10       __vswprintf_l              1005be10 f   LIBCMTD:vswprint.obj
 0001:0005b000       __vswprintf                1005c000 f   LIBCMTD:vswprint.obj
 0001:0005b020       ___vswprintf_l             1005c020 f   LIBCMTD:vswprint.obj
 0001:0005b040       __vscwprintf_helper        1005c040 f   LIBCMTD:vswprint.obj
 0001:0005b120       __vscwprintf               1005c120 f   LIBCMTD:vswprint.obj
 0001:0005b140       __vscwprintf_l             1005c140 f   LIBCMTD:vswprint.obj
 0001:0005b160       __vscwprintf_p             1005c160 f   LIBCMTD:vswprint.obj
 0001:0005b180       __vscwprintf_p_l           1005c180 f   LIBCMTD:vswprint.obj
 0001:0005b1a0       _vprintf_helper            1005c1a0 f   LIBCMTD:vprintf.obj
 0001:0005b2c0       __vprintf_l                1005c2c0 f   LIBCMTD:vprintf.obj
 0001:0005b2e0       __vprintf_s_l              1005c2e0 f   LIBCMTD:vprintf.obj
 0001:0005b300       __vprintf_p_l              1005c300 f   LIBCMTD:vprintf.obj
 0001:0005b320       _vprintf                   1005c320 f   LIBCMTD:vprintf.obj
 0001:0005b340       _vprintf_s                 1005c340 f   LIBCMTD:vprintf.obj
 0001:0005b360       __vprintf_p                1005c360 f   LIBCMTD:vprintf.obj
 0001:0005b380       _ldexp                     1005c380 f   LIBCMTD:_ldexp_.obj
 0001:0005b640       __vsprintf_l               1005c640 f   LIBCMTD:vsprintf.obj
 0001:0005b7e0       _vsprintf                  1005c7e0 f   LIBCMTD:vsprintf.obj
 0001:0005b800       __vscprintf_helper         1005c800 f   LIBCMTD:vsprintf.obj
 0001:0005b8e0       __vscprintf                1005c8e0 f   LIBCMTD:vsprintf.obj
 0001:0005b900       __vscprintf_l              1005c900 f   LIBCMTD:vsprintf.obj
 0001:0005b920       __vscprintf_p              1005c920 f   LIBCMTD:vsprintf.obj
 0001:0005b940       __vscprintf_p_l            1005c940 f   LIBCMTD:vsprintf.obj
 0001:0005b960       __chsize_s                 1005c960 f   LIBCMTD:chsize.obj
 0001:0005bc00       __chsize_nolock            1005cc00 f   LIBCMTD:chsize.obj
 0001:0005bea0       __chsize                   1005cea0 f   LIBCMTD:chsize.obj
 0001:0005bed0       __setmode                  1005ced0 f   LIBCMTD:setmode.obj
 0001:0005c160       __setmode_nolock           1005d160 f   LIBCMTD:setmode.obj
 0001:0005c3d0       __set_fmode                1005d3d0 f   LIBCMTD:setmode.obj
 0001:0005c480       __get_fmode                1005d480 f   LIBCMTD:setmode.obj
 0001:0005c500       ___mtold12                 1005d500 f   LIBCMTD:_mantold_.obj
 0001:0005c660       ___initconout              1005d660 f   LIBCMTD:initcon.obj
 0001:0005c690       ___termconout              1005d690 f   LIBCMTD:initcon.obj
 0001:0005c6c0       __flswbuf                  1005d6c0 f   LIBCMTD:_flswbuf.obj
 0001:0005c9a0       __wchartodigit             1005d9a0 f   LIBCMTD:wchtodig.obj
 0001:0005ccd0       ?_ValidateRead@@YAHPBXI@Z  1005dcd0 f   LIBCMTD:validate.obj
 0001:0005cd00       ?_ValidateWrite@@YAHPAXI@Z 1005dd00 f   LIBCMTD:validate.obj
 0001:0005cd30       ?_ValidateExecute@@YAHP6GHXZ@Z 1005dd30 f   LIBCMTD:validate.obj
 0001:0005cd60       __CxxThrowException@8      1005dd60 f   LIBCMTD:throw.obj
 0001:0005cdc0       ?name@type_info@@QBEPBDPAU__type_info_node@@@Z 1005ddc0 f   LIBCMTD:typinfo.obj
 0001:0005cde0       ??1type_info@@UAE@XZ       1005dde0 f   LIBCMTD:typinfo.obj
 0001:0005ce10       ??_Gtype_info@@UAEPAXI@Z   1005de10 f i LIBCMTD:typinfo.obj
 0001:0005ce10       ??_Etype_info@@UAEPAXI@Z   1005de10 f i LIBCMTD:typinfo.obj
 0001:0005ce40       ?_name_internal_method@type_info@@QBEPBDPAU__type_info_node@@@Z 1005de40 f   LIBCMTD:typinfo.obj
 0001:0005ce60       ?_type_info_dtor_internal_method@type_info@@QAEXXZ 1005de60 f   LIBCMTD:typinfo.obj
 0001:0005ce80       ??8type_info@@QBE_NABV0@@Z 1005de80 f   LIBCMTD:typinfo.obj
 0001:0005ceb0       ??9type_info@@QBE_NABV0@@Z 1005deb0 f   LIBCMTD:typinfo.obj
 0001:0005cee0       ?before@type_info@@QBEHABV1@@Z 1005dee0 f   LIBCMTD:typinfo.obj
 0001:0005cf10       ?raw_name@type_info@@QBEPBDXZ 1005df10 f   LIBCMTD:typinfo.obj
 0001:0005cf30       ??0type_info@@AAE@ABV0@@Z  1005df30 f   LIBCMTD:typinfo.obj
 0001:0005cf50       ??4type_info@@AAEAAV0@ABV0@@Z 1005df50 f   LIBCMTD:typinfo.obj
 0001:0005cf70       ??0exception@std@@QAE@XZ   1005df70 f   LIBCMTD:stdexcpt.obj
 0001:0005cfa0       ??_Gexception@std@@UAEPAXI@Z 1005dfa0 f i LIBCMTD:stdexcpt.obj
 0001:0005cfa0       ??_Eexception@std@@UAEPAXI@Z 1005dfa0 f i LIBCMTD:stdexcpt.obj
 0001:0005cfd0       ??0exception@std@@QAE@ABQBD@Z 1005dfd0 f   LIBCMTD:stdexcpt.obj
 0001:0005d010       ??0exception@std@@QAE@ABQBDH@Z 1005e010 f   LIBCMTD:stdexcpt.obj
 0001:0005d040       ??0exception@std@@QAE@ABV01@@Z 1005e040 f   LIBCMTD:stdexcpt.obj
 0001:0005d080       ??4exception@std@@QAEAAV01@ABV01@@Z 1005e080 f   LIBCMTD:stdexcpt.obj
 0001:0005d0d0       ??1exception@std@@UAE@XZ   1005e0d0 f   LIBCMTD:stdexcpt.obj
 0001:0005d0f0       ?what@exception@std@@UBEPBDXZ 1005e0f0 f   LIBCMTD:stdexcpt.obj
 0001:0005d120       ?_Copy_str@exception@std@@AAEXPBD@Z 1005e120 f   LIBCMTD:stdexcpt.obj
 0001:0005d190       ?_Tidy@exception@std@@AAEXXZ 1005e190 f   LIBCMTD:stdexcpt.obj
 0001:0005d1d0       ??0bad_cast@std@@QAE@PBD@Z 1005e1d0 f   LIBCMTD:stdexcpt.obj
 0001:0005d200       ??_Ebad_cast@std@@UAEPAXI@Z 1005e200 f i LIBCMTD:stdexcpt.obj
 0001:0005d200       ??_Gbad_cast@std@@UAEPAXI@Z 1005e200 f i LIBCMTD:stdexcpt.obj
 0001:0005d230       ??0bad_cast@std@@QAE@ABV01@@Z 1005e230 f   LIBCMTD:stdexcpt.obj
 0001:0005d260       ??1bad_cast@std@@UAE@XZ    1005e260 f   LIBCMTD:stdexcpt.obj
 0001:0005d280       ??0bad_typeid@std@@QAE@PBD@Z 1005e280 f   LIBCMTD:stdexcpt.obj
 0001:0005d2b0       ??_Gbad_typeid@std@@UAEPAXI@Z 1005e2b0 f i LIBCMTD:stdexcpt.obj
 0001:0005d2b0       ??_Ebad_typeid@std@@UAEPAXI@Z 1005e2b0 f i LIBCMTD:stdexcpt.obj
 0001:0005d2e0       ??0bad_typeid@std@@QAE@ABV01@@Z 1005e2e0 f   LIBCMTD:stdexcpt.obj
 0001:0005d310       ??1bad_typeid@std@@UAE@XZ  1005e310 f   LIBCMTD:stdexcpt.obj
 0001:0005d330       ??0__non_rtti_object@std@@QAE@PBD@Z 1005e330 f   LIBCMTD:stdexcpt.obj
 0001:0005d360       ??_G__non_rtti_object@std@@UAEPAXI@Z 1005e360 f i LIBCMTD:stdexcpt.obj
 0001:0005d360       ??_E__non_rtti_object@std@@UAEPAXI@Z 1005e360 f i LIBCMTD:stdexcpt.obj
 0001:0005d390       ??0__non_rtti_object@std@@QAE@ABV01@@Z 1005e390 f   LIBCMTD:stdexcpt.obj
 0001:0005d3c0       ??1__non_rtti_object@std@@UAE@XZ 1005e3c0 f   LIBCMTD:stdexcpt.obj
 0001:0005d3e0       ??3@YAXPAX@Z               1005e3e0 f   LIBCMTD:dbgdel.obj
 0001:0005d4d0       ___ascii_strnicmp          1005e4d0 f   LIBCMTD:_strnicm.obj
 0001:0005d540       ?_Type_info_dtor@type_info@@CAXPAV1@@Z 1005e540 f   LIBCMTD:typname.obj
 0001:0005d650       ?_Name_base@type_info@@CAPBDPBV1@PAU__type_info_node@@@Z 1005e650 f   LIBCMTD:typname.obj
 0001:0005d800       ?_Type_info_dtor_internal@type_info@@CAXPAV1@@Z 1005e800 f   LIBCMTD:typname.obj
 0001:0005d910       ___unDNameHelper           1005e910 f   LIBCMTD:typname.obj
 0001:0005d950       ?_Name_base_internal@type_info@@CAPBDPBV1@PAU__type_info_node@@@Z 1005e950 f   LIBCMTD:typname.obj
 0001:0005db10       ___clean_type_info_names_internal 1005eb10 f   LIBCMTD:typname.obj
 0001:0005dbd0       ___unDName                 1005ebd0 f   LIBCMTD:undname.obj
 0001:0005dcb0       ?Constructor@_HeapManager@@QAEXP6APAXI@ZP6AXPAX@Z@Z 1005ecb0 f i LIBCMTD:undname.obj
 0001:0005dcf0       ?Destructor@_HeapManager@@QAEXXZ 1005ecf0 f i LIBCMTD:undname.obj
 0001:0005dd40       ___unDNameEx               1005ed40 f   LIBCMTD:undname.obj
 0001:0005de20       ??0UnDecorator@@QAE@PADPBDHP6APADJ@ZK@Z 1005ee20 f i LIBCMTD:undname.obj
 0001:0005dec0       ??BUnDecorator@@QAEPADXZ   1005eec0 f i LIBCMTD:undname.obj
 0001:0005e0f0       ?dbGetString@DName@@QBEPADXZ 1005f0f0 f   LIBCMTD:undname.obj
 0001:0005e120       ?getDecoratedName@UnDecorator@@CA?AVDName@@XZ 1005f120 f   LIBCMTD:undname.obj
 0001:0005e430       ?getSymbolName@UnDecorator@@CA?AVDName@@XZ 1005f430 f i LIBCMTD:undname.obj
 0001:0005e4b0       ?getZName@UnDecorator@@CA?AVDName@@_N0@Z 1005f4b0 f   LIBCMTD:undname.obj
 0001:0005e750       ?getOperatorName@UnDecorator@@CA?AVDName@@_NPA_N@Z 1005f750 f i LIBCMTD:undname.obj
 0001:0005f0c0       ?getStringEncoding@UnDecorator@@CA?AVDName@@PADH@Z 100600c0 f   LIBCMTD:undname.obj
 0001:0005f1c0       ?getScope@UnDecorator@@CA?AVDName@@XZ 100601c0 f   LIBCMTD:undname.obj
 0001:0005f5a0       ?getSignedDimension@UnDecorator@@CA?AVDName@@XZ 100605a0 f   LIBCMTD:undname.obj
 0001:0005f620       ?getDimension@UnDecorator@@CA?AVDName@@_N@Z 10060620 f   LIBCMTD:undname.obj
 0001:0005f8d0       ?getNumberOfDimensions@UnDecorator@@CAHXZ 100608d0 f   LIBCMTD:undname.obj
 0001:0005f9d0       ?getTemplateName@UnDecorator@@CA?AVDName@@_N@Z 100609d0 f   LIBCMTD:undname.obj
 0001:0005fb90       ?getTemplateArgumentList@UnDecorator@@CA?AVDName@@XZ 10060b90 f   LIBCMTD:undname.obj
 0001:0005fe10       ?getTemplateConstant@UnDecorator@@CA?AVDName@@XZ 10060e10 f   LIBCMTD:undname.obj
 0001:000602a0       ?composeDeclaration@UnDecorator@@CA?AVDName@@ABV2@@Z 100612a0 f i LIBCMTD:undname.obj
 0001:000618a0       ?getTypeEncoding@UnDecorator@@CAHXZ 100628a0 f i LIBCMTD:undname.obj
 0001:000622e0       ?getBasedType@UnDecorator@@CA?AVDName@@XZ 100632e0 f   LIBCMTD:undname.obj
 0001:000623a0       ?getScopedName@UnDecorator@@CA?AVDName@@XZ 100633a0 f   LIBCMTD:undname.obj
 0001:000624c0       ?getCallingConvention@UnDecorator@@CA?AVDName@@XZ 100634c0 f   LIBCMTD:undname.obj
 0001:00062640       ?getReturnType@UnDecorator@@CA?AVDName@@PAV2@@Z 10063640 f   LIBCMTD:undname.obj
 0001:00062690       ?getDataType@UnDecorator@@CA?AVDName@@PAV2@@Z 10063690 f   LIBCMTD:undname.obj
 0001:000627b0       ?getPrimaryDataType@UnDecorator@@CA?AVDName@@ABV2@@Z 100637b0 f   LIBCMTD:undname.obj
 0001:00062b50       ?getArgumentTypes@UnDecorator@@CA?AVDName@@XZ 10063b50 f   LIBCMTD:undname.obj
 0001:00062cb0       ?getArgumentList@UnDecorator@@CA?AVDName@@XZ 10063cb0 f   LIBCMTD:undname.obj
 0001:00062e00       ?getThrowTypes@UnDecorator@@CA?AVDName@@XZ 10063e00 f   LIBCMTD:undname.obj
 0001:00062eb0       ?getBasicDataType@UnDecorator@@CA?AVDName@@ABV2@@Z 10063eb0 f   LIBCMTD:undname.obj
 0001:00063470       ?getECSUDataType@UnDecorator@@CA?AVDName@@XZ 10064470 f   LIBCMTD:undname.obj
 0001:00063640       ?getECSUName@UnDecorator@@CA?AVDName@@XZ 10064640 f i LIBCMTD:undname.obj
 0001:00063660       ?getEnumType@UnDecorator@@CA?AVDName@@XZ 10064660 f i LIBCMTD:undname.obj
 0001:000637b0       ?getFunctionIndirectType@UnDecorator@@CA?AVDName@@ABV2@@Z 100647b0 f   LIBCMTD:undname.obj
 0001:00063bf0       ?getPtrRefType@UnDecorator@@CA?AVDName@@ABV2@0PBD@Z 10064bf0 f   LIBCMTD:undname.obj
 0001:00063d50       ?getExtendedDataIndirectType@UnDecorator@@CA?AVDName@@AAPBDAA_NH@Z 10064d50 f   LIBCMTD:undname.obj
 0001:00063f70       ?getDataIndirectType@UnDecorator@@CA?AVDName@@ABV2@PBD0H@Z 10064f70 f   LIBCMTD:undname.obj
 0001:00064670       ?getPtrRefDataType@UnDecorator@@CA?AVDName@@ABV2@H@Z 10065670 f i LIBCMTD:undname.obj
 0001:000647b0       ?getArrayType@UnDecorator@@CA?AVDName@@ABV2@@Z 100657b0 f i LIBCMTD:undname.obj
 0001:000649e0       ?getLexicalFrame@UnDecorator@@CA?AVDName@@XZ 100659e0 f i LIBCMTD:undname.obj
 0001:00064a20       ?getThisType@UnDecorator@@CA?AVDName@@XZ 10065a20 f i LIBCMTD:undname.obj
 0001:00064a60       ?getPointerType@UnDecorator@@CA?AVDName@@ABV2@0@Z 10065a60 f i LIBCMTD:undname.obj
 0001:00064a90       ?getPointerTypeArray@UnDecorator@@CA?AVDName@@ABV2@0@Z 10065a90 f i LIBCMTD:undname.obj
 0001:00064ac0       ?getReferenceType@UnDecorator@@CA?AVDName@@ABV2@0PBD@Z 10065ac0 f i LIBCMTD:undname.obj
 0001:00064af0       ?getDisplacement@UnDecorator@@CA?AVDName@@XZ 10065af0 f i LIBCMTD:undname.obj
 0001:00064b10       ?getCallIndex@UnDecorator@@CA?AVDName@@XZ 10065b10 f i LIBCMTD:undname.obj
 0001:00064b30       ?getGuardNumber@UnDecorator@@CA?AVDName@@XZ 10065b30 f i LIBCMTD:undname.obj
 0001:00064b50       ?getVbTableType@UnDecorator@@CA?AVDName@@ABV2@@Z 10065b50 f i LIBCMTD:undname.obj
 0001:00064b70       ?getVCallThunkType@UnDecorator@@CA?AVDName@@XZ 10065b70 f i LIBCMTD:undname.obj
 0001:00064bd0       ?getVfTableType@UnDecorator@@CA?AVDName@@ABV2@@Z 10065bd0 f i LIBCMTD:undname.obj
 0001:00064d90       ?getStorageConvention@UnDecorator@@CA?AVDName@@XZ 10065d90 f i LIBCMTD:undname.obj
 0001:00064db0       ?getDataIndirectType@UnDecorator@@CA?AVDName@@XZ 10065db0 f i LIBCMTD:undname.obj
 0001:00064df0       ?getVdispMapType@UnDecorator@@CA?AVDName@@ABV2@@Z 10065df0 f i LIBCMTD:undname.obj
 0001:00064e60       ?getExternalDataType@UnDecorator@@CA?AVDName@@ABV2@@Z 10065e60 f i LIBCMTD:undname.obj
 0001:00064ef0       ?doMSKeywords@UnDecorator@@SAHXZ 10065ef0 f i LIBCMTD:undname.obj
 0001:00064f10       ?doPtr64@UnDecorator@@SAHXZ 10065f10 f i LIBCMTD:undname.obj
 0001:00064f30       ?doFunctionReturns@UnDecorator@@SAHXZ 10065f30 f i LIBCMTD:undname.obj
 0001:00064f50       ?doAllocationModel@UnDecorator@@SAHXZ 10065f50 f i LIBCMTD:undname.obj
 0001:00064f70       ?doAllocationLanguage@UnDecorator@@SAHXZ 10065f70 f i LIBCMTD:undname.obj
 0001:00064f90       ?doThisTypes@UnDecorator@@SAHXZ 10065f90 f i LIBCMTD:undname.obj
 0001:00064fb0       ?doAccessSpecifiers@UnDecorator@@SAHXZ 10065fb0 f i LIBCMTD:undname.obj
 0001:00064fd0       ?doThrowTypes@UnDecorator@@SAHXZ 10065fd0 f i LIBCMTD:undname.obj
 0001:00064ff0       ?doMemberTypes@UnDecorator@@SAHXZ 10065ff0 f i LIBCMTD:undname.obj
 0001:00065010       ?doNameOnly@UnDecorator@@SAHXZ 10066010 f i LIBCMTD:undname.obj
 0001:00065030       ?doTypeOnly@UnDecorator@@SAHXZ 10066030 f i LIBCMTD:undname.obj
 0001:00065050       ?haveTemplateParameters@UnDecorator@@SAHXZ 10066050 f i LIBCMTD:undname.obj
 0001:00065070       ?doEcsu@UnDecorator@@SAHXZ 10066070 f i LIBCMTD:undname.obj
 0001:00065090       ?doEllipsis@UnDecorator@@SAHXZ 10066090 f i LIBCMTD:undname.obj
 0001:000650b0       ?UScore@UnDecorator@@SAPBDW4Tokens@@@Z 100660b0 f   LIBCMTD:undname.obj
 0001:000650e0       ?doUnderScore@UnDecorator@@SAHXZ 100660e0 f i LIBCMTD:undname.obj
 0001:00065100       ??2@YAPAXIAAV_HeapManager@@H@Z 10066100 f i LIBCMTD:undname.obj
 0001:00065120       ?getMemory@_HeapManager@@QAEPAXIH@Z 10066120 f   LIBCMTD:undname.obj
 0001:00065230       ??0Block@_HeapManager@@QAE@XZ 10066230 f i LIBCMTD:undname.obj
 0001:00065250       ??H@YA?AVDName@@DABV0@@Z   10066250 f i LIBCMTD:undname.obj
 0001:00065280       ??H@YA?AVDName@@W4DNameStatus@@ABV0@@Z 10066280 f i LIBCMTD:undname.obj
 0001:000652b0       ??H@YA?AVDName@@PBDABV0@@Z 100662b0 f i LIBCMTD:undname.obj
 0001:000652e0       ??0DName@@QAE@XZ           100662e0 f i LIBCMTD:undname.obj
 0001:000653a0       ??0DName@@QAE@D@Z          100663a0 f   LIBCMTD:undname.obj
 0001:00065480       ??0DName@@QAE@ABV0@@Z      10066480 f i LIBCMTD:undname.obj
 0001:000654b0       ??0DName@@QAE@PAV0@@Z      100664b0 f   LIBCMTD:undname.obj
 0001:000655e0       ??0DName@@QAE@PBD@Z        100665e0 f   LIBCMTD:undname.obj
 0001:000656d0       ??0DName@@QAE@AAPBDD@Z     100666d0 f   LIBCMTD:undname.obj
 0001:00065990       ?doNoIdentCharCheck@UnDecorator@@SAHXZ 10066990 f i LIBCMTD:undname.obj
 0001:000659b0       ??0DName@@QAE@_K@Z         100669b0 f   LIBCMTD:undname.obj
 0001:00065af0       ??0DName@@QAE@_J@Z         10066af0 f   LIBCMTD:undname.obj
 0001:00065c70       ??0DName@@QAE@W4DNameStatus@@@Z 10066c70 f   LIBCMTD:undname.obj
 0001:00065d90       ?isValid@DName@@QBEHXZ     10066d90 f i LIBCMTD:undname.obj
 0001:00065dc0       ?isEmpty@DName@@QBEHXZ     10066dc0 f i LIBCMTD:undname.obj
 0001:00065de0       ?status@DName@@QBE?AW4DNameStatus@@XZ 10066de0 f i LIBCMTD:undname.obj
 0001:00065e00       ?setPtrRef@DName@@QAEAAV1@XZ 10066e00 f i LIBCMTD:undname.obj
 0001:00065e30       ?isPtrRef@DName@@QBEHXZ    10066e30 f i LIBCMTD:undname.obj
 0001:00065e50       ?isUDC@DName@@QBEHXZ       10066e50 f i LIBCMTD:undname.obj
 0001:00065e90       ?setIsUDC@DName@@QAEXXZ    10066e90 f i LIBCMTD:undname.obj
 0001:00065ec0       ?isUDTThunk@DName@@QBEHXZ  10066ec0 f i LIBCMTD:undname.obj
 0001:00065f00       ?setIsArray@DName@@QAEXXZ  10066f00 f i LIBCMTD:undname.obj
 0001:00065f20       ?isArray@DName@@QBEHXZ     10066f20 f i LIBCMTD:undname.obj
 0001:00065f40       ?isNoTE@DName@@QBEHXZ      10066f40 f i LIBCMTD:undname.obj
 0001:00065f60       ?setIsNoTE@DName@@QAEXXZ   10066f60 f i LIBCMTD:undname.obj
 0001:00065f80       ?isPinPtr@DName@@QBEHXZ    10066f80 f i LIBCMTD:undname.obj
 0001:00065fa0       ?setIsPinPtr@DName@@QAEXXZ 10066fa0 f i LIBCMTD:undname.obj
 0001:00065fc0       ?isComArray@DName@@QBEHXZ  10066fc0 f i LIBCMTD:undname.obj
 0001:00065fe0       ?setIsComArray@DName@@QAEXXZ 10066fe0 f i LIBCMTD:undname.obj
 0001:00066000       ?isVCallThunk@DName@@QBEHXZ 10067000 f i LIBCMTD:undname.obj
 0001:00066020       ?setIsVCallThunk@DName@@QAEXXZ 10067020 f i LIBCMTD:undname.obj
 0001:00066040       ?length@DName@@QBEHXZ      10067040 f i LIBCMTD:undname.obj
 0001:00066070       ?getLastChar@DName@@QBEDXZ 10067070 f i LIBCMTD:undname.obj
 0001:000660a0       ?getString@DName@@QBEPADPADH@Z 100670a0 f i LIBCMTD:undname.obj
 0001:00066130       ?getString@DName@@QBEPADPAD0@Z 10067130 f i LIBCMTD:undname.obj
 0001:00066170       ??HDName@@QBE?AV0@D@Z      10067170 f   LIBCMTD:undname.obj
 0001:000661b0       ??HDName@@QBE?AV0@PBD@Z    100671b0 f   LIBCMTD:undname.obj
 0001:000661f0       ??HDName@@QBE?AV0@ABV0@@Z  100671f0 f   LIBCMTD:undname.obj
 0001:00066230       ??HDName@@QBE?AV0@PAV0@@Z  10067230 f   LIBCMTD:undname.obj
 0001:00066270       ??HDName@@QBE?AV0@W4DNameStatus@@@Z 10067270 f   LIBCMTD:undname.obj
 0001:000662b0       ?append@DName@@AAEXPAVDNameNode@@@Z 100672b0 f   LIBCMTD:undname.obj
 0001:00066340       ??YDName@@QAEAAV0@D@Z      10067340 f   LIBCMTD:undname.obj
 0001:000663d0       ??YDName@@QAEAAV0@PBD@Z    100673d0 f   LIBCMTD:undname.obj
 0001:00066470       ??YDName@@QAEAAV0@ABV0@@Z  10067470 f   LIBCMTD:undname.obj
 0001:000664e0       ??YDName@@QAEAAV0@PAV0@@Z  100674e0 f   LIBCMTD:undname.obj
 0001:000665a0       ??YDName@@QAEAAV0@W4DNameStatus@@@Z 100675a0 f   LIBCMTD:undname.obj
 0001:00066610       ??_5DName@@QAEAAV0@ABV0@@Z 10067610 f   LIBCMTD:undname.obj
 0001:00066670       ??4DName@@QAEAAV0@D@Z      10067670 f i LIBCMTD:undname.obj
 0001:00066750       ??4DName@@QAEAAV0@PBD@Z    10067750 f   LIBCMTD:undname.obj
 0001:00066830       ??4DName@@QAEAAV0@ABV0@@Z  10067830 f   LIBCMTD:undname.obj
 0001:00066860       ??4DName@@QAEAAV0@PAV0@@Z  10067860 f   LIBCMTD:undname.obj
 0001:000669a0       ??4DName@@QAEAAV0@W4DNameStatus@@@Z 100679a0 f   LIBCMTD:undname.obj
 0001:00066aa0       ?doPchar@DName@@AAEXPBDH@Z 10067aa0 f   LIBCMTD:undname.obj
 0001:00066be0       ?isFull@Replicator@@QBEHXZ 10067be0 f i LIBCMTD:undname.obj
 0001:00066c00       ??0Replicator@@QAE@XZ      10067c00 f i LIBCMTD:undname.obj
 0001:00066c20       ??YReplicator@@QAEAAV0@ABVDName@@@Z 10067c20 f   LIBCMTD:undname.obj
 0001:00066cb0       ??AReplicator@@QBE?AVDName@@H@Z 10067cb0 f   LIBCMTD:undname.obj
 0001:00066d20       ??0DNameNode@@IAE@XZ       10067d20 f   LIBCMTD:undname.obj
 0001:00066d40       ??0charNode@@QAE@D@Z       10067d40 f   LIBCMTD:undname.obj
 0001:00066d70       ?length@charNode@@UBEHXZ   10067d70 f i LIBCMTD:undname.obj
 0001:00066d90       ?getLastChar@charNode@@UBEDXZ 10067d90 f i LIBCMTD:undname.obj
 0001:00066db0       ?getString@charNode@@UBEPADPAD0@Z 10067db0 f i LIBCMTD:undname.obj
 0001:00066de0       ??0pcharNode@@QAE@PBDH@Z   10067de0 f   LIBCMTD:undname.obj
 0001:00066e70       ?length@pcharNode@@UBEHXZ  10067e70 f i LIBCMTD:undname.obj
 0001:00066e90       ?getLastChar@pcharNode@@UBEDXZ 10067e90 f i LIBCMTD:undname.obj
 0001:00066ed0       ?getString@pcharNode@@UBEPADPAD0@Z 10067ed0 f i LIBCMTD:undname.obj
 0001:00066f00       ?getStringHelper@@YAPADPAD00H@Z 10067f00 f i LIBCMTD:undname.obj
 0001:00066f40       ??0pDNameNode@@QAE@PAVDName@@@Z 10067f40 f   LIBCMTD:undname.obj
 0001:00066fa0       ?length@pDNameNode@@UBEHXZ 10067fa0 f i LIBCMTD:undname.obj
 0001:00066fe0       ?getLastChar@pDNameNode@@UBEDXZ 10067fe0 f i LIBCMTD:undname.obj
 0001:00067010       ?getString@pDNameNode@@UBEPADPAD0@Z 10068010 f i LIBCMTD:undname.obj
 0001:00067050       ??0DNameStatusNode@@AAE@W4DNameStatus@@@Z 10068050 f   LIBCMTD:undname.obj
 0001:000670a0       ?length@DNameStatusNode@@UBEHXZ 100680a0 f i LIBCMTD:undname.obj
 0001:000670c0       ?getLastChar@DNameStatusNode@@UBEDXZ 100680c0 f i LIBCMTD:undname.obj
 0001:000670e0       ?getString@DNameStatusNode@@UBEPADPAD0@Z 100680e0 f i LIBCMTD:undname.obj
 0001:00067120       ?make@DNameStatusNode@@SAPAV1@W4DNameStatus@@@Z 10068120 f i LIBCMTD:undname.obj
 0001:000671d0       ??0pairNode@@QAE@PAVDNameNode@@0@Z 100681d0 f   LIBCMTD:undname.obj
 0001:00067210       ?length@pairNode@@UBEHXZ   10068210 f i LIBCMTD:undname.obj
 0001:00067260       ?getLastChar@pairNode@@UBEDXZ 10068260 f i LIBCMTD:undname.obj
 0001:000672b0       ?getString@pairNode@@UBEPADPAD0@Z 100682b0 f i LIBCMTD:undname.obj
 0001:000673f0       __purecall                 100683f0 f   LIBCMTD:purevirt.obj
 0001:00067430       __set_purecall_handler     10068430 f   LIBCMTD:purevirt.obj
 0001:00067470       __get_purecall_handler     10068470 f   LIBCMTD:purevirt.obj
 0001:00067490       _ogg_page_version          10068490 f   libogg_static:framing.obj
 0001:000674a0       _ogg_page_continued        100684a0 f   libogg_static:framing.obj
 0001:000674c0       _ogg_page_bos              100684c0 f   libogg_static:framing.obj
 0001:000674e0       _ogg_page_eos              100684e0 f   libogg_static:framing.obj
 0001:00067500       _ogg_page_granulepos       10068500 f   libogg_static:framing.obj
 0001:00067670       _ogg_page_serialno         10068670 f   libogg_static:framing.obj
 0001:000676b0       _ogg_page_pageno           100686b0 f   libogg_static:framing.obj
 0001:000676f0       _ogg_page_packets          100686f0 f   libogg_static:framing.obj
 0001:00067760       _ogg_stream_init           10068760 f   libogg_static:framing.obj
 0001:00067820       _ogg_stream_check          10068820 f   libogg_static:framing.obj
 0001:00067840       _ogg_stream_clear          10068840 f   libogg_static:framing.obj
 0001:000678b0       _ogg_stream_destroy        100688b0 f   libogg_static:framing.obj
 0001:000678e0       _ogg_page_checksum_set     100688e0 f   libogg_static:framing.obj
 0001:00067a10       _ogg_stream_iovecin        10068a10 f   libogg_static:framing.obj
 0001:00067e00       _ogg_stream_packetin       10068e00 f   libogg_static:framing.obj
 0001:00067e90       _ogg_stream_flush          10068e90 f   libogg_static:framing.obj
 0001:00068330       _ogg_stream_flush_fill     10069330 f   libogg_static:framing.obj
 0001:00068360       _ogg_stream_pageout        10069360 f   libogg_static:framing.obj
 0001:000683e0       _ogg_stream_pageout_fill   100693e0 f   libogg_static:framing.obj
 0001:00068460       _ogg_stream_eos            10069460 f   libogg_static:framing.obj
 0001:00068490       _ogg_sync_init             10069490 f   libogg_static:framing.obj
 0001:000684c0       _ogg_sync_clear            100694c0 f   libogg_static:framing.obj
 0001:00068500       _ogg_sync_destroy          10069500 f   libogg_static:framing.obj
 0001:00068530       _ogg_sync_check            10069530 f   libogg_static:framing.obj
 0001:00068550       _ogg_sync_buffer           10069550 f   libogg_static:framing.obj
 0001:00068660       _ogg_sync_wrote            10069660 f   libogg_static:framing.obj
 0001:000686b0       _ogg_sync_pageseek         100696b0 f   libogg_static:framing.obj
 0001:00068960       _ogg_sync_pageout          10069960 f   libogg_static:framing.obj
 0001:000689e0       _ogg_stream_pagein         100699e0 f   libogg_static:framing.obj
 0001:00068e70       _ogg_sync_reset            10069e70 f   libogg_static:framing.obj
 0001:00068ed0       _ogg_stream_reset          10069ed0 f   libogg_static:framing.obj
 0001:00068f90       _ogg_stream_reset_serialno 10069f90 f   libogg_static:framing.obj
 0001:00068fd0       _ogg_stream_packetout      10069fd0 f   libogg_static:framing.obj
 0001:000691f0       _ogg_stream_packetpeek     1006a1f0 f   libogg_static:framing.obj
 0001:00069230       _ogg_packet_clear          1006a230 f   libogg_static:framing.obj
 0001:00069260       _vorbis_comment_init       1006a260 f   libvorbis_static:info.obj
 0001:00069280       _vorbis_comment_add        1006a280 f   libvorbis_static:info.obj
 0001:00069350       _vorbis_comment_add_tag    1006a350 f   libvorbis_static:info.obj
 0001:00069460       _vorbis_comment_query      1006a460 f   libvorbis_static:info.obj
 0001:00069610       _vorbis_comment_query_count 1006a610 f   libvorbis_static:info.obj
 0001:00069740       _vorbis_comment_clear      1006a740 f   libvorbis_static:info.obj
 0001:00069800       _vorbis_info_blocksize     1006a800 f   libvorbis_static:info.obj
 0001:00069840       _vorbis_info_init          1006a840 f   libvorbis_static:info.obj
 0001:00069880       _vorbis_info_clear         1006a880 f   libvorbis_static:info.obj
 0001:00069b00       _vorbis_synthesis_idheader 1006ab00 f   libvorbis_static:info.obj
 0001:00069c60       _vorbis_synthesis_headerin 1006ac60 f   libvorbis_static:info.obj
 0001:0006a610       _vorbis_commentheader_out  1006b610 f   libvorbis_static:info.obj
 0001:0006a8c0       _vorbis_analysis_headerout 1006b8c0 f   libvorbis_static:info.obj
 0001:0006b130       _vorbis_granule_time       1006c130 f   libvorbis_static:info.obj
 0001:0006b1e0       _vorbis_version_string     1006c1e0 f   libvorbis_static:info.obj
 0001:0006b1f0       _vorbis_block_init         1006c1f0 f   libvorbis_static:block.obj
 0001:0006b2e0       __vorbis_block_alloc       1006c2e0 f   libvorbis_static:block.obj
 0001:0006b3b0       __vorbis_block_ripcord     1006c3b0 f   libvorbis_static:block.obj
 0001:0006b480       _vorbis_block_clear        1006c480 f   libvorbis_static:block.obj
 0001:0006b540       _vorbis_analysis_init      1006c540 f   libvorbis_static:block.obj
 0001:0006bb90       _vorbis_dsp_clear          1006cb90 f   libvorbis_static:block.obj
 0001:0006bef0       _vorbis_analysis_buffer    1006cef0 f   libvorbis_static:block.obj
 0001:0006c050       _vorbis_analysis_wrote     1006d050 f   libvorbis_static:block.obj
 0001:0006c4e0       _vorbis_analysis_blockout  1006d4e0 f   libvorbis_static:block.obj
 0001:0006c990       _vorbis_synthesis_restart  1006d990 f   libvorbis_static:block.obj
 0001:0006ca80       _vorbis_synthesis_init     1006da80 f   libvorbis_static:block.obj
 0001:0006cad0       _vorbis_synthesis_blockin  1006dad0 f   libvorbis_static:block.obj
 0001:0006d3d0       _vorbis_synthesis_pcmout   1006e3d0 f   libvorbis_static:block.obj
 0001:0006d470       _vorbis_synthesis_read     1006e470 f   libvorbis_static:block.obj
 0001:0006d4b0       _vorbis_synthesis_lapout   1006e4b0 f   libvorbis_static:block.obj
 0001:0006d7c0       _vorbis_window             1006e7c0 f   libvorbis_static:block.obj
 0001:0006d840       _vorbis_synthesis          1006e840 f   libvorbis_static:synthesis.obj
 0001:0006db10       _vorbis_synthesis_trackonly 1006eb10 f   libvorbis_static:synthesis.obj
 0001:0006dca0       _vorbis_packet_blocksize   1006eca0 f   libvorbis_static:synthesis.obj
 0001:0006dd90       _vorbis_synthesis_halfrate 1006ed90 f   libvorbis_static:synthesis.obj
 0001:0006ddd0       _vorbis_synthesis_halfrate_p 1006edd0 f   libvorbis_static:synthesis.obj
 0001:0006de00       __vp_global_look           1006ee00 f   libvorbis_static:psy.obj
 0001:0006de70       __vp_global_free           1006ee70 f   libvorbis_static:psy.obj
 0001:0006dea0       __vi_gpsy_free             1006eea0 f   libvorbis_static:psy.obj
 0001:0006dee0       __vi_psy_free              1006eee0 f   libvorbis_static:psy.obj
 0001:0006df20       __vp_psy_init              1006ef20 f   libvorbis_static:psy.obj
 0001:0006f560       __vp_psy_clear             10070560 f   libvorbis_static:psy.obj
 0001:0006f6b0       __vp_noisemask             100706b0 f   libvorbis_static:psy.obj
 0001:000700c0       __vp_tonemask              100710c0 f   libvorbis_static:psy.obj
 0001:00070970       __vp_offset_and_mix        10071970 f   libvorbis_static:psy.obj
 0001:00070af0       __vp_ampmax_decay          10071af0 f   libvorbis_static:psy.obj
 0001:00070b80       __vp_couple_quantize_normalize 10071b80 f   libvorbis_static:psy.obj
 0001:00071e00       __ilog                     10072e00 f   libvorbis_static:sharedbook.obj
 0001:00071e40       __float32_pack             10072e40 f   libvorbis_static:sharedbook.obj
 0001:00071f20       __float32_unpack           10072f20 f   libvorbis_static:sharedbook.obj
 0001:00071fb0       __make_words               10072fb0 f   libvorbis_static:sharedbook.obj
 0001:00072310       __book_maptype1_quantvals  10073310 f   libvorbis_static:sharedbook.obj
 0001:00072400       __book_unquantize          10073400 f   libvorbis_static:sharedbook.obj
 0001:000726c0       _vorbis_staticbook_destroy 100736c0 f   libvorbis_static:sharedbook.obj
 0001:00072730       _vorbis_book_clear         10073730 f   libvorbis_static:sharedbook.obj
 0001:000727d0       _vorbis_book_init_encode   100737d0 f   libvorbis_static:sharedbook.obj
 0001:000728b0       _vorbis_book_init_decode   100738b0 f   libvorbis_static:sharedbook.obj
 0001:00072f30       _vorbis_book_codeword      10073f30 f   libvorbis_static:sharedbook.obj
 0001:00072f50       _vorbis_book_codelen       10073f50 f   libvorbis_static:sharedbook.obj
 0001:00072f80       _vorbis_staticbook_pack    10073f80 f   libvorbis_static:codebook.obj
 0001:000733a0       _vorbis_staticbook_unpack  100743a0 f   libvorbis_static:codebook.obj
 0001:00073850       _vorbis_book_encode        10074850 f   libvorbis_static:codebook.obj
 0001:000738b0       _vorbis_book_decode        100748b0 f   libvorbis_static:codebook.obj
 0001:00073b50       _vorbis_book_decodevs_add  10074b50 f   libvorbis_static:codebook.obj
 0001:00073d20       _vorbis_book_decodev_add   10074d20 f   libvorbis_static:codebook.obj
 0001:00074000       _vorbis_book_decodev_set   10075000 f   libvorbis_static:codebook.obj
 0001:000740f0       _vorbis_book_decodevv_add  100750f0 f   libvorbis_static:codebook.obj
 0001:000741f0       _vorbis_bitrate_init       100751f0 f   libvorbis_static:bitrate.obj
 0001:00074340       _vorbis_bitrate_clear      10075340 f   libvorbis_static:bitrate.obj
 0001:00074360       _vorbis_bitrate_managed    10075360 f   libvorbis_static:bitrate.obj
 0001:000743b0       _vorbis_bitrate_addblock   100753b0 f   libvorbis_static:bitrate.obj
 0001:00074980       _vorbis_bitrate_flushpacket 10075980 f   libvorbis_static:bitrate.obj
 0001:00074a80       __ve_envelope_init         10075a80 f   libvorbis_static:envelope.obj
 0001:00074d70       __ve_envelope_clear        10075d70 f   libvorbis_static:envelope.obj
 0001:00074e10       __ve_envelope_search       10075e10 f   libvorbis_static:envelope.obj
 0001:00075830       __ve_envelope_mark         10076830 f   libvorbis_static:envelope.obj
 0001:000759a0       __ve_envelope_shift        100769a0 f   libvorbis_static:envelope.obj
 0001:00075a60       _drft_forward              10076a60 f   libvorbis_static:smallft.obj
 0001:00077380       _drft_backward             10078380 f   libvorbis_static:smallft.obj
 0001:000790e0       _drft_init                 1007a0e0 f   libvorbis_static:smallft.obj
 0001:000793d0       _drft_clear                1007a3d0 f   libvorbis_static:smallft.obj
 0001:00079430       _mdct_init                 1007a430 f   libvorbis_static:mdct.obj
 0001:00079770       _mdct_clear                1007a770 f   libvorbis_static:mdct.obj
 0001:000797d0       _mdct_backward             1007a7d0 f   libvorbis_static:mdct.obj
 0001:0007aa40       _mdct_forward              1007ba40 f   libvorbis_static:mdct.obj
 0001:0007add0       _vorbis_lpc_from_data      1007bdd0 f   libvorbis_static:lpc.obj
 0001:0007b110       _vorbis_lpc_predict        1007c110 f   libvorbis_static:lpc.obj
 0001:0007b2b0       __vorbis_window_get        1007c2b0 f   libvorbis_static:window.obj
 0001:0007b2c0       __vorbis_apply_window      1007c2c0 f   libvorbis_static:window.obj
 0001:0007cce0       _res0_free_info            1007dce0 f   libvorbis_static:res0.obj
 0001:0007cd30       _res0_free_look            1007dd30 f   libvorbis_static:res0.obj
 0001:0007ce20       _res0_pack                 1007de20 f   libvorbis_static:res0.obj
 0001:0007d040       _res0_unpack               1007e040 f   libvorbis_static:res0.obj
 0001:0007d2d0       _res0_look                 1007e2d0 f   libvorbis_static:res0.obj
 0001:0007d560       _res0_inverse              1007e560 f   libvorbis_static:res0.obj
 0001:0007d930       _res1_forward              1007e930 f   libvorbis_static:res0.obj
 0001:0007e2b0       _res1_class                1007f2b0 f   libvorbis_static:res0.obj
 0001:0007e590       _res1_inverse              1007f590 f   libvorbis_static:res0.obj
 0001:0007e630       _res2_class                1007f630 f   libvorbis_static:res0.obj
 0001:0007e8a0       _res2_forward              1007f8a0 f   libvorbis_static:res0.obj
 0001:0007e9e0       _res2_inverse              1007f9e0 f   libvorbis_static:res0.obj
 0001:0007f850       _floor1_fit                10080850 f   libvorbis_static:floor1.obj
 0001:00080a70       _floor1_interpolate_fit    10081a70 f   libvorbis_static:floor1.obj
 0001:00080b80       _floor1_encode             10081b80 f   libvorbis_static:floor1.obj
 0001:00082550       _vorbis_lsp_to_curve       10083550 f   libvorbis_static:lsp.obj
 0001:00082740       _vorbis_lpc_to_lsp         10083740 f   libvorbis_static:lsp.obj
 0001:000830f2       _GetModuleFileNameW@12     100840f2 f   kernel32:KERNEL32.dll
 0001:000830f8       _WriteConsoleW@20          100840f8 f   kernel32:KERNEL32.dll
 0001:000830fe       _GetFileType@4             100840fe f   kernel32:KERNEL32.dll
 0001:00083104       _GetStdHandle@4            10084104 f   kernel32:KERNEL32.dll
 0001:0008310a       _GetSystemTimeAsFileTime@4 1008410a f   kernel32:KERNEL32.dll
 0001:00083110       _GetCurrentThreadId@0      10084110 f   kernel32:KERNEL32.dll
 0001:00083116       _DecodePointer@4           10084116 f   kernel32:KERNEL32.dll
 0001:0008311c       _GetCommandLineA@0         1008411c f   kernel32:KERNEL32.dll
 0001:00083122       _EncodePointer@4           10084122 f   kernel32:KERNEL32.dll
 0001:00083128       _IsProcessorFeaturePresent@4 10084128 f   kernel32:KERNEL32.dll
 0001:0008312e       _WideCharToMultiByte@32    1008412e f   kernel32:KERNEL32.dll
 0001:00083134       _IsDebuggerPresent@0       10084134 f   kernel32:KERNEL32.dll
 0001:0008313a       _MultiByteToWideChar@24    1008413a f   kernel32:KERNEL32.dll
 0001:00083140       _RaiseException@16         10084140 f   kernel32:KERNEL32.dll
 0001:00083146       _lstrlenA@4                10084146 f   kernel32:KERNEL32.dll
 0001:0008314c       _LoadLibraryW@4            1008414c f   kernel32:KERNEL32.dll
 0001:00083152       _TerminateProcess@8        10084152 f   kernel32:KERNEL32.dll
 0001:00083158       _GetCurrentProcess@0       10084158 f   kernel32:KERNEL32.dll
 0001:0008315e       _UnhandledExceptionFilter@4 1008415e f   kernel32:KERNEL32.dll
 0001:00083164       _SetUnhandledExceptionFilter@4 10084164 f   kernel32:KERNEL32.dll
 0001:0008316a       _InterlockedIncrement@4    1008416a f   kernel32:KERNEL32.dll
 0001:00083170       _InterlockedDecrement@4    10084170 f   kernel32:KERNEL32.dll
 0001:00083176       _GetModuleHandleW@4        10084176 f   kernel32:KERNEL32.dll
 0001:0008317c       _ExitProcess@4             1008417c f   kernel32:KERNEL32.dll
 0001:00083182       _GetLastError@0            10084182 f   kernel32:KERNEL32.dll
 0001:00083188       _SetConsoleCtrlHandler@8   10084188 f   kernel32:KERNEL32.dll
 0001:0008318e       _EnterCriticalSection@4    1008418e f   kernel32:KERNEL32.dll
 0001:00083194       _LeaveCriticalSection@4    10084194 f   kernel32:KERNEL32.dll
 0001:0008319a       _GetACP@0                  1008419a f   kernel32:KERNEL32.dll
 0001:000831a0       _GetOEMCP@0                100841a0 f   kernel32:KERNEL32.dll
 0001:000831a6       _GetCPInfo@8               100841a6 f   kernel32:KERNEL32.dll
 0001:000831ac       _IsValidCodePage@4         100841ac f   kernel32:KERNEL32.dll
 0001:000831b2       _TlsAlloc@0                100841b2 f   kernel32:KERNEL32.dll
 0001:000831b8       _TlsGetValue@4             100841b8 f   kernel32:KERNEL32.dll
 0001:000831be       _TlsSetValue@8             100841be f   kernel32:KERNEL32.dll
 0001:000831c4       _TlsFree@4                 100841c4 f   kernel32:KERNEL32.dll
 0001:000831ca       _SetLastError@4            100841ca f   kernel32:KERNEL32.dll
 0001:000831d0       _GetCurrentThread@0        100841d0 f   kernel32:KERNEL32.dll
 0001:000831d6       _LCMapStringW@24           100841d6 f   kernel32:KERNEL32.dll
 0001:000831dc       _SetHandleCount@4          100841dc f   kernel32:KERNEL32.dll
 0001:000831e2       _InitializeCriticalSectionAndSpinCount@8 100841e2 f   kernel32:KERNEL32.dll
 0001:000831e8       _GetStartupInfoW@4         100841e8 f   kernel32:KERNEL32.dll
 0001:000831ee       _DeleteCriticalSection@4   100841ee f   kernel32:KERNEL32.dll
 0001:000831f4       _SetFilePointer@16         100841f4 f   kernel32:KERNEL32.dll
 0001:000831fa       _HeapValidate@12           100841fa f   kernel32:KERNEL32.dll
 0001:00083200       _IsBadReadPtr@8            10084200 f   kernel32:KERNEL32.dll
 0001:00083206       _CloseHandle@4             10084206 f   kernel32:KERNEL32.dll
 0001:0008320c       _ReadFile@20               1008420c f   kernel32:KERNEL32.dll
 0001:00083212       _GetModuleFileNameA@12     10084212 f   kernel32:KERNEL32.dll
 0001:00083218       _FreeEnvironmentStringsW@4 10084218 f   kernel32:KERNEL32.dll
 0001:0008321e       _GetEnvironmentStringsW@0  1008421e f   kernel32:KERNEL32.dll
 0001:00083224       _HeapCreate@12             10084224 f   kernel32:KERNEL32.dll
 0001:0008322a       _HeapDestroy@4             1008422a f   kernel32:KERNEL32.dll
 0001:00083230       _QueryPerformanceCounter@4 10084230 f   kernel32:KERNEL32.dll
 0001:00083236       _GetTickCount@0            10084236 f   kernel32:KERNEL32.dll
 0001:0008323c       _GetCurrentProcessId@0     1008423c f   kernel32:KERNEL32.dll
 0001:00083242       _RtlUnwind@16              10084242 f   kernel32:KERNEL32.dll
 0001:00083248       _HeapFree@12               10084248 f   kernel32:KERNEL32.dll
 0001:0008324e       _HeapAlloc@12              1008424e f   kernel32:KERNEL32.dll
 0001:00083254       _GetProcessHeap@0          10084254 f   kernel32:KERNEL32.dll
 0001:0008325a       _VirtualQuery@12           1008425a f   kernel32:KERNEL32.dll
 0001:00083260       _WriteFile@20              10084260 f   kernel32:KERNEL32.dll
 0001:00083266       _FatalAppExitA@8           10084266 f   kernel32:KERNEL32.dll
 0001:0008326c       _InterlockedExchange@8     1008426c f   kernel32:KERNEL32.dll
 0001:00083272       _GetLocaleInfoW@16         10084272 f   kernel32:KERNEL32.dll
 0001:00083278       _FlushFileBuffers@4        10084278 f   kernel32:KERNEL32.dll
 0001:0008327e       _GetConsoleCP@0            1008427e f   kernel32:KERNEL32.dll
 0001:00083284       _GetConsoleMode@8          10084284 f   kernel32:KERNEL32.dll
 0001:0008328a       _GetStringTypeW@16         1008428a f   kernel32:KERNEL32.dll
 0001:00083290       _GetLocaleInfoA@16         10084290 f   kernel32:KERNEL32.dll
 0001:00083296       _IsValidLocale@8           10084296 f   kernel32:KERNEL32.dll
 0001:0008329c       _EnumSystemLocalesA@8      1008429c f   kernel32:KERNEL32.dll
 0001:000832a2       _GetUserDefaultLCID@0      100842a2 f   kernel32:KERNEL32.dll
 0001:000832a8       _OutputDebugStringA@4      100842a8 f   kernel32:KERNEL32.dll
 0001:000832ae       _OutputDebugStringW@4      100842ae f   kernel32:KERNEL32.dll
 0001:000832b4       _SetStdHandle@8            100842b4 f   kernel32:KERNEL32.dll
 0001:000832ba       _HeapReAlloc@16            100842ba f   kernel32:KERNEL32.dll
 0001:000832c0       _HeapSize@12               100842c0 f   kernel32:KERNEL32.dll
 0001:000832c6       _HeapQueryInformation@20   100842c6 f   kernel32:KERNEL32.dll
 0001:000832cc       _CreateFileA@28            100842cc f   kernel32:KERNEL32.dll
 0001:000832d2       _SetEndOfFile@4            100842d2 f   kernel32:KERNEL32.dll
 0001:000832d8       _CreateFileW@28            100842d8 f   kernel32:KERNEL32.dll
 0001:000832e0       _memchr                    100842e0 f   LIBCMTD:memchr.obj
 0001:00083390       _log                       10084390 f   LIBCMTD:_log_.obj
 0001:000833d0       __CIlog                    100843d0 f   LIBCMTD:_log_.obj
 0001:0008340b       __CIlog_default            1008440b f   LIBCMTD:_log_.obj
 0001:0008341f       __log_default              1008441f     LIBCMTD:_log_.obj
 0001:000834e0       _ceil                      100844e0 f   LIBCMTD:_ceil_pentium4_.obj
 0001:00083520       __ceil_pentium4            10084520 f   LIBCMTD:_ceil_pentium4_.obj
 0001:00083600       _labs                      10084600 f   LIBCMTD:labs.obj
 0001:00083630       __CIlog_pentium4           10084630 f   LIBCMTD:_log_pentium4_.obj
 0001:00083648       __log_pentium4             10084648     LIBCMTD:_log_pentium4_.obj
 0001:000838a0       __ceil_default             100848a0 f   LIBCMTD:_ceil_.obj
 0001:000839e0       _oggpack_writeinit         100849e0 f   libogg_static:bitwise.obj
 0001:00083a40       _oggpackB_writeinit        10084a40 f   libogg_static:bitwise.obj
 0001:00083a60       _oggpack_writecheck        10084a60 f   libogg_static:bitwise.obj
 0001:00083a80       _oggpackB_writecheck       10084a80 f   libogg_static:bitwise.obj
 0001:00083aa0       _oggpack_writetrunc        10084aa0 f   libogg_static:bitwise.obj
 0001:00083b10       _oggpackB_writetrunc       10084b10 f   libogg_static:bitwise.obj
 0001:00083b80       _oggpack_write             10084b80 f   libogg_static:bitwise.obj
 0001:00083d50       _oggpackB_write            10084d50 f   libogg_static:bitwise.obj
 0001:00083f20       _oggpack_writealign        10084f20 f   libogg_static:bitwise.obj
 0001:00083f60       _oggpackB_writealign       10084f60 f   libogg_static:bitwise.obj
 0001:00083fa0       _oggpack_writecopy         10084fa0 f   libogg_static:bitwise.obj
 0001:000841a0       _oggpackB_writecopy        100851a0 f   libogg_static:bitwise.obj
 0001:000841d0       _oggpack_reset             100851d0 f   libogg_static:bitwise.obj
 0001:00084210       _oggpackB_reset            10085210 f   libogg_static:bitwise.obj
 0001:00084230       _oggpack_writeclear        10085230 f   libogg_static:bitwise.obj
 0001:00084270       _oggpackB_writeclear       10085270 f   libogg_static:bitwise.obj
 0001:00084290       _oggpack_readinit          10085290 f   libogg_static:bitwise.obj
 0001:000842d0       _oggpackB_readinit         100852d0 f   libogg_static:bitwise.obj
 0001:000842f0       _oggpack_look              100852f0 f   libogg_static:bitwise.obj
 0001:00084430       _oggpackB_look             10085430 f   libogg_static:bitwise.obj
 0001:00084570       _oggpack_look1             10085570 f   libogg_static:bitwise.obj
 0001:000845a0       _oggpackB_look1            100855a0 f   libogg_static:bitwise.obj
 0001:000845d0       _oggpack_adv               100855d0 f   libogg_static:bitwise.obj
 0001:00084660       _oggpackB_adv              10085660 f   libogg_static:bitwise.obj
 0001:00084680       _oggpack_adv1              10085680 f   libogg_static:bitwise.obj
 0001:000846d0       _oggpackB_adv1             100856d0 f   libogg_static:bitwise.obj
 0001:000846f0       _oggpack_read              100856f0 f   libogg_static:bitwise.obj
 0001:00084890       _oggpackB_read             10085890 f   libogg_static:bitwise.obj
 0001:00084a30       _oggpack_read1             10085a30 f   libogg_static:bitwise.obj
 0001:00084ad0       _oggpackB_read1            10085ad0 f   libogg_static:bitwise.obj
 0001:00084b70       _oggpack_bytes             10085b70 f   libogg_static:bitwise.obj
 0001:00084b90       _oggpack_bits              10085b90 f   libogg_static:bitwise.obj
 0001:00084bb0       _oggpackB_bytes            10085bb0 f   libogg_static:bitwise.obj
 0001:00084bd0       _oggpackB_bits             10085bd0 f   libogg_static:bitwise.obj
 0001:00084bf0       _oggpack_get_buffer        10085bf0 f   libogg_static:bitwise.obj
 0001:00084c00       _oggpackB_get_buffer       10085c00 f   libogg_static:bitwise.obj
 0002:00000000       __imp__LoadLibraryA@4      10086000     kernel32:KERNEL32.dll
 0002:00000004       __imp__GetProcAddress@8    10086004     kernel32:KERNEL32.dll
 0002:00000008       __imp__FreeLibrary@4       10086008     kernel32:KERNEL32.dll
 0002:0000000c       __imp__GetModuleFileNameW@12 1008600c     kernel32:KERNEL32.dll
 0002:00000010       __imp__WriteConsoleW@20    10086010     kernel32:KERNEL32.dll
 0002:00000014       __imp__GetFileType@4       10086014     kernel32:KERNEL32.dll
 0002:00000018       __imp__GetStdHandle@4      10086018     kernel32:KERNEL32.dll
 0002:0000001c       __imp__GetSystemTimeAsFileTime@4 1008601c     kernel32:KERNEL32.dll
 0002:00000020       __imp__GetCurrentThreadId@0 10086020     kernel32:KERNEL32.dll
 0002:00000024       __imp__DecodePointer@4     10086024     kernel32:KERNEL32.dll
 0002:00000028       __imp__GetCommandLineA@0   10086028     kernel32:KERNEL32.dll
 0002:0000002c       __imp__EncodePointer@4     1008602c     kernel32:KERNEL32.dll
 0002:00000030       __imp__IsProcessorFeaturePresent@4 10086030     kernel32:KERNEL32.dll
 0002:00000034       __imp__WideCharToMultiByte@32 10086034     kernel32:KERNEL32.dll
 0002:00000038       __imp__IsDebuggerPresent@0 10086038     kernel32:KERNEL32.dll
 0002:0000003c       __imp__MultiByteToWideChar@24 1008603c     kernel32:KERNEL32.dll
 0002:00000040       __imp__RaiseException@16   10086040     kernel32:KERNEL32.dll
 0002:00000044       __imp__lstrlenA@4          10086044     kernel32:KERNEL32.dll
 0002:00000048       __imp__LoadLibraryW@4      10086048     kernel32:KERNEL32.dll
 0002:0000004c       __imp__TerminateProcess@8  1008604c     kernel32:KERNEL32.dll
 0002:00000050       __imp__GetCurrentProcess@0 10086050     kernel32:KERNEL32.dll
 0002:00000054       __imp__UnhandledExceptionFilter@4 10086054     kernel32:KERNEL32.dll
 0002:00000058       __imp__SetUnhandledExceptionFilter@4 10086058     kernel32:KERNEL32.dll
 0002:0000005c       __imp__InterlockedIncrement@4 1008605c     kernel32:KERNEL32.dll
 0002:00000060       __imp__InterlockedDecrement@4 10086060     kernel32:KERNEL32.dll
 0002:00000064       __imp__GetModuleHandleW@4  10086064     kernel32:KERNEL32.dll
 0002:00000068       __imp__ExitProcess@4       10086068     kernel32:KERNEL32.dll
 0002:0000006c       __imp__GetLastError@0      1008606c     kernel32:KERNEL32.dll
 0002:00000070       __imp__SetConsoleCtrlHandler@8 10086070     kernel32:KERNEL32.dll
 0002:00000074       __imp__EnterCriticalSection@4 10086074     kernel32:KERNEL32.dll
 0002:00000078       __imp__LeaveCriticalSection@4 10086078     kernel32:KERNEL32.dll
 0002:0000007c       __imp__GetACP@0            1008607c     kernel32:KERNEL32.dll
 0002:00000080       __imp__GetOEMCP@0          10086080     kernel32:KERNEL32.dll
 0002:00000084       __imp__GetCPInfo@8         10086084     kernel32:KERNEL32.dll
 0002:00000088       __imp__IsValidCodePage@4   10086088     kernel32:KERNEL32.dll
 0002:0000008c       __imp__TlsAlloc@0          1008608c     kernel32:KERNEL32.dll
 0002:00000090       __imp__TlsGetValue@4       10086090     kernel32:KERNEL32.dll
 0002:00000094       __imp__TlsSetValue@8       10086094     kernel32:KERNEL32.dll
 0002:00000098       __imp__TlsFree@4           10086098     kernel32:KERNEL32.dll
 0002:0000009c       __imp__SetLastError@4      1008609c     kernel32:KERNEL32.dll
 0002:000000a0       __imp__GetCurrentThread@0  100860a0     kernel32:KERNEL32.dll
 0002:000000a4       __imp__LCMapStringW@24     100860a4     kernel32:KERNEL32.dll
 0002:000000a8       __imp__SetHandleCount@4    100860a8     kernel32:KERNEL32.dll
 0002:000000ac       __imp__InitializeCriticalSectionAndSpinCount@8 100860ac     kernel32:KERNEL32.dll
 0002:000000b0       __imp__GetStartupInfoW@4   100860b0     kernel32:KERNEL32.dll
 0002:000000b4       __imp__DeleteCriticalSection@4 100860b4     kernel32:KERNEL32.dll
 0002:000000b8       __imp__SetFilePointer@16   100860b8     kernel32:KERNEL32.dll
 0002:000000bc       __imp__HeapValidate@12     100860bc     kernel32:KERNEL32.dll
 0002:000000c0       __imp__IsBadReadPtr@8      100860c0     kernel32:KERNEL32.dll
 0002:000000c4       __imp__CloseHandle@4       100860c4     kernel32:KERNEL32.dll
 0002:000000c8       __imp__ReadFile@20         100860c8     kernel32:KERNEL32.dll
 0002:000000cc       __imp__GetModuleFileNameA@12 100860cc     kernel32:KERNEL32.dll
 0002:000000d0       __imp__FreeEnvironmentStringsW@4 100860d0     kernel32:KERNEL32.dll
 0002:000000d4       __imp__GetEnvironmentStringsW@0 100860d4     kernel32:KERNEL32.dll
 0002:000000d8       __imp__HeapCreate@12       100860d8     kernel32:KERNEL32.dll
 0002:000000dc       __imp__HeapDestroy@4       100860dc     kernel32:KERNEL32.dll
 0002:000000e0       __imp__QueryPerformanceCounter@4 100860e0     kernel32:KERNEL32.dll
 0002:000000e4       __imp__GetTickCount@0      100860e4     kernel32:KERNEL32.dll
 0002:000000e8       __imp__GetCurrentProcessId@0 100860e8     kernel32:KERNEL32.dll
 0002:000000ec       __imp__RtlUnwind@16        100860ec     kernel32:KERNEL32.dll
 0002:000000f0       __imp__HeapFree@12         100860f0     kernel32:KERNEL32.dll
 0002:000000f4       __imp__HeapAlloc@12        100860f4     kernel32:KERNEL32.dll
 0002:000000f8       __imp__GetProcessHeap@0    100860f8     kernel32:KERNEL32.dll
 0002:000000fc       __imp__VirtualQuery@12     100860fc     kernel32:KERNEL32.dll
 0002:00000100       __imp__WriteFile@20        10086100     kernel32:KERNEL32.dll
 0002:00000104       __imp__FatalAppExitA@8     10086104     kernel32:KERNEL32.dll
 0002:00000108       __imp__InterlockedExchange@8 10086108     kernel32:KERNEL32.dll
 0002:0000010c       __imp__GetLocaleInfoW@16   1008610c     kernel32:KERNEL32.dll
 0002:00000110       __imp__FlushFileBuffers@4  10086110     kernel32:KERNEL32.dll
 0002:00000114       __imp__GetConsoleCP@0      10086114     kernel32:KERNEL32.dll
 0002:00000118       __imp__GetConsoleMode@8    10086118     kernel32:KERNEL32.dll
 0002:0000011c       __imp__GetStringTypeW@16   1008611c     kernel32:KERNEL32.dll
 0002:00000120       __imp__GetLocaleInfoA@16   10086120     kernel32:KERNEL32.dll
 0002:00000124       __imp__IsValidLocale@8     10086124     kernel32:KERNEL32.dll
 0002:00000128       __imp__EnumSystemLocalesA@8 10086128     kernel32:KERNEL32.dll
 0002:0000012c       __imp__GetUserDefaultLCID@0 1008612c     kernel32:KERNEL32.dll
 0002:00000130       __imp__OutputDebugStringA@4 10086130     kernel32:KERNEL32.dll
 0002:00000134       __imp__OutputDebugStringW@4 10086134     kernel32:KERNEL32.dll
 0002:00000138       __imp__SetStdHandle@8      10086138     kernel32:KERNEL32.dll
 0002:0000013c       __imp__HeapReAlloc@16      1008613c     kernel32:KERNEL32.dll
 0002:00000140       __imp__HeapSize@12         10086140     kernel32:KERNEL32.dll
 0002:00000144       __imp__HeapQueryInformation@20 10086144     kernel32:KERNEL32.dll
 0002:00000148       __imp__CreateFileA@28      10086148     kernel32:KERNEL32.dll
 0002:0000014c       __imp__SetEndOfFile@4      1008614c     kernel32:KERNEL32.dll
 0002:00000150       __imp__CreateFileW@28      10086150     kernel32:KERNEL32.dll
 0002:00000154       \177KERNEL32_NULL_THUNK_DATA 10086154     kernel32:KERNEL32.dll
 0002:00000158       ___xc_a                    10086158     LIBCMTD:crt0init.obj
 0002:0000015c       ___xc_z                    1008615c     LIBCMTD:crt0init.obj
 0002:00000160       ___xi_a                    10086160     LIBCMTD:crt0init.obj
 0002:00000178       ___xi_z                    10086178     LIBCMTD:crt0init.obj
 0002:0000017c       ___xp_a                    1008617c     LIBCMTD:crt0init.obj
 0002:0000018c       ___xp_z                    1008618c     LIBCMTD:crt0init.obj
 0002:00000190       ___xt_a                    10086190     LIBCMTD:crt0init.obj
 0002:00000194       ___xt_z                    10086194     LIBCMTD:crt0init.obj
 0002:000001bc       __real@00000000            100861bc     q_math.obj
 0002:000001c0       __real@3ff0000000000000    100861c0     q_math.obj
 0002:000001c8       __real@401921fb54442d18    100861c8     q_math.obj
 0002:000001d0       __real@406fe00000000000    100861d0     q_math.obj
 0002:000001d8       __real@0000000000000000    100861d8     q_math.obj
 0002:000001e0       __real@4066800000000000    100861e0     q_math.obj
 0002:000001e8       __real@400921fb54442d18    100861e8     q_math.obj
 0002:000001f0       __real@bff0000000000000    100861f0     q_math.obj
 0002:000001f8       __real@4076800000000000    100861f8     q_math.obj
 0002:00000200       __real@c2b40000            10086200     q_math.obj
 0002:00000204       __real@43870000            10086204     q_math.obj
 0002:00000208       __real@42b40000            10086208     q_math.obj
 0002:0000020c       __real@3f800000            1008620c     q_math.obj
 0002:00000210       __real@3ff8000000000000    10086210     q_math.obj
 0002:00000218       __real@3fe0000000000000    10086218     q_math.obj
 0002:00000220       __real@c066800000000000    10086220     q_math.obj
 0002:00000228       __real@3f76800000000000    10086228     q_math.obj
 0002:00000230       __real@4066c16c16c16c17    10086230     q_math.obj
 0002:00000238       __real@4066600000000000    10086238     q_math.obj
 0002:00000240       __real@44200000            10086240     q_math.obj
 0002:00000244       __real@43f00000            10086244     q_math.obj
 0002:00000248       __real@4000000000000000    10086248     q_math.obj
 0002:00000250       __real@4014000000000000    10086250     q_math.obj
 0002:00000258       __real@4010000000000000    10086258     q_math.obj
 0002:00000260       __real@4008000000000000    10086260     q_math.obj
 0002:00000268       __real@bf800000            10086268     q_math.obj
 0002:00000270       __real@3f847ae147ae147b    10086270     q_math.obj
 0002:00000278       __real@3ee4f8b588e368f1    10086278     q_math.obj
 0002:00000280       __real@c7c34f80            10086280     q_math.obj
 0002:00000284       __real@47c34f80            10086284     q_math.obj
 0002:00000288       __real@c000000000000000    10086288     q_math.obj
 0002:00000290       __real@43340000            10086290     q_math.obj
 0002:00000298       __real@3f0a36e2eb1c432d    10086298     q_math.obj
 0002:000002a0       __real@3fefff2e48e8a71e    100862a0     q_math.obj
 0002:000002a8       __real@bfe0000000000000    100862a8     q_math.obj
 0002:000002b0       __real@40040d931ff62704    100862b0     q_math.obj
 0002:000002b8       __real@3fe4cccccccccccd    100862b8     q_math.obj
 0002:000002c0       __real@407b869ea974c7e5    100862c0     q_math.obj
 0002:000002c8       __real@4088ce9cb298974a    100862c8     q_math.obj
 0002:000002d0       __real@4083eaab47fa1777    100862d0     q_math.obj
 0002:000002d8       __real@4072890729ba7820    100862d8     q_math.obj
 0002:000002e0       __real@4055b1f78433a59a    100862e0     q_math.obj
 0002:000002e8       __real@4030106df11bd49d    100862e8     q_math.obj
 0002:000002f0       __real@3db504f3            100862f0     q_math.obj
 0002:000002f8       __real@406b869ea974c7e5    100862f8     q_math.obj
 0002:00000300       __real@406ba6d5c7a28cf2    10086300     q_math.obj
 0002:00000308       __real@405c05131ca58d3c    10086308     q_math.obj
 0002:00000310       __real@4040f4d8cbb02431    10086310     q_math.obj
 0002:00000318       __real@40197eeff2a86f23    10086318     q_math.obj
 0002:00000320       __real@3fe66989be8ea71f    10086320     q_math.obj
 0002:00000328       __real@3fa20ded0b57fbde    10086328     q_math.obj
 0002:00000330       __real@401c48c6001f0aba    10086330     q_math.obj
 0002:00000338       __real@4042800000000000    10086338     q_math.obj
 0002:00000340       _NUM_SOUND_EXTENSIONS      10086340     q_shared.obj
 0002:00000344       _NUM_IMAGE_EXTENSIONS      10086344     q_shared.obj
 0002:00000348       __real@3f1a36e2eb1c432d    10086348     q_shared.obj
 0002:00000350       __real@4054000000000000    10086350     q_shared.obj
 0002:00000358       __real@45fa0000            10086358     snd_main.obj
 0002:0000035c       __real@432f0000            1008635c     snd_main.obj
 0002:00000360       __real@408f400000000000    10086360     snd_stream.obj
 0002:00000368       __real@c060600000000000    10086368     libvorbisfile_static:vorbisfile.obj
 0002:00000370       __real@40e0000000000000    10086370     libvorbisfile_static:vorbisfile.obj
 0002:00000378       __real@4060000000000000    10086378     libvorbisfile_static:vorbisfile.obj
 0002:00000380       __FPinit                   10086380     LIBCMTD:_fpinit_.obj
 0002:00000384       ??_C@_15IABLJNFO@?$AA?6?$AA?6?$AA?$AA@ 10086384     LIBCMTD:wassert.obj
 0002:0000038c       ??_C@_13LBAGMAIH@?$AA?6?$AA?$AA@ 1008638c     LIBCMTD:wassert.obj
 0002:00000390       ??_C@_17LGKOMLJ@?$AA?4?$AA?4?$AA?4?$AA?$AA@ 10086390     LIBCMTD:wassert.obj
 0002:00000398       ??_C@_1EK@MBDPDCGA@?$AAM?$AAi?$AAc?$AAr?$AAo?$AAs?$AAo?$AAf?$AAt?$AA?5?$AAV?$AAi?$AAs?$AAu?$AAa?$AAl?$AA?5?$AAC?$AA?$CL?$AA?$CL?$AA?5?$AAR?$AAu?$AAn?$AAt?$AAi?$AAm?$AAe?$AA?5?$AAL?$AAi?$AAb@ 10086398     LIBCMTD:wassert.obj
 0002:000003e8       ??_C@_1HK@POCJMFGK@?$AA?$CI?$AAP?$AAr?$AAe?$AAs?$AAs?$AA?5?$AAR?$AAe?$AAt?$AAr?$AAy?$AA?5?$AAt?$AAo?$AA?5?$AAd?$AAe?$AAb?$AAu?$AAg?$AA?5?$AAt?$AAh?$AAe?$AA?5?$AAa?$AAp?$AAp?$AAl?$AAi?$AAc@ 100863e8     LIBCMTD:wassert.obj
 0002:00000468       ??_C@_1LO@HBAMOOPN@?$AAw?$AAc?$AAs?$AAc?$AAa?$AAt?$AA_?$AAs?$AA?$CI?$AAa?$AAs?$AAs?$AAe?$AAr?$AAt?$AAb?$AAu?$AAf?$AA?0?$AA?5?$AA?$CI?$AA6?$AA0?$AA?5?$AA?$CK?$AA?5?$AA9?$AA?$CJ?$AA?0?$AA?5?$AAL?$AA?$CC@ 10086468     LIBCMTD:wassert.obj
 0002:00000528       ??_C@_1FG@GMPCGFKH@?$AAw?$AAc?$AAs?$AAc?$AAa?$AAt?$AA_?$AAs?$AA?$CI?$AAa?$AAs?$AAs?$AAe?$AAr?$AAt?$AAb?$AAu?$AAf?$AA?0?$AA?5?$AA?$CI?$AA6?$AA0?$AA?5?$AA?$CK?$AA?5?$AA9?$AA?$CJ?$AA?0?$AA?5?$AAd?$AAb@ 10086528     LIBCMTD:wassert.obj
 0002:00000580       ??_C@_1OA@EGMLFBHJ@?$AAF?$AAo?$AAr?$AA?5?$AAi?$AAn?$AAf?$AAo?$AAr?$AAm?$AAa?$AAt?$AAi?$AAo?$AAn?$AA?5?$AAo?$AAn?$AA?5?$AAh?$AAo?$AAw?$AA?5?$AAy?$AAo?$AAu?$AAr?$AA?5?$AAp?$AAr?$AAo?$AAg@ 10086580     LIBCMTD:wassert.obj
 0002:00000660       ??_C@_1BCO@FMFFDPPF@?$AAw?$AAc?$AAs?$AAc?$AAa?$AAt?$AA_?$AAs?$AA?$CI?$AAa?$AAs?$AAs?$AAe?$AAr?$AAt?$AAb?$AAu?$AAf?$AA?0?$AA?5?$AA?$CI?$AA6?$AA0?$AA?5?$AA?$CK?$AA?5?$AA9?$AA?$CJ?$AA?0?$AA?5?$AAL?$AA?$CC@ 10086660     LIBCMTD:wassert.obj
 0002:00000790       ??_C@_1EM@MBEKCGIC@?$AAw?$AAc?$AAs?$AAc?$AAa?$AAt?$AA_?$AAs?$AA?$CI?$AA?5?$AAa?$AAs?$AAs?$AAe?$AAr?$AAt?$AAb?$AAu?$AAf?$AA?0?$AA?5?$AA?$CI?$AA6?$AA0?$AA?5?$AA?$CK?$AA?5?$AA9?$AA?$CJ?$AA?0?$AA?5?$AAe@ 10086790     LIBCMTD:wassert.obj
 0002:000007e0       ??_C@_1CHM@CEIMNDLH@?$AAw?$AAc?$AAs?$AAn?$AAc?$AAa?$AAt?$AA_?$AAs?$AA?$CI?$AA?5?$AAa?$AAs?$AAs?$AAe?$AAr?$AAt?$AAb?$AAu?$AAf?$AA?0?$AA?5?$AA?$CI?$AA6?$AA0?$AA?5?$AA?$CK?$AA?5?$AA9?$AA?$CJ?$AA?0?$AA?5@ 100867e0     LIBCMTD:wassert.obj
 0002:00000a5c       ??_C@_1BK@PEDCIPMA@?$AAE?$AAx?$AAp?$AAr?$AAe?$AAs?$AAs?$AAi?$AAo?$AAn?$AA?3?$AA?5?$AA?$AA@ 10086a5c     LIBCMTD:wassert.obj
 0002:00000a78       ??_C@_1GC@HOBBPFHJ@?$AAw?$AAc?$AAs?$AAc?$AAa?$AAt?$AA_?$AAs?$AA?$CI?$AA?5?$AAa?$AAs?$AAs?$AAe?$AAr?$AAt?$AAb?$AAu?$AAf?$AA?0?$AA?5?$AA?$CI?$AA6?$AA0?$AA?5?$AA?$CK?$AA?5?$AA9?$AA?$CJ?$AA?0?$AA?5?$AAL@ 10086a78     LIBCMTD:wassert.obj
 0002:00000ae0       ??_C@_1KG@CFEIMPNH@?$AA_?$AAi?$AAt?$AAo?$AAw?$AA_?$AAs?$AA?$CI?$AA?5?$AAl?$AAi?$AAn?$AAe?$AAn?$AAo?$AA?0?$AA?5?$AAa?$AAs?$AAs?$AAe?$AAr?$AAt?$AAb?$AAu?$AAf?$AA?5?$AA?$CL?$AA?5?$AAw?$AAc?$AAs@ 10086ae0     LIBCMTD:wassert.obj
 0002:00000b88       ??_C@_1O@KCAFKHJE@?$AAL?$AAi?$AAn?$AAe?$AA?3?$AA?5?$AA?$AA@ 10086b88     LIBCMTD:wassert.obj
 0002:00000b98       ??_C@_1FG@NHDGJLMI@?$AAw?$AAc?$AAs?$AAc?$AAa?$AAt?$AA_?$AAs?$AA?$CI?$AA?5?$AAa?$AAs?$AAs?$AAe?$AAr?$AAt?$AAb?$AAu?$AAf?$AA?0?$AA?5?$AA?$CI?$AA6?$AA0?$AA?5?$AA?$CK?$AA?5?$AA9?$AA?$CJ?$AA?0?$AA?5?$AAL@ 10086b98     LIBCMTD:wassert.obj
 0002:00000bf0       ??_C@_1FE@IIFBBPFI@?$AAw?$AAc?$AAs?$AAc?$AAa?$AAt?$AA_?$AAs?$AA?$CI?$AA?5?$AAa?$AAs?$AAs?$AAe?$AAr?$AAt?$AAb?$AAu?$AAf?$AA?0?$AA?5?$AA?$CI?$AA6?$AA0?$AA?5?$AA?$CK?$AA?5?$AA9?$AA?$CJ?$AA?0?$AA?5?$AAf@ 10086bf0     LIBCMTD:wassert.obj
 0002:00000c48       ??_C@_1IC@CFFJBMAD@?$AAw?$AAc?$AAs?$AAc?$AAa?$AAt?$AA_?$AAs?$AA?$CI?$AA?5?$AAa?$AAs?$AAs?$AAe?$AAr?$AAt?$AAb?$AAu?$AAf?$AA?0?$AA?5?$AA?$CI?$AA6?$AA0?$AA?5?$AA?$CK?$AA?5?$AA9?$AA?$CJ?$AA?0?$AA?5?$AAp@ 10086c48     LIBCMTD:wassert.obj
 0002:00000cd0       ??_C@_1HG@OJJMBIKO@?$AAw?$AAc?$AAs?$AAn?$AAc?$AAa?$AAt?$AA_?$AAs?$AA?$CI?$AA?5?$AAa?$AAs?$AAs?$AAe?$AAr?$AAt?$AAb?$AAu?$AAf?$AA?0?$AA?5?$AA?$CI?$AA6?$AA0?$AA?5?$AA?$CK?$AA?5?$AA9?$AA?$CJ?$AA?0?$AA?5@ 10086cd0     LIBCMTD:wassert.obj
 0002:00000d48       ??_C@_1GO@BIHLMMND@?$AAw?$AAc?$AAs?$AAn?$AAc?$AAa?$AAt?$AA_?$AAs?$AA?$CI?$AA?5?$AAa?$AAs?$AAs?$AAe?$AAr?$AAt?$AAb?$AAu?$AAf?$AA?0?$AA?5?$AA?$CI?$AA6?$AA0?$AA?5?$AA?$CK?$AA?5?$AA9?$AA?$CJ?$AA?0?$AA?5@ 10086d48     LIBCMTD:wassert.obj
 0002:00000db8       ??_C@_1FO@IJLLDBEB@?$AAw?$AAc?$AAs?$AAc?$AAa?$AAt?$AA_?$AAs?$AA?$CI?$AA?5?$AAa?$AAs?$AAs?$AAe?$AAr?$AAt?$AAb?$AAu?$AAf?$AA?0?$AA?5?$AA?$CI?$AA6?$AA0?$AA?5?$AA?$CK?$AA?5?$AA9?$AA?$CJ?$AA?0?$AA?5?$AAp@ 10086db8     LIBCMTD:wassert.obj
 0002:00000e18       ??_C@_1FG@CLEECKIJ@?$AAw?$AAc?$AAs?$AAc?$AAa?$AAt?$AA_?$AAs?$AA?$CI?$AA?5?$AAa?$AAs?$AAs?$AAe?$AAr?$AAt?$AAb?$AAu?$AAf?$AA?0?$AA?5?$AA?$CI?$AA6?$AA0?$AA?5?$AA?$CK?$AA?5?$AA9?$AA?$CJ?$AA?0?$AA?5?$AAd@ 10086e18     LIBCMTD:wassert.obj
 0002:00000e70       ??_C@_1GG@PMHOPJKA@?$AAw?$AAc?$AAs?$AAn?$AAc?$AAa?$AAt?$AA_?$AAs?$AA?$CI?$AA?5?$AAa?$AAs?$AAs?$AAe?$AAr?$AAt?$AAb?$AAu?$AAf?$AA?0?$AA?5?$AA?$CI?$AA6?$AA0?$AA?5?$AA?$CK?$AA?5?$AA9?$AA?$CJ?$AA?0?$AA?5@ 10086e70     LIBCMTD:wassert.obj
 0002:00000ed8       ??_C@_1O@HEMHKNDC@?$AAF?$AAi?$AAl?$AAe?$AA?3?$AA?5?$AA?$AA@ 10086ed8     LIBCMTD:wassert.obj
 0002:00000ee8       ??_C@_1FG@HIDBOJF@?$AAw?$AAc?$AAs?$AAc?$AAa?$AAt?$AA_?$AAs?$AA?$CI?$AA?5?$AAa?$AAs?$AAs?$AAe?$AAr?$AAt?$AAb?$AAu?$AAf?$AA?0?$AA?5?$AA?$CI?$AA6?$AA0?$AA?5?$AA?$CK?$AA?5?$AA9?$AA?$CJ?$AA?0?$AA?5?$AAL@ 10086ee8     LIBCMTD:wassert.obj
 0002:00000f40       ??_C@_1FC@FFKGGIKO@?$AAw?$AAc?$AAs?$AAc?$AAa?$AAt?$AA_?$AAs?$AA?$CI?$AA?5?$AAa?$AAs?$AAs?$AAe?$AAr?$AAt?$AAb?$AAu?$AAf?$AA?0?$AA?5?$AA?$CI?$AA6?$AA0?$AA?5?$AA?$CK?$AA?5?$AA9?$AA?$CJ?$AA?0?$AA?5?$AAn@ 10086f40     LIBCMTD:wassert.obj
 0002:00000f98       ??_C@_1EK@BDNABPEK@?$AAw?$AAc?$AAs?$AAc?$AAa?$AAt?$AA_?$AAs?$AA?$CI?$AA?5?$AAa?$AAs?$AAs?$AAe?$AAr?$AAt?$AAb?$AAu?$AAf?$AA?0?$AA?5?$AA?$CI?$AA6?$AA0?$AA?5?$AA?$CK?$AA?5?$AA9?$AA?$CJ?$AA?0?$AA?5?$AAp@ 10086f98     LIBCMTD:wassert.obj
 0002:00000fe8       ??_C@_1HK@JKBDGMGN@?$AAw?$AAc?$AAs?$AAn?$AAc?$AAp?$AAy?$AA_?$AAs?$AA?$CI?$AA?5?$AAp?$AAc?$AAh?$AA?0?$AA?5?$AA?$CI?$AA2?$AA6?$AA0?$AA?5?$AA?$CL?$AA?5?$AA1?$AA?$CJ?$AA?5?$AA?9?$AA?5?$AA?$CI?$AAp?$AAc?$AAh@ 10086fe8     LIBCMTD:wassert.obj
 0002:00001064       ??_C@_1CO@EAEJAADC@?$AA?$DM?$AAp?$AAr?$AAo?$AAg?$AAr?$AAa?$AAm?$AA?5?$AAn?$AAa?$AAm?$AAe?$AA?5?$AAu?$AAn?$AAk?$AAn?$AAo?$AAw?$AAn?$AA?$DO?$AA?$AA@ 10087064     LIBCMTD:wassert.obj
 0002:00001098       ??_C@_1HA@EPFCONEE@?$AAw?$AAc?$AAs?$AAc?$AAp?$AAy?$AA_?$AAs?$AA?$CI?$AA?5?$AAp?$AAr?$AAo?$AAg?$AAn?$AAa?$AAm?$AAe?$AA?0?$AA?5?$AA2?$AA6?$AA0?$AA?5?$AA?$CL?$AA?5?$AA1?$AA?0?$AA?5?$AAL?$AA?$CC?$AA?$DM@ 10087098     LIBCMTD:wassert.obj
 0002:00001108       ??_C@_1BE@PHKBBGE@?$AAP?$AAr?$AAo?$AAg?$AAr?$AAa?$AAm?$AA?3?$AA?5?$AA?$AA@ 10087108     LIBCMTD:wassert.obj
 0002:00001120       ??_C@_1FM@LKICECBD@?$AAw?$AAc?$AAs?$AAc?$AAa?$AAt?$AA_?$AAs?$AA?$CI?$AA?5?$AAa?$AAs?$AAs?$AAe?$AAr?$AAt?$AAb?$AAu?$AAf?$AA?0?$AA?5?$AA?$CI?$AA6?$AA0?$AA?5?$AA?$CK?$AA?5?$AA9?$AA?$CJ?$AA?0?$AA?5?$AAL@ 10087120     LIBCMTD:wassert.obj
 0002:00001180       ??_C@_1FI@JIGMFG@?$AAw?$AAc?$AAs?$AAc?$AAa?$AAt?$AA_?$AAs?$AA?$CI?$AA?5?$AAa?$AAs?$AAs?$AAe?$AAr?$AAt?$AAb?$AAu?$AAf?$AA?0?$AA?5?$AA?$CI?$AA6?$AA0?$AA?5?$AA?$CK?$AA?5?$AA9?$AA?$CJ?$AA?0?$AA?5?$AAd@ 10087180     LIBCMTD:wassert.obj
 0002:000011d8       ??_C@_1CE@OJBNHDMO@?$AAA?$AAs?$AAs?$AAe?$AAr?$AAt?$AAi?$AAo?$AAn?$AA?5?$AAf?$AAa?$AAi?$AAl?$AAe?$AAd?$AA?$CB?$AA?$AA@ 100871d8     LIBCMTD:wassert.obj
 0002:00001200       ??_C@_1GM@EFCJNBAA@?$AAw?$AAc?$AAs?$AAc?$AAp?$AAy?$AA_?$AAs?$AA?$CI?$AA?5?$AAa?$AAs?$AAs?$AAe?$AAr?$AAt?$AAb?$AAu?$AAf?$AA?0?$AA?5?$AA?$CI?$AA6?$AA0?$AA?5?$AA?$CK?$AA?5?$AA9?$AA?$CJ?$AA?0?$AA?5?$AAL@ 10087200     LIBCMTD:wassert.obj
 0002:0000126c       ??_C@_1BC@LNOOMFNA@?$AA_?$AAw?$AAa?$AAs?$AAs?$AAe?$AAr?$AAt?$AA?$AA@ 1008726c     LIBCMTD:wassert.obj
 0002:00001280       ??_C@_1GA@COEIABIF@?$AAf?$AA?3?$AA?2?$AAd?$AAd?$AA?2?$AAv?$AAc?$AAt?$AAo?$AAo?$AAl?$AAs?$AA?2?$AAc?$AAr?$AAt?$AA_?$AAb?$AAl?$AAd?$AA?2?$AAs?$AAe?$AAl?$AAf?$AA_?$AAx?$AA8?$AA6?$AA?2?$AAc@ 10087280     LIBCMTD:wassert.obj
 0002:000012e0       ??_C@_1CC@MGIEJOME@?$AA?$CI?$AAf?$AAo?$AAr?$AAm?$AAa?$AAt?$AA?5?$AA?$CB?$AA?$DN?$AA?5?$AAN?$AAU?$AAL?$AAL?$AA?$CJ?$AA?$AA@ 100872e0     LIBCMTD:sscanf.obj
 0002:00001304       ??_C@_1BC@KMGJCMNP@?$AAv?$AAs?$AAc?$AAa?$AAn?$AA_?$AAf?$AAn?$AA?$AA@ 10087304     LIBCMTD:sscanf.obj
 0002:00001318       ??_C@_1GA@GDIHGGDN@?$AAf?$AA?3?$AA?2?$AAd?$AAd?$AA?2?$AAv?$AAc?$AAt?$AAo?$AAo?$AAl?$AAs?$AA?2?$AAc?$AAr?$AAt?$AA_?$AAb?$AAl?$AAd?$AA?2?$AAs?$AAe?$AAl?$AAf?$AA_?$AAx?$AA8?$AA6?$AA?2?$AAc@ 10087318     LIBCMTD:sscanf.obj
 0002:00001378       ??_C@_1CC@OLIJCKA@?$AA?$CI?$AAs?$AAt?$AAr?$AAi?$AAn?$AAg?$AA?5?$AA?$CB?$AA?$DN?$AA?5?$AAN?$AAU?$AAL?$AAL?$AA?$CJ?$AA?$AA@ 10087378     LIBCMTD:sscanf.obj
 0002:000013a0       ??_C@_1EC@FABAOFFO@?$AA?$CI?$AAc?$AAo?$AAu?$AAn?$AAt?$AA?5?$AA?$DN?$AA?$DN?$AA?5?$AA0?$AA?$CJ?$AA?5?$AA?$HM?$AA?$HM?$AA?5?$AA?$CI?$AAs?$AAt?$AAr?$AAi?$AAn?$AAg?$AA?5?$AA?$CB?$AA?$DN?$AA?5?$AAN?$AAU?$AAL?$AAL?$AA?$CJ@ 100873a0     LIBCMTD:vsnprint.obj
 0002:000013e4       ??_C@_1BK@FHMHFMNL@?$AA_?$AAv?$AAs?$AAn?$AAp?$AAr?$AAi?$AAn?$AAt?$AAf?$AA_?$AAl?$AA?$AA@ 100873e4     LIBCMTD:vsnprint.obj
 0002:00001400       ??_C@_1GE@DPADKNCG@?$AAf?$AA?3?$AA?2?$AAd?$AAd?$AA?2?$AAv?$AAc?$AAt?$AAo?$AAo?$AAl?$AAs?$AA?2?$AAc?$AAr?$AAt?$AA_?$AAb?$AAl?$AAd?$AA?2?$AAs?$AAe?$AAl?$AAf?$AA_?$AAx?$AA8?$AA6?$AA?2?$AAc@ 10087400     LIBCMTD:vsnprint.obj
 0002:00001464       ?ProcessDetach@NativeDll@<CrtImplementationDetails>@@0IB 10087464     LIBCMTD:toupper.obj
 0002:00001468       ?ProcessAttach@NativeDll@<CrtImplementationDetails>@@0IB 10087468     LIBCMTD:toupper.obj
 0002:0000146c       ?ThreadAttach@NativeDll@<CrtImplementationDetails>@@0IB 1008746c     LIBCMTD:toupper.obj
 0002:00001470       ?ThreadDetach@NativeDll@<CrtImplementationDetails>@@0IB 10087470     LIBCMTD:toupper.obj
 0002:00001474       ?ProcessVerifier@NativeDll@<CrtImplementationDetails>@@0IB 10087474     LIBCMTD:toupper.obj
 0002:00001478       ??_C@_1BI@DCHLDCPP@?$AAs?$AAr?$AAc?$AA?5?$AA?$CB?$AA?$DN?$AA?5?$AAN?$AAU?$AAL?$AAL?$AA?$AA@ 10087478     LIBCMTD:stricmp.obj
 0002:00001490       ??_C@_1BG@GLLONOEH@?$AA_?$AAs?$AAt?$AAr?$AAi?$AAc?$AAm?$AAp?$AA_?$AAl?$AA?$AA@ 10087490     LIBCMTD:stricmp.obj
 0002:000014a8       ??_C@_1GC@OILHAOLL@?$AAf?$AA?3?$AA?2?$AAd?$AAd?$AA?2?$AAv?$AAc?$AAt?$AAo?$AAo?$AAl?$AAs?$AA?2?$AAc?$AAr?$AAt?$AA_?$AAb?$AAl?$AAd?$AA?2?$AAs?$AAe?$AAl?$AAf?$AA_?$AAx?$AA8?$AA6?$AA?2?$AAc@ 100874a8     LIBCMTD:stricmp.obj
 0002:0000150c       ??_C@_1BI@GKKCBDMD@?$AAd?$AAs?$AAt?$AA?5?$AA?$CB?$AA?$DN?$AA?5?$AAN?$AAU?$AAL?$AAL?$AA?$AA@ 1008750c     LIBCMTD:stricmp.obj
 0002:00001524       ??_C@_1BC@JLGKKIIG@?$AA_?$AAs?$AAt?$AAr?$AAi?$AAc?$AAm?$AAp?$AA?$AA@ 10087524     LIBCMTD:stricmp.obj
 0002:00001538       ??_C@_1M@CKCKPMNP@?$AAf?$AAt?$AAe?$AAl?$AAl?$AA?$AA@ 10087538     LIBCMTD:ftell.obj
 0002:00001548       ??_C@_1FO@NBACIADE@?$AAf?$AA?3?$AA?2?$AAd?$AAd?$AA?2?$AAv?$AAc?$AAt?$AAo?$AAo?$AAl?$AAs?$AA?2?$AAc?$AAr?$AAt?$AA_?$AAb?$AAl?$AAd?$AA?2?$AAs?$AAe?$AAl?$AAf?$AA_?$AAx?$AA8?$AA6?$AA?2?$AAc@ 10087548     LIBCMTD:ftell.obj
 0002:000015a8       ??_C@_1CC@FADMNIL@?$AA?$CI?$AAs?$AAt?$AAr?$AAe?$AAa?$AAm?$AA?5?$AA?$CB?$AA?$DN?$AA?5?$AAN?$AAU?$AAL?$AAL?$AA?$CJ?$AA?$AA@ 100875a8     LIBCMTD:ftell.obj
 0002:000015cc       ??_C@_1BM@EPIDANEK@?$AA_?$AAf?$AAt?$AAe?$AAl?$AAl?$AA_?$AAn?$AAo?$AAl?$AAo?$AAc?$AAk?$AA?$AA@ 100875cc     LIBCMTD:ftell.obj
 0002:000015e8       ??_C@_1BM@JMKHIAHP@?$AA?$CI?$AAs?$AAt?$AAr?$AA?5?$AA?$CB?$AA?$DN?$AA?5?$AAN?$AAU?$AAL?$AAL?$AA?$CJ?$AA?$AA@ 100875e8     LIBCMTD:ftell.obj
 0002:00001604       ??_C@_1O@EGMJNCOI@?$AAf?$AAc?$AAl?$AAo?$AAs?$AAe?$AA?$AA@ 10087604     LIBCMTD:fclose.obj
 0002:00001618       ??_C@_1GA@KMIDAPAP@?$AAf?$AA?3?$AA?2?$AAd?$AAd?$AA?2?$AAv?$AAc?$AAt?$AAo?$AAo?$AAl?$AAs?$AA?2?$AAc?$AAr?$AAt?$AA_?$AAb?$AAl?$AAd?$AA?2?$AAs?$AAe?$AAl?$AAf?$AA_?$AAx?$AA8?$AA6?$AA?2?$AAc@ 10087618     LIBCMTD:fclose.obj
 0002:00001678       ??_C@_1BO@JINCABEC@?$AA_?$AAf?$AAc?$AAl?$AAo?$AAs?$AAe?$AA_?$AAn?$AAo?$AAl?$AAo?$AAc?$AAk?$AA?$AA@ 10087678     LIBCMTD:fclose.obj
 0002:00001698       ??_C@_1BA@CMLCEIGG@?$AAf?$AAr?$AAe?$AAa?$AAd?$AA_?$AAs?$AA?$AA@ 10087698     LIBCMTD:fread.obj
 0002:000016a8       ??_C@_1FO@PNLFLIH@?$AAf?$AA?3?$AA?2?$AAd?$AAd?$AA?2?$AAv?$AAc?$AAt?$AAo?$AAo?$AAl?$AAs?$AA?2?$AAc?$AAr?$AAt?$AA_?$AAb?$AAl?$AAd?$AA?2?$AAs?$AAe?$AAl?$AAf?$AA_?$AAx?$AA8?$AA6?$AA?2?$AAc@ 100876a8     LIBCMTD:fread.obj
 0002:00001708       ??_C@_1DA@DKEFLDMG@?$AA?$CI?$AA?$CC?$AAb?$AAu?$AAf?$AAf?$AAe?$AAr?$AA?5?$AAt?$AAo?$AAo?$AA?5?$AAs?$AAm?$AAa?$AAl?$AAl?$AA?$CC?$AA?0?$AA?5?$AA0?$AA?$CJ?$AA?$AA@ 10087708     LIBCMTD:fread.obj
 0002:00001738       ??_C@_1LG@DCNDJCHK@?$AA?$CI?$AA?$CC?$AAI?$AAn?$AAc?$AAo?$AAn?$AAs?$AAi?$AAs?$AAt?$AAe?$AAn?$AAt?$AA?5?$AAS?$AAt?$AAr?$AAe?$AAa?$AAm?$AA?5?$AAC?$AAo?$AAu?$AAn?$AAt?$AA?4?$AA?5?$AAF?$AAl?$AAu@ 10087738     LIBCMTD:fread.obj
 0002:000017f0       ??_C@_1EA@FAMECDND@?$AAn?$AAu?$AAm?$AA?5?$AA?$DM?$AA?$DN?$AA?5?$AA?$CI?$AAS?$AAI?$AAZ?$AAE?$AA_?$AAM?$AAA?$AAX?$AA?5?$AA?1?$AA?5?$AAe?$AAl?$AAe?$AAm?$AAe?$AAn?$AAt?$AAS?$AAi?$AAz?$AAe?$AA?$CJ?$AA?$AA@ 100877f0     LIBCMTD:fread.obj
 0002:00001830       ??_C@_1CA@IDPOGFL@?$AA_?$AAf?$AAr?$AAe?$AAa?$AAd?$AA_?$AAn?$AAo?$AAl?$AAo?$AAc?$AAk?$AA_?$AAs?$AA?$AA@ 10087830     LIBCMTD:fread.obj
 0002:00001850       ??_C@_1CC@CGFEEBMC@?$AA?$CI?$AAb?$AAu?$AAf?$AAf?$AAe?$AAr?$AA?5?$AA?$CB?$AA?$DN?$AA?5?$AAN?$AAU?$AAL?$AAL?$AA?$CJ?$AA?$AA@ 10087850     LIBCMTD:fread.obj
 0002:00001878       ??_C@_1IO@PMHBOLJK@?$AA?$CI?$AA?$CI?$AAw?$AAh?$AAe?$AAn?$AAc?$AAe?$AA?5?$AA?$DN?$AA?$DN?$AA?5?$AAS?$AAE?$AAE?$AAK?$AA_?$AAS?$AAE?$AAT?$AA?$CJ?$AA?5?$AA?$HM?$AA?$HM?$AA?5?$AA?$CI?$AAw?$AAh?$AAe?$AAn?$AAc?$AAe@ 10087878     LIBCMTD:fseeki64.obj
 0002:00001908       ??_C@_1BE@LFNEFJFD@?$AA_?$AAf?$AAs?$AAe?$AAe?$AAk?$AAi?$AA6?$AA4?$AA?$AA@ 10087908     LIBCMTD:fseeki64.obj
 0002:00001920       ??_C@_1GE@FPMJBCHH@?$AAf?$AA?3?$AA?2?$AAd?$AAd?$AA?2?$AAv?$AAc?$AAt?$AAo?$AAo?$AAl?$AAs?$AA?2?$AAc?$AAr?$AAt?$AA_?$AAb?$AAl?$AAd?$AA?2?$AAs?$AAe?$AAl?$AAf?$AA_?$AAx?$AA8?$AA6?$AA?2?$AAc@ 10087920     LIBCMTD:fseeki64.obj
 0002:00001984       ??_C@_1BI@MFCLPIBM@?$AAs?$AAt?$AAr?$AA?5?$AA?$CB?$AA?$DN?$AA?5?$AAN?$AAU?$AAL?$AAL?$AA?$AA@ 10087984     LIBCMTD:fseeki64.obj
 0002:0000199c       ??_C@_1BK@HJGMBFLF@?$AAc?$AAo?$AAm?$AAp?$AA?5?$AA?$CB?$AA?$DN?$AA?5?$AAN?$AAU?$AAL?$AAL?$AA?$AA@ 1008799c     LIBCMTD:qsort.obj
 0002:000019b8       ??_C@_1BE@NJBEBBME@?$AAw?$AAi?$AAd?$AAt?$AAh?$AA?5?$AA?$DO?$AA?5?$AA0?$AA?$AA@ 100879b8     LIBCMTD:qsort.obj
 0002:000019cc       ??_C@_1M@INMHODIG@?$AAq?$AAs?$AAo?$AAr?$AAt?$AA?$AA@ 100879cc     LIBCMTD:qsort.obj
 0002:000019d8       ??_C@_1FO@NDBPJPLL@?$AAf?$AA?3?$AA?2?$AAd?$AAd?$AA?2?$AAv?$AAc?$AAt?$AAo?$AAo?$AAl?$AAs?$AA?2?$AAc?$AAr?$AAt?$AA_?$AAb?$AAl?$AAd?$AA?2?$AAs?$AAe?$AAl?$AAf?$AA_?$AAx?$AA8?$AA6?$AA?2?$AAc@ 100879d8     LIBCMTD:qsort.obj
 0002:00001a38       ??_C@_1DC@HAGCIKOA@?$AAb?$AAa?$AAs?$AAe?$AA?5?$AA?$CB?$AA?$DN?$AA?5?$AAN?$AAU?$AAL?$AAL?$AA?5?$AA?$HM?$AA?$HM?$AA?5?$AAn?$AAu?$AAm?$AA?5?$AA?$DN?$AA?$DN?$AA?5?$AA0?$AA?$AA@ 10087a38     LIBCMTD:qsort.obj
 0002:00001a6c       __pRawDllMain              10087a6c     LIBCMTD:dllcrt0.obj
 0002:00001a6c       __pDefaultRawDllMain       10087a6c     LIBCMTD:dllcrt0.obj
 0002:00001a70       ??_C@_0DB@OLNOAEGF@f?3?2dd?2vctools?2crt_bld?2self_x86?2c@ 10087a70     LIBCMTD:dllcrt0.obj
 0002:00001aa4       ??_C@_1BG@KCMPBBDK@?$AA_?$AAg?$AAe?$AAt?$AA_?$AAe?$AAr?$AAr?$AAn?$AAo?$AA?$AA@ 10087aa4     LIBCMTD:dosmap.obj
 0002:00001ac0       ??_C@_1GA@MFGIMPNL@?$AAf?$AA?3?$AA?2?$AAd?$AAd?$AA?2?$AAv?$AAc?$AAt?$AAo?$AAo?$AAl?$AAs?$AA?2?$AAc?$AAr?$AAt?$AA_?$AAb?$AAl?$AAd?$AA?2?$AAs?$AAe?$AAl?$AAf?$AA_?$AAx?$AA8?$AA6?$AA?2?$AAc@ 10087ac0     LIBCMTD:dosmap.obj
 0002:00001b20       ??_C@_1BO@LKEBEKJP@?$AAp?$AAV?$AAa?$AAl?$AAu?$AAe?$AA?5?$AA?$CB?$AA?$DN?$AA?5?$AAN?$AAU?$AAL?$AAL?$AA?$AA@ 10087b20     LIBCMTD:dosmap.obj
 0002:00001b40       ??_C@_1BM@INIPHHDD@?$AA_?$AAg?$AAe?$AAt?$AA_?$AAd?$AAo?$AAs?$AAe?$AAr?$AAr?$AAn?$AAo?$AA?$AA@ 10087b40     LIBCMTD:dosmap.obj
 0002:00001b5c       ??_C@_1M@HCCOIONH@?$AAf?$AAs?$AAe?$AAe?$AAk?$AA?$AA@ 10087b5c     LIBCMTD:fseek.obj
 0002:00001b68       ??_C@_1FO@ECBPAICH@?$AAf?$AA?3?$AA?2?$AAd?$AAd?$AA?2?$AAv?$AAc?$AAt?$AAo?$AAo?$AAl?$AAs?$AA?2?$AAc?$AAr?$AAt?$AA_?$AAb?$AAl?$AAd?$AA?2?$AAs?$AAe?$AAl?$AAf?$AA_?$AAx?$AA8?$AA6?$AA?2?$AAc@ 10087b68     LIBCMTD:fseek.obj
 0002:00001bc8       ??_C@_1CI@HBNALCBB@?$AA?$CI?$AA?$CK?$AAm?$AAo?$AAd?$AAe?$AA?5?$AA?$CB?$AA?$DN?$AA?5?$AA_?$AAT?$AA?$CI?$AA?8?$AA?2?$AA0?$AA?8?$AA?$CJ?$AA?$CJ?$AA?$AA@ 10087bc8     LIBCMTD:fopen.obj
 0002:00001bf0       ??_C@_1BO@MJMKAKCJ@?$AA?$CI?$AAm?$AAo?$AAd?$AAe?$AA?5?$AA?$CB?$AA?$DN?$AA?5?$AAN?$AAU?$AAL?$AAL?$AA?$CJ?$AA?$AA@ 10087bf0     LIBCMTD:fopen.obj
 0002:00001c10       ??_C@_1BA@HNEAFMNL@?$AA_?$AAf?$AAs?$AAo?$AAp?$AAe?$AAn?$AA?$AA@ 10087c10     LIBCMTD:fopen.obj
 0002:00001c20       ??_C@_1FO@NCADDBOO@?$AAf?$AA?3?$AA?2?$AAd?$AAd?$AA?2?$AAv?$AAc?$AAt?$AAo?$AAo?$AAl?$AAs?$AA?2?$AAc?$AAr?$AAt?$AA_?$AAb?$AAl?$AAd?$AA?2?$AAs?$AAe?$AAl?$AAf?$AA_?$AAx?$AA8?$AA6?$AA?2?$AAc@ 10087c20     LIBCMTD:fopen.obj
 0002:00001c80       ??_C@_1BO@CLGIAEOJ@?$AA?$CI?$AAf?$AAi?$AAl?$AAe?$AA?5?$AA?$CB?$AA?$DN?$AA?5?$AAN?$AAU?$AAL?$AAL?$AA?$CJ?$AA?$AA@ 10087c80     LIBCMTD:fopen.obj
 0002:00001ca0       ??_C@_1BA@PBGKCCAP@?$AAf?$AAo?$AAp?$AAe?$AAn?$AA_?$AAs?$AA?$AA@ 10087ca0     LIBCMTD:fopen.obj
 0002:00001cb0       ??_C@_1CA@LLJLFCDN@?$AA?$CI?$AAp?$AAf?$AAi?$AAl?$AAe?$AA?5?$AA?$CB?$AA?$DN?$AA?5?$AAN?$AAU?$AAL?$AAL?$AA?$CJ?$AA?$AA@ 10087cb0     LIBCMTD:fopen.obj
 0002:00001d20       ??_C@_1GE@KOCFNGPB@?$AA_?$AAc?$AAo?$AAn?$AAt?$AAr?$AAo?$AAl?$AAf?$AAp?$AA_?$AAs?$AA?$CI?$AA?$CI?$AA?$CI?$AAv?$AAo?$AAi?$AAd?$AA?5?$AA?$CK?$AA?$CJ?$AA0?$AA?$CJ?$AA?0?$AA?5?$AA0?$AAx?$AA0?$AA0?$AA0?$AA1@ 10087d20     LIBCMTD:fp8.obj
 0002:00001d84       ??_C@_1CK@JMKHCBEI@?$AA_?$AAs?$AAe?$AAt?$AAd?$AAe?$AAf?$AAa?$AAu?$AAl?$AAt?$AAp?$AAr?$AAe?$AAc?$AAi?$AAs?$AAi?$AAo?$AAn?$AA?$AA@ 10087d84     LIBCMTD:fp8.obj
 0002:00001db0       ??_C@_1GG@PHGJJHBC@?$AAf?$AA?3?$AA?2?$AAd?$AAd?$AA?2?$AAv?$AAc?$AAt?$AAo?$AAo?$AAl?$AAs?$AA?2?$AAc?$AAr?$AAt?$AA_?$AAb?$AAl?$AAd?$AA?2?$AAs?$AAe?$AAl?$AAf?$AA_?$AAx?$AA8?$AA6?$AA?2?$AAc@ 10087db0     LIBCMTD:fp8.obj
 0002:00001e18       ??_C@_1CA@CBMNPEO@?$AAs?$AAi?$AAz?$AAe?$AAI?$AAn?$AAB?$AAy?$AAt?$AAe?$AAs?$AA?5?$AA?$DO?$AA?5?$AA0?$AA?$AA@ 10087e18     LIBCMTD:cvt.obj
 0002:00001e38       ??_C@_1BC@INKAPMHI@?$AA_?$AAc?$AAf?$AAt?$AAo?$AAe?$AA_?$AAl?$AA?$AA@ 10087e38     LIBCMTD:cvt.obj
 0002:00001e50       ??_C@_1GO@NCCGBNKI@?$AAf?$AA?3?$AA?2?$AAd?$AAd?$AA?2?$AAv?$AAc?$AAt?$AAo?$AAo?$AAl?$AAs?$AA?2?$AAc?$AAr?$AAt?$AA_?$AAb?$AAl?$AAd?$AA?2?$AAs?$AAe?$AAl?$AAf?$AA_?$AAx?$AA8?$AA6?$AA?2?$AAc@ 10087e50     LIBCMTD:cvt.obj
 0002:00001ec0       ??_C@_1BI@ICGGMGLK@?$AAb?$AAu?$AAf?$AA?5?$AA?$CB?$AA?$DN?$AA?5?$AAN?$AAU?$AAL?$AAL?$AA?$AA@ 10087ec0     LIBCMTD:cvt.obj
 0002:00001ed8       ??_C@_05KLBDPFGC@e?$CL000?$AA@ 10087ed8     LIBCMTD:cvt.obj
 0002:00001ee0       ??_C@_1LE@EOIFGNCJ@?$AAs?$AAt?$AAr?$AAc?$AAp?$AAy?$AA_?$AAs?$AA?$CI?$AAp?$AA?0?$AA?5?$AA?$CI?$AAs?$AAi?$AAz?$AAe?$AAI?$AAn?$AAB?$AAy?$AAt?$AAe?$AAs?$AA?5?$AA?$DN?$AA?$DN?$AA?5?$AA?$CI?$AAs?$AAi?$AAz@ 10087ee0     LIBCMTD:cvt.obj
 0002:00001f98       ??_C@_1HE@NACBNDPP@?$AAs?$AAi?$AAz?$AAe?$AAI?$AAn?$AAB?$AAy?$AAt?$AAe?$AAs?$AA?5?$AA?$DO?$AA?5?$AA?$CI?$AAs?$AAi?$AAz?$AAe?$AA_?$AAt?$AA?$CJ?$AA?$CI?$AA3?$AA?5?$AA?$CL?$AA?5?$AA?$CI?$AAn?$AAd?$AAe?$AAc@ 10087f98     LIBCMTD:cvt.obj
 0002:0000200c       ??_C@_1BE@OLBNEILL@?$AA_?$AAc?$AAf?$AAt?$AAo?$AAe?$AA2?$AA_?$AAl?$AA?$AA@ 1008800c     LIBCMTD:cvt.obj
 0002:00002020       ??_C@_1FC@IKIMAMJB@?$AAs?$AAi?$AAz?$AAe?$AAI?$AAn?$AAB?$AAy?$AAt?$AAe?$AAs?$AA?5?$AA?$DO?$AA?5?$AA?$CI?$AAs?$AAi?$AAz?$AAe?$AA_?$AAt?$AA?$CJ?$AA?$CI?$AA1?$AA?5?$AA?$CL?$AA?5?$AA4?$AA?5?$AA?$CL?$AA?5?$AAn@ 10088020     LIBCMTD:cvt.obj
 0002:00002074       ??_C@_1BC@JOKPCIC@?$AA_?$AAc?$AAf?$AAt?$AAo?$AAa?$AA_?$AAl?$AA?$AA@ 10088074     LIBCMTD:cvt.obj
 0002:00002088       ??_C@_1BC@DCPPLJL@?$AA_?$AAc?$AAf?$AAt?$AAo?$AAf?$AA_?$AAl?$AA?$AA@ 10088088     LIBCMTD:cvt.obj
 0002:0000209c       ??_C@_1BE@CKPDLI@?$AA_?$AAc?$AAf?$AAt?$AAo?$AAf?$AA2?$AA_?$AAl?$AA?$AA@ 1008809c     LIBCMTD:cvt.obj
 0002:000020b0       ??_C@_1BC@MPIFPLAF@?$AA_?$AAc?$AAf?$AAt?$AAo?$AAg?$AA_?$AAl?$AA?$AA@ 100880b0     LIBCMTD:cvt.obj
 0002:000020c4       ??_C@_0BP@OGBCLIBO@Stack?5around?5_alloca?5corrupted?$AA@ 100880c4     LIBCMTD:_userapi_.obj
 0002:000020e4       ??_C@_0CK@CNLNOEPB@Local?5variable?5used?5before?5initi@ 100880e4     LIBCMTD:_userapi_.obj
 0002:00002110       ??_C@_0BI@CIGMDCBH@Stack?5memory?5corruption?$AA@ 10088110     LIBCMTD:_userapi_.obj
 0002:00002128       ??_C@_0CK@FEGOIOPB@Cast?5to?5smaller?5type?5causing?5los@ 10088128     LIBCMTD:_userapi_.obj
 0002:00002154       ??_C@_0BJ@HEGAHDFO@Stack?5pointer?5corruption?$AA@ 10088154     LIBCMTD:_userapi_.obj
 0002:00002184       ??_C@_0DP@CBBAPGOP@f?3?2dd?2vctools?2crt_bld?2self_x86?2c@ 10088184     LIBCMTD:chkesp.obj
 0002:000021c3       ??_C@_00CNPNBAHC@?$AA@     100881c3     LIBCMTD:chkesp.obj
 0002:000021c8       ??_C@_0NM@DNEDKLDF@The?5value?5of?5ESP?5was?5not?5properl@ 100881c8     LIBCMTD:chkesp.obj
 0002:000022b0       __OP_ATAN2jmptab           100882b0     LIBCMTD:_87triga_.obj
 0002:00003b50       __indefinite               10089b50     LIBCMTD:_87disp_.obj
 0002:00003b5a       __piby2                    10089b5a     LIBCMTD:_87disp_.obj
 0002:00003b88       __DEFAULT_CW_in_mem        10089b88     LIBCMTD:_common_.obj
 0002:00003b8a       __pi_by_2_to_61            10089b8a     LIBCMTD:_common_.obj
 0002:00003bc4       ??_C@_0BO@GNIAFIKK@Unknown?5Runtime?5Check?5Error?6?$AN?$AA@ 10089bc4     LIBCMTD:_error_.obj
 0002:00003be4       ??_C@_0CM@NGINOKPC@Stack?5memory?5around?5_alloca?5was?5@ 10089be4     LIBCMTD:_error_.obj
 0002:00003c10       ??_C@_0DG@HKJMLLLP@A?5local?5variable?5was?5used?5before@ 10089c10     LIBCMTD:_error_.obj
 0002:00003c48       ??_C@_0BN@FFOINMNJ@Stack?5memory?5was?5corrupted?6?$AN?$AA@ 10089c48     LIBCMTD:_error_.obj
 0002:00003c68       ??_C@_0BBN@GPMLNJCF@A?5cast?5to?5a?5smaller?5data?5type?5ha@ 10089c68     LIBCMTD:_error_.obj
 0002:00003d88       ??_C@_0NN@NGPKDKPD@The?5value?5of?5ESP?5was?5not?5properl@ 10089d88     LIBCMTD:_error_.obj
 0002:00003f04       ??_C@_0CA@IODNCDPG@Run?9Time?5Check?5Failure?5?$CD?$CFd?5?9?5?$CFs?$AA@ 10089f04     LIBCMTD:_error_.obj
 0002:00003f24       ??_C@_0BE@GNBOBNCK@Unknown?5Module?5Name?$AA@ 10089f24     LIBCMTD:_error_.obj
 0002:00003f38       ??_C@_0BB@PFFGGCJP@Unknown?5Filename?$AA@ 10089f38     LIBCMTD:_error_.obj
 0002:00003f50       ??_C@_1EA@NFKNIFJP@?$AAR?$AAu?$AAn?$AA?9?$AAT?$AAi?$AAm?$AAe?$AA?5?$AAC?$AAh?$AAe?$AAc?$AAk?$AA?5?$AAF?$AAa?$AAi?$AAl?$AAu?$AAr?$AAe?$AA?5?$AA?$CD?$AA?$CF?$AAd?$AA?5?$AA?9?$AA?5?$AA?$CF?$AAs?$AA?$AA@ 10089f50     LIBCMTD:_error_.obj
 0002:00003f90       ??_C@_1GM@OLMCBDMB@?$AAR?$AAu?$AAn?$AAt?$AAi?$AAm?$AAe?$AA?5?$AAC?$AAh?$AAe?$AAc?$AAk?$AA?5?$AAE?$AAr?$AAr?$AAo?$AAr?$AA?4?$AA?6?$AA?$AN?$AA?5?$AAU?$AAn?$AAa?$AAb?$AAl?$AAe?$AA?5?$AAt?$AAo@ 10089f90     LIBCMTD:_error_.obj
 0002:00003ffc       ??_C@_0CG@IAFNJNEE@Stack?5corrupted?5near?5unknown?5var@ 10089ffc     LIBCMTD:_error_.obj
 0002:00004028       ??_C@_0EJ@LJKNEOLN@Stack?5area?5around?5_alloca?5memory@ 1008a028     LIBCMTD:_error_.obj
 0002:00004074       ??_C@_08KJEDNCKC@?$CFs?$CFs?$CFs?$CFs?$AA@ 1008a074     LIBCMTD:_error_.obj
 0002:00004080       ??_C@_02LLMPMKNF@?$DO?5?$AA@ 1008a080     LIBCMTD:_error_.obj
 0002:00004084       ??_C@_01EEMJAFIK@?6?$AA@   1008a084     LIBCMTD:_error_.obj
 0002:00004088       ??_C@_0BC@KIBAILCI@?$CFs?$CFs?$CFp?$CFs?$CFld?$CFs?$CFd?$CFs?$AA@ 1008a088     LIBCMTD:_error_.obj
 0002:000040a0       ??_C@_0EI@CLEPFNGI@Stack?5area?5around?5_alloca?5memory@ 1008a0a0     LIBCMTD:_error_.obj
 0002:000040e8       ??_C@_0N@MHFFIMFG@?6Address?3?50x?$AA@ 1008a0e8     LIBCMTD:_error_.obj
 0002:000040f8       ??_C@_07DFDJCKFN@?6Size?3?5?$AA@ 1008a0f8     LIBCMTD:_error_.obj
 0002:00004100       ??_C@_0CK@DKGBICFE@?6Allocation?5number?5within?5this?5f@ 1008a100     LIBCMTD:_error_.obj
 0002:0000412c       ??_C@_08OMAHNMHJ@?6Data?3?5?$DM?$AA@ 1008a12c     LIBCMTD:_error_.obj
 0002:00004138       ??_C@_09FOPFMPEJ@wsprintfA?$AA@ 1008a138     LIBCMTD:_error_.obj
 0002:00004144       ??_C@_1BG@OILDLIOJ@?$AAu?$AAs?$AAe?$AAr?$AA3?$AA2?$AA?4?$AAd?$AAl?$AAl?$AA?$AA@ 1008a144     LIBCMTD:_error_.obj
 0002:0000415c       ??_C@_05MKKEDADM@?$CF?42X?5?$AA@ 1008a15c     LIBCMTD:_error_.obj
 0002:00004164       ??_C@_0DE@OHJBPMBP@A?5variable?5is?5being?5used?5without@ 1008a164     LIBCMTD:_error_.obj
 0002:000052f8       ??_C@_0L@KDOEJCKC@_nextafter?$AA@ 1008b2f8     LIBCMTD:_fpexcept_.obj
 0002:00005304       ??_C@_05JGDBENOH@_logb?$AA@ 1008b304     LIBCMTD:_fpexcept_.obj
 0002:0000530c       ??_C@_03ONILCKOB@_yn?$AA@  1008b30c     LIBCMTD:_fpexcept_.obj
 0002:00005310       ??_C@_03NAKIGLHK@_y1?$AA@  1008b310     LIBCMTD:_fpexcept_.obj
 0002:00005314       ??_C@_03MJLDFKDL@_y0?$AA@  1008b314     LIBCMTD:_fpexcept_.obj
 0002:00005318       ??_C@_05GKKHEGJL@frexp?$AA@ 1008b318     LIBCMTD:_fpexcept_.obj
 0002:00005320       ??_C@_04KEPJIHGP@fmod?$AA@ 1008b320     LIBCMTD:_fpexcept_.obj
 0002:00005328       ??_C@_06MEIMCGCF@_hypot?$AA@ 1008b328     LIBCMTD:_fpexcept_.obj
 0002:00005330       ??_C@_05KBKMEMPO@_cabs?$AA@ 1008b330     LIBCMTD:_fpexcept_.obj
 0002:00005338       ??_C@_05CEJMAHNP@ldexp?$AA@ 1008b338     LIBCMTD:_fpexcept_.obj
 0002:00005340       ??_C@_04EHEDPDJG@modf?$AA@ 1008b340     LIBCMTD:_fpexcept_.obj
 0002:00005348       ??_C@_04ODHECPBC@fabs?$AA@ 1008b348     LIBCMTD:_fpexcept_.obj
 0002:00005350       ??_C@_05PBJFFIGL@floor?$AA@ 1008b350     LIBCMTD:_fpexcept_.obj
 0002:00005358       ??_C@_04GFPJNGEK@ceil?$AA@ 1008b358     LIBCMTD:_fpexcept_.obj
 0002:00005360       ??_C@_03IIINPABG@tan?$AA@  1008b360     LIBCMTD:_fpexcept_.obj
 0002:00005364       ??_C@_03LALBNOCG@cos?$AA@  1008b364     LIBCMTD:_fpexcept_.obj
 0002:00005368       ??_C@_03BLEJJJBH@sin?$AA@  1008b368     LIBCMTD:_fpexcept_.obj
 0002:0000536c       ??_C@_04EIAKFFMI@sqrt?$AA@ 1008b36c     LIBCMTD:_fpexcept_.obj
 0002:00005374       ??_C@_05KNGEOGJB@atan2?$AA@ 1008b374     LIBCMTD:_fpexcept_.obj
 0002:0000537c       ??_C@_04MLLJIGOK@atan?$AA@ 1008b37c     LIBCMTD:_fpexcept_.obj
 0002:00005384       ??_C@_04PDIFKINK@acos?$AA@ 1008b384     LIBCMTD:_fpexcept_.obj
 0002:0000538c       ??_C@_04FIHNOPOL@asin?$AA@ 1008b38c     LIBCMTD:_fpexcept_.obj
 0002:00005394       ??_C@_04FJHINJAO@tanh?$AA@ 1008b394     LIBCMTD:_fpexcept_.obj
 0002:0000539c       ??_C@_04HPJJNFIM@cosh?$AA@ 1008b39c     LIBCMTD:_fpexcept_.obj
 0002:000053a4       ??_C@_04COOMCNPB@sinh?$AA@ 1008b3a4     LIBCMTD:_fpexcept_.obj
 0002:000053ac       ??_C@_05HGHHAHAP@log10?$AA@ 1008b3ac     LIBCMTD:_fpexcept_.obj
 0002:000053b4       ??_C@_03MGHMBJCF@log?$AA@  1008b3b4     LIBCMTD:_fpexcept_.obj
 0002:000053b8       ??_C@_03JGHBODFD@pow?$AA@  1008b3b8     LIBCMTD:_fpexcept_.obj
 0002:000053bc       ??_C@_03KHJOGHMM@exp?$AA@  1008b3bc     LIBCMTD:_fpexcept_.obj
 0002:00006bb0       ??_C@_0P@MIGLKIOC@CorExitProcess?$AA@ 1008cbb0     LIBCMTD:crt0dat.obj
 0002:00006bc0       ??_C@_1BI@BGOHAHKC@?$AAm?$AAs?$AAc?$AAo?$AAr?$AAe?$AAe?$AA?4?$AAd?$AAl?$AAl?$AA?$AA@ 1008cbc0     LIBCMTD:crt0dat.obj
 0002:00006bd8       ??_C@_1CC@CDIPMFPD@?$AA_?$AAw?$AAp?$AAg?$AAm?$AAp?$AAt?$AAr?$AA?5?$AA?$CB?$AA?$DN?$AA?5?$AAN?$AAU?$AAL?$AAL?$AA?$AA@ 1008cbd8     LIBCMTD:crt0dat.obj
 0002:00006bfc       ??_C@_1BK@PNLDCCDP@?$AA_?$AAg?$AAe?$AAt?$AA_?$AAw?$AAp?$AAg?$AAm?$AAp?$AAt?$AAr?$AA?$AA@ 1008cbfc     LIBCMTD:crt0dat.obj
 0002:00006c18       ??_C@_1GC@DGCPEDNJ@?$AAf?$AA?3?$AA?2?$AAd?$AAd?$AA?2?$AAv?$AAc?$AAt?$AAo?$AAo?$AAl?$AAs?$AA?2?$AAc?$AAr?$AAt?$AA_?$AAb?$AAl?$AAd?$AA?2?$AAs?$AAe?$AAl?$AAf?$AA_?$AAx?$AA8?$AA6?$AA?2?$AAc@ 1008cc18     LIBCMTD:crt0dat.obj
 0002:00006c7c       ??_C@_1CA@BBNAFCKO@?$AA_?$AAp?$AAg?$AAm?$AAp?$AAt?$AAr?$AA?5?$AA?$CB?$AA?$DN?$AA?5?$AAN?$AAU?$AAL?$AAL?$AA?$AA@ 1008cc7c     LIBCMTD:crt0dat.obj
 0002:00006c9c       ??_C@_1BI@COAAPHJK@?$AA_?$AAg?$AAe?$AAt?$AA_?$AAp?$AAg?$AAm?$AAp?$AAt?$AAr?$AA?$AA@ 1008cc9c     LIBCMTD:crt0dat.obj
 0002:00006cb4       ??_C@_1O@EJLDHPPL@?$AAs?$AAi?$AAg?$AAn?$AAa?$AAl?$AA?$AA@ 1008ccb4     LIBCMTD:winsig.obj
 0002:00006cc8       ??_C@_1GA@DBECNFG@?$AAf?$AA?3?$AA?2?$AAd?$AAd?$AA?2?$AAv?$AAc?$AAt?$AAo?$AAo?$AAl?$AAs?$AA?2?$AAc?$AAr?$AAt?$AA_?$AAb?$AAl?$AAd?$AA?2?$AAs?$AAe?$AAl?$AAf?$AA_?$AAx?$AA8?$AA6?$AA?2?$AAc@ 1008ccc8     LIBCMTD:winsig.obj
 0002:00006d28       ??_C@_1DO@MLNEDKGB@?$AA?$CI?$AA?$CC?$AAI?$AAn?$AAv?$AAa?$AAl?$AAi?$AAd?$AA?5?$AAs?$AAi?$AAg?$AAn?$AAa?$AAl?$AA?5?$AAo?$AAr?$AA?5?$AAe?$AAr?$AAr?$AAo?$AAr?$AA?$CC?$AA?0?$AA?5?$AA0?$AA?$CJ?$AA?$AA@ 1008cd28     LIBCMTD:winsig.obj
 0002:00006d68       ??_C@_0DA@ELJOOIJF@f?3?2dd?2vctools?2crt_bld?2self_x86?2c@ 1008cd68     LIBCMTD:winsig.obj
 0002:00006d98       ??_C@_1M@DMJEIKHL@?$AAr?$AAa?$AAi?$AAs?$AAe?$AA?$AA@ 1008cd98     LIBCMTD:winsig.obj
 0002:00006da4       ??_C@_0BI@DFKBFLJE@GetProcessWindowStation?$AA@ 1008cda4     LIBCMTD:crtmboxw.obj
 0002:00006dbc       ??_C@_0BK@DEKFELLI@GetUserObjectInformationW?$AA@ 1008cdbc     LIBCMTD:crtmboxw.obj
 0002:00006dd8       ??_C@_0BD@HHGDFDBJ@GetLastActivePopup?$AA@ 1008cdd8     LIBCMTD:crtmboxw.obj
 0002:00006dec       ??_C@_0BA@HNOPNCHB@GetActiveWindow?$AA@ 1008cdec     LIBCMTD:crtmboxw.obj
 0002:00006dfc       ??_C@_0M@DLDCCGNP@MessageBoxW?$AA@ 1008cdfc     LIBCMTD:crtmboxw.obj
 0002:00006e08       ??_C@_1BG@GOEBHBDC@?$AAU?$AAS?$AAE?$AAR?$AA3?$AA2?$AA?4?$AAD?$AAL?$AAL?$AA?$AA@ 1008ce08     LIBCMTD:crtmboxw.obj
 0002:00006e20       ??_C@_1CM@HABGDNLJ@?$AAl?$AAe?$AAn?$AAg?$AAt?$AAh?$AA?5?$AA?$DM?$AA?5?$AAs?$AAi?$AAz?$AAe?$AAI?$AAn?$AAT?$AAC?$AAh?$AAa?$AAr?$AAs?$AA?$AA@ 1008ce20     LIBCMTD:xtows.obj
 0002:00006e4c       ??_C@_1DE@PCJGDBBD@?$AA2?$AA?5?$AA?$DM?$AA?$DN?$AA?5?$AAr?$AAa?$AAd?$AAi?$AAx?$AA?5?$AA?$CG?$AA?$CG?$AA?5?$AAr?$AAa?$AAd?$AAi?$AAx?$AA?5?$AA?$DM?$AA?$DN?$AA?5?$AA3?$AA6?$AA?$AA@ 1008ce4c     LIBCMTD:xtows.obj
 0002:00006e80       ??_C@_1FA@MKGGAGEI@?$AAs?$AAi?$AAz?$AAe?$AAI?$AAn?$AAT?$AAC?$AAh?$AAa?$AAr?$AAs?$AA?5?$AA?$DO?$AA?5?$AA?$CI?$AAs?$AAi?$AAz?$AAe?$AA_?$AAt?$AA?$CJ?$AA?$CI?$AAi?$AAs?$AA_?$AAn?$AAe?$AAg?$AA?5?$AA?$DP@ 1008ce80     LIBCMTD:xtows.obj
 0002:00006ed0       ??_C@_1CC@JNJFIMGE@?$AAs?$AAi?$AAz?$AAe?$AAI?$AAn?$AAT?$AAC?$AAh?$AAa?$AAr?$AAs?$AA?5?$AA?$DO?$AA?5?$AA0?$AA?$AA@ 1008ced0     LIBCMTD:xtows.obj
 0002:00006ef4       ??_C@_1O@NCBFODOE@?$AAx?$AAt?$AAo?$AAw?$AA_?$AAs?$AA?$AA@ 1008cef4     LIBCMTD:xtows.obj
 0002:00006f08       ??_C@_1FM@MFCBFCGB@?$AAf?$AA?3?$AA?2?$AAd?$AAd?$AA?2?$AAv?$AAc?$AAt?$AAo?$AAo?$AAl?$AAs?$AA?2?$AAc?$AAr?$AAt?$AA_?$AAb?$AAl?$AAd?$AA?2?$AAs?$AAe?$AAl?$AAf?$AA_?$AAx?$AA8?$AA6?$AA?2?$AAc@ 1008cf08     LIBCMTD:xtows.obj
 0002:00006f64       ??_C@_1BC@HDEJCFPB@?$AAx?$AA6?$AA4?$AAt?$AAo?$AAw?$AA_?$AAs?$AA?$AA@ 1008cf64     LIBCMTD:xtows.obj
 0002:00006f78       ??_C@_1DM@MADKGDLO@?$AA?$CI?$AAL?$AA?$CC?$AAB?$AAu?$AAf?$AAf?$AAe?$AAr?$AA?5?$AAi?$AAs?$AA?5?$AAt?$AAo?$AAo?$AA?5?$AAs?$AAm?$AAa?$AAl?$AAl?$AA?$CC?$AA?5?$AA?$CG?$AA?$CG?$AA?5?$AA0?$AA?$CJ?$AA?$AA@ 1008cf78     LIBCMTD:wcsncat_s.obj
 0002:00006fb4       ??_C@_1CI@HCPHDDLE@?$AAB?$AAu?$AAf?$AAf?$AAe?$AAr?$AA?5?$AAi?$AAs?$AA?5?$AAt?$AAo?$AAo?$AA?5?$AAs?$AAm?$AAa?$AAl?$AAl?$AA?$AA@ 1008cfb4     LIBCMTD:wcsncat_s.obj
 0002:00006fe0       ??_C@_1FA@MJKDNFFB@?$AA?$CI?$AAL?$AA?$CC?$AAS?$AAt?$AAr?$AAi?$AAn?$AAg?$AA?5?$AAi?$AAs?$AA?5?$AAn?$AAo?$AAt?$AA?5?$AAn?$AAu?$AAl?$AAl?$AA?5?$AAt?$AAe?$AAr?$AAm?$AAi?$AAn?$AAa?$AAt?$AAe?$AAd@ 1008cfe0     LIBCMTD:wcsncat_s.obj
 0002:00007030       ??_C@_1DM@FHLMIEG@?$AAS?$AAt?$AAr?$AAi?$AAn?$AAg?$AA?5?$AAi?$AAs?$AA?5?$AAn?$AAo?$AAt?$AA?5?$AAn?$AAu?$AAl?$AAl?$AA?5?$AAt?$AAe?$AAr?$AAm?$AAi?$AAn?$AAa?$AAt?$AAe?$AAd?$AA?$AA@ 1008d030     LIBCMTD:wcsncat_s.obj
 0002:0000706c       ??_C@_1CG@OFBJMIGJ@?$AA?$CI?$AA?$CI?$AA?$CI?$AA_?$AAS?$AAr?$AAc?$AA?$CJ?$AA?$CJ?$AA?$CJ?$AA?5?$AA?$CB?$AA?$DN?$AA?5?$AAN?$AAU?$AAL?$AAL?$AA?$AA@ 1008d06c     LIBCMTD:wcsncat_s.obj
 0002:00007094       ??_C@_1BE@KPKIKKCF@?$AAw?$AAc?$AAs?$AAn?$AAc?$AAa?$AAt?$AA_?$AAs?$AA?$AA@ 1008d094     LIBCMTD:wcsncat_s.obj
 0002:000070a8       ??_C@_1GK@DICCLCDF@?$AAf?$AA?3?$AA?2?$AAd?$AAd?$AA?2?$AAv?$AAc?$AAt?$AAo?$AAo?$AAl?$AAs?$AA?2?$AAc?$AAr?$AAt?$AA_?$AAb?$AAl?$AAd?$AA?2?$AAs?$AAe?$AAl?$AAf?$AA_?$AAx?$AA8?$AA6?$AA?2?$AAc@ 1008d0a8     LIBCMTD:wcsncat_s.obj
 0002:00007118       ??_C@_1FC@PFMLEHKI@?$AA?$CI?$AA?$CI?$AA_?$AAD?$AAs?$AAt?$AA?$CJ?$AA?$CJ?$AA?5?$AA?$CB?$AA?$DN?$AA?5?$AAN?$AAU?$AAL?$AAL?$AA?5?$AA?$CG?$AA?$CG?$AA?5?$AA?$CI?$AA?$CI?$AA_?$AAS?$AAi?$AAz?$AAe?$AAI?$AAn?$AAW?$AAo?$AAr@ 1008d118     LIBCMTD:wcsncat_s.obj
 0002:0000716c       ??_C@_1BE@PMMBFFCC@?$AAw?$AAc?$AAs?$AAn?$AAc?$AAp?$AAy?$AA_?$AAs?$AA?$AA@ 1008d16c     LIBCMTD:wcsncpy_s.obj
 0002:00007180       ??_C@_1GK@PAJJBKJF@?$AAf?$AA?3?$AA?2?$AAd?$AAd?$AA?2?$AAv?$AAc?$AAt?$AAo?$AAo?$AAl?$AAs?$AA?2?$AAc?$AAr?$AAt?$AA_?$AAb?$AAl?$AAd?$AA?2?$AAs?$AAe?$AAl?$AAf?$AA_?$AAx?$AA8?$AA6?$AA?2?$AAc@ 1008d180     LIBCMTD:wcsncpy_s.obj
 0002:000071ec       ??_C@_1BC@PLIEPKPJ@?$AAw?$AAc?$AAs?$AAc?$AAa?$AAt?$AA_?$AAs?$AA?$AA@ 1008d1ec     LIBCMTD:wcscat_s.obj
 0002:00007200       ??_C@_1GI@NOKGIAGA@?$AAf?$AA?3?$AA?2?$AAd?$AAd?$AA?2?$AAv?$AAc?$AAt?$AAo?$AAo?$AAl?$AAs?$AA?2?$AAc?$AAr?$AAt?$AA_?$AAb?$AAl?$AAd?$AA?2?$AAs?$AAe?$AAl?$AAf?$AA_?$AAx?$AA8?$AA6?$AA?2?$AAc@ 1008d200     LIBCMTD:wcscat_s.obj
 0002:00007268       ??_C@_1BC@KIONAFPO@?$AAw?$AAc?$AAs?$AAc?$AAp?$AAy?$AA_?$AAs?$AA?$AA@ 1008d268     LIBCMTD:wcscpy_s.obj
 0002:00007280       ??_C@_1GI@BGBNCIMA@?$AAf?$AA?3?$AA?2?$AAd?$AAd?$AA?2?$AAv?$AAc?$AAt?$AAo?$AAo?$AAl?$AAs?$AA?2?$AAc?$AAr?$AAt?$AA_?$AAb?$AAl?$AAd?$AA?2?$AAs?$AAe?$AAl?$AAf?$AA_?$AAx?$AA8?$AA6?$AA?2?$AAc@ 1008d280     LIBCMTD:wcscpy_s.obj
 0002:000072e8       ??_C@_1BC@BHLPNJBO@?$AAf?$AAw?$AAp?$AAr?$AAi?$AAn?$AAt?$AAf?$AA?$AA@ 1008d2e8     LIBCMTD:fwprintf.obj
 0002:00007300       ??_C@_1GE@NIBJAMDO@?$AAf?$AA?3?$AA?2?$AAd?$AAd?$AA?2?$AAv?$AAc?$AAt?$AAo?$AAo?$AAl?$AAs?$AA?2?$AAc?$AAr?$AAt?$AA_?$AAb?$AAl?$AAd?$AA?2?$AAs?$AAe?$AAl?$AAf?$AA_?$AAx?$AA8?$AA6?$AA?2?$AAc@ 1008d300     LIBCMTD:fwprintf.obj
 0002:00007364       ??_C@_0DB@MIGHMKAN@f?3?2dd?2vctools?2crt_bld?2self_x86?2c@ 1008d364     LIBCMTD:setvbuf.obj
 0002:00007398       ??_C@_1EG@IJNJIDNB@?$AA?$CI?$AA?$CI?$AA2?$AA?5?$AA?$DM?$AA?$DN?$AA?5?$AAs?$AAi?$AAz?$AAe?$AA?$CJ?$AA?5?$AA?$CG?$AA?$CG?$AA?5?$AA?$CI?$AAs?$AAi?$AAz?$AAe?$AA?5?$AA?$DM?$AA?$DN?$AA?5?$AAI?$AAN?$AAT?$AA_?$AAM?$AAA?$AAX@ 1008d398     LIBCMTD:setvbuf.obj
 0002:000073e0       ??_C@_1HC@CBFEDAGG@?$AA?$CI?$AAt?$AAy?$AAp?$AAe?$AA?5?$AA?$DN?$AA?$DN?$AA?5?$AA_?$AAI?$AAO?$AAN?$AAB?$AAF?$AA?$CJ?$AA?5?$AA?$HM?$AA?$HM?$AA?5?$AA?$CI?$AAt?$AAy?$AAp?$AAe?$AA?5?$AA?$DN?$AA?$DN?$AA?5?$AA_?$AAI?$AAO@ 1008d3e0     LIBCMTD:setvbuf.obj
 0002:00007454       ??_C@_1BA@OGODIODK@?$AAs?$AAe?$AAt?$AAv?$AAb?$AAu?$AAf?$AA?$AA@ 1008d454     LIBCMTD:setvbuf.obj
 0002:00007468       ??_C@_1GC@FPPJLAOD@?$AAf?$AA?3?$AA?2?$AAd?$AAd?$AA?2?$AAv?$AAc?$AAt?$AAo?$AAo?$AAl?$AAs?$AA?2?$AAc?$AAr?$AAt?$AA_?$AAb?$AAl?$AAd?$AA?2?$AAs?$AAe?$AAl?$AAf?$AA_?$AAx?$AA8?$AA6?$AA?2?$AAc@ 1008d468     LIBCMTD:setvbuf.obj
 0002:000074cc       ??_C@_0CP@BNKDODJJ@f?3?2dd?2vctools?2crt_bld?2self_x86?2c@ 1008d4cc     LIBCMTD:_file.obj
 0002:000074fc       ??_C@_1CA@LFDHAMEM@?$AA_?$AAs?$AAe?$AAt?$AA_?$AAe?$AAr?$AAr?$AAo?$AAr?$AA_?$AAm?$AAo?$AAd?$AAe?$AA?$AA@ 1008d4fc     LIBCMTD:errmode.obj
 0002:00007520       ??_C@_1GC@FGMGFCNB@?$AAf?$AA?3?$AA?2?$AAd?$AAd?$AA?2?$AAv?$AAc?$AAt?$AAo?$AAo?$AAl?$AAs?$AA?2?$AAc?$AAr?$AAt?$AA_?$AAb?$AAl?$AAd?$AA?2?$AAs?$AAe?$AAl?$AAf?$AA_?$AAx?$AA8?$AA6?$AA?2?$AAc@ 1008d520     LIBCMTD:errmode.obj
 0002:00007584       ??_C@_1DE@BCNCAIK@?$AA?$CI?$AA?$CC?$AAI?$AAn?$AAv?$AAa?$AAl?$AAi?$AAd?$AA?5?$AAe?$AAr?$AAr?$AAo?$AAr?$AA_?$AAm?$AAo?$AAd?$AAe?$AA?$CC?$AA?0?$AA?5?$AA0?$AA?$CJ?$AA?$AA@ 1008d584     LIBCMTD:errmode.obj
 0002:000075b8       ??_C@_1CE@IGKFIJFD@?$AA_?$AAv?$AAs?$AAw?$AAp?$AAr?$AAi?$AAn?$AAt?$AAf?$AA_?$AAh?$AAe?$AAl?$AAp?$AAe?$AAr?$AA?$AA@ 1008d5b8     LIBCMTD:vswprnc.obj
 0002:000075e0       ??_C@_1GE@KINELFI@?$AAf?$AA?3?$AA?2?$AAd?$AAd?$AA?2?$AAv?$AAc?$AAt?$AAo?$AAo?$AAl?$AAs?$AA?2?$AAc?$AAr?$AAt?$AA_?$AAb?$AAl?$AAd?$AA?2?$AAs?$AAe?$AAl?$AAf?$AA_?$AAx?$AA8?$AA6?$AA?2?$AAc@ 1008d5e0     LIBCMTD:vswprnc.obj
 0002:00007644       ??_C@_1DA@HPBFKMEB@?$AA?$CI?$AA?$CC?$AAB?$AAu?$AAf?$AAf?$AAe?$AAr?$AA?5?$AAt?$AAo?$AAo?$AA?5?$AAs?$AAm?$AAa?$AAl?$AAl?$AA?$CC?$AA?0?$AA?5?$AA0?$AA?$CJ?$AA?$AA@ 1008d644     LIBCMTD:vswprnc.obj
 0002:00007678       ??_C@_1EE@MPCHJFGP@?$AAs?$AAt?$AAr?$AAi?$AAn?$AAg?$AA?5?$AA?$CB?$AA?$DN?$AA?5?$AAN?$AAU?$AAL?$AAL?$AA?5?$AA?$CG?$AA?$CG?$AA?5?$AAs?$AAi?$AAz?$AAe?$AAI?$AAn?$AAW?$AAo?$AAr?$AAd?$AAs?$AA?5?$AA?$DO?$AA?5@ 1008d678     LIBCMTD:vswprnc.obj
 0002:000076bc       ??_C@_1BO@OALHJLCI@?$AA_?$AAv?$AAs?$AAw?$AAp?$AAr?$AAi?$AAn?$AAt?$AAf?$AA_?$AAs?$AA_?$AAl?$AA?$AA@ 1008d6bc     LIBCMTD:vswprnc.obj
 0002:000076dc       ??_C@_1BO@MLMCMBKN@?$AAf?$AAo?$AAr?$AAm?$AAa?$AAt?$AA?5?$AA?$CB?$AA?$DN?$AA?5?$AAN?$AAU?$AAL?$AAL?$AA?$AA@ 1008d6dc     LIBCMTD:vswprnc.obj
 0002:000076fc       ??_C@_1CA@BKFKMJFF@?$AA_?$AAv?$AAs?$AAn?$AAw?$AAp?$AAr?$AAi?$AAn?$AAt?$AAf?$AA_?$AAs?$AA_?$AAl?$AA?$AA@ 1008d6fc     LIBCMTD:vswprnc.obj
 0002:00009400       __infinity                 1008f400     LIBCMTD:_87tran_.obj
 0002:0000940a       __minfinity                1008f40a     LIBCMTD:_87tran_.obj
 0002:00009414       __logemax                  1008f414     LIBCMTD:_87tran_.obj
 0002:0000943a       __OP_EXPjmptab             1008f43a     LIBCMTD:_87tran_.obj
 0002:00009460       ??_C@_1GC@CHGJNMHG@?$AAf?$AA?3?$AA?2?$AAd?$AAd?$AA?2?$AAv?$AAc?$AAt?$AAo?$AAo?$AAl?$AAs?$AA?2?$AAc?$AAr?$AAt?$AA_?$AAb?$AAl?$AAd?$AA?2?$AAs?$AAe?$AAl?$AAf?$AA_?$AAx?$AA8?$AA6?$AA?2?$AAc@ 1008f460     LIBCMTD:isctype.obj
 0002:000094c4       ??_C@_1DC@BPLPALML@?$AA?$CI?$AAu?$AAn?$AAs?$AAi?$AAg?$AAn?$AAe?$AAd?$AA?$CJ?$AA?$CI?$AAc?$AA?5?$AA?$CL?$AA?5?$AA1?$AA?$CJ?$AA?5?$AA?$DM?$AA?$DN?$AA?5?$AA2?$AA5?$AA6?$AA?$AA@ 1008f4c4     LIBCMTD:isctype.obj
 0002:000094f8       ??_C@_0DB@MHMEONEC@f?3?2dd?2vctools?2crt_bld?2self_x86?2c@ 1008f4f8     LIBCMTD:mbctype.obj
 0002:00009530       ??_C@_1GE@HMAALBPJ@?$AAf?$AA?3?$AA?2?$AAd?$AAd?$AA?2?$AAv?$AAc?$AAt?$AAo?$AAo?$AAl?$AAs?$AA?2?$AAc?$AAr?$AAt?$AA_?$AAb?$AAl?$AAd?$AA?2?$AAs?$AAe?$AAl?$AAf?$AA_?$AAx?$AA8?$AA6?$AA?2?$AAc@ 1008f530     LIBCMTD:localref.obj
 0002:00009598       ??_C@_1BKC@GGIENNAK@?$AA?$CI?$AA?$CI?$AAp?$AAt?$AAl?$AAo?$AAc?$AAi?$AA?9?$AA?$DO?$AAl?$AAc?$AA_?$AAc?$AAa?$AAt?$AAe?$AAg?$AAo?$AAr?$AAy?$AA?$FL?$AAc?$AAa?$AAt?$AAe?$AAg?$AAo?$AAr?$AAy?$AA?$FN?$AA?4@ 1008f598     LIBCMTD:localref.obj
 0002:0000973c       ??_C@_1BC@GDGBMEMK@?$AAH?$AAH?$AA?3?$AAm?$AAm?$AA?3?$AAs?$AAs?$AA?$AA@ 1008f73c     LIBCMTD:nlsdata2.obj
 0002:00009750       ??_C@_1CI@KNAKOEBC@?$AAd?$AAd?$AAd?$AAd?$AA?0?$AA?5?$AAM?$AAM?$AAM?$AAM?$AA?5?$AAd?$AAd?$AA?0?$AA?5?$AAy?$AAy?$AAy?$AAy?$AA?$AA@ 1008f750     LIBCMTD:nlsdata2.obj
 0002:00009778       ??_C@_1BC@IEBCMHCM@?$AAM?$AAM?$AA?1?$AAd?$AAd?$AA?1?$AAy?$AAy?$AA?$AA@ 1008f778     LIBCMTD:nlsdata2.obj
 0002:0000978c       ??_C@_15CLMNNGEL@?$AAP?$AAM?$AA?$AA@ 1008f78c     LIBCMTD:nlsdata2.obj
 0002:00009794       ??_C@_15ODEHAHHF@?$AAA?$AAM?$AA?$AA@ 1008f794     LIBCMTD:nlsdata2.obj
 0002:0000979c       ??_C@_1BC@FEMKIFH@?$AAD?$AAe?$AAc?$AAe?$AAm?$AAb?$AAe?$AAr?$AA?$AA@ 1008f79c     LIBCMTD:nlsdata2.obj
 0002:000097b0       ??_C@_1BC@BGLIFPF@?$AAN?$AAo?$AAv?$AAe?$AAm?$AAb?$AAe?$AAr?$AA?$AA@ 1008f7b0     LIBCMTD:nlsdata2.obj
 0002:000097c4       ??_C@_1BA@EPANDLNG@?$AAO?$AAc?$AAt?$AAo?$AAb?$AAe?$AAr?$AA?$AA@ 1008f7c4     LIBCMTD:nlsdata2.obj
 0002:000097d4       ??_C@_1BE@DKAAMBJL@?$AAS?$AAe?$AAp?$AAt?$AAe?$AAm?$AAb?$AAe?$AAr?$AA?$AA@ 1008f7d4     LIBCMTD:nlsdata2.obj
 0002:000097e8       ??_C@_1O@PAHLKOAC@?$AAA?$AAu?$AAg?$AAu?$AAs?$AAt?$AA?$AA@ 1008f7e8     LIBCMTD:nlsdata2.obj
 0002:000097f8       ??_C@_19BIFMLPCD@?$AAJ?$AAu?$AAl?$AAy?$AA?$AA@ 1008f7f8     LIBCMTD:nlsdata2.obj
 0002:00009804       ??_C@_19EPFLPGAP@?$AAJ?$AAu?$AAn?$AAe?$AA?$AA@ 1008f804     LIBCMTD:nlsdata2.obj
 0002:00009810       ??_C@_1M@GJNLMHFD@?$AAA?$AAp?$AAr?$AAi?$AAl?$AA?$AA@ 1008f810     LIBCMTD:nlsdata2.obj
 0002:0000981c       ??_C@_1M@IKEENEDF@?$AAM?$AAa?$AAr?$AAc?$AAh?$AA?$AA@ 1008f81c     LIBCMTD:nlsdata2.obj
 0002:00009828       ??_C@_1BC@JGDDFFAM@?$AAF?$AAe?$AAb?$AAr?$AAu?$AAa?$AAr?$AAy?$AA?$AA@ 1008f828     LIBCMTD:nlsdata2.obj
 0002:0000983c       ??_C@_1BA@EFMEIEBA@?$AAJ?$AAa?$AAn?$AAu?$AAa?$AAr?$AAy?$AA?$AA@ 1008f83c     LIBCMTD:nlsdata2.obj
 0002:0000984c       ??_C@_17EGKACKIF@?$AAD?$AAe?$AAc?$AA?$AA@ 1008f84c     LIBCMTD:nlsdata2.obj
 0002:00009854       ??_C@_17BBDMLCIG@?$AAN?$AAo?$AAv?$AA?$AA@ 1008f854     LIBCMTD:nlsdata2.obj
 0002:0000985c       ??_C@_17FNLKOI@?$AAO?$AAc?$AAt?$AA?$AA@ 1008f85c     LIBCMTD:nlsdata2.obj
 0002:00009864       ??_C@_17HCHCOKMG@?$AAS?$AAe?$AAp?$AA?$AA@ 1008f864     LIBCMTD:nlsdata2.obj
 0002:0000986c       ??_C@_17ICPELBCN@?$AAA?$AAu?$AAg?$AA?$AA@ 1008f86c     LIBCMTD:nlsdata2.obj
 0002:00009874       ??_C@_17IJPCKHK@?$AAJ?$AAu?$AAl?$AA?$AA@ 1008f874     LIBCMTD:nlsdata2.obj
 0002:0000987c       ??_C@_17KCJGOCPB@?$AAJ?$AAu?$AAn?$AA?$AA@ 1008f87c     LIBCMTD:nlsdata2.obj
 0002:00009884       ??_C@_17PNNKMEED@?$AAM?$AAa?$AAy?$AA?$AA@ 1008f884     LIBCMTD:nlsdata2.obj
 0002:0000988c       ??_C@_17LFPOIHDD@?$AAA?$AAp?$AAr?$AA?$AA@ 1008f88c     LIBCMTD:nlsdata2.obj
 0002:00009894       ??_C@_17CKNLEDEC@?$AAM?$AAa?$AAr?$AA?$AA@ 1008f894     LIBCMTD:nlsdata2.obj
 0002:0000989c       ??_C@_17LMDJEKJN@?$AAF?$AAe?$AAb?$AA?$AA@ 1008f89c     LIBCMTD:nlsdata2.obj
 0002:000098a4       ??_C@_17DKNBKCHM@?$AAJ?$AAa?$AAn?$AA?$AA@ 1008f8a4     LIBCMTD:nlsdata2.obj
 0002:000098ac       ??_C@_1BC@ENMNNPAJ@?$AAS?$AAa?$AAt?$AAu?$AAr?$AAd?$AAa?$AAy?$AA?$AA@ 1008f8ac     LIBCMTD:nlsdata2.obj
 0002:000098c0       ??_C@_1O@PDICJHAG@?$AAF?$AAr?$AAi?$AAd?$AAa?$AAy?$AA?$AA@ 1008f8c0     LIBCMTD:nlsdata2.obj
 0002:000098d0       ??_C@_1BC@HHMNLIHE@?$AAT?$AAh?$AAu?$AAr?$AAs?$AAd?$AAa?$AAy?$AA?$AA@ 1008f8d0     LIBCMTD:nlsdata2.obj
 0002:000098e4       ??_C@_1BE@EBOGMDOH@?$AAW?$AAe?$AAd?$AAn?$AAe?$AAs?$AAd?$AAa?$AAy?$AA?$AA@ 1008f8e4     LIBCMTD:nlsdata2.obj
 0002:000098f8       ??_C@_1BA@ENFBFFEK@?$AAT?$AAu?$AAe?$AAs?$AAd?$AAa?$AAy?$AA?$AA@ 1008f8f8     LIBCMTD:nlsdata2.obj
 0002:00009908       ??_C@_1O@MMNBFLIA@?$AAM?$AAo?$AAn?$AAd?$AAa?$AAy?$AA?$AA@ 1008f908     LIBCMTD:nlsdata2.obj
 0002:00009918       ??_C@_1O@IHNHDHPB@?$AAS?$AAu?$AAn?$AAd?$AAa?$AAy?$AA?$AA@ 1008f918     LIBCMTD:nlsdata2.obj
 0002:00009928       ??_C@_17GGIBDPIH@?$AAS?$AAa?$AAt?$AA?$AA@ 1008f928     LIBCMTD:nlsdata2.obj
 0002:00009930       ??_C@_17HFOLPPLP@?$AAF?$AAr?$AAi?$AA?$AA@ 1008f930     LIBCMTD:nlsdata2.obj
 0002:00009938       ??_C@_17PDPHAADD@?$AAT?$AAh?$AAu?$AA?$AA@ 1008f938     LIBCMTD:nlsdata2.obj
 0002:00009940       ??_C@_17CJEDCEPE@?$AAW?$AAe?$AAd?$AA?$AA@ 1008f940     LIBCMTD:nlsdata2.obj
 0002:00009948       ??_C@_17BMKGEGOJ@?$AAT?$AAu?$AAe?$AA?$AA@ 1008f948     LIBCMTD:nlsdata2.obj
 0002:00009950       ??_C@_17KBOMKBF@?$AAM?$AAo?$AAn?$AA?$AA@ 1008f950     LIBCMTD:nlsdata2.obj
 0002:00009958       ??_C@_17MBGCMIPB@?$AAS?$AAu?$AAn?$AA?$AA@ 1008f958     LIBCMTD:nlsdata2.obj
 0002:00009960       ??_C@_08JCCMCCIL@HH?3mm?3ss?$AA@ 1008f960     LIBCMTD:nlsdata2.obj
 0002:0000996c       ??_C@_0BE@CKGJFCPC@dddd?0?5MMMM?5dd?0?5yyyy?$AA@ 1008f96c     LIBCMTD:nlsdata2.obj
 0002:00009980       ??_C@_08BPBNCDIB@MM?1dd?1yy?$AA@ 1008f980     LIBCMTD:nlsdata2.obj
 0002:0000998c       ??_C@_02CJNFDJBF@PM?$AA@   1008f98c     LIBCMTD:nlsdata2.obj
 0002:00009990       ??_C@_02DEDBPAFC@AM?$AA@   1008f990     LIBCMTD:nlsdata2.obj
 0002:00009994       ??_C@_08EDHMEBNP@December?$AA@ 1008f994     LIBCMTD:nlsdata2.obj
 0002:000099a0       ??_C@_08HCHEGEOA@November?$AA@ 1008f9a0     LIBCMTD:nlsdata2.obj
 0002:000099ac       ??_C@_07JJNFCEND@October?$AA@ 1008f9ac     LIBCMTD:nlsdata2.obj
 0002:000099b4       ??_C@_09BHHEALKD@September?$AA@ 1008f9b4     LIBCMTD:nlsdata2.obj
 0002:000099c0       ??_C@_06LBBHFDDG@August?$AA@ 1008f9c0     LIBCMTD:nlsdata2.obj
 0002:000099c8       ??_C@_04MIEPOIFP@July?$AA@ 1008f9c8     LIBCMTD:nlsdata2.obj
 0002:000099d0       ??_C@_04CNLMGBGM@June?$AA@ 1008f9d0     LIBCMTD:nlsdata2.obj
 0002:000099d8       ??_C@_05DMJDNLEJ@April?$AA@ 1008f9d8     LIBCMTD:nlsdata2.obj
 0002:000099e0       ??_C@_05HPCKOFNC@March?$AA@ 1008f9e0     LIBCMTD:nlsdata2.obj
 0002:000099e8       ??_C@_08GNJGEPFN@February?$AA@ 1008f9e8     LIBCMTD:nlsdata2.obj
 0002:000099f4       ??_C@_07CGJPFGJA@January?$AA@ 1008f9f4     LIBCMTD:nlsdata2.obj
 0002:000099fc       ??_C@_03MKABNOCG@Dec?$AA@  1008f9fc     LIBCMTD:nlsdata2.obj
 0002:00009a00       ??_C@_03JPJOFNIA@Nov?$AA@  1008fa00     LIBCMTD:nlsdata2.obj
 0002:00009a04       ??_C@_03BMAOKBAD@Oct?$AA@  1008fa04     LIBCMTD:nlsdata2.obj
 0002:00009a08       ??_C@_03GGCAPAJC@Sep?$AA@  1008fa08     LIBCMTD:nlsdata2.obj
 0002:00009a0c       ??_C@_03IFJFEIGA@Aug?$AA@  1008fa0c     LIBCMTD:nlsdata2.obj
 0002:00009a10       ??_C@_03LBGABGKK@Jul?$AA@  1008fa10     LIBCMTD:nlsdata2.obj
 0002:00009a14       ??_C@_03IDFGHECI@Jun?$AA@  1008fa14     LIBCMTD:nlsdata2.obj
 0002:00009a18       ??_C@_03CNMDKL@May?$AA@    1008fa18     LIBCMTD:nlsdata2.obj
 0002:00009a1c       ??_C@_03LEOLGMJP@Apr?$AA@  1008fa1c     LIBCMTD:nlsdata2.obj
 0002:00009a20       ??_C@_03ODNJBKGA@Mar?$AA@  1008fa20     LIBCMTD:nlsdata2.obj
 0002:00009a24       ??_C@_03HJBDCHOM@Feb?$AA@  1008fa24     LIBCMTD:nlsdata2.obj
 0002:00009a28       ??_C@_03JIHJHPIE@Jan?$AA@  1008fa28     LIBCMTD:nlsdata2.obj
 0002:00009a2c       ??_C@_08INBOOONO@Saturday?$AA@ 1008fa2c     LIBCMTD:nlsdata2.obj
 0002:00009a38       ??_C@_06JECMNKMI@Friday?$AA@ 1008fa38     LIBCMTD:nlsdata2.obj
 0002:00009a40       ??_C@_08HACCIKIA@Thursday?$AA@ 1008fa40     LIBCMTD:nlsdata2.obj
 0002:00009a4c       ??_C@_09DLIGFAKA@Wednesday?$AA@ 1008fa4c     LIBCMTD:nlsdata2.obj
 0002:00009a58       ??_C@_07BAAGCFCM@Tuesday?$AA@ 1008fa58     LIBCMTD:nlsdata2.obj
 0002:00009a60       ??_C@_06JLEDEDGH@Monday?$AA@ 1008fa60     LIBCMTD:nlsdata2.obj
 0002:00009a68       ??_C@_06OOPIFAJ@Sunday?$AA@ 1008fa68     LIBCMTD:nlsdata2.obj
 0002:00009a70       ??_C@_03FEFJNEK@Sat?$AA@   1008fa70     LIBCMTD:nlsdata2.obj
 0002:00009a74       ??_C@_03IDIOELNC@Fri?$AA@  1008fa74     LIBCMTD:nlsdata2.obj
 0002:00009a78       ??_C@_03IOFIKPDN@Thu?$AA@  1008fa78     LIBCMTD:nlsdata2.obj
 0002:00009a7c       ??_C@_03MHOMLAJA@Wed?$AA@  1008fa7c     LIBCMTD:nlsdata2.obj
 0002:00009a80       ??_C@_03NAGEINEP@Tue?$AA@  1008fa80     LIBCMTD:nlsdata2.obj
 0002:00009a84       ??_C@_03PDAGKDH@Mon?$AA@   1008fa84     LIBCMTD:nlsdata2.obj
 0002:00009a88       ??_C@_03KOEHGMDN@Sun?$AA@  1008fa88     LIBCMTD:nlsdata2.obj
 0002:00009a8c       ??_C@_0DC@LMJHGCKC@f?3?2dd?2vctools?2crt_bld?2self_x86?2c@ 1008fa8c     LIBCMTD:tidtable.obj
 0002:00009ac0       ??_C@_07PEJMOBNF@FlsFree?$AA@ 1008fac0     LIBCMTD:tidtable.obj
 0002:00009ac8       ??_C@_0M@JCPCPOEF@FlsSetValue?$AA@ 1008fac8     LIBCMTD:tidtable.obj
 0002:00009ad4       ??_C@_0M@GDNOONDI@FlsGetValue?$AA@ 1008fad4     LIBCMTD:tidtable.obj
 0002:00009ae0       ??_C@_08KNHFBNJ@FlsAlloc?$AA@ 1008fae0     LIBCMTD:tidtable.obj
 0002:00009aec       ??_C@_1BK@DBDEIDLH@?$AAK?$AAE?$AAR?$AAN?$AAE?$AAL?$AA3?$AA2?$AA?4?$AAD?$AAL?$AAL?$AA?$AA@ 1008faec     LIBCMTD:tidtable.obj
 0002:00009b08       ??_C@_07LCBHPJJN@LC_TIME?$AA@ 1008fb08     LIBCMTD:setlocal.obj
 0002:00009b10       ??_C@_0L@DLHIECNL@LC_NUMERIC?$AA@ 1008fb10     LIBCMTD:setlocal.obj
 0002:00009b1c       ??_C@_0M@MIENIKLA@LC_MONETARY?$AA@ 1008fb1c     LIBCMTD:setlocal.obj
 0002:00009b28       ??_C@_08EADHIDAD@LC_CTYPE?$AA@ 1008fb28     LIBCMTD:setlocal.obj
 0002:00009b34       ??_C@_0L@KFJHEKIK@LC_COLLATE?$AA@ 1008fb34     LIBCMTD:setlocal.obj
 0002:00009b40       ??_C@_06NEFDFEKB@LC_ALL?$AA@ 1008fb40     LIBCMTD:setlocal.obj
 0002:00009b48       ___lc_category             1008fb48     LIBCMTD:setlocal.obj
 0002:00009c10       ??_C@_1CI@FGIONOJM@?$AA_?$AAc?$AAo?$AAn?$AAf?$AAi?$AAg?$AAt?$AAh?$AAr?$AAe?$AAa?$AAd?$AAl?$AAo?$AAc?$AAa?$AAl?$AAe?$AA?$AA@ 1008fc10     LIBCMTD:setlocal.obj
 0002:00009c38       ??_C@_1GE@OLEIGPBJ@?$AAf?$AA?3?$AA?2?$AAd?$AAd?$AA?2?$AAv?$AAc?$AAt?$AAo?$AAo?$AAl?$AAs?$AA?2?$AAc?$AAr?$AAt?$AA_?$AAb?$AAl?$AAd?$AA?2?$AAs?$AAe?$AAl?$AAf?$AA_?$AAx?$AA8?$AA6?$AA?2?$AAc@ 1008fc38     LIBCMTD:setlocal.obj
 0002:00009ca0       ??_C@_1GA@LDEGDKD@?$AA?$CI?$AA?$CC?$AAI?$AAn?$AAv?$AAa?$AAl?$AAi?$AAd?$AA?5?$AAp?$AAa?$AAr?$AAa?$AAm?$AAe?$AAt?$AAe?$AAr?$AA?5?$AAf?$AAo?$AAr?$AA?5?$AA_?$AAc?$AAo?$AAn?$AAf?$AAi?$AAg?$AAt@ 1008fca0     LIBCMTD:setlocal.obj
 0002:00009d00       ??_C@_0DC@JCPFNMID@f?3?2dd?2vctools?2crt_bld?2self_x86?2c@ 1008fd00     LIBCMTD:setlocal.obj
 0002:00009d34       ??_C@_1BE@DBJGBOJC@?$AAs?$AAe?$AAt?$AAl?$AAo?$AAc?$AAa?$AAl?$AAe?$AA?$AA@ 1008fd34     LIBCMTD:setlocal.obj
 0002:00009d48       ??_C@_1FG@OHLFEKMC@?$AAL?$AAC?$AA_?$AAM?$AAI?$AAN?$AA?5?$AA?$DM?$AA?$DN?$AA?5?$AA_?$AAc?$AAa?$AAt?$AAe?$AAg?$AAo?$AAr?$AAy?$AA?5?$AA?$CG?$AA?$CG?$AA?5?$AA_?$AAc?$AAa?$AAt?$AAe?$AAg?$AAo?$AAr?$AAy@ 1008fd48     LIBCMTD:setlocal.obj
 0002:00009da0       ??_C@_1IA@PFIKKKFB@?$AAs?$AAt?$AAr?$AAn?$AAc?$AAp?$AAy?$AA_?$AAs?$AA?$CI?$AAl?$AAc?$AAt?$AAe?$AAm?$AAp?$AA?0?$AA?5?$AA?$CI?$AAs?$AAi?$AAz?$AAe?$AAo?$AAf?$AA?$CI?$AAl?$AAc?$AAt?$AAe?$AAm?$AAp@ 1008fda0     LIBCMTD:setlocal.obj
 0002:00009e20       ??_C@_1CE@OFNHIOO@?$AA_?$AAs?$AAe?$AAt?$AAl?$AAo?$AAc?$AAa?$AAl?$AAe?$AA_?$AAn?$AAo?$AAl?$AAo?$AAc?$AAk?$AA?$AA@ 1008fe20     LIBCMTD:setlocal.obj
 0002:00009e44       ??_C@_01ICJEACDI@?$DL?$AA@ 1008fe44     LIBCMTD:setlocal.obj
 0002:00009e48       ??_C@_02BALPLPBG@?$DN?$DL?$AA@ 1008fe48     LIBCMTD:setlocal.obj
 0002:00009e50       ??_C@_1GO@JALHLJEH@?$AAs?$AAt?$AAr?$AAc?$AAp?$AAy?$AA_?$AAs?$AA?$CI?$AAp?$AAc?$AAh?$AA?5?$AA?$CL?$AA?5?$AAs?$AAi?$AAz?$AAe?$AAo?$AAf?$AA?$CI?$AAi?$AAn?$AAt?$AA?$CJ?$AA?0?$AA?5?$AAc?$AAc?$AAh?$AA?5@ 1008fe50     LIBCMTD:setlocal.obj
 0002:00009ec0       ??_C@_1CG@IEFIICPK@?$AA_?$AAs?$AAe?$AAt?$AAl?$AAo?$AAc?$AAa?$AAl?$AAe?$AA_?$AAs?$AAe?$AAt?$AA_?$AAc?$AAa?$AAt?$AA?$AA@ 1008fec0     LIBCMTD:setlocal.obj
 0002:00009ee8       ??_C@_1DA@GDKKLCLM@?$AAs?$AAt?$AAr?$AAc?$AAa?$AAt?$AA_?$AAs?$AA?$CI?$AAp?$AAc?$AAh?$AA?0?$AA?5?$AAc?$AAc?$AAh?$AA?0?$AA?5?$AA?$CC?$AA?$DL?$AA?$CC?$AA?$CJ?$AA?$AA@ 1008fee8     LIBCMTD:setlocal.obj
 0002:00009f18       ??_C@_1CG@NNFIJLDA@?$AA_?$AAs?$AAe?$AAt?$AAl?$AAo?$AAc?$AAa?$AAl?$AAe?$AA_?$AAg?$AAe?$AAt?$AA_?$AAa?$AAl?$AAl?$AA?$AA@ 1008ff18     LIBCMTD:setlocal.obj
 0002:00009f40       ??_C@_01NEMOKFLO@?$DN?$AA@ 1008ff40     LIBCMTD:setlocal.obj
 0002:00009f48       ??_C@_1FA@MHAOOIBO@?$AAs?$AAt?$AAr?$AAc?$AAp?$AAy?$AA_?$AAs?$AA?$CI?$AAo?$AAu?$AAt?$AAp?$AAu?$AAt?$AA?0?$AA?5?$AAs?$AAi?$AAz?$AAe?$AAI?$AAn?$AAC?$AAh?$AAa?$AAr?$AAs?$AA?0?$AA?5?$AAc?$AAa@ 1008ff48     LIBCMTD:setlocal.obj
 0002:00009f98       ??_C@_1IA@ONNFOEDA@?$AAs?$AAt?$AAr?$AAn?$AAc?$AAp?$AAy?$AA_?$AAs?$AA?$CI?$AAc?$AAa?$AAc?$AAh?$AAe?$AAi?$AAn?$AA?0?$AA?5?$AAc?$AAa?$AAc?$AAh?$AAe?$AAi?$AAn?$AAS?$AAi?$AAz?$AAe?$AA?0?$AA?5@ 1008ff98     LIBCMTD:setlocal.obj
 0002:0000a018       ??_C@_01GFHCPBMG@C?$AA@    10090018     LIBCMTD:setlocal.obj
 0002:0000a020       ??_C@_1EG@MOMHKOD@?$AAs?$AAt?$AAr?$AAc?$AAp?$AAy?$AA_?$AAs?$AA?$CI?$AAo?$AAu?$AAt?$AAp?$AAu?$AAt?$AA?0?$AA?5?$AAs?$AAi?$AAz?$AAe?$AAI?$AAn?$AAC?$AAh?$AAa?$AAr?$AAs?$AA?0?$AA?5?$AA?$CC?$AAC@ 10090020     LIBCMTD:setlocal.obj
 0002:0000a068       ??_C@_1BM@OIIBLEFG@?$AA_?$AAe?$AAx?$AAp?$AAa?$AAn?$AAd?$AAl?$AAo?$AAc?$AAa?$AAl?$AAe?$AA?$AA@ 10090068     LIBCMTD:setlocal.obj
 0002:0000a088       ??_C@_1BGM@IJDLABMC@?$AAs?$AAt?$AAr?$AAc?$AAa?$AAt?$AA_?$AAs?$AA?$CI?$AAo?$AAu?$AAt?$AAs?$AAt?$AAr?$AA?0?$AA?5?$AAs?$AAi?$AAz?$AAe?$AAI?$AAn?$AAB?$AAy?$AAt?$AAe?$AAs?$AA?0?$AA?5?$AA?$CI?$AA?5@ 10090088     LIBCMTD:setlocal.obj
 0002:0000a1f4       ??_C@_1BC@PIABMDIP@?$AA_?$AAs?$AAt?$AAr?$AAc?$AAa?$AAt?$AAs?$AA?$AA@ 100901f4     LIBCMTD:setlocal.obj
 0002:0000a208       ??_C@_1MM@NOPMGFHF@?$AAs?$AAt?$AAr?$AAn?$AAc?$AAp?$AAy?$AA_?$AAs?$AA?$CI?$AAn?$AAa?$AAm?$AAe?$AAs?$AA?9?$AA?$DO?$AAs?$AAz?$AAC?$AAo?$AAd?$AAe?$AAP?$AAa?$AAg?$AAe?$AA?0?$AA?5?$AA?$CI?$AAs?$AAi@ 10090208     LIBCMTD:setlocal.obj
 0002:0000a2d8       ??_C@_1MG@PHNILIAG@?$AAs?$AAt?$AAr?$AAn?$AAc?$AAp?$AAy?$AA_?$AAs?$AA?$CI?$AAn?$AAa?$AAm?$AAe?$AAs?$AA?9?$AA?$DO?$AAs?$AAz?$AAC?$AAo?$AAu?$AAn?$AAt?$AAr?$AAy?$AA?0?$AA?5?$AA?$CI?$AAs?$AAi?$AAz@ 100902d8     LIBCMTD:setlocal.obj
 0002:0000a3a0       ??_C@_1MM@BFEECMAF@?$AAs?$AAt?$AAr?$AAn?$AAc?$AAp?$AAy?$AA_?$AAs?$AA?$CI?$AAn?$AAa?$AAm?$AAe?$AAs?$AA?9?$AA?$DO?$AAs?$AAz?$AAL?$AAa?$AAn?$AAg?$AAu?$AAa?$AAg?$AAe?$AA?0?$AA?5?$AA?$CI?$AAs?$AAi@ 100903a0     LIBCMTD:setlocal.obj
 0002:0000a46c       ??_C@_03EGDHDPFD@_?4?0?$AA@ 1009046c     LIBCMTD:setlocal.obj
 0002:0000a470       ??_C@_1NG@FMOPGKGG@?$AAs?$AAt?$AAr?$AAn?$AAc?$AAp?$AAy?$AA_?$AAs?$AA?$CI?$AAn?$AAa?$AAm?$AAe?$AAs?$AA?9?$AA?$DO?$AAs?$AAz?$AAC?$AAo?$AAd?$AAe?$AAP?$AAa?$AAg?$AAe?$AA?0?$AA?5?$AA?$CI?$AAs?$AAi@ 10090470     LIBCMTD:setlocal.obj
 0002:0000a548       ??_C@_1BK@CBMMLAGJ@?$AA_?$AA_?$AAl?$AAc?$AA_?$AAs?$AAt?$AAr?$AAt?$AAo?$AAl?$AAc?$AA?$AA@ 10090548     LIBCMTD:setlocal.obj
 0002:0000a564       ??_C@_01LFCBOECM@?4?$AA@   10090564     LIBCMTD:setlocal.obj
 0002:0000a568       ??_C@_01IDAFKMJL@_?$AA@    10090568     LIBCMTD:setlocal.obj
 0002:0000a570       ??_C@_1HC@IBDBLKCB@?$AAs?$AAt?$AAr?$AAc?$AAp?$AAy?$AA_?$AAs?$AA?$CI?$AAl?$AAo?$AAc?$AAa?$AAl?$AAe?$AA?0?$AA?5?$AAs?$AAi?$AAz?$AAe?$AAI?$AAn?$AAB?$AAy?$AAt?$AAe?$AAs?$AA?0?$AA?5?$AA?$CI?$AAc@ 10090570     LIBCMTD:setlocal.obj
 0002:0000a5e4       ??_C@_1BK@FGDJDEPG@?$AA_?$AA_?$AAl?$AAc?$AA_?$AAl?$AAc?$AAt?$AAo?$AAs?$AAt?$AAr?$AA?$AA@ 100905e4     LIBCMTD:setlocal.obj
 0002:0000a600       ??_C@_1BAA@ODEGEDCK@?$AA?$CI?$AA?5?$AA?$CI?$AA_?$AAS?$AAt?$AAr?$AAe?$AAa?$AAm?$AA?9?$AA?$DO?$AA_?$AAf?$AAl?$AAa?$AAg?$AA?5?$AA?$CG?$AA?5?$AA_?$AAI?$AAO?$AAS?$AAT?$AAR?$AAG?$AA?$CJ?$AA?5?$AA?$HM?$AA?$HM?$AA?5@ 10090600     LIBCMTD:input.obj
 0002:0000a700       ??_C@_1BC@MJNBEDIJ@?$AA_?$AAi?$AAn?$AAp?$AAu?$AAt?$AA_?$AAl?$AA?$AA@ 10090700     LIBCMTD:input.obj
 0002:0000a718       ??_C@_1FO@LDDBLKJ@?$AAf?$AA?3?$AA?2?$AAd?$AAd?$AA?2?$AAv?$AAc?$AAt?$AAo?$AAo?$AAl?$AAs?$AA?2?$AAc?$AAr?$AAt?$AA_?$AAb?$AAl?$AAd?$AA?2?$AAs?$AAe?$AAl?$AAf?$AA_?$AAx?$AA8?$AA6?$AA?2?$AAc@ 10090718     LIBCMTD:input.obj
 0002:0000a778       ??_C@_0CP@MMGCGBFO@f?3?2dd?2vctools?2crt_bld?2self_x86?2c@ 10090778     LIBCMTD:input.obj
 0002:0000a7a8       ??_C@_1DO@MBOKMJPK@?$AAn?$AAF?$AAl?$AAo?$AAa?$AAt?$AAS?$AAt?$AAr?$AAU?$AAs?$AAe?$AAd?$AA?$DM?$AA?$DN?$AA?$CI?$AA?$CK?$AAp?$AAn?$AAF?$AAl?$AAo?$AAa?$AAt?$AAS?$AAt?$AAr?$AAS?$AAz?$AA?$CJ?$AA?$AA@ 100907a8     LIBCMTD:input.obj
 0002:0000a7e8       ??_C@_1CC@CGHMNGDG@?$AAA?$AAs?$AAs?$AAe?$AAr?$AAt?$AAi?$AAo?$AAn?$AA?5?$AAF?$AAa?$AAi?$AAl?$AAe?$AAd?$AA?$AA@ 100907e8     LIBCMTD:dbgrptw.obj
 0002:0000a80c       ??_C@_1M@ILHOPKA@?$AAE?$AAr?$AAr?$AAo?$AAr?$AA?$AA@ 1009080c     LIBCMTD:dbgrptw.obj
 0002:0000a818       ??_C@_1BA@GLMCNLEM@?$AAW?$AAa?$AAr?$AAn?$AAi?$AAn?$AAg?$AA?$AA@ 10090818     LIBCMTD:dbgrptw.obj
 0002:0000a834       ??_C@_0DA@PCCBBBID@f?3?2dd?2vctools?2crt_bld?2self_x86?2c@ 10090834     LIBCMTD:dbgrptw.obj
 0002:0000a868       ??_C@_1FI@PHIAFFHM@?$AA?$CI?$AA?$CC?$AAT?$AAh?$AAe?$AA?5?$AAh?$AAo?$AAo?$AAk?$AA?5?$AAf?$AAu?$AAn?$AAc?$AAt?$AAi?$AAo?$AAn?$AA?5?$AAi?$AAs?$AA?5?$AAn?$AAo?$AAt?$AA?5?$AAi?$AAn?$AA?5?$AAt?$AAh@ 10090868     LIBCMTD:dbgrptw.obj
 0002:0000a8c0       ??_C@_1CG@JBJEFOCM@?$AAp?$AAf?$AAn?$AAN?$AAe?$AAw?$AAH?$AAo?$AAo?$AAk?$AA?5?$AA?$CB?$AA?$DN?$AA?5?$AAN?$AAU?$AAL?$AAL?$AA?$AA@ 100908c0     LIBCMTD:dbgrptw.obj
 0002:0000a8e8       ??_C@_1CI@IIHEAKEI@?$AA_?$AAC?$AAr?$AAt?$AAS?$AAe?$AAt?$AAR?$AAe?$AAp?$AAo?$AAr?$AAt?$AAH?$AAo?$AAo?$AAk?$AAW?$AA2?$AA?$AA@ 100908e8     LIBCMTD:dbgrptw.obj
 0002:0000a910       ??_C@_1GA@IBJGKIFE@?$AAf?$AA?3?$AA?2?$AAd?$AAd?$AA?2?$AAv?$AAc?$AAt?$AAo?$AAo?$AAl?$AAs?$AA?2?$AAc?$AAr?$AAt?$AA_?$AAb?$AAl?$AAd?$AA?2?$AAs?$AAe?$AAl?$AAf?$AA_?$AAx?$AA8?$AA6?$AA?2?$AAc@ 10090910     LIBCMTD:dbgrptw.obj
 0002:0000a970       ??_C@_1HI@OFEHGPPC@?$AAm?$AAo?$AAd?$AAe?$AA?5?$AA?$DN?$AA?$DN?$AA?5?$AA_?$AAC?$AAR?$AAT?$AA_?$AAR?$AAP?$AAT?$AAH?$AAO?$AAO?$AAK?$AA_?$AAI?$AAN?$AAS?$AAT?$AAA?$AAL?$AAL?$AA?5?$AA?$HM?$AA?$HM?$AA?5@ 10090970     LIBCMTD:dbgrptw.obj
 0002:0000a9e8       ??_C@_1EG@PEOEAKBB@?$AAM?$AAi?$AAc?$AAr?$AAo?$AAs?$AAo?$AAf?$AAt?$AA?5?$AAV?$AAi?$AAs?$AAu?$AAa?$AAl?$AA?5?$AAC?$AA?$CL?$AA?$CL?$AA?5?$AAD?$AAe?$AAb?$AAu?$AAg?$AA?5?$AAL?$AAi?$AAb?$AAr?$AAa@ 100909e8     LIBCMTD:dbgrptw.obj
 0002:0000aa30       ??_C@_1FG@BBOLDHGF@?$AA_?$AAC?$AAr?$AAt?$AAD?$AAb?$AAg?$AAR?$AAe?$AAp?$AAo?$AAr?$AAt?$AA?3?$AA?5?$AAS?$AAt?$AAr?$AAi?$AAn?$AAg?$AA?5?$AAt?$AAo?$AAo?$AA?5?$AAl?$AAo?$AAn?$AAg?$AA?5?$AAo@ 10090a30     LIBCMTD:dbgrptw.obj
 0002:0000aa88       ??_C@_1JI@EACPGHID@?$AAw?$AAc?$AAs?$AAc?$AAp?$AAy?$AA_?$AAs?$AA?$CI?$AAs?$AAz?$AAO?$AAu?$AAt?$AAM?$AAe?$AAs?$AAs?$AAa?$AAg?$AAe?$AA?0?$AA?5?$AA4?$AA0?$AA9?$AA6?$AA?0?$AA?5?$AAL?$AA?$CC?$AA_@ 10090a88     LIBCMTD:dbgrptw.obj
 0002:0000ab20       ??_C@_1BI@KALLJECN@?$AA?$CI?$AA?$CK?$AA_?$AAe?$AAr?$AAr?$AAn?$AAo?$AA?$CI?$AA?$CJ?$AA?$CJ?$AA?$AA@ 10090b20     LIBCMTD:dbgrptw.obj
 0002:0000ab38       ??_C@_1KK@MEFMPOLM@?$AAD?$AAe?$AAb?$AAu?$AAg?$AA?5?$AA?$CF?$AAs?$AA?$CB?$AA?6?$AA?6?$AAP?$AAr?$AAo?$AAg?$AAr?$AAa?$AAm?$AA?3?$AA?5?$AA?$CF?$AAs?$AA?$CF?$AAs?$AA?$CF?$AAs?$AA?$CF?$AAs?$AA?$CF?$AAs?$AA?$CF?$AAs@ 10090b38     LIBCMTD:dbgrptw.obj
 0002:0000abe4       ??_C@_1BE@CGCJKGHI@?$AA?6?$AAM?$AAo?$AAd?$AAu?$AAl?$AAe?$AA?3?$AA?5?$AA?$AA@ 10090be4     LIBCMTD:dbgrptw.obj
 0002:0000abf8       ??_C@_1BA@LNHECFIM@?$AA?6?$AAF?$AAi?$AAl?$AAe?$AA?3?$AA?5?$AA?$AA@ 10090bf8     LIBCMTD:dbgrptw.obj
 0002:0000ac08       ??_C@_1BA@GLLGCPCK@?$AA?6?$AAL?$AAi?$AAn?$AAe?$AA?3?$AA?5?$AA?$AA@ 10090c08     LIBCMTD:dbgrptw.obj
 0002:0000ac18       ??_C@_11LOCGONAA@?$AA?$AA@ 10090c18     LIBCMTD:dbgrptw.obj
 0002:0000ac20       ??_C@_1OG@PMPPFHAF@?$AA?6?$AA?6?$AAF?$AAo?$AAr?$AA?5?$AAi?$AAn?$AAf?$AAo?$AAr?$AAm?$AAa?$AAt?$AAi?$AAo?$AAn?$AA?5?$AAo?$AAn?$AA?5?$AAh?$AAo?$AAw?$AA?5?$AAy?$AAo?$AAu?$AAr?$AA?5?$AAp?$AAr@ 10090c20     LIBCMTD:dbgrptw.obj
 0002:0000ad08       ??_C@_1NO@LECLLHOL@?$AAm?$AAe?$AAm?$AAc?$AAp?$AAy?$AA_?$AAs?$AA?$CI?$AAs?$AAz?$AAS?$AAh?$AAo?$AAr?$AAt?$AAP?$AAr?$AAo?$AAg?$AAN?$AAa?$AAm?$AAe?$AA?0?$AA?5?$AAs?$AAi?$AAz?$AAe?$AAo?$AAf@ 10090d08     LIBCMTD:dbgrptw.obj
 0002:0000ade8       ??_C@_1GI@DEDNNLCI@?$AAw?$AAc?$AAs?$AAc?$AAp?$AAy?$AA_?$AAs?$AA?$CI?$AAs?$AAz?$AAE?$AAx?$AAe?$AAN?$AAa?$AAm?$AAe?$AA?0?$AA?5?$AA2?$AA6?$AA0?$AA?0?$AA?5?$AAL?$AA?$CC?$AA?$DM?$AAp?$AAr?$AAo?$AAg@ 10090de8     LIBCMTD:dbgrptw.obj
 0002:0000ae50       ??_C@_1CI@PGJIFDEK@?$AA_?$AA_?$AAc?$AAr?$AAt?$AAM?$AAe?$AAs?$AAs?$AAa?$AAg?$AAe?$AAW?$AAi?$AAn?$AAd?$AAo?$AAw?$AAW?$AA?$AA@ 10090e50     LIBCMTD:dbgrptw.obj
 0002:0000ae78       ??_C@_1DG@MPPGJOHD@?$AA?$CI?$AA?$CC?$AAI?$AAn?$AAv?$AAa?$AAl?$AAi?$AAd?$AA?5?$AAI?$AAn?$AAp?$AAu?$AAt?$AA?5?$AAF?$AAo?$AAr?$AAm?$AAa?$AAt?$AA?$CC?$AA?0?$AA0?$AA?$CJ?$AA?$AA@ 10090e78     LIBCMTD:inputs.obj
 0002:0000aeb0       ??_C@_1BG@LBKFJFHM@?$AA_?$AAi?$AAn?$AAp?$AAu?$AAt?$AA_?$AAs?$AA_?$AAl?$AA?$AA@ 10090eb0     LIBCMTD:inputs.obj
 0002:0000aec8       ??_C@_1HO@MLMGPAFH@?$AA?$CI?$AA?$CC?$AAi?$AAn?$AAc?$AAo?$AAn?$AAs?$AAi?$AAs?$AAt?$AAe?$AAn?$AAt?$AA?5?$AAI?$AAO?$AAB?$AA?5?$AAf?$AAi?$AAe?$AAl?$AAd?$AAs?$AA?$CC?$AA?0?$AA?5?$AAs?$AAt?$AAr?$AAe@ 10090ec8     LIBCMTD:_flsbuf.obj
 0002:0000af48       ??_C@_1GC@GNCCMPNN@?$AAf?$AA?3?$AA?2?$AAd?$AAd?$AA?2?$AAv?$AAc?$AAt?$AAo?$AAo?$AAl?$AAs?$AA?2?$AAc?$AAr?$AAt?$AA_?$AAb?$AAl?$AAd?$AA?2?$AAs?$AAe?$AAl?$AAf?$AA_?$AAx?$AA8?$AA6?$AA?2?$AAc@ 10090f48     LIBCMTD:_flsbuf.obj
 0002:0000afac       ??_C@_1O@CEDCILHN@?$AA?$CI?$AAn?$AAu?$AAl?$AAl?$AA?$CJ?$AA?$AA@ 10090fac     LIBCMTD:output.obj
 0002:0000afbc       ??_C@_06OJHGLDPL@?$CInull?$CJ?$AA@ 10090fbc     LIBCMTD:output.obj
 0002:0000afc8       ___lookuptable             10090fc8     LIBCMTD:output.obj
 0002:0000b024       ??_C@_0DA@NFBEBPEE@f?3?2dd?2vctools?2crt_bld?2self_x86?2c@ 10091024     LIBCMTD:output.obj
 0002:0000b058       ??_C@_1EK@PNGFDECN@?$AA?$CI?$AA?$CC?$AA?8?$AAn?$AA?8?$AA?5?$AAf?$AAo?$AAr?$AAm?$AAa?$AAt?$AA?5?$AAs?$AAp?$AAe?$AAc?$AAi?$AAf?$AAi?$AAe?$AAr?$AA?5?$AAd?$AAi?$AAs?$AAa?$AAb?$AAl?$AAe?$AAd?$AA?$CC@ 10091058     LIBCMTD:output.obj
 0002:0000b0a4       ??_C@_1CC@IFFHEMNF@?$AA?$CI?$AAc?$AAh?$AA?5?$AA?$CB?$AA?$DN?$AA?5?$AA_?$AAT?$AA?$CI?$AA?8?$AA?2?$AA0?$AA?8?$AA?$CJ?$AA?$CJ?$AA?$AA@ 100910a4     LIBCMTD:output.obj
 0002:0000b0c8       ??_C@_1BE@IONLIDNC@?$AA_?$AAo?$AAu?$AAt?$AAp?$AAu?$AAt?$AA_?$AAl?$AA?$AA@ 100910c8     LIBCMTD:output.obj
 0002:0000b0e0       ??_C@_1GA@HHFOFBLN@?$AAf?$AA?3?$AA?2?$AAd?$AAd?$AA?2?$AAv?$AAc?$AAt?$AAo?$AAo?$AAl?$AAs?$AA?2?$AAc?$AAr?$AAt?$AA_?$AAb?$AAl?$AAd?$AA?2?$AAs?$AAe?$AAl?$AAf?$AA_?$AAx?$AA8?$AA6?$AA?2?$AAc@ 100910e0     LIBCMTD:output.obj
 0002:0000b140       ??_C@_1GA@INJGGEBC@?$AAf?$AA?3?$AA?2?$AAd?$AAd?$AA?2?$AAv?$AAc?$AAt?$AAo?$AAo?$AAl?$AAs?$AA?2?$AAc?$AAr?$AAt?$AA_?$AAb?$AAl?$AAd?$AA?2?$AAs?$AAe?$AAl?$AAf?$AA_?$AAx?$AA8?$AA6?$AA?2?$AAc@ 10091140     LIBCMTD:a_map.obj
 0002:0000b1a0       ??_C@_1FE@KNPCCODH@?$AA?$CI?$AA?$CC?$AAC?$AAo?$AAr?$AAr?$AAu?$AAp?$AAt?$AAe?$AAd?$AA?5?$AAp?$AAo?$AAi?$AAn?$AAt?$AAe?$AAr?$AA?5?$AAp?$AAa?$AAs?$AAs?$AAe?$AAd?$AA?5?$AAt?$AAo?$AA?5?$AA_?$AAf@ 100911a0     LIBCMTD:a_map.obj
 0002:0000eb40       ??_C@_0DA@NBLAKPEL@f?3?2dd?2vctools?2crt_bld?2self_x86?2c@ 10094b40     LIBCMTD:ioinit.obj
 0002:0000eb70       ??_C@_1JE@ECKHFIFP@?$AA?$CI?$AA?$CC?$AAI?$AAn?$AAv?$AAa?$AAl?$AAi?$AAd?$AA?5?$AAf?$AAi?$AAl?$AAe?$AA?5?$AAd?$AAe?$AAs?$AAc?$AAr?$AAi?$AAp?$AAt?$AAo?$AAr?$AA?4?$AA?5?$AAF?$AAi?$AAl?$AAe?$AA?5@ 10094b70     LIBCMTD:lseek.obj
 0002:0000ec04       ??_C@_1CM@OKGMMMDH@?$AA?$CI?$AA_?$AAo?$AAs?$AAf?$AAi?$AAl?$AAe?$AA?$CI?$AAf?$AAh?$AA?$CJ?$AA?5?$AA?$CG?$AA?5?$AAF?$AAO?$AAP?$AAE?$AAN?$AA?$CJ?$AA?$AA@ 10094c04     LIBCMTD:lseek.obj
 0002:0000ec30       ??_C@_1O@EDOIKGHF@?$AA_?$AAl?$AAs?$AAe?$AAe?$AAk?$AA?$AA@ 10094c30     LIBCMTD:lseek.obj
 0002:0000ec40       ??_C@_1FO@LGKMLCAL@?$AAf?$AA?3?$AA?2?$AAd?$AAd?$AA?2?$AAv?$AAc?$AAt?$AAo?$AAo?$AAl?$AAs?$AA?2?$AAc?$AAr?$AAt?$AA_?$AAb?$AAl?$AAd?$AA?2?$AAs?$AAe?$AAl?$AAf?$AA_?$AAx?$AA8?$AA6?$AA?2?$AAc@ 10094c40     LIBCMTD:lseek.obj
 0002:0000eca0       ??_C@_1FO@LPCLHKGE@?$AA?$CI?$AAf?$AAh?$AA?5?$AA?$DO?$AA?$DN?$AA?5?$AA0?$AA?5?$AA?$CG?$AA?$CG?$AA?5?$AA?$CI?$AAu?$AAn?$AAs?$AAi?$AAg?$AAn?$AAe?$AAd?$AA?$CJ?$AAf?$AAh?$AA?5?$AA?$DM?$AA?5?$AA?$CI?$AAu?$AAn?$AAs?$AAi@ 10094ca0     LIBCMTD:lseek.obj
 0002:0000ed00       ??_C@_1DM@LMLOLGJ@?$AA?$CI?$AA?$CC?$AAI?$AAn?$AAv?$AAa?$AAl?$AAi?$AAd?$AA?5?$AAf?$AAi?$AAl?$AAe?$AA?5?$AAd?$AAe?$AAs?$AAc?$AAr?$AAi?$AAp?$AAt?$AAo?$AAr?$AA?$CC?$AA?0?$AA0?$AA?$CJ?$AA?$AA@ 10094d00     LIBCMTD:lseek.obj
 0002:0000ed3c       ??_C@_1BA@JGHIEKKM@?$AA_?$AAf?$AAi?$AAl?$AAe?$AAn?$AAo?$AA?$AA@ 10094d3c     LIBCMTD:fileno.obj
 0002:0000ed50       ??_C@_1GA@PBJHELNC@?$AAf?$AA?3?$AA?2?$AAd?$AAd?$AA?2?$AAv?$AAc?$AAt?$AAo?$AAo?$AAl?$AAs?$AA?2?$AAc?$AAr?$AAt?$AA_?$AAb?$AAl?$AAd?$AA?2?$AAs?$AAe?$AAl?$AAf?$AA_?$AAx?$AA8?$AA6?$AA?2?$AAc@ 10094d50     LIBCMTD:fileno.obj
 0002:0000edb0       ??_C@_06PJIGMIJB@Client?$AA@ 10094db0     LIBCMTD:dbgheap.obj
 0002:0000edb8       ??_C@_06KMEJCCGM@Ignore?$AA@ 10094db8     LIBCMTD:dbgheap.obj
 0002:0000edc0       ??_C@_03OGPFLFLO@CRT?$AA@  10094dc0     LIBCMTD:dbgheap.obj
 0002:0000edc4       ??_C@_06EFAGIKOH@Normal?$AA@ 10094dc4     LIBCMTD:dbgheap.obj
 0002:0000edcc       ??_C@_04HJMOFLDF@Free?$AA@ 10094dcc     LIBCMTD:dbgheap.obj
 0002:0000ede8       ??_C@_0DC@JEMAGEKG@Error?3?5memory?5allocation?3?5bad?5me@ 10094de8     LIBCMTD:dbgheap.obj
 0002:0000ee1c       ??_C@_0CF@BICKFLAF@Invalid?5allocation?5size?3?5?$CFIu?5byt@ 10094e1c     LIBCMTD:dbgheap.obj
 0002:0000ee44       ??_C@_02DKCKIIND@?$CFs?$AA@ 10094e44     LIBCMTD:dbgheap.obj
 0002:0000ee48       ??_C@_0CB@CCLOLAHO@Client?5hook?5allocation?5failure?4?6@ 10094e48     LIBCMTD:dbgheap.obj
 0002:0000ee6c       ??_C@_0DF@BBEGIFEK@Client?5hook?5allocation?5failure?5a@ 10094e6c     LIBCMTD:dbgheap.obj
 0002:0000eea8       ??_C@_1GC@DNJKKEAA@?$AAf?$AA?3?$AA?2?$AAd?$AAd?$AA?2?$AAv?$AAc?$AAt?$AAo?$AAo?$AAl?$AAs?$AA?2?$AAc?$AAr?$AAt?$AA_?$AAb?$AAl?$AAd?$AA?2?$AAs?$AAe?$AAl?$AAf?$AA_?$AAx?$AA8?$AA6?$AA?2?$AAc@ 10094ea8     LIBCMTD:dbgheap.obj
 0002:0000ef0c       ??_C@_1CE@LJFEPPMP@?$AA_?$AAC?$AAr?$AAt?$AAC?$AAh?$AAe?$AAc?$AAk?$AAM?$AAe?$AAm?$AAo?$AAr?$AAy?$AA?$CI?$AA?$CJ?$AA?$AA@ 10094f0c     LIBCMTD:dbgheap.obj
 0002:0000ef30       ??_C@_1DE@KOOKLFBB@?$AA_?$AAp?$AAF?$AAi?$AAr?$AAs?$AAt?$AAB?$AAl?$AAo?$AAc?$AAk?$AA?5?$AA?$DN?$AA?$DN?$AA?5?$AAp?$AAO?$AAl?$AAd?$AAB?$AAl?$AAo?$AAc?$AAk?$AA?$AA@ 10094f30     LIBCMTD:dbgheap.obj
 0002:0000ef64       ??_C@_1DC@GEFKNOOL@?$AA_?$AAp?$AAL?$AAa?$AAs?$AAt?$AAB?$AAl?$AAo?$AAc?$AAk?$AA?5?$AA?$DN?$AA?$DN?$AA?5?$AAp?$AAO?$AAl?$AAd?$AAB?$AAl?$AAo?$AAc?$AAk?$AA?$AA@ 10094f64     LIBCMTD:dbgheap.obj
 0002:0000ef98       ??_C@_1GE@PCKLOLAO@?$AAf?$AAR?$AAe?$AAa?$AAl?$AAl?$AAo?$AAc?$AA?5?$AA?$HM?$AA?$HM?$AA?5?$AA?$CI?$AA?$CB?$AAf?$AAR?$AAe?$AAa?$AAl?$AAl?$AAo?$AAc?$AA?5?$AA?$CG?$AA?$CG?$AA?5?$AAp?$AAN?$AAe?$AAw?$AAB?$AAl@ 10094f98     LIBCMTD:dbgheap.obj
 0002:0000effc       ??_C@_0DA@HFBKENN@Error?3?5possible?5heap?5corruption?5@ 10094ffc     LIBCMTD:dbgheap.obj
 0002:0000f030       ??_C@_1IK@DCPKDGNH@?$AAp?$AAO?$AAl?$AAd?$AAB?$AAl?$AAo?$AAc?$AAk?$AA?9?$AA?$DO?$AAn?$AAL?$AAi?$AAn?$AAe?$AA?5?$AA?$DN?$AA?$DN?$AA?5?$AAI?$AAG?$AAN?$AAO?$AAR?$AAE?$AA_?$AAL?$AAI?$AAN?$AAE?$AA?5@ 10095030     LIBCMTD:dbgheap.obj
 0002:0000f0c0       ??_C@_1EE@GFOPCECE@?$AA_?$AAC?$AAr?$AAt?$AAI?$AAs?$AAV?$AAa?$AAl?$AAi?$AAd?$AAH?$AAe?$AAa?$AAp?$AAP?$AAo?$AAi?$AAn?$AAt?$AAe?$AAr?$AA?$CI?$AAp?$AAU?$AAs?$AAe?$AAr?$AAD?$AAa?$AAt?$AAa@ 100950c0     LIBCMTD:dbgheap.obj
 0002:0000f108       ??_C@_0EM@LGFLMAGJ@The?5Block?5at?50x?$CFp?5was?5allocated?5@ 10095108     LIBCMTD:dbgheap.obj
 0002:0000f158       ??_C@_0FA@EFEIGJKG@Error?3?5memory?5allocation?3?5bad?5me@ 10095158     LIBCMTD:dbgheap.obj
 0002:0000f1a8       ??_C@_0ED@GPCPBAGP@Invalid?5allocation?5size?3?5?$CFIu?5byt@ 100951a8     LIBCMTD:dbgheap.obj
 0002:0000f1ec       ??_C@_0CE@DOFMDOL@Client?5hook?5re?9allocation?5failur@ 100951ec     LIBCMTD:dbgheap.obj
 0002:0000f210       ??_C@_0DI@KKJPDPGM@Client?5hook?5re?9allocation?5failur@ 10095210     LIBCMTD:dbgheap.obj
 0002:0000f248       ??_C@_1BI@HAPNGHDP@?$AA_?$AAe?$AAx?$AAp?$AAa?$AAn?$AAd?$AA_?$AAd?$AAb?$AAg?$AA?$AA@ 10095248     LIBCMTD:dbgheap.obj
 0002:0000f260       ??_C@_1CE@CJACEFBA@?$AAp?$AAU?$AAs?$AAe?$AAr?$AAD?$AAa?$AAt?$AAa?$AA?5?$AA?$CB?$AA?$DN?$AA?5?$AAN?$AAU?$AAL?$AAL?$AA?$AA@ 10095260     LIBCMTD:dbgheap.obj
 0002:0000f284       ??_C@_1CM@MMAADDMD@?$AA_?$AAp?$AAF?$AAi?$AAr?$AAs?$AAt?$AAB?$AAl?$AAo?$AAc?$AAk?$AA?5?$AA?$DN?$AA?$DN?$AA?5?$AAp?$AAH?$AAe?$AAa?$AAd?$AA?$AA@ 10095284     LIBCMTD:dbgheap.obj
 0002:0000f2b0       ??_C@_1CK@DMAGEMBG@?$AA_?$AAp?$AAL?$AAa?$AAs?$AAt?$AAB?$AAl?$AAo?$AAc?$AAk?$AA?5?$AA?$DN?$AA?$DN?$AA?5?$AAp?$AAH?$AAe?$AAa?$AAd?$AA?$AA@ 100952b0     LIBCMTD:dbgheap.obj
 0002:0000f2dc       ??_C@_1DM@ODCJIDCP@?$AAp?$AAH?$AAe?$AAa?$AAd?$AA?9?$AA?$DO?$AAn?$AAB?$AAl?$AAo?$AAc?$AAk?$AAU?$AAs?$AAe?$AA?5?$AA?$DN?$AA?$DN?$AA?5?$AAn?$AAB?$AAl?$AAo?$AAc?$AAk?$AAU?$AAs?$AAe?$AA?$AA@ 100952dc     LIBCMTD:dbgheap.obj
 0002:0000f318       ??_C@_1HK@HPCBMDFG@?$AAp?$AAH?$AAe?$AAa?$AAd?$AA?9?$AA?$DO?$AAn?$AAL?$AAi?$AAn?$AAe?$AA?5?$AA?$DN?$AA?$DN?$AA?5?$AAI?$AAG?$AAN?$AAO?$AAR?$AAE?$AA_?$AAL?$AAI?$AAN?$AAE?$AA?5?$AA?$CG?$AA?$CG?$AA?5?$AAp@ 10095318     LIBCMTD:dbgheap.obj
 0002:0000f398       ??_C@_0IG@LEMBDCJK@HEAP?5CORRUPTION?5DETECTED?3?5after?5@ 10095398     LIBCMTD:dbgheap.obj
 0002:0000f420       ??_C@_0KE@MBMNHHHN@HEAP?5CORRUPTION?5DETECTED?3?5after?5@ 10095420     LIBCMTD:dbgheap.obj
 0002:0000f4c8       ??_C@_0IK@PJCGLBOB@HEAP?5CORRUPTION?5DETECTED?3?5before@ 100954c8     LIBCMTD:dbgheap.obj
 0002:0000f558       ??_C@_0KI@JGFOHMEB@HEAP?5CORRUPTION?5DETECTED?3?5before@ 10095558     LIBCMTD:dbgheap.obj
 0002:0000f600       ??_C@_1EO@LHDAJOCM@?$AA_?$AAB?$AAL?$AAO?$AAC?$AAK?$AA_?$AAT?$AAY?$AAP?$AAE?$AA_?$AAI?$AAS?$AA_?$AAV?$AAA?$AAL?$AAI?$AAD?$AA?$CI?$AAp?$AAH?$AAe?$AAa?$AAd?$AA?9?$AA?$DO?$AAn?$AAB?$AAl?$AAo@ 10095600     LIBCMTD:dbgheap.obj
 0002:0000f650       ??_C@_0BL@KEIPLFAC@Client?5hook?5free?5failure?4?6?$AA@ 10095650     LIBCMTD:dbgheap.obj
 0002:0000f670       ??_C@_0EJ@HEIBCIMJ@The?5Block?5at?50x?$CFp?5was?5allocated?5@ 10095670     LIBCMTD:dbgheap.obj
 0002:0000f6bc       ??_C@_1BG@MBKOGDLD@?$AA_?$AAm?$AAs?$AAi?$AAz?$AAe?$AA_?$AAd?$AAb?$AAg?$AA?$AA@ 100956bc     LIBCMTD:dbgheap.obj
 0002:0000f6d4       ??_C@_0CI@JMLBEDHJ@?$CFhs?5located?5at?50x?$CFp?5is?5?$CFIu?5bytes@ 100956d4     LIBCMTD:dbgheap.obj
 0002:0000f700       ??_C@_0EG@DGJMPDBH@?$CFhs?5located?5at?50x?$CFp?5is?5?$CFIu?5bytes@ 10095700     LIBCMTD:dbgheap.obj
 0002:0000f748       ??_C@_0IC@BBJIOOJH@HEAP?5CORRUPTION?5DETECTED?3?5on?5top@ 10095748     LIBCMTD:dbgheap.obj
 0002:0000f7d0       ??_C@_0KA@IHNJJKPL@HEAP?5CORRUPTION?5DETECTED?3?5on?5top@ 100957d0     LIBCMTD:dbgheap.obj
 0002:0000f870       ??_C@_07OHKEFPKJ@DAMAGED?$AA@ 10095870     LIBCMTD:dbgheap.obj
 0002:0000f878       ??_C@_0CL@HNNNMKMJ@_heapchk?5fails?5with?5unknown?5retu@ 10095878     LIBCMTD:dbgheap.obj
 0002:0000f8a4       ??_C@_0CC@MFFCHFHO@_heapchk?5fails?5with?5_HEAPBADPTR?4@ 100958a4     LIBCMTD:dbgheap.obj
 0002:0000f8c8       ??_C@_0CC@MJGLGBDG@_heapchk?5fails?5with?5_HEAPBADEND?4@ 100958c8     LIBCMTD:dbgheap.obj
 0002:0000f8ec       ??_C@_0CD@CPKEAPBD@_heapchk?5fails?5with?5_HEAPBADNODE@ 100958ec     LIBCMTD:dbgheap.obj
 0002:0000f910       ??_C@_0CE@MKKHMBMK@_heapchk?5fails?5with?5_HEAPBADBEGI@ 10095910     LIBCMTD:dbgheap.obj
 0002:0000f934       ??_C@_1BO@GJFDNMNF@?$AA_?$AAC?$AAr?$AAt?$AAS?$AAe?$AAt?$AAD?$AAb?$AAg?$AAF?$AAl?$AAa?$AAg?$AA?$AA@ 10095934     LIBCMTD:dbgheap.obj
 0002:0000f958       ??_C@_1BHO@NNANJNF@?$AA?$CI?$AAf?$AAN?$AAe?$AAw?$AAB?$AAi?$AAt?$AAs?$AA?$DN?$AA?$DN?$AA_?$AAC?$AAR?$AAT?$AAD?$AAB?$AAG?$AA_?$AAR?$AAE?$AAP?$AAO?$AAR?$AAT?$AA_?$AAF?$AAL?$AAA?$AAG?$AA?$CJ?$AA?5@ 10095958     LIBCMTD:dbgheap.obj
 0002:0000fad8       ??_C@_1DE@GJCKCKEC@?$AA_?$AAC?$AAr?$AAt?$AAD?$AAo?$AAF?$AAo?$AAr?$AAA?$AAl?$AAl?$AAC?$AAl?$AAi?$AAe?$AAn?$AAt?$AAO?$AAb?$AAj?$AAe?$AAc?$AAt?$AAs?$AA?$AA@ 10095ad8     LIBCMTD:dbgheap.obj
 0002:0000fb0c       ??_C@_1BI@CJGCEEDL@?$AAp?$AAf?$AAn?$AA?5?$AA?$CB?$AA?$DN?$AA?5?$AAN?$AAU?$AAL?$AAL?$AA?$AA@ 10095b0c     LIBCMTD:dbgheap.obj
 0002:0000fb24       ??_C@_0CB@EAAIGELO@Bad?5memory?5block?5found?5at?50x?$CFp?4?6@ 10095b24     LIBCMTD:dbgheap.obj
 0002:0000fb48       ??_C@_0DP@LEFMFBOD@Bad?5memory?5block?5found?5at?50x?$CFp?4?6@ 10095b48     LIBCMTD:dbgheap.obj
 0002:0000fb88       ??_C@_1CE@NJJKELF@?$AA_?$AAC?$AAr?$AAt?$AAM?$AAe?$AAm?$AAC?$AAh?$AAe?$AAc?$AAk?$AAp?$AAo?$AAi?$AAn?$AAt?$AA?$AA@ 10095b88     LIBCMTD:dbgheap.obj
 0002:0000fbac       ??_C@_1BM@MIMANDHC@?$AAs?$AAt?$AAa?$AAt?$AAe?$AA?5?$AA?$CB?$AA?$DN?$AA?5?$AAN?$AAU?$AAL?$AAL?$AA?$AA@ 10095bac     LIBCMTD:dbgheap.obj
 0002:0000fbc8       ??_C@_1CC@DFPEDFBP@?$AAn?$AAe?$AAw?$AAS?$AAt?$AAa?$AAt?$AAe?$AA?5?$AA?$CB?$AA?$DN?$AA?5?$AAN?$AAU?$AAL?$AAL?$AA?$AA@ 10095bc8     LIBCMTD:dbgheap.obj
 0002:0000fbec       ??_C@_1CC@DHPFEMMN@?$AAo?$AAl?$AAd?$AAS?$AAt?$AAa?$AAt?$AAe?$AA?5?$AA?$CB?$AA?$DN?$AA?5?$AAN?$AAU?$AAL?$AAL?$AA?$AA@ 10095bec     LIBCMTD:dbgheap.obj
 0002:0000fc10       ??_C@_1CE@PDIENACM@?$AA_?$AAC?$AAr?$AAt?$AAM?$AAe?$AAm?$AAD?$AAi?$AAf?$AAf?$AAe?$AAr?$AAe?$AAn?$AAc?$AAe?$AA?$AA@ 10095c10     LIBCMTD:dbgheap.obj
 0002:0000fc34       ??_C@_0BH@GFGKJDCO@Object?5dump?5complete?4?6?$AA@ 10095c34     LIBCMTD:dbgheap.obj
 0002:0000fc4c       ??_C@_0DA@MDLBNIBM@crt?5block?5at?50x?$CFp?0?5subtype?5?$CFx?0?5?$CF@ 10095c4c     LIBCMTD:dbgheap.obj
 0002:0000fc7c       ??_C@_0CH@FAGDDGPN@normal?5block?5at?50x?$CFp?0?5?$CFIu?5bytes?5@ 10095c7c     LIBCMTD:dbgheap.obj
 0002:0000fca4       ??_C@_0DD@GHNAAKBB@client?5block?5at?50x?$CFp?0?5subtype?5?$CFx@ 10095ca4     LIBCMTD:dbgheap.obj
 0002:0000fcd8       ??_C@_06PKLGBFGM@?$HL?$CFld?$HN?5?$AA@ 10095cd8     LIBCMTD:dbgheap.obj
 0002:0000fce0       ??_C@_0L@JMEFFCCJ@?$CFhs?$CI?$CFd?$CJ?5?3?5?$AA@ 10095ce0     LIBCMTD:dbgheap.obj
 0002:0000fcec       ??_C@_0BE@OIEFNFL@?$CDFile?5Error?$CD?$CI?$CFd?$CJ?5?3?5?$AA@ 10095cec     LIBCMTD:dbgheap.obj
 0002:0000fd00       ??_C@_0BE@KCIPKCIA@Dumping?5objects?5?9?$DO?6?$AA@ 10095d00     LIBCMTD:dbgheap.obj
 0002:0000fd14       ??_C@_0BA@HJBKCELP@?5Data?3?5?$DM?$CFs?$DO?5?$CFs?6?$AA@ 10095d14     LIBCMTD:dbgheap.obj
 0002:0000fd24       ??_C@_1CG@LPFIACGM@?$AA_?$AAp?$AAr?$AAi?$AAn?$AAt?$AAM?$AAe?$AAm?$AAB?$AAl?$AAo?$AAc?$AAk?$AAD?$AAa?$AAt?$AAa?$AA?$AA@ 10095d24     LIBCMTD:dbgheap.obj
 0002:0000fd4c       ??_C@_0BI@JBFPOEJA@Detected?5memory?5leaks?$CB?6?$AA@ 10095d4c     LIBCMTD:dbgheap.obj
 0002:0000fd64       ??_C@_0BP@DEDHGGGI@Total?5allocations?3?5?$CFId?5bytes?4?6?$AA@ 10095d64     LIBCMTD:dbgheap.obj
 0002:0000fd84       ??_C@_0CB@BLHDAFNE@Largest?5number?5used?3?5?$CFId?5bytes?4?6@ 10095d84     LIBCMTD:dbgheap.obj
 0002:0000fda8       ??_C@_0BO@DACNIABB@?$CFId?5bytes?5in?5?$CFId?5?$CFhs?5Blocks?4?6?$AA@ 10095da8     LIBCMTD:dbgheap.obj
 0002:0000fdc8       ??_C@_1CM@MPNIBKGK@?$AA_?$AAC?$AAr?$AAt?$AAM?$AAe?$AAm?$AAD?$AAu?$AAm?$AAp?$AAS?$AAt?$AAa?$AAt?$AAi?$AAs?$AAt?$AAi?$AAc?$AAs?$AA?$AA@ 10095dc8     LIBCMTD:dbgheap.obj
 0002:0000fdf4       ??_C@_1DK@LFLKFPDA@?$AAo?$AAf?$AAf?$AAs?$AAe?$AAt?$AA?5?$AA?$DN?$AA?$DN?$AA?5?$AA0?$AA?5?$AA?$HM?$AA?$HM?$AA?5?$AAo?$AAf?$AAf?$AAs?$AAe?$AAt?$AA?5?$AA?$DM?$AA?5?$AAs?$AAi?$AAz?$AAe?$AA?$AA@ 10095df4     LIBCMTD:dbgheap.obj
 0002:0000fe30       ??_C@_1DG@DONCJBBJ@?$AA_?$AAa?$AAl?$AAi?$AAg?$AAn?$AAe?$AAd?$AA_?$AAo?$AAf?$AAf?$AAs?$AAe?$AAt?$AA_?$AAm?$AAa?$AAl?$AAl?$AAo?$AAc?$AA_?$AAd?$AAb?$AAg?$AA?$AA@ 10095e30     LIBCMTD:dbgheap.obj
 0002:0000fe68       ??_C@_1CE@NPMGPNNP@?$AAI?$AAS?$AA_?$AA2?$AA_?$AAP?$AAO?$AAW?$AA_?$AAN?$AA?$CI?$AAa?$AAl?$AAi?$AAg?$AAn?$AA?$CJ?$AA?$AA@ 10095e68     LIBCMTD:dbgheap.obj
 0002:0000fe8c       ??_C@_1DI@NINIKFFK@?$AA_?$AAa?$AAl?$AAi?$AAg?$AAn?$AAe?$AAd?$AA_?$AAo?$AAf?$AAf?$AAs?$AAe?$AAt?$AA_?$AAr?$AAe?$AAa?$AAl?$AAl?$AAo?$AAc?$AA_?$AAd?$AAb?$AAg?$AA?$AA@ 10095e8c     LIBCMTD:dbgheap.obj
 0002:0000fec4       ??_C@_0DL@PGHMMKNE@Damage?5before?50x?$CFp?5which?5was?5all@ 10095ec4     LIBCMTD:dbgheap.obj
 0002:0000ff00       ??_C@_0EI@NDNJMAJK@The?5block?5at?50x?$CFp?5was?5not?5alloca@ 10095f00     LIBCMTD:dbgheap.obj
 0002:0000ff48       ??_C@_0EF@PGELACII@The?5block?5at?50x?$CFp?5was?5not?5alloca@ 10095f48     LIBCMTD:dbgheap.obj
 0002:0000ff90       ??_C@_1CG@CEGMHIMN@?$AA_?$AAa?$AAl?$AAi?$AAg?$AAn?$AAe?$AAd?$AA_?$AAm?$AAs?$AAi?$AAz?$AAe?$AA_?$AAd?$AAb?$AAg?$AA?$AA@ 10095f90     LIBCMTD:dbgheap.obj
 0002:0000ffb8       ??_C@_1CC@MOBIKHH@?$AAm?$AAe?$AAm?$AAb?$AAl?$AAo?$AAc?$AAk?$AA?5?$AA?$CB?$AA?$DN?$AA?5?$AAN?$AAU?$AAL?$AAL?$AA?$AA@ 10095fb8     LIBCMTD:dbgheap.obj
 0002:0000ffdc       ??_C@_1O@EDEJGJBM@?$AA_?$AAc?$AAl?$AAo?$AAs?$AAe?$AA?$AA@ 10095fdc     LIBCMTD:close.obj
 0002:0000fff0       ??_C@_1FO@NNGNFGFH@?$AAf?$AA?3?$AA?2?$AAd?$AAd?$AA?2?$AAv?$AAc?$AAt?$AAo?$AAo?$AAl?$AAs?$AA?2?$AAc?$AAr?$AAt?$AA_?$AAb?$AAl?$AAd?$AA?2?$AAs?$AAe?$AAl?$AAf?$AA_?$AAx?$AA8?$AA6?$AA?2?$AAc@ 10095ff0     LIBCMTD:close.obj
 0002:00010050       ??_C@_1GE@MIMBMOF@?$AAf?$AA?3?$AA?2?$AAd?$AAd?$AA?2?$AAv?$AAc?$AAt?$AAo?$AAo?$AAl?$AAs?$AA?2?$AAc?$AAr?$AAt?$AA_?$AAb?$AAl?$AAd?$AA?2?$AAs?$AAe?$AAl?$AAf?$AA_?$AAx?$AA8?$AA6?$AA?2?$AAc@ 10096050     LIBCMTD:_freebuf.obj
 0002:000100b4       ??_C@_1BO@KIJENGPH@?$AAs?$AAt?$AAr?$AAe?$AAa?$AAm?$AA?5?$AA?$CB?$AA?$DN?$AA?5?$AAN?$AAU?$AAL?$AAL?$AA?$AA@ 100960b4     LIBCMTD:_freebuf.obj
 0002:000100d4       ??_C@_1BA@IIKEPOGH@?$AA_?$AAf?$AAi?$AAl?$AAb?$AAu?$AAf?$AA?$AA@ 100960d4     LIBCMTD:_filbuf.obj
 0002:000100e8       ??_C@_1GC@CHFNJKFB@?$AAf?$AA?3?$AA?2?$AAd?$AAd?$AA?2?$AAv?$AAc?$AAt?$AAo?$AAo?$AAl?$AAs?$AA?2?$AAc?$AAr?$AAt?$AA_?$AAb?$AAl?$AAd?$AA?2?$AAs?$AAe?$AAl?$AAf?$AA_?$AAx?$AA8?$AA6?$AA?2?$AAc@ 100960e8     LIBCMTD:_filbuf.obj
 0002:0001014c       ??_C@_1CC@HBLPFNKH@?$AA?$CI?$AAc?$AAn?$AAt?$AA?5?$AA?$DM?$AA?$DN?$AA?5?$AAI?$AAN?$AAT?$AA_?$AAM?$AAA?$AAX?$AA?$CJ?$AA?$AA@ 1009614c     LIBCMTD:read.obj
 0002:00010170       ??_C@_1M@NHJOLLDM@?$AA_?$AAr?$AAe?$AAa?$AAd?$AA?$AA@ 10096170     LIBCMTD:read.obj
 0002:00010180       ??_C@_1FM@NGICBHLO@?$AAf?$AA?3?$AA?2?$AAd?$AAd?$AA?2?$AAv?$AAc?$AAt?$AAo?$AAo?$AAl?$AAs?$AA?2?$AAc?$AAr?$AAt?$AA_?$AAb?$AAl?$AAd?$AA?2?$AAs?$AAe?$AAl?$AAf?$AA_?$AAx?$AA8?$AA6?$AA?2?$AAc@ 10096180     LIBCMTD:read.obj
 0002:000101dc       ??_C@_0CO@CEGKNHEH@f?3?2dd?2vctools?2crt_bld?2self_x86?2c@ 100961dc     LIBCMTD:read.obj
 0002:0001020c       ??_C@_1CC@EEOLPHGO@?$AA?$CI?$AA?$CI?$AAc?$AAn?$AAt?$AA?5?$AA?$CG?$AA?5?$AA1?$AA?$CJ?$AA?5?$AA?$DN?$AA?$DN?$AA?5?$AA0?$AA?$CJ?$AA?$AA@ 1009620c     LIBCMTD:read.obj
 0002:00010230       ??_C@_1CG@OHLJHGGK@?$AA?$CI?$AAi?$AAn?$AAp?$AAu?$AAt?$AAb?$AAu?$AAf?$AA?5?$AA?$CB?$AA?$DN?$AA?5?$AAN?$AAU?$AAL?$AAL?$AA?$CJ?$AA?$AA@ 10096230     LIBCMTD:read.obj
 0002:00010258       ??_C@_1BK@JJBHNDKJ@?$AA_?$AAr?$AAe?$AAa?$AAd?$AA_?$AAn?$AAo?$AAl?$AAo?$AAc?$AAk?$AA?$AA@ 10096258     LIBCMTD:read.obj
 0002:00010274       ??_C@_1CK@DDKKOLAN@?$AAs?$AAi?$AAz?$AAe?$AAI?$AAn?$AAB?$AAy?$AAt?$AAe?$AAs?$AA?5?$AA?$DO?$AA?$DN?$AA?5?$AAc?$AAo?$AAu?$AAn?$AAt?$AA?$AA@ 10096274     LIBCMTD:memcpy_s.obj
 0002:000102a0       ??_C@_1BC@GKHDJMGB@?$AAm?$AAe?$AAm?$AAc?$AAp?$AAy?$AA_?$AAs?$AA?$AA@ 100962a0     LIBCMTD:memcpy_s.obj
 0002:000102b8       ??_C@_1GE@NEOPGGBM@?$AAf?$AA?3?$AA?2?$AAd?$AAd?$AA?2?$AAv?$AAc?$AAt?$AAo?$AAo?$AAl?$AAs?$AA?2?$AAc?$AAr?$AAt?$AA_?$AAb?$AAl?$AAd?$AA?2?$AAs?$AAe?$AAl?$AAf?$AA_?$AAx?$AA8?$AA6?$AA?2?$AAc@ 100962b8     LIBCMTD:memcpy_s.obj
 0002:0001031c       ??_C@_1BE@KHFBJMNM@?$AA_?$AAl?$AAs?$AAe?$AAe?$AAk?$AAi?$AA6?$AA4?$AA?$AA@ 1009631c     LIBCMTD:lseeki64.obj
 0002:00010330       ??_C@_1GE@MINKPNPH@?$AAf?$AA?3?$AA?2?$AAd?$AAd?$AA?2?$AAv?$AAc?$AAt?$AAo?$AAo?$AAl?$AAs?$AA?2?$AAc?$AAr?$AAt?$AA_?$AAb?$AAl?$AAd?$AA?2?$AAs?$AAe?$AAl?$AAf?$AA_?$AAx?$AA8?$AA6?$AA?2?$AAc@ 10096330     LIBCMTD:lseeki64.obj
 0002:00010394       ??_C@_1BE@DHFIIAMO@?$AA_?$AAf?$AAt?$AAe?$AAl?$AAl?$AAi?$AA6?$AA4?$AA?$AA@ 10096394     LIBCMTD:ftelli64.obj
 0002:000103a8       ??_C@_1GE@GDLBAPK@?$AAf?$AA?3?$AA?2?$AAd?$AAd?$AA?2?$AAv?$AAc?$AAt?$AAo?$AAo?$AAl?$AAs?$AA?2?$AAc?$AAr?$AAt?$AA_?$AAb?$AAl?$AAd?$AA?2?$AAs?$AAe?$AAl?$AAf?$AA_?$AAx?$AA8?$AA6?$AA?2?$AAc@ 100963a8     LIBCMTD:ftelli64.obj
 0002:00010410       ??_C@_1FE@CEHLKAHD@?$AAi?$AAb?$AAa?$AAs?$AAe?$AA?5?$AA?$DN?$AA?$DN?$AA?5?$AA0?$AA?5?$AA?$HM?$AA?$HM?$AA?5?$AA?$CI?$AA2?$AA?5?$AA?$DM?$AA?$DN?$AA?5?$AAi?$AAb?$AAa?$AAs?$AAe?$AA?5?$AA?$CG?$AA?$CG?$AA?5?$AAi?$AAb?$AAa@ 10096410     LIBCMTD:strtol.obj
 0002:00010464       ??_C@_1BA@LOLAMAJG@?$AAs?$AAt?$AAr?$AAt?$AAo?$AAx?$AAl?$AA?$AA@ 10096464     LIBCMTD:strtol.obj
 0002:00010478       ??_C@_1GA@IPHKKOEI@?$AAf?$AA?3?$AA?2?$AAd?$AAd?$AA?2?$AAv?$AAc?$AAt?$AAo?$AAo?$AAl?$AAs?$AA?2?$AAc?$AAr?$AAt?$AA_?$AAb?$AAl?$AAd?$AA?2?$AAs?$AAe?$AAl?$AAf?$AA_?$AAx?$AA8?$AA6?$AA?2?$AAc@ 10096478     LIBCMTD:strtol.obj
 0002:000104d8       ??_C@_1BK@LAOAACLJ@?$AAn?$AAp?$AAt?$AAr?$AA?5?$AA?$CB?$AA?$DN?$AA?5?$AAN?$AAU?$AAL?$AAL?$AA?$AA@ 100964d8     LIBCMTD:strtol.obj
 0002:000104f4       ??_C@_1BA@BMMDEPNE@?$AAs?$AAt?$AAr?$AAt?$AAo?$AAx?$AAq?$AA?$AA@ 100964f4     LIBCMTD:strtoq.obj
 0002:00010508       ??_C@_1GA@GIMEIKLC@?$AAf?$AA?3?$AA?2?$AAd?$AAd?$AA?2?$AAv?$AAc?$AAt?$AAo?$AAo?$AAl?$AAs?$AA?2?$AAc?$AAr?$AAt?$AA_?$AAb?$AAl?$AAd?$AA?2?$AAs?$AAe?$AAl?$AAf?$AA_?$AAx?$AA8?$AA6?$AA?2?$AAc@ 10096508     LIBCMTD:strtoq.obj
 0002:00010568       ??_C@_1DE@MMOGFGHF@?$AAs?$AAt?$AAr?$AAc?$AAp?$AAy?$AA_?$AAs?$AA?$CI?$AA?$CK?$AAe?$AAn?$AAv?$AA?0?$AA?5?$AAc?$AAc?$AAh?$AAa?$AAr?$AAs?$AA?0?$AA?5?$AAp?$AA?$CJ?$AA?$AA@ 10096568     LIBCMTD:stdenvp.obj
 0002:0001059c       ??_C@_1BC@GHMCNHHL@?$AA_?$AAs?$AAe?$AAt?$AAe?$AAn?$AAv?$AAp?$AA?$AA@ 1009659c     LIBCMTD:stdenvp.obj
 0002:000105b0       ??_C@_1GC@DGBFLDBN@?$AAf?$AA?3?$AA?2?$AAd?$AAd?$AA?2?$AAv?$AAc?$AAt?$AAo?$AAo?$AAl?$AAs?$AA?2?$AAc?$AAr?$AAt?$AA_?$AAb?$AAl?$AAd?$AA?2?$AAs?$AAe?$AAl?$AAf?$AA_?$AAx?$AA8?$AA6?$AA?2?$AAc@ 100965b0     LIBCMTD:stdenvp.obj
 0002:00010614       ??_C@_0DB@BMEBJJKP@f?3?2dd?2vctools?2crt_bld?2self_x86?2c@ 10096614     LIBCMTD:stdenvp.obj
 0002:00010648       ??_C@_0DB@OEPBJOLC@f?3?2dd?2vctools?2crt_bld?2self_x86?2c@ 10096648     LIBCMTD:stdargv.obj
 0002:0001067c       ??_C@_0CP@PPLBCJDN@f?3?2dd?2vctools?2crt_bld?2self_x86?2c@ 1009667c     LIBCMTD:a_env.obj
 0002:000106b0       ??_C@_1GE@JDDMFOID@?$AAf?$AA?3?$AA?2?$AAd?$AAd?$AA?2?$AAv?$AAc?$AAt?$AAo?$AAo?$AAl?$AAs?$AA?2?$AAc?$AAr?$AAt?$AA_?$AAb?$AAl?$AAd?$AA?2?$AAs?$AAe?$AAl?$AAf?$AA_?$AAx?$AA8?$AA6?$AA?2?$AAc@ 100966b0     LIBCMTD:heapinit.obj
 0002:00010714       ??_C@_1BC@DENNNKIM@?$AA_?$AAc?$AAr?$AAt?$AAh?$AAe?$AAa?$AAp?$AA?$AA@ 10096714     LIBCMTD:heapinit.obj
 0002:00010728       __XcptActTab               10096728     LIBCMTD:winxfltr.obj
 0002:000107b8       __First_FPE_Indx           100967b8     LIBCMTD:winxfltr.obj
 0002:000107bc       __Num_FPE                  100967bc     LIBCMTD:winxfltr.obj
 0002:000107c0       __XcptActTabSize           100967c0     LIBCMTD:winxfltr.obj
 0002:000107c4       __XcptActTabCount          100967c4     LIBCMTD:winxfltr.obj
 0002:000107e8       ??_C@_1CI@KEDPFCAL@?$AA?$CI?$AA?$CK?$AAm?$AAo?$AAd?$AAe?$AA?5?$AA?$DN?$AA?$DN?$AA?5?$AA_?$AAT?$AA?$CI?$AA?8?$AA?2?$AA0?$AA?8?$AA?$CJ?$AA?$CJ?$AA?$AA@ 100967e8     LIBCMTD:_open.obj
 0002:00010810       ??_C@_1BE@DONHJJKE@?$AA_?$AAo?$AAp?$AAe?$AAn?$AAf?$AAi?$AAl?$AAe?$AA?$AA@ 10096810     LIBCMTD:_open.obj
 0002:00010824       ??_C@_1DK@PKMJBLLN@?$AA?$CI?$AA?$CC?$AAI?$AAn?$AAv?$AAa?$AAl?$AAi?$AAd?$AA?5?$AAf?$AAi?$AAl?$AAe?$AA?5?$AAo?$AAp?$AAe?$AAn?$AA?5?$AAm?$AAo?$AAd?$AAe?$AA?$CC?$AA?0?$AA0?$AA?$CJ?$AA?$AA@ 10096824     LIBCMTD:_open.obj
 0002:00010860       ??_C@_1BK@HGLMNMEC@?$AAm?$AAo?$AAd?$AAe?$AA?5?$AA?$CB?$AA?$DN?$AA?5?$AAN?$AAU?$AAL?$AAL?$AA?$AA@ 10096860     LIBCMTD:_open.obj
 0002:00010880       ??_C@_1FO@POGAHKND@?$AAf?$AA?3?$AA?2?$AAd?$AAd?$AA?2?$AAv?$AAc?$AAt?$AAo?$AAo?$AAl?$AAs?$AA?2?$AAc?$AAr?$AAt?$AA_?$AAb?$AAl?$AAd?$AA?2?$AAs?$AAe?$AAl?$AAf?$AA_?$AAx?$AA8?$AA6?$AA?2?$AAc@ 10096880     LIBCMTD:_open.obj
 0002:000108e0       ??_C@_1CC@JBMDNKJP@?$AAf?$AAi?$AAl?$AAe?$AAn?$AAa?$AAm?$AAe?$AA?5?$AA?$CB?$AA?$DN?$AA?5?$AAN?$AAU?$AAL?$AAL?$AA?$AA@ 100968e0     LIBCMTD:_open.obj
 0002:00010904       ??_C@_0DA@NLPACBPK@f?3?2dd?2vctools?2crt_bld?2self_x86?2c@ 10096904     LIBCMTD:stream.obj
 0002:000109a0       ??_C@_05EOHGHCHD@exp10?$AA@ 100969a0     LIBCMTD:_libm_error_.obj
 0002:000109a8       ??_C@_1BK@CDOALEA@?$AA_?$AAc?$AAo?$AAn?$AAt?$AAr?$AAo?$AAl?$AAf?$AAp?$AA_?$AAs?$AA?$AA@ 100969a8     LIBCMTD:_contrlfp_.obj
 0002:000109c8       ??_C@_1HI@JIOCECAH@?$AAf?$AA?3?$AA?2?$AAd?$AAd?$AA?2?$AAv?$AAc?$AAt?$AAo?$AAo?$AAl?$AAs?$AA?2?$AAc?$AAr?$AAt?$AA_?$AAb?$AAl?$AAd?$AA?2?$AAs?$AAe?$AAl?$AAf?$AA_?$AAx?$AA8?$AA6?$AA?2?$AAc@ 100969c8     LIBCMTD:_contrlfp_.obj
 0002:00010a40       ??_C@_1DG@JNDMIEJL@?$AA?$CI?$AA?$CC?$AAI?$AAn?$AAv?$AAa?$AAl?$AAi?$AAd?$AA?5?$AAi?$AAn?$AAp?$AAu?$AAt?$AA?5?$AAv?$AAa?$AAl?$AAu?$AAe?$AA?$CC?$AA?0?$AA?5?$AA0?$AA?$CJ?$AA?$AA@ 10096a40     LIBCMTD:_contrlfp_.obj
 0002:00010a78       ??_C@_1BK@CLIEHFDF@?$AAp?$AAf?$AAl?$AAt?$AA?5?$AA?$CB?$AA?$DN?$AA?5?$AAN?$AAU?$AAL?$AAL?$AA?$AA@ 10096a78     LIBCMTD:_fptostr.obj
 0002:00010a98       ??_C@_1GM@CEDLGDDI@?$AAs?$AAi?$AAz?$AAe?$AAI?$AAn?$AAB?$AAy?$AAt?$AAe?$AAs?$AA?5?$AA?$DO?$AA?5?$AA?$CI?$AAs?$AAi?$AAz?$AAe?$AA_?$AAt?$AA?$CJ?$AA?$CI?$AA?$CI?$AAd?$AAi?$AAg?$AAi?$AAt?$AAs?$AA?5?$AA?$DO@ 10096a98     LIBCMTD:_fptostr.obj
 0002:00010b04       ??_C@_1BC@OPALLEB@?$AA_?$AAf?$AAp?$AAt?$AAo?$AAs?$AAt?$AAr?$AA?$AA@ 10096b04     LIBCMTD:_fptostr.obj
 0002:00010b18       ??_C@_1GE@BDKOPHIO@?$AAf?$AA?3?$AA?2?$AAd?$AAd?$AA?2?$AAv?$AAc?$AAt?$AAo?$AAo?$AAl?$AAs?$AA?2?$AAc?$AAr?$AAt?$AA_?$AAb?$AAl?$AAd?$AA?2?$AAs?$AAe?$AAl?$AAf?$AA_?$AAx?$AA8?$AA6?$AA?2?$AAc@ 10096b18     LIBCMTD:_fptostr.obj
 0002:00010b80       ??_C@_1FK@KODCOBKF@?$AAs?$AAt?$AAr?$AAc?$AAp?$AAy?$AA_?$AAs?$AA?$CI?$AAr?$AAe?$AAs?$AAu?$AAl?$AAt?$AAs?$AAt?$AAr?$AA?0?$AA?5?$AAr?$AAe?$AAs?$AAu?$AAl?$AAt?$AAs?$AAi?$AAz?$AAe?$AA?0?$AA?5@ 10096b80     LIBCMTD:_cfout_.obj
 0002:00010bdc       ??_C@_1BC@BPMMEHLK@?$AA_?$AAf?$AAl?$AAt?$AAo?$AAu?$AAt?$AA2?$AA?$AA@ 10096bdc     LIBCMTD:_cfout_.obj
 0002:00010bf0       ??_C@_1HC@PKFDNKN@?$AAf?$AA?3?$AA?2?$AAd?$AAd?$AA?2?$AAv?$AAc?$AAt?$AAo?$AAo?$AAl?$AAs?$AA?2?$AAc?$AAr?$AAt?$AA_?$AAb?$AAl?$AAd?$AA?2?$AAs?$AAe?$AAl?$AAf?$AA_?$AAx?$AA8?$AA6?$AA?2?$AAc@ 10096bf0     LIBCMTD:_cfout_.obj
 0002:00010c64       ??_C@_1CG@EBJECAJM@?$AA_?$AAs?$AAe?$AAt?$AA_?$AAo?$AAu?$AAt?$AAp?$AAu?$AAt?$AA_?$AAf?$AAo?$AAr?$AAm?$AAa?$AAt?$AA?$AA@ 10096c64     LIBCMTD:outputformat.obj
 0002:00010c90       ??_C@_1GM@NFGGJJCM@?$AAf?$AA?3?$AA?2?$AAd?$AAd?$AA?2?$AAv?$AAc?$AAt?$AAo?$AAo?$AAl?$AAs?$AA?2?$AAc?$AAr?$AAt?$AA_?$AAb?$AAl?$AAd?$AA?2?$AAs?$AAe?$AAl?$AAf?$AA_?$AAx?$AA8?$AA6?$AA?2?$AAc@ 10096c90     LIBCMTD:outputformat.obj
 0002:00010d00       ??_C@_1EM@EGEEBJLG@?$AA?$CI?$AAo?$AAp?$AAt?$AAi?$AAo?$AAn?$AAs?$AA?5?$AA?$CG?$AA?5?$AA?$HO?$AA_?$AAT?$AAW?$AAO?$AA_?$AAD?$AAI?$AAG?$AAI?$AAT?$AA_?$AAE?$AAX?$AAP?$AAO?$AAN?$AAE?$AAN?$AAT?$AA?$CJ@ 10096d00     LIBCMTD:outputformat.obj
 0002:00010d4c       ??_C@_1BC@CFJEPFGF@?$AAs?$AAt?$AAr?$AAc?$AAp?$AAy?$AA_?$AAs?$AA?$AA@ 10096d4c     LIBCMTD:strcpy_s.obj
 0002:00010d60       ??_C@_1FC@NCPEPIBI@?$AA?$CI?$AA?$CI?$AA_?$AAD?$AAs?$AAt?$AA?$CJ?$AA?$CJ?$AA?5?$AA?$CB?$AA?$DN?$AA?5?$AAN?$AAU?$AAL?$AAL?$AA?5?$AA?$CG?$AA?$CG?$AA?5?$AA?$CI?$AA?$CI?$AA_?$AAS?$AAi?$AAz?$AAe?$AAI?$AAn?$AAB?$AAy?$AAt@ 10096d60     LIBCMTD:strcpy_s.obj
 0002:00010db4       ??_C@_03KHICJKCI@?4?4?4?$AA@ 10096db4     LIBCMTD:dbgrpt.obj
 0002:00010db8       ??_C@_0BB@NAGLCMLI@Assertion?5Failed?$AA@ 10096db8     LIBCMTD:dbgrpt.obj
 0002:00010dcc       ??_C@_05NAOIJFC@Error?$AA@ 10096dcc     LIBCMTD:dbgrpt.obj
 0002:00010dd4       ??_C@_07KGMMFLDN@Warning?$AA@ 10096dd4     LIBCMTD:dbgrpt.obj
 0002:00010de8       ??_C@_1CG@GNMJDMIO@?$AA_?$AAC?$AAr?$AAt?$AAS?$AAe?$AAt?$AAR?$AAe?$AAp?$AAo?$AAr?$AAt?$AAH?$AAo?$AAo?$AAk?$AA2?$AA?$AA@ 10096de8     LIBCMTD:dbgrpt.obj
 0002:00010e10       ??_C@_0CD@EBCGLDDL@Microsoft?5Visual?5C?$CL?$CL?5Debug?5Libra@ 10096e10     LIBCMTD:dbgrpt.obj
 0002:00010e34       ??_C@_0CL@EACFGMNB@_CrtDbgReport?3?5String?5too?5long?5o@ 10096e34     LIBCMTD:dbgrpt.obj
 0002:00010e60       ??_C@_1JG@CPKCIOEE@?$AAs?$AAt?$AAr?$AAc?$AAp?$AAy?$AA_?$AAs?$AA?$CI?$AAs?$AAz?$AAO?$AAu?$AAt?$AAM?$AAe?$AAs?$AAs?$AAa?$AAg?$AAe?$AA?0?$AA?5?$AA4?$AA0?$AA9?$AA6?$AA?0?$AA?5?$AA?$CC?$AA_?$AAC@ 10096e60     LIBCMTD:dbgrpt.obj
 0002:00010ef8       ??_C@_0FF@CCONDJCB@Debug?5?$CFs?$CB?6?6Program?3?5?$CFs?$CFs?$CFs?$CFs?$CFs?$CFs@ 10096ef8     LIBCMTD:dbgrpt.obj
 0002:00010f50       ??_C@_09OFBFHMBK@?6Module?3?5?$AA@ 10096f50     LIBCMTD:dbgrpt.obj
 0002:00010f5c       ??_C@_07OPHPPLBG@?6File?3?5?$AA@ 10096f5c     LIBCMTD:dbgrpt.obj
 0002:00010f64       ??_C@_07DBMPPHDI@?6Line?3?5?$AA@ 10096f64     LIBCMTD:dbgrpt.obj
 0002:00010f6c       ??_C@_02PHMGELLB@?6?6?$AA@ 10096f6c     LIBCMTD:dbgrpt.obj
 0002:00010f70       ??_C@_0N@MEECIJGN@Expression?3?5?$AA@ 10096f70     LIBCMTD:dbgrpt.obj
 0002:00010f80       ??_C@_0HD@GNBNFCCL@?6?6For?5information?5on?5how?5your?5pr@ 10096f80     LIBCMTD:dbgrpt.obj
 0002:00010ff4       ??_C@_0BH@DNAGHKFM@?$DMprogram?5name?5unknown?$DO?$AA@ 10096ff4     LIBCMTD:dbgrpt.obj
 0002:00011010       ??_C@_1GG@DLDHOIGE@?$AAs?$AAt?$AAr?$AAc?$AAp?$AAy?$AA_?$AAs?$AA?$CI?$AAs?$AAz?$AAE?$AAx?$AAe?$AAN?$AAa?$AAm?$AAe?$AA?0?$AA?5?$AA2?$AA6?$AA0?$AA?0?$AA?5?$AA?$CC?$AA?$DM?$AAp?$AAr?$AAo?$AAg?$AAr@ 10097010     LIBCMTD:dbgrpt.obj
 0002:00011078       ??_C@_1CI@IDOKFLAJ@?$AA_?$AA_?$AAc?$AAr?$AAt?$AAM?$AAe?$AAs?$AAs?$AAa?$AAg?$AAe?$AAW?$AAi?$AAn?$AAd?$AAo?$AAw?$AAA?$AA?$AA@ 10097078     LIBCMTD:dbgrpt.obj
 0002:000110d8       ??_C@_01KDCPPGHE@r?$AA@    100970d8     LIBCMTD:_pdblkup_.obj
 0002:000110dc       ??_C@_0BB@KCIACLNC@PDBOpenValidate5?$AA@ 100970dc     LIBCMTD:_pdblkup_.obj
 0002:000110f0       ??_C@_1CK@HHHCOJPD@?$AAE?$AAn?$AAv?$AAi?$AAr?$AAo?$AAn?$AAm?$AAe?$AAn?$AAt?$AAD?$AAi?$AAr?$AAe?$AAc?$AAt?$AAo?$AAr?$AAy?$AA?$AA@ 100970f0     LIBCMTD:_pdblkup_.obj
 0002:00011120       ??_C@_1FM@DNCABAP@?$AAS?$AAO?$AAF?$AAT?$AAW?$AAA?$AAR?$AAE?$AA?2?$AAM?$AAi?$AAc?$AAr?$AAo?$AAs?$AAo?$AAf?$AAt?$AA?2?$AAV?$AAi?$AAs?$AAu?$AAa?$AAl?$AAS?$AAt?$AAu?$AAd?$AAi?$AAo?$AA?2@ 10097120     LIBCMTD:_pdblkup_.obj
 0002:0001117c       ??_C@_0M@HLOHPNFA@RegCloseKey?$AA@ 1009717c     LIBCMTD:_pdblkup_.obj
 0002:00011188       ??_C@_0BB@GLNAEDBD@RegQueryValueExW?$AA@ 10097188     LIBCMTD:_pdblkup_.obj
 0002:0001119c       ??_C@_0O@COHOBMLB@RegOpenKeyExW?$AA@ 1009719c     LIBCMTD:_pdblkup_.obj
 0002:000111ac       ??_C@_1BK@GAEMIDIL@?$AAA?$AAD?$AAV?$AAA?$AAP?$AAI?$AA3?$AA2?$AA?4?$AAD?$AAL?$AAL?$AA?$AA@ 100971ac     LIBCMTD:_pdblkup_.obj
 0002:000111e8       __atan_table               100971e8     LIBCMTD:_atan_table_.obj
 0002:000129f8       ??_C@_0DA@HMCPFNKN@f?3?2dd?2vctools?2crt_bld?2self_x86?2c@ 100989f8     LIBCMTD:onexit.obj
 0002:00012a28       ??_C@_1BO@BKOMIGKJ@?$AAr?$AAu?$AAn?$AAt?$AAi?$AAm?$AAe?$AA?5?$AAe?$AAr?$AAr?$AAo?$AAr?$AA?5?$AA?$AA@ 10098a28     LIBCMTD:crt0msg.obj
 0002:00012a48       ??_C@_15JNBOKNOG@?$AA?$AN?$AA?6?$AA?$AA@ 10098a48     LIBCMTD:crt0msg.obj
 0002:00012a50       ??_C@_1BM@JBBEPPHI@?$AAT?$AAL?$AAO?$AAS?$AAS?$AA?5?$AAe?$AAr?$AAr?$AAo?$AAr?$AA?$AN?$AA?6?$AA?$AA@ 10098a50     LIBCMTD:crt0msg.obj
 0002:00012a6c       ??_C@_1BK@KMOMNAAI@?$AAS?$AAI?$AAN?$AAG?$AA?5?$AAe?$AAr?$AAr?$AAo?$AAr?$AA?$AN?$AA?6?$AA?$AA@ 10098a6c     LIBCMTD:crt0msg.obj
 0002:00012a88       ??_C@_1BO@BFCDCGC@?$AAD?$AAO?$AAM?$AAA?$AAI?$AAN?$AA?5?$AAe?$AAr?$AAr?$AAo?$AAr?$AA?$AN?$AA?6?$AA?$AA@ 10098a88     LIBCMTD:crt0msg.obj
 0002:00012aa8       ??_C@_1BOO@KGEDBGAJ@?$AAR?$AA6?$AA0?$AA3?$AA3?$AA?$AN?$AA?6?$AA?9?$AA?5?$AAA?$AAt?$AAt?$AAe?$AAm?$AAp?$AAt?$AA?5?$AAt?$AAo?$AA?5?$AAu?$AAs?$AAe?$AA?5?$AAM?$AAS?$AAI?$AAL?$AA?5?$AAc?$AAo?$AAd@ 10098aa8     LIBCMTD:crt0msg.obj
 0002:00012c98       ??_C@_1GG@GOPILAJP@?$AAR?$AA6?$AA0?$AA3?$AA2?$AA?$AN?$AA?6?$AA?9?$AA?5?$AAn?$AAo?$AAt?$AA?5?$AAe?$AAn?$AAo?$AAu?$AAg?$AAh?$AA?5?$AAs?$AAp?$AAa?$AAc?$AAe?$AA?5?$AAf?$AAo?$AAr?$AA?5?$AAl?$AAo@ 10098c98     LIBCMTD:crt0msg.obj
 0002:00012d00       ??_C@_1MG@ENCOOIDF@?$AAR?$AA6?$AA0?$AA3?$AA1?$AA?$AN?$AA?6?$AA?9?$AA?5?$AAA?$AAt?$AAt?$AAe?$AAm?$AAp?$AAt?$AA?5?$AAt?$AAo?$AA?5?$AAi?$AAn?$AAi?$AAt?$AAi?$AAa?$AAl?$AAi?$AAz?$AAe?$AA?5?$AAt@ 10098d00     LIBCMTD:crt0msg.obj
 0002:00012dc8       ??_C@_1DO@BMFCDCD@?$AAR?$AA6?$AA0?$AA3?$AA0?$AA?$AN?$AA?6?$AA?9?$AA?5?$AAC?$AAR?$AAT?$AA?5?$AAn?$AAo?$AAt?$AA?5?$AAi?$AAn?$AAi?$AAt?$AAi?$AAa?$AAl?$AAi?$AAz?$AAe?$AAd?$AA?$AN?$AA?6?$AA?$AA@ 10098dc8     LIBCMTD:crt0msg.obj
 0002:00012e08       ??_C@_1EK@HHFLMAOL@?$AAR?$AA6?$AA0?$AA2?$AA8?$AA?$AN?$AA?6?$AA?9?$AA?5?$AAu?$AAn?$AAa?$AAb?$AAl?$AAe?$AA?5?$AAt?$AAo?$AA?5?$AAi?$AAn?$AAi?$AAt?$AAi?$AAa?$AAl?$AAi?$AAz?$AAe?$AA?5?$AAh?$AAe@ 10098e08     LIBCMTD:crt0msg.obj
 0002:00012e58       ??_C@_1GK@MFGOKLAG@?$AAR?$AA6?$AA0?$AA2?$AA7?$AA?$AN?$AA?6?$AA?9?$AA?5?$AAn?$AAo?$AAt?$AA?5?$AAe?$AAn?$AAo?$AAu?$AAg?$AAh?$AA?5?$AAs?$AAp?$AAa?$AAc?$AAe?$AA?5?$AAf?$AAo?$AAr?$AA?5?$AAl?$AAo@ 10098e58     LIBCMTD:crt0msg.obj
 0002:00012ec8       ??_C@_1GK@MCAAGJMO@?$AAR?$AA6?$AA0?$AA2?$AA6?$AA?$AN?$AA?6?$AA?9?$AA?5?$AAn?$AAo?$AAt?$AA?5?$AAe?$AAn?$AAo?$AAu?$AAg?$AAh?$AA?5?$AAs?$AAp?$AAa?$AAc?$AAe?$AA?5?$AAf?$AAo?$AAr?$AA?5?$AAs?$AAt@ 10098ec8     LIBCMTD:crt0msg.obj
 0002:00012f38       ??_C@_1EM@MAADIHMB@?$AAR?$AA6?$AA0?$AA2?$AA5?$AA?$AN?$AA?6?$AA?9?$AA?5?$AAp?$AAu?$AAr?$AAe?$AA?5?$AAv?$AAi?$AAr?$AAt?$AAu?$AAa?$AAl?$AA?5?$AAf?$AAu?$AAn?$AAc?$AAt?$AAi?$AAo?$AAn?$AA?5?$AAc@ 10098f38     LIBCMTD:crt0msg.obj
 0002:00012f88       ??_C@_1GK@FHCKBEFA@?$AAR?$AA6?$AA0?$AA2?$AA4?$AA?$AN?$AA?6?$AA?9?$AA?5?$AAn?$AAo?$AAt?$AA?5?$AAe?$AAn?$AAo?$AAu?$AAg?$AAh?$AA?5?$AAs?$AAp?$AAa?$AAc?$AAe?$AA?5?$AAf?$AAo?$AAr?$AA?5?$AA_?$AAo@ 10098f88     LIBCMTD:crt0msg.obj
 0002:00012ff8       ??_C@_1FC@ECHBIFBC@?$AAR?$AA6?$AA0?$AA1?$AA9?$AA?$AN?$AA?6?$AA?9?$AA?5?$AAu?$AAn?$AAa?$AAb?$AAl?$AAe?$AA?5?$AAt?$AAo?$AA?5?$AAo?$AAp?$AAe?$AAn?$AA?5?$AAc?$AAo?$AAn?$AAs?$AAo?$AAl?$AAe?$AA?5@ 10098ff8     LIBCMTD:crt0msg.obj
 0002:00013050       ??_C@_1EC@JIBHAOPH@?$AAR?$AA6?$AA0?$AA1?$AA8?$AA?$AN?$AA?6?$AA?9?$AA?5?$AAu?$AAn?$AAe?$AAx?$AAp?$AAe?$AAc?$AAt?$AAe?$AAd?$AA?5?$AAh?$AAe?$AAa?$AAp?$AA?5?$AAe?$AAr?$AAr?$AAo?$AAr?$AA?$AN?$AA?6@ 10099050     LIBCMTD:crt0msg.obj
 0002:00013098       ??_C@_1FK@BEOGODMC@?$AAR?$AA6?$AA0?$AA1?$AA7?$AA?$AN?$AA?6?$AA?9?$AA?5?$AAu?$AAn?$AAe?$AAx?$AAp?$AAe?$AAc?$AAt?$AAe?$AAd?$AA?5?$AAm?$AAu?$AAl?$AAt?$AAi?$AAt?$AAh?$AAr?$AAe?$AAa?$AAd?$AA?5@ 10099098     LIBCMTD:crt0msg.obj
 0002:000130f8       ??_C@_1FI@LOGNIKDM@?$AAR?$AA6?$AA0?$AA1?$AA6?$AA?$AN?$AA?6?$AA?9?$AA?5?$AAn?$AAo?$AAt?$AA?5?$AAe?$AAn?$AAo?$AAu?$AAg?$AAh?$AA?5?$AAs?$AAp?$AAa?$AAc?$AAe?$AA?5?$AAf?$AAo?$AAr?$AA?5?$AAt?$AAh@ 100990f8     LIBCMTD:crt0msg.obj
 0002:00013150       ??_C@_1EG@BEHAGFJD@?$AAR?$AA6?$AA0?$AA1?$AA0?$AA?$AN?$AA?6?$AA?9?$AA?5?$AAa?$AAb?$AAo?$AAr?$AAt?$AA?$CI?$AA?$CJ?$AA?5?$AAh?$AAa?$AAs?$AA?5?$AAb?$AAe?$AAe?$AAn?$AA?5?$AAc?$AAa?$AAl?$AAl?$AAe?$AAd@ 10099150     LIBCMTD:crt0msg.obj
 0002:00013198       ??_C@_1FI@HONFMGBI@?$AAR?$AA6?$AA0?$AA0?$AA9?$AA?$AN?$AA?6?$AA?9?$AA?5?$AAn?$AAo?$AAt?$AA?5?$AAe?$AAn?$AAo?$AAu?$AAg?$AAh?$AA?5?$AAs?$AAp?$AAa?$AAc?$AAe?$AA?5?$AAf?$AAo?$AAr?$AA?5?$AAe?$AAn@ 10099198     LIBCMTD:crt0msg.obj
 0002:000131f0       ??_C@_1FE@LLNEDJMD@?$AAR?$AA6?$AA0?$AA0?$AA8?$AA?$AN?$AA?6?$AA?9?$AA?5?$AAn?$AAo?$AAt?$AA?5?$AAe?$AAn?$AAo?$AAu?$AAg?$AAh?$AA?5?$AAs?$AAp?$AAa?$AAc?$AAe?$AA?5?$AAf?$AAo?$AAr?$AA?5?$AAa?$AAr@ 100991f0     LIBCMTD:crt0msg.obj
 0002:00013248       ??_C@_1FK@PGACCAFB@?$AAR?$AA6?$AA0?$AA0?$AA2?$AA?$AN?$AA?6?$AA?9?$AA?5?$AAf?$AAl?$AAo?$AAa?$AAt?$AAi?$AAn?$AAg?$AA?5?$AAp?$AAo?$AAi?$AAn?$AAt?$AA?5?$AAs?$AAu?$AAp?$AAp?$AAo?$AAr?$AAt?$AA?5@ 10099248     LIBCMTD:crt0msg.obj
 0002:00013358       ??_C@_1IG@NMONDPP@?$AAw?$AAc?$AAs?$AAc?$AAa?$AAt?$AA_?$AAs?$AA?$CI?$AAo?$AAu?$AAt?$AAm?$AAs?$AAg?$AA?0?$AA?5?$AA?$CI?$AAs?$AAi?$AAz?$AAe?$AAo?$AAf?$AA?$CI?$AAo?$AAu?$AAt?$AAm?$AAs?$AAg?$AA?$CJ@ 10099358     LIBCMTD:crt0msg.obj
 0002:000133e0       ??_C@_1IA@DCJGKHFO@?$AAw?$AAc?$AAs?$AAc?$AAa?$AAt?$AA_?$AAs?$AA?$CI?$AAo?$AAu?$AAt?$AAm?$AAs?$AAg?$AA?0?$AA?5?$AA?$CI?$AAs?$AAi?$AAz?$AAe?$AAo?$AAf?$AA?$CI?$AAo?$AAu?$AAt?$AAm?$AAs?$AAg?$AA?$CJ@ 100993e0     LIBCMTD:crt0msg.obj
 0002:00013460       ??_C@_1HI@FLHKGEBE@?$AAw?$AAc?$AAs?$AAn?$AAc?$AAp?$AAy?$AA_?$AAs?$AA?$CI?$AAp?$AAc?$AAh?$AA?0?$AA?5?$AAp?$AAr?$AAo?$AAg?$AAn?$AAa?$AAm?$AAe?$AA_?$AAs?$AAi?$AAz?$AAe?$AA?5?$AA?9?$AA?5?$AA?$CI@ 10099460     LIBCMTD:crt0msg.obj
 0002:000134d8       ??_C@_1HK@FJJNAABO@?$AAw?$AAc?$AAs?$AAc?$AAp?$AAy?$AA_?$AAs?$AA?$CI?$AAp?$AAr?$AAo?$AAg?$AAn?$AAa?$AAm?$AAe?$AA?0?$AA?5?$AAp?$AAr?$AAo?$AAg?$AAn?$AAa?$AAm?$AAe?$AA_?$AAs?$AAi?$AAz?$AAe@ 100994d8     LIBCMTD:crt0msg.obj
 0002:00013554       ??_C@_1DE@JNGNBFGO@?$AAR?$AAu?$AAn?$AAt?$AAi?$AAm?$AAe?$AA?5?$AAE?$AAr?$AAr?$AAo?$AAr?$AA?$CB?$AA?6?$AA?6?$AAP?$AAr?$AAo?$AAg?$AAr?$AAa?$AAm?$AA?3?$AA?5?$AA?$AA@ 10099554     LIBCMTD:crt0msg.obj
 0002:00013588       ??_C@_1KO@BKLCKNFL@?$AAw?$AAc?$AAs?$AAc?$AAp?$AAy?$AA_?$AAs?$AA?$CI?$AAo?$AAu?$AAt?$AAm?$AAs?$AAg?$AA?0?$AA?5?$AA?$CI?$AAs?$AAi?$AAz?$AAe?$AAo?$AAf?$AA?$CI?$AAo?$AAu?$AAt?$AAm?$AAs?$AAg?$AA?$CJ@ 10099588     LIBCMTD:crt0msg.obj
 0002:00013638       ??_C@_1BI@EAHMBMEC@?$AA_?$AAN?$AAM?$AAS?$AAG?$AA_?$AAW?$AAR?$AAI?$AAT?$AAE?$AA?$AA@ 10099638     LIBCMTD:crt0msg.obj
 0002:00013650       ??_C@_1GC@HKOJBOFF@?$AAf?$AA?3?$AA?2?$AAd?$AAd?$AA?2?$AAv?$AAc?$AAt?$AAo?$AAo?$AAl?$AAs?$AA?2?$AAc?$AAr?$AAt?$AA_?$AAb?$AAl?$AAd?$AA?2?$AAs?$AAe?$AAl?$AAf?$AA_?$AAx?$AA8?$AA6?$AA?2?$AAc@ 10099650     LIBCMTD:crt0msg.obj
 0002:000136b4       ??_C@_0CP@MKONOLCI@f?3?2dd?2vctools?2crt_bld?2self_x86?2c@ 100996b4     LIBCMTD:mlock.obj
 0002:000136e4       ??_C@_0BC@JEAENNKH@SystemFunction036?$AA@ 100996e4     LIBCMTD:rand_s.obj
 0002:000136f8       ??_C@_1GA@EBEDGGGB@?$AA?$CI?$AA?$CC?$AAr?$AAa?$AAn?$AAd?$AA_?$AAs?$AA?5?$AAi?$AAs?$AA?5?$AAn?$AAo?$AAt?$AA?5?$AAa?$AAv?$AAa?$AAi?$AAl?$AAa?$AAb?$AAl?$AAe?$AA?5?$AAo?$AAn?$AA?5?$AAt?$AAh?$AAi@ 100996f8     LIBCMTD:rand_s.obj
 0002:00013758       ??_C@_1O@IJGPPOGF@?$AAr?$AAa?$AAn?$AAd?$AA_?$AAs?$AA?$AA@ 10099758     LIBCMTD:rand_s.obj
 0002:00013768       ??_C@_1GA@HBGBBKCD@?$AAf?$AA?3?$AA?2?$AAd?$AAd?$AA?2?$AAv?$AAc?$AAt?$AAo?$AAo?$AAl?$AAs?$AA?2?$AAc?$AAr?$AAt?$AA_?$AAb?$AAl?$AAd?$AA?2?$AAs?$AAe?$AAl?$AAf?$AA_?$AAx?$AA8?$AA6?$AA?2?$AAc@ 10099768     LIBCMTD:rand_s.obj
 0002:000137c8       ??_C@_1CK@GFDNDKK@?$AA_?$AAR?$AAa?$AAn?$AAd?$AAo?$AAm?$AAV?$AAa?$AAl?$AAu?$AAe?$AA?5?$AA?$CB?$AA?$DN?$AA?5?$AAN?$AAU?$AAL?$AAL?$AA?$AA@ 100997c8     LIBCMTD:rand_s.obj
 0002:000137f8       ??_C@_1GO@NGIGJNHH@?$AAs?$AAt?$AAr?$AAn?$AAc?$AAp?$AAy?$AA_?$AAs?$AA?$CI?$AA?$CK?$AAs?$AAt?$AAr?$AAa?$AAd?$AAd?$AAr?$AAe?$AAs?$AAs?$AA?0?$AA?5?$AAo?$AAu?$AAt?$AAs?$AAi?$AAz?$AAe?$AA?0?$AA?5@ 100997f8     LIBCMTD:inithelp.obj
 0002:00013868       ??_C@_1CA@KHHCPEI@?$AA_?$AA_?$AAg?$AAe?$AAt?$AAl?$AAo?$AAc?$AAa?$AAl?$AAe?$AAi?$AAn?$AAf?$AAo?$AA?$AA@ 10099868     LIBCMTD:inithelp.obj
 0002:00013888       ??_C@_1GE@PLPIMDHG@?$AAf?$AA?3?$AA?2?$AAd?$AAd?$AA?2?$AAv?$AAc?$AAt?$AAo?$AAo?$AAl?$AAs?$AA?2?$AAc?$AAr?$AAt?$AA_?$AAb?$AAl?$AAd?$AA?2?$AAs?$AAe?$AAl?$AAf?$AA_?$AAx?$AA8?$AA6?$AA?2?$AAc@ 10099888     LIBCMTD:inithelp.obj
 0002:000138ec       ??_C@_0DC@CFDMMFIG@f?3?2dd?2vctools?2crt_bld?2self_x86?2c@ 100998ec     LIBCMTD:inithelp.obj
 0002:00013920       ??_C@_1GG@CDHAPCGF@?$AAf?$AA?3?$AA?2?$AAd?$AAd?$AA?2?$AAv?$AAc?$AAt?$AAo?$AAo?$AAl?$AAs?$AA?2?$AAc?$AAr?$AAt?$AA_?$AAb?$AAl?$AAd?$AA?2?$AAs?$AAe?$AAl?$AAf?$AA_?$AAx?$AA8?$AA6?$AA?2?$AAc@ 10099920     LIBCMTD:handler.obj
 0002:00013988       ??_C@_1BC@JLLICHIC@?$AAp?$AAn?$AAh?$AA?5?$AA?$DN?$AA?$DN?$AA?5?$AA0?$AA?$AA@ 10099988     LIBCMTD:handler.obj
 0002:0001399c       ??_C@_1DG@LNNHNFHJ@?$AA?$CI?$AA_?$AAo?$AAs?$AAf?$AAi?$AAl?$AAe?$AA?$CI?$AAf?$AAi?$AAl?$AAe?$AAd?$AAe?$AAs?$AA?$CJ?$AA?5?$AA?$CG?$AA?5?$AAF?$AAO?$AAP?$AAE?$AAN?$AA?$CJ?$AA?$AA@ 1009999c     LIBCMTD:commit.obj
 0002:000139d4       ??_C@_1BA@FLNMBBIM@?$AA_?$AAc?$AAo?$AAm?$AAm?$AAi?$AAt?$AA?$AA@ 100999d4     LIBCMTD:commit.obj
 0002:000139e8       ??_C@_1GA@BOPCOCFN@?$AAf?$AA?3?$AA?2?$AAd?$AAd?$AA?2?$AAv?$AAc?$AAt?$AAo?$AAo?$AAl?$AAs?$AA?2?$AAc?$AAr?$AAt?$AA_?$AAb?$AAl?$AAd?$AA?2?$AAs?$AAe?$AAl?$AAf?$AA_?$AAx?$AA8?$AA6?$AA?2?$AAc@ 100999e8     LIBCMTD:commit.obj
 0002:00013a48       ??_C@_1HC@KFLBHHBC@?$AA?$CI?$AAf?$AAi?$AAl?$AAe?$AAd?$AAe?$AAs?$AA?5?$AA?$DO?$AA?$DN?$AA?5?$AA0?$AA?5?$AA?$CG?$AA?$CG?$AA?5?$AA?$CI?$AAu?$AAn?$AAs?$AAi?$AAg?$AAn?$AAe?$AAd?$AA?$CJ?$AAf?$AAi?$AAl?$AAe?$AAd@ 10099a48     LIBCMTD:commit.obj
 0002:00013abc       ??_C@_1O@KOFKDHPL@?$AA_?$AAw?$AAr?$AAi?$AAt?$AAe?$AA?$AA@ 10099abc     LIBCMTD:write.obj
 0002:00013ad0       ??_C@_1FO@EPLDPDDL@?$AAf?$AA?3?$AA?2?$AAd?$AAd?$AA?2?$AAv?$AAc?$AAt?$AAo?$AAo?$AAl?$AAs?$AA?2?$AAc?$AAr?$AAt?$AA_?$AAb?$AAl?$AAd?$AA?2?$AAs?$AAe?$AAl?$AAf?$AA_?$AAx?$AA8?$AA6?$AA?2?$AAc@ 10099ad0     LIBCMTD:write.obj
 0002:00013b30       ??_C@_1DI@CNMHHHLG@?$AAi?$AAs?$AAl?$AAe?$AAa?$AAd?$AAb?$AAy?$AAt?$AAe?$AA?$CI?$AA_?$AAd?$AAb?$AAc?$AAs?$AAB?$AAu?$AAf?$AAf?$AAe?$AAr?$AA?$CI?$AAf?$AAh?$AA?$CJ?$AA?$CJ?$AA?$AA@ 10099b30     LIBCMTD:write.obj
 0002:00013b68       ??_C@_1BM@NCANHCIP@?$AA_?$AAw?$AAr?$AAi?$AAt?$AAe?$AA_?$AAn?$AAo?$AAl?$AAo?$AAc?$AAk?$AA?$AA@ 10099b68     LIBCMTD:write.obj
 0002:00013b84       ??_C@_1BM@KFJLMBPG@?$AA?$CI?$AAb?$AAu?$AAf?$AA?5?$AA?$CB?$AA?$DN?$AA?5?$AAN?$AAU?$AAL?$AAL?$AA?$CJ?$AA?$AA@ 10099b84     LIBCMTD:write.obj
 0002:00013ba0       ??_C@_0DB@OLNNDFNH@f?3?2dd?2vctools?2crt_bld?2self_x86?2c@ 10099ba0     LIBCMTD:_sftbuf.obj
 0002:00013bd8       ??_C@_1GC@DGAFOCMO@?$AAf?$AA?3?$AA?2?$AAd?$AAd?$AA?2?$AAv?$AAc?$AAt?$AAo?$AAo?$AAl?$AAs?$AA?2?$AAc?$AAr?$AAt?$AA_?$AAb?$AAl?$AAd?$AA?2?$AAs?$AAe?$AAl?$AAf?$AA_?$AAx?$AA8?$AA6?$AA?2?$AAc@ 10099bd8     LIBCMTD:_sftbuf.obj
 0002:00013c3c       ??_C@_1CO@KCKAACMI@?$AAf?$AAl?$AAa?$AAg?$AA?5?$AA?$DN?$AA?$DN?$AA?5?$AA0?$AA?5?$AA?$HM?$AA?$HM?$AA?5?$AAf?$AAl?$AAa?$AAg?$AA?5?$AA?$DN?$AA?$DN?$AA?5?$AA1?$AA?$AA@ 10099c3c     LIBCMTD:_sftbuf.obj
 0002:00013c6c       ??_C@_1BG@BBCDFOMA@?$AA_?$AAw?$AAo?$AAu?$AAt?$AAp?$AAu?$AAt?$AA_?$AAl?$AA?$AA@ 10099c6c     LIBCMTD:woutput.obj
 0002:00013c84       ??_C@_1CC@MONNFDCM@?$AAv?$AAf?$AAw?$AAp?$AAr?$AAi?$AAn?$AAt?$AAf?$AA_?$AAh?$AAe?$AAl?$AAp?$AAe?$AAr?$AA?$AA@ 10099c84     LIBCMTD:vfwprint.obj
 0002:00013ca8       ??_C@_1GE@MBMBDAGC@?$AAf?$AA?3?$AA?2?$AAd?$AAd?$AA?2?$AAv?$AAc?$AAt?$AAo?$AAo?$AAl?$AAs?$AA?2?$AAc?$AAr?$AAt?$AA_?$AAb?$AAl?$AAd?$AA?2?$AAs?$AAe?$AAl?$AAf?$AA_?$AAx?$AA8?$AA6?$AA?2?$AAc@ 10099ca8     LIBCMTD:vfwprint.obj
 0002:00013d10       ??_C@_1FK@LNCFKALM@?$AA?$CI?$AA?$CI?$AAs?$AAt?$AAa?$AAt?$AAe?$AA?5?$AA?$DN?$AA?$DN?$AA?5?$AAS?$AAT?$AA_?$AAN?$AAO?$AAR?$AAM?$AAA?$AAL?$AA?$CJ?$AA?5?$AA?$HM?$AA?$HM?$AA?5?$AA?$CI?$AAs?$AAt?$AAa?$AAt?$AAe?$AA?5@ 10099d10     LIBCMTD:woutputs.obj
 0002:00013d70       ??_C@_1EE@DMAIGNBG@?$AA?$CI?$AA?$CC?$AAI?$AAn?$AAc?$AAo?$AAr?$AAr?$AAe?$AAc?$AAt?$AA?5?$AAf?$AAo?$AAr?$AAm?$AAa?$AAt?$AA?5?$AAs?$AAp?$AAe?$AAc?$AAi?$AAf?$AAi?$AAe?$AAr?$AA?$CC?$AA?0?$AA?5?$AA0@ 10099d70     LIBCMTD:woutputs.obj
 0002:00013db4       ??_C@_1BK@ONMFGLDB@?$AA_?$AAw?$AAo?$AAu?$AAt?$AAp?$AAu?$AAt?$AA_?$AAs?$AA_?$AAl?$AA?$AA@ 10099db4     LIBCMTD:woutputs.obj
 0002:00013dd0       ??_C@_1FK@BCPANIEK@?$AA?$CI?$AA?$CC?$AAM?$AAi?$AAs?$AAs?$AAi?$AAn?$AAg?$AA?5?$AAp?$AAo?$AAs?$AAi?$AAt?$AAi?$AAo?$AAn?$AA?5?$AAi?$AAn?$AA?5?$AAt?$AAh?$AAe?$AA?5?$AAf?$AAo?$AAr?$AAm?$AAa?$AAt@ 10099dd0     LIBCMTD:woutputp.obj
 0002:00013e30       ??_C@_1JC@OACKELNN@?$AA_?$AAt?$AAv?$AAa?$AAl?$AAi?$AAd?$AAa?$AAt?$AAe?$AA_?$AAp?$AAa?$AAr?$AAa?$AAm?$AA_?$AAr?$AAe?$AAu?$AAs?$AAe?$AA?$CI?$AA?$CG?$AAp?$AAo?$AAs?$AA_?$AAv?$AAa?$AAl?$AAu@ 10099e30     LIBCMTD:woutputp.obj
 0002:00013ec8       ??_C@_1IK@NBGDDCBN@?$AA_?$AAt?$AAv?$AAa?$AAl?$AAi?$AAd?$AAa?$AAt?$AAe?$AA_?$AAp?$AAa?$AAr?$AAa?$AAm?$AA_?$AAr?$AAe?$AAu?$AAs?$AAe?$AA?$CI?$AA?$CG?$AAp?$AAo?$AAs?$AA_?$AAv?$AAa?$AAl?$AAu@ 10099ec8     LIBCMTD:woutputp.obj
 0002:00013f54       ??_C@_1DG@GOHGNKHE@?$AAp?$AAa?$AAs?$AAs?$AA?5?$AA?$DN?$AA?$DN?$AA?5?$AAF?$AAO?$AAR?$AAM?$AAA?$AAT?$AA_?$AAO?$AAU?$AAT?$AAP?$AAU?$AAT?$AA_?$AAP?$AAA?$AAS?$AAS?$AA?$AA@ 10099f54     LIBCMTD:woutputp.obj
 0002:00013f90       ??_C@_1IM@DNGHAPLB@?$AA_?$AAt?$AAv?$AAa?$AAl?$AAi?$AAd?$AAa?$AAt?$AAe?$AA_?$AAp?$AAa?$AAr?$AAa?$AAm?$AA_?$AAr?$AAe?$AAu?$AAs?$AAe?$AA?$CI?$AA?$CG?$AAp?$AAo?$AAs?$AA_?$AAv?$AAa?$AAl?$AAu@ 10099f90     LIBCMTD:woutputp.obj
 0002:00014020       ??_C@_1IG@HJIMKDHC@?$AA_?$AAt?$AAv?$AAa?$AAl?$AAi?$AAd?$AAa?$AAt?$AAe?$AA_?$AAp?$AAa?$AAr?$AAa?$AAm?$AA_?$AAr?$AAe?$AAu?$AAs?$AAe?$AA?$CI?$AA?$CG?$AAp?$AAo?$AAs?$AA_?$AAv?$AAa?$AAl?$AAu@ 1009a020     LIBCMTD:woutputp.obj
 0002:000140a8       ??_C@_1IG@FDCPLALG@?$AA_?$AAt?$AAv?$AAa?$AAl?$AAi?$AAd?$AAa?$AAt?$AAe?$AA_?$AAp?$AAa?$AAr?$AAa?$AAm?$AA_?$AAr?$AAe?$AAu?$AAs?$AAe?$AA?$CI?$AA?$CG?$AAp?$AAo?$AAs?$AA_?$AAv?$AAa?$AAl?$AAu@ 1009a0a8     LIBCMTD:woutputp.obj
 0002:00014130       ??_C@_1EM@BNPHBBIA@?$AA?$CI?$AA?$CI?$AAt?$AAy?$AAp?$AAe?$AA_?$AAp?$AAo?$AAs?$AA?$DO?$AA?$DN?$AA0?$AA?$CJ?$AA?5?$AA?$CG?$AA?$CG?$AA?5?$AA?$CI?$AAt?$AAy?$AAp?$AAe?$AA_?$AAp?$AAo?$AAs?$AA?$DM?$AA_?$AAA?$AAR?$AAG@ 1009a130     LIBCMTD:woutputp.obj
 0002:00014180       ??_C@_1IK@EIEPDKHJ@?$AA_?$AAt?$AAv?$AAa?$AAl?$AAi?$AAd?$AAa?$AAt?$AAe?$AA_?$AAp?$AAa?$AAr?$AAa?$AAm?$AA_?$AAr?$AAe?$AAu?$AAs?$AAe?$AA?$CI?$AA?$CG?$AAp?$AAo?$AAs?$AA_?$AAv?$AAa?$AAl?$AAu@ 1009a180     LIBCMTD:woutputp.obj
 0002:00014210       ??_C@_1JG@JBJBOCFB@?$AA?$CI?$AA?$CI?$AAp?$AAr?$AAe?$AAc?$AAi?$AAs?$AA_?$AAp?$AAo?$AAs?$AA?5?$AA?$DO?$AA?$DN?$AA?5?$AA0?$AA?$CJ?$AA?5?$AA?$CG?$AA?$CG?$AA?5?$AA?$CI?$AA?$CK?$AAe?$AAn?$AAd?$AA_?$AAp?$AAo?$AAs?$AA?5@ 1009a210     LIBCMTD:woutputp.obj
 0002:000142a8       ??_C@_1II@PIPIMLPF@?$AA_?$AAt?$AAv?$AAa?$AAl?$AAi?$AAd?$AAa?$AAt?$AAe?$AA_?$AAp?$AAa?$AAr?$AAa?$AAm?$AA_?$AAr?$AAe?$AAu?$AAs?$AAe?$AA?$CI?$AA?$CG?$AAp?$AAo?$AAs?$AA_?$AAv?$AAa?$AAl?$AAu@ 1009a2a8     LIBCMTD:woutputp.obj
 0002:00014330       ??_C@_1JE@NMBHOLFI@?$AA?$CI?$AA?$CI?$AAw?$AAi?$AAd?$AAt?$AAh?$AA_?$AAp?$AAo?$AAs?$AA?5?$AA?$DO?$AA?$DN?$AA?5?$AA0?$AA?$CJ?$AA?5?$AA?$CG?$AA?$CG?$AA?5?$AA?$CI?$AA?$CK?$AAe?$AAn?$AAd?$AA_?$AAp?$AAo?$AAs?$AA?5?$AA?$DN@ 1009a330     LIBCMTD:woutputp.obj
 0002:000143c8       ??_C@_1JC@PFJNKEIO@?$AA?$CI?$AA?$CI?$AAt?$AAy?$AAp?$AAe?$AA_?$AAp?$AAo?$AAs?$AA?5?$AA?$DO?$AA?$DN?$AA?5?$AA0?$AA?$CJ?$AA?5?$AA?$CG?$AA?$CG?$AA?5?$AA?$CI?$AA?$CK?$AAe?$AAn?$AAd?$AA_?$AAp?$AAo?$AAs?$AA?5?$AA?$DN?$AA?$DN@ 1009a3c8     LIBCMTD:woutputp.obj
 0002:0001445c       ??_C@_1BK@GDEKGMNC@?$AA_?$AAw?$AAo?$AAu?$AAt?$AAp?$AAu?$AAt?$AA_?$AAp?$AA_?$AAl?$AA?$AA@ 1009a45c     LIBCMTD:woutputp.obj
 0002:00014478       ??_C@_1GE@GJCMHHMH@?$AAf?$AA?3?$AA?2?$AAd?$AAd?$AA?2?$AAv?$AAc?$AAt?$AAo?$AAo?$AAl?$AAs?$AA?2?$AAc?$AAr?$AAt?$AA_?$AAb?$AAl?$AAd?$AA?2?$AAs?$AAe?$AAl?$AAf?$AA_?$AAx?$AA8?$AA6?$AA?2?$AAc@ 1009a478     LIBCMTD:inittime.obj
 0002:000144e0       ??_C@_1EE@FDHCFDHN@?$AAp?$AAl?$AAo?$AAc?$AAi?$AA?9?$AA?$DO?$AAl?$AAc?$AA_?$AAt?$AAi?$AAm?$AAe?$AA_?$AAc?$AAu?$AAr?$AAr?$AA?9?$AA?$DO?$AAr?$AAe?$AAf?$AAc?$AAo?$AAu?$AAn?$AAt?$AA?5?$AA?$DO?$AA?5@ 1009a4e0     LIBCMTD:inittime.obj
 0002:00014524       ??_C@_0DC@KICHHNFK@f?3?2dd?2vctools?2crt_bld?2self_x86?2c@ 1009a524     LIBCMTD:inittime.obj
 0002:00014558       ??_C@_1GC@EDJOCBCL@?$AAf?$AA?3?$AA?2?$AAd?$AAd?$AA?2?$AAv?$AAc?$AAt?$AAo?$AAo?$AAl?$AAs?$AA?2?$AAc?$AAr?$AAt?$AA_?$AAb?$AAl?$AAd?$AA?2?$AAs?$AAe?$AAl?$AAf?$AA_?$AAx?$AA8?$AA6?$AA?2?$AAc@ 1009a558     LIBCMTD:initnum.obj
 0002:000145bc       ??_C@_1DM@IFKAINNE@?$AAp?$AAl?$AAo?$AAc?$AAi?$AA?9?$AA?$DO?$AAl?$AAc?$AAo?$AAn?$AAv?$AA_?$AAn?$AAu?$AAm?$AA_?$AAr?$AAe?$AAf?$AAc?$AAo?$AAu?$AAn?$AAt?$AA?5?$AA?$DO?$AA?5?$AA0?$AA?$AA@ 1009a5bc     LIBCMTD:initnum.obj
 0002:000145f8       ??_C@_0DB@KKFMDHFI@f?3?2dd?2vctools?2crt_bld?2self_x86?2c@ 1009a5f8     LIBCMTD:initnum.obj
 0002:00014630       ??_C@_1GC@IKADOFBJ@?$AAf?$AA?3?$AA?2?$AAd?$AAd?$AA?2?$AAv?$AAc?$AAt?$AAo?$AAo?$AAl?$AAs?$AA?2?$AAc?$AAr?$AAt?$AA_?$AAb?$AAl?$AAd?$AA?2?$AAs?$AAe?$AAl?$AAf?$AA_?$AAx?$AA8?$AA6?$AA?2?$AAc@ 1009a630     LIBCMTD:initmon.obj
 0002:00014694       ??_C@_1DM@GKAPAMDO@?$AAp?$AAl?$AAo?$AAc?$AAi?$AA?9?$AA?$DO?$AAl?$AAc?$AAo?$AAn?$AAv?$AA_?$AAm?$AAo?$AAn?$AA_?$AAr?$AAe?$AAf?$AAc?$AAo?$AAu?$AAn?$AAt?$AA?5?$AA?$DO?$AA?5?$AA0?$AA?$AA@ 1009a694     LIBCMTD:initmon.obj
 0002:000146d0       ??_C@_0DB@BECNGFDL@f?3?2dd?2vctools?2crt_bld?2self_x86?2c@ 1009a6d0     LIBCMTD:initmon.obj
 0002:00014708       ___newctype                1009a708     LIBCMTD:ctype.obj
 0002:00014a08       __wctype                   1009aa08     LIBCMTD:ctype.obj
 0002:00014c10       ___newclmap                1009ac10     LIBCMTD:ctype.obj
 0002:00014d90       ___newcumap                1009ad90     LIBCMTD:ctype.obj
 0002:00014f10       ??_C@_1DG@NMBGBDM@?$AAp?$AAl?$AAo?$AAc?$AAi?$AA?9?$AA?$DO?$AAc?$AAt?$AAy?$AAp?$AAe?$AA1?$AA_?$AAr?$AAe?$AAf?$AAc?$AAo?$AAu?$AAn?$AAt?$AA?5?$AA?$DO?$AA?5?$AA0?$AA?$AA@ 1009af10     LIBCMTD:initctyp.obj
 0002:00014f48       ??_C@_1GE@OCPKBDKE@?$AAf?$AA?3?$AA?2?$AAd?$AAd?$AA?2?$AAv?$AAc?$AAt?$AAo?$AAo?$AAl?$AAs?$AA?2?$AAc?$AAr?$AAt?$AA_?$AAb?$AAl?$AAd?$AA?2?$AAs?$AAe?$AAl?$AAf?$AA_?$AAx?$AA8?$AA6?$AA?2?$AAc@ 1009af48     LIBCMTD:initctyp.obj
 0002:00014fac       ??_C@_0DC@EHLBFILA@f?3?2dd?2vctools?2crt_bld?2self_x86?2c@ 1009afac     LIBCMTD:initctyp.obj
 0002:00014fe0       ??_C@_1BE@NDMJHJJG@?$AAs?$AAt?$AAr?$AAn?$AAc?$AAp?$AAy?$AA_?$AAs?$AA?$AA@ 1009afe0     LIBCMTD:strncpy_s.obj
 0002:00014ff4       ??_C@_1BC@HGPNAKGC@?$AAs?$AAt?$AAr?$AAc?$AAa?$AAt?$AA_?$AAs?$AA?$AA@ 1009aff4     LIBCMTD:strcat_s.obj
 0002:00015008       ??_C@_0O@FMJNFNKE@united?9states?$AA@ 1009b008     LIBCMTD:getqloc.obj
 0002:00015018       ??_C@_0P@NDHFFKCA@united?9kingdom?$AA@ 1009b018     LIBCMTD:getqloc.obj
 0002:00015028       ??_C@_0BC@HHDADLGF@trinidad?5?$CG?5tobago?$AA@ 1009b028     LIBCMTD:getqloc.obj
 0002:0001503c       ??_C@_0M@IOAEBDAC@south?9korea?$AA@ 1009b03c     LIBCMTD:getqloc.obj
 0002:00015048       ??_C@_0N@FIELFKIJ@south?9africa?$AA@ 1009b048     LIBCMTD:getqloc.obj
 0002:00015058       ??_C@_0M@OPNDHCMC@south?5korea?$AA@ 1009b058     LIBCMTD:getqloc.obj
 0002:00015064       ??_C@_0N@MDEOEPFI@south?5africa?$AA@ 1009b064     LIBCMTD:getqloc.obj
 0002:00015074       ??_C@_06FKAPCJLB@slovak?$AA@ 1009b074     LIBCMTD:getqloc.obj
 0002:0001507c       ??_C@_0M@EFJANOAL@puerto?9rico?$AA@ 1009b07c     LIBCMTD:getqloc.obj
 0002:00015088       ??_C@_08PGOJKDAI@pr?9china?$AA@ 1009b088     LIBCMTD:getqloc.obj
 0002:00015094       ??_C@_08JHDOMCMI@pr?5china?$AA@ 1009b094     LIBCMTD:getqloc.obj
 0002:000150a0       ??_C@_02JHCHFBLL@nz?$AA@   1009b0a0     LIBCMTD:getqloc.obj
 0002:000150a4       ??_C@_0M@LINHDHKP@new?9zealand?$AA@ 1009b0a4     LIBCMTD:getqloc.obj
 0002:000150b0       ??_C@_09IIIPPBDB@hong?9kong?$AA@ 1009b0b0     LIBCMTD:getqloc.obj
 0002:000150bc       ??_C@_07HJLCKBG@holland?$AA@ 1009b0bc     LIBCMTD:getqloc.obj
 0002:000150c4       ??_C@_0O@LEHGMHAG@great?5britain?$AA@ 1009b0c4     LIBCMTD:getqloc.obj
 0002:000150d4       ??_C@_07FACOMELA@england?$AA@ 1009b0d4     LIBCMTD:getqloc.obj
 0002:000150dc       ??_C@_05JIHCEICB@czech?$AA@ 1009b0dc     LIBCMTD:getqloc.obj
 0002:000150e4       ??_C@_05BBJOBLGB@china?$AA@ 1009b0e4     LIBCMTD:getqloc.obj
 0002:000150ec       ??_C@_07GPKPHICP@britain?$AA@ 1009b0ec     LIBCMTD:getqloc.obj
 0002:000150f4       ??_C@_07MHIPBHMG@america?$AA@ 1009b0f4     LIBCMTD:getqloc.obj
 0002:000150fc       ??_C@_03KIALPMKC@usa?$AA@  1009b0fc     LIBCMTD:getqloc.obj
 0002:00015100       ??_C@_02FGJGKGGD@us?$AA@   1009b100     LIBCMTD:getqloc.obj
 0002:00015104       ??_C@_02NEINDODK@uk?$AA@   1009b104     LIBCMTD:getqloc.obj
 0002:00015108       ??_C@_05JMPCFJFJ@swiss?$AA@ 1009b108     LIBCMTD:getqloc.obj
 0002:00015110       ??_C@_0BA@HLOCPIOD@swedish?9finland?$AA@ 1009b110     LIBCMTD:getqloc.obj
 0002:00015120       ??_C@_0BC@PKCNIABK@spanish?9venezuela?$AA@ 1009b120     LIBCMTD:getqloc.obj
 0002:00015134       ??_C@_0BA@GBHHMIJI@spanish?9uruguay?$AA@ 1009b134     LIBCMTD:getqloc.obj
 0002:00015144       ??_C@_0BE@BHDOHPMC@spanish?9puerto?5rico?$AA@ 1009b144     LIBCMTD:getqloc.obj
 0002:00015158       ??_C@_0N@KMOIDGGN@spanish?9peru?$AA@ 1009b158     LIBCMTD:getqloc.obj
 0002:00015168       ??_C@_0BB@HMHLPGPH@spanish?9paraguay?$AA@ 1009b168     LIBCMTD:getqloc.obj
 0002:0001517c       ??_C@_0P@MCPKNGFD@spanish?9panama?$AA@ 1009b17c     LIBCMTD:getqloc.obj
 0002:0001518c       ??_C@_0BC@IHOHGAIL@spanish?9nicaragua?$AA@ 1009b18c     LIBCMTD:getqloc.obj
 0002:000151a0       ??_C@_0P@KLMJDNFJ@spanish?9modern?$AA@ 1009b1a0     LIBCMTD:getqloc.obj
 0002:000151b0       ??_C@_0BA@BPAPGBCM@spanish?9mexican?$AA@ 1009b1b0     LIBCMTD:getqloc.obj
 0002:000151c0       ??_C@_0BB@PDECHHHE@spanish?9honduras?$AA@ 1009b1c0     LIBCMTD:getqloc.obj
 0002:000151d4       ??_C@_0BC@KLHKFGDB@spanish?9guatemala?$AA@ 1009b1d4     LIBCMTD:getqloc.obj
 0002:000151e8       ??_C@_0BE@MFOOKJAI@spanish?9el?5salvador?$AA@ 1009b1e8     LIBCMTD:getqloc.obj
 0002:000151fc       ??_C@_0BA@FCOKFPFC@spanish?9ecuador?$AA@ 1009b1fc     LIBCMTD:getqloc.obj
 0002:0001520c       ??_C@_0BL@PLMGIMOO@spanish?9dominican?5republic?$AA@ 1009b20c     LIBCMTD:getqloc.obj
 0002:00015228       ??_C@_0BD@HLGDNMHB@spanish?9costa?5rica?$AA@ 1009b228     LIBCMTD:getqloc.obj
 0002:0001523c       ??_C@_0BB@PKCBKCPE@spanish?9colombia?$AA@ 1009b23c     LIBCMTD:getqloc.obj
 0002:00015250       ??_C@_0O@MCBIJGNE@spanish?9chile?$AA@ 1009b250     LIBCMTD:getqloc.obj
 0002:00015260       ??_C@_0BA@BEFEIGJJ@spanish?9bolivia?$AA@ 1009b260     LIBCMTD:getqloc.obj
 0002:00015270       ??_C@_0BC@EMECMPD@spanish?9argentina?$AA@ 1009b270     LIBCMTD:getqloc.obj
 0002:00015284       ??_C@_0BF@EALFLENP@portuguese?9brazilian?$AA@ 1009b284     LIBCMTD:getqloc.obj
 0002:0001529c       ??_C@_0BC@HBLEBLNN@norwegian?9nynorsk?$AA@ 1009b29c     LIBCMTD:getqloc.obj
 0002:000152b0       ??_C@_0BB@HMACDDCK@norwegian?9bokmal?$AA@ 1009b2b0     LIBCMTD:getqloc.obj
 0002:000152c4       ??_C@_09BAFFPPHE@norwegian?$AA@ 1009b2c4     LIBCMTD:getqloc.obj
 0002:000152d0       ??_C@_0O@EAJFJDFG@italian?9swiss?$AA@ 1009b2d0     LIBCMTD:getqloc.obj
 0002:000152e0       ??_C@_0O@CNOMPGD@irish?9english?$AA@ 1009b2e0     LIBCMTD:getqloc.obj
 0002:000152f0       ??_C@_0N@EDHBGCKG@german?9swiss?$AA@ 1009b2f0     LIBCMTD:getqloc.obj
 0002:00015300       ??_C@_0BC@JACMHNBP@german?9luxembourg?$AA@ 1009b300     LIBCMTD:getqloc.obj
 0002:00015314       ??_C@_0BE@HBGMGFEG@german?9lichtenstein?$AA@ 1009b314     LIBCMTD:getqloc.obj
 0002:00015328       ??_C@_0BA@HKKBIBKL@german?9austrian?$AA@ 1009b328     LIBCMTD:getqloc.obj
 0002:00015338       ??_C@_0N@GCAEPEBK@french?9swiss?$AA@ 1009b338     LIBCMTD:getqloc.obj
 0002:00015348       ??_C@_0BC@DJFJJCK@french?9luxembourg?$AA@ 1009b348     LIBCMTD:getqloc.obj
 0002:0001535c       ??_C@_0BA@NNCEDFIC@french?9canadian?$AA@ 1009b35c     LIBCMTD:getqloc.obj
 0002:0001536c       ??_C@_0P@CMPOCLM@french?9belgian?$AA@ 1009b36c     LIBCMTD:getqloc.obj
 0002:0001537c       ??_C@_0M@GHHDJOK@english?9usa?$AA@ 1009b37c     LIBCMTD:getqloc.obj
 0002:00015388       ??_C@_0L@PLDJKEIL@english?9us?$AA@ 1009b388     LIBCMTD:getqloc.obj
 0002:00015394       ??_C@_0L@HJCCDMNC@english?9uk?$AA@ 1009b394     LIBCMTD:getqloc.obj
 0002:000153a0       ??_C@_0BK@CKLIAGJB@english?9trinidad?5y?5tobago?$AA@ 1009b3a0     LIBCMTD:getqloc.obj
 0002:000153bc       ??_C@_0BF@JMJMGNNF@english?9south?5africa?$AA@ 1009b3bc     LIBCMTD:getqloc.obj
 0002:000153d4       ??_C@_0L@DKIIFDFD@english?9nz?$AA@ 1009b3d4     LIBCMTD:getqloc.obj
 0002:000153e0       ??_C@_0BA@ONHGJCLH@english?9jamaica?$AA@ 1009b3e0     LIBCMTD:getqloc.obj
 0002:000153f0       ??_C@_0M@HJBGHOPO@english?9ire?$AA@ 1009b3f0     LIBCMTD:getqloc.obj
 0002:000153fc       ??_C@_0BC@LFEKMIFB@english?9caribbean?$AA@ 1009b3fc     LIBCMTD:getqloc.obj
 0002:00015410       ??_C@_0M@OLDPFKHI@english?9can?$AA@ 1009b410     LIBCMTD:getqloc.obj
 0002:0001541c       ??_C@_0P@OMDEHBMP@english?9belize?$AA@ 1009b41c     LIBCMTD:getqloc.obj
 0002:0001542c       ??_C@_0M@KFHFPFED@english?9aus?$AA@ 1009b42c     LIBCMTD:getqloc.obj
 0002:00015438       ??_C@_0BB@MNMBKDFE@english?9american?$AA@ 1009b438     LIBCMTD:getqloc.obj
 0002:0001544c       ??_C@_0O@KIDLNNBA@dutch?9belgian?$AA@ 1009b44c     LIBCMTD:getqloc.obj
 0002:0001545c       ??_C@_0BE@JBKABBMH@chinese?9traditional?$AA@ 1009b45c     LIBCMTD:getqloc.obj
 0002:00015470       ??_C@_0BC@MJJMPKCG@chinese?9singapore?$AA@ 1009b470     LIBCMTD:getqloc.obj
 0002:00015484       ??_C@_0BD@FDKADDCP@chinese?9simplified?$AA@ 1009b484     LIBCMTD:getqloc.obj
 0002:00015498       ??_C@_0BB@DBEFDDME@chinese?9hongkong?$AA@ 1009b498     LIBCMTD:getqloc.obj
 0002:000154ac       ??_C@_07DHNMFMCI@chinese?$AA@ 1009b4ac     LIBCMTD:getqloc.obj
 0002:000154b4       ??_C@_03FNDDCHI@chi?$AA@   1009b4b4     LIBCMTD:getqloc.obj
 0002:000154b8       ??_C@_03BMMIADDJ@chh?$AA@  1009b4b8     LIBCMTD:getqloc.obj
 0002:000154bc       ??_C@_08OAIPJDGI@canadian?$AA@ 1009b4bc     LIBCMTD:getqloc.obj
 0002:000154c8       ??_C@_07HBPMNPNJ@belgian?$AA@ 1009b4c8     LIBCMTD:getqloc.obj
 0002:000154d0       ??_C@_0L@OEKOPBEL@australian?$AA@ 1009b4d0     LIBCMTD:getqloc.obj
 0002:000154dc       ??_C@_0BB@MEIMBEDG@american?9english?$AA@ 1009b4dc     LIBCMTD:getqloc.obj
 0002:000154f0       ??_C@_0BB@DFMDPDGB@american?5english?$AA@ 1009b4f0     LIBCMTD:getqloc.obj
 0002:00015504       ??_C@_08IJLOKOLL@american?$AA@ 1009b504     LIBCMTD:getqloc.obj
 0002:00015510       ___rg_language             1009b510     LIBCMTD:getqloc.obj
 0002:00015718       ___rg_country              1009b718     LIBCMTD:getqloc.obj
 0002:000157d0       ___rglangidNotDefault      1009b7d0     LIBCMTD:getqloc.obj
 0002:000157e4       ??_C@_0BC@NFIEMBLL@Norwegian?9Nynorsk?$AA@ 1009b7e4     LIBCMTD:getqloc.obj
 0002:000157f8       ??_C@_1OM@OECHDGCF@?$AAs?$AAt?$AAr?$AAc?$AAp?$AAy?$AA_?$AAs?$AA?$CI?$AAl?$AAp?$AAO?$AAu?$AAt?$AAS?$AAt?$AAr?$AA?9?$AA?$DO?$AAs?$AAz?$AAL?$AAa?$AAn?$AAg?$AAu?$AAa?$AAg?$AAe?$AA?0?$AA?5?$AA?$CI@ 1009b7f8     LIBCMTD:getqloc.obj
 0002:000158e4       ??_C@_1CO@NJACLALJ@?$AA_?$AA_?$AAg?$AAe?$AAt?$AA_?$AAq?$AAu?$AAa?$AAl?$AAi?$AAf?$AAi?$AAe?$AAd?$AA_?$AAl?$AAo?$AAc?$AAa?$AAl?$AAe?$AA?$AA@ 1009b8e4     LIBCMTD:getqloc.obj
 0002:00015918       ??_C@_1GC@FECJGAE@?$AAf?$AA?3?$AA?2?$AAd?$AAd?$AA?2?$AAv?$AAc?$AAt?$AAo?$AAo?$AAl?$AAs?$AA?2?$AAc?$AAr?$AAt?$AA_?$AAb?$AAl?$AAd?$AA?2?$AAs?$AAe?$AAl?$AAf?$AA_?$AAx?$AA8?$AA6?$AA?2?$AAc@ 1009b918     LIBCMTD:getqloc.obj
 0002:0001597c       ??_C@_03NFKLAGEF@OCP?$AA@  1009b97c     LIBCMTD:getqloc.obj
 0002:00015980       ??_C@_03DFHEHBHG@ACP?$AA@  1009b980     LIBCMTD:getqloc.obj
 0002:00015988       ??_C@_1GA@GFFDGGFH@?$AAf?$AA?3?$AA?2?$AAd?$AAd?$AA?2?$AAv?$AAc?$AAt?$AAo?$AAo?$AAl?$AAs?$AA?2?$AAc?$AAr?$AAt?$AA_?$AAb?$AAl?$AAd?$AA?2?$AAs?$AAe?$AAl?$AAf?$AA_?$AAx?$AA8?$AA6?$AA?2?$AAc@ 1009b988     LIBCMTD:mbtowc.obj
 0002:000159e8       ??_C@_1NC@EINCOKCO@?$AA_?$AAl?$AAo?$AAc?$AA_?$AAu?$AAp?$AAd?$AAa?$AAt?$AAe?$AA?4?$AAG?$AAe?$AAt?$AAL?$AAo?$AAc?$AAa?$AAl?$AAe?$AAT?$AA?$CI?$AA?$CJ?$AA?9?$AA?$DO?$AAl?$AAo?$AAc?$AAi?$AAn?$AAf@ 1009b9e8     LIBCMTD:mbtowc.obj
 0002:00015abc       ??_C@_1O@JDPLECOK@?$AAu?$AAn?$AAg?$AAe?$AAt?$AAc?$AA?$AA@ 1009babc     LIBCMTD:ungetc.obj
 0002:00015ad0       ??_C@_1GA@OAFAANFO@?$AAf?$AA?3?$AA?2?$AAd?$AAd?$AA?2?$AAv?$AAc?$AAt?$AAo?$AAo?$AAl?$AAs?$AA?2?$AAc?$AAr?$AAt?$AA_?$AAb?$AAl?$AAd?$AA?2?$AAs?$AAe?$AAl?$AAf?$AA_?$AAx?$AA8?$AA6?$AA?2?$AAc@ 1009bad0     LIBCMTD:ungetc.obj
 0002:00015b30       ??_C@_1BO@OLMLKKEA@?$AA_?$AAu?$AAn?$AAg?$AAe?$AAt?$AAc?$AA_?$AAn?$AAo?$AAl?$AAo?$AAc?$AAk?$AA?$AA@ 1009bb30     LIBCMTD:ungetc.obj
 0002:00015b50       ??_C@_1HC@OEJDDIIH@?$AAf?$AA?3?$AA?2?$AAd?$AAd?$AA?2?$AAv?$AAc?$AAt?$AAo?$AAo?$AAl?$AAs?$AA?2?$AAc?$AAr?$AAt?$AA_?$AAb?$AAl?$AAd?$AA?2?$AAs?$AAe?$AAl?$AAf?$AA_?$AAx?$AA8?$AA6?$AA?2?$AAc@ 1009bb50     LIBCMTD:ungetc.obj
 0002:00015bc8       ??_C@_1NK@LOFHIHFC@?$AAf?$AAM?$AAo?$AAd?$AAe?$AA?5?$AA?$DN?$AA?$DN?$AA?5?$AA_?$AAC?$AAR?$AAT?$AAD?$AAB?$AAG?$AA_?$AAR?$AAE?$AAP?$AAO?$AAR?$AAT?$AA_?$AAM?$AAO?$AAD?$AAE?$AA?5?$AA?$HM?$AA?$HM?$AA?5@ 1009bbc8     LIBCMTD:dbgrptt.obj
 0002:00015ca4       ??_C@_1CE@FIHIECNJ@?$AA_?$AAC?$AAr?$AAt?$AAS?$AAe?$AAt?$AAR?$AAe?$AAp?$AAo?$AAr?$AAt?$AAM?$AAo?$AAd?$AAe?$AA?$AA@ 1009bca4     LIBCMTD:dbgrptt.obj
 0002:00015cc8       ??_C@_1GC@FIGJJMEN@?$AAf?$AA?3?$AA?2?$AAd?$AAd?$AA?2?$AAv?$AAc?$AAt?$AAo?$AAo?$AAl?$AAs?$AA?2?$AAc?$AAr?$AAt?$AA_?$AAb?$AAl?$AAd?$AA?2?$AAs?$AAe?$AAl?$AAf?$AA_?$AAx?$AA8?$AA6?$AA?2?$AAc@ 1009bcc8     LIBCMTD:dbgrptt.obj
 0002:00015d30       ??_C@_1FA@IFFFOLDJ@?$AAn?$AAR?$AAp?$AAt?$AAT?$AAy?$AAp?$AAe?$AA?5?$AA?$DO?$AA?$DN?$AA?5?$AA0?$AA?5?$AA?$CG?$AA?$CG?$AA?5?$AAn?$AAR?$AAp?$AAt?$AAT?$AAy?$AAp?$AAe?$AA?5?$AA?$DM?$AA?5?$AA_?$AAC?$AAR?$AAT@ 1009bd30     LIBCMTD:dbgrptt.obj
 0002:00015d80       ??_C@_1CE@IKKEDCME@?$AA_?$AAC?$AAr?$AAt?$AAS?$AAe?$AAt?$AAR?$AAe?$AAp?$AAo?$AAr?$AAt?$AAF?$AAi?$AAl?$AAe?$AA?$AA@ 1009bd80     LIBCMTD:dbgrptt.obj
 0002:00015da8       ??_C@_1HO@PJOFIKFE@?$AA_?$AAC?$AAr?$AAt?$AAD?$AAb?$AAg?$AAR?$AAe?$AAp?$AAo?$AAr?$AAt?$AA?3?$AA?5?$AAS?$AAt?$AAr?$AAi?$AAn?$AAg?$AA?5?$AAt?$AAo?$AAo?$AA?5?$AAl?$AAo?$AAn?$AAg?$AA?5?$AAo@ 1009bda8     LIBCMTD:dbgrptt.obj
 0002:00015e28       ??_C@_1MC@IGEECMDB@?$AAw?$AAc?$AAs?$AAc?$AAp?$AAy?$AA_?$AAs?$AA?$CI?$AAs?$AAz?$AAO?$AAu?$AAt?$AAM?$AAe?$AAs?$AAs?$AAa?$AAg?$AAe?$AA2?$AA?0?$AA?5?$AA4?$AA0?$AA9?$AA6?$AA?0?$AA?5?$AAL?$AA?$CC@ 1009be28     LIBCMTD:dbgrptt.obj
 0002:00015ef0       ??_C@_1IM@OOKIFKOH@?$AAe?$AA?5?$AA?$DN?$AA?5?$AAm?$AAb?$AAs?$AAt?$AAo?$AAw?$AAc?$AAs?$AA_?$AAs?$AA?$CI?$AA?$CG?$AAr?$AAe?$AAt?$AA?0?$AA?5?$AAs?$AAz?$AAO?$AAu?$AAt?$AAM?$AAe?$AAs?$AAs?$AAa?$AAg@ 1009bef0     LIBCMTD:dbgrptt.obj
 0002:00015f80       ??_C@_1FI@IBIOIHEG@?$AAs?$AAt?$AAr?$AAc?$AAp?$AAy?$AA_?$AAs?$AA?$CI?$AAs?$AAz?$AAO?$AAu?$AAt?$AAM?$AAe?$AAs?$AAs?$AAa?$AAg?$AAe?$AA?0?$AA?5?$AA4?$AA0?$AA9?$AA6?$AA?0?$AA?5?$AAs?$AAz?$AAL@ 1009bf80     LIBCMTD:dbgrptt.obj
 0002:00015fd8       ??_C@_0M@IPILFDFN@?$CFs?$CI?$CFd?$CJ?5?3?5?$CFs?$AA@ 1009bfd8     LIBCMTD:dbgrptt.obj
 0002:00015fe8       ??_C@_1EI@LDHJEDO@?$AAs?$AAt?$AAr?$AAc?$AAa?$AAt?$AA_?$AAs?$AA?$CI?$AAs?$AAz?$AAL?$AAi?$AAn?$AAe?$AAM?$AAe?$AAs?$AAs?$AAa?$AAg?$AAe?$AA?0?$AA?5?$AA4?$AA0?$AA9?$AA6?$AA?0?$AA?5?$AA?$CC?$AA?2@ 1009bfe8     LIBCMTD:dbgrptt.obj
 0002:00016030       ??_C@_01LIIJDEN@?$AN?$AA@  1009c030     LIBCMTD:dbgrptt.obj
 0002:00016038       ??_C@_1EI@CACDLAFK@?$AAs?$AAt?$AAr?$AAc?$AAa?$AAt?$AA_?$AAs?$AA?$CI?$AAs?$AAz?$AAL?$AAi?$AAn?$AAe?$AAM?$AAe?$AAs?$AAs?$AAa?$AAg?$AAe?$AA?0?$AA?5?$AA4?$AA0?$AA9?$AA6?$AA?0?$AA?5?$AA?$CC?$AA?2@ 1009c038     LIBCMTD:dbgrptt.obj
 0002:00016080       ??_C@_1FK@NPGBPOFO@?$AAs?$AAt?$AAr?$AAc?$AAa?$AAt?$AA_?$AAs?$AA?$CI?$AAs?$AAz?$AAL?$AAi?$AAn?$AAe?$AAM?$AAe?$AAs?$AAs?$AAa?$AAg?$AAe?$AA?0?$AA?5?$AA4?$AA0?$AA9?$AA6?$AA?0?$AA?5?$AAs?$AAz@ 1009c080     LIBCMTD:dbgrptt.obj
 0002:000160e0       ??_C@_1KK@GIGAEDMO@?$AAs?$AAt?$AAr?$AAc?$AAp?$AAy?$AA_?$AAs?$AA?$CI?$AAs?$AAz?$AAL?$AAi?$AAn?$AAe?$AAM?$AAe?$AAs?$AAs?$AAa?$AAg?$AAe?$AA?0?$AA?5?$AA4?$AA0?$AA9?$AA6?$AA?0?$AA?5?$AAs?$AAz@ 1009c0e0     LIBCMTD:dbgrptt.obj
 0002:0001618c       ??_C@_0BC@LAIDCHCH@Assertion?5failed?$CB?$AA@ 1009c18c     LIBCMTD:dbgrptt.obj
 0002:000161a0       ??_C@_0BD@CAENFOHP@Assertion?5failed?3?5?$AA@ 1009c1a0     LIBCMTD:dbgrptt.obj
 0002:000161b8       ??_C@_1JI@GAALPGBM@?$AAs?$AAt?$AAr?$AAc?$AAp?$AAy?$AA_?$AAs?$AA?$CI?$AAs?$AAz?$AAU?$AAs?$AAe?$AAr?$AAM?$AAe?$AAs?$AAs?$AAa?$AAg?$AAe?$AA?0?$AA?5?$AA4?$AA0?$AA9?$AA6?$AA?0?$AA?5?$AA?$CC?$AA_@ 1009c1b8     LIBCMTD:dbgrptt.obj
 0002:00016250       ??_C@_07BHGABMGB@?0?5Line?5?$AA@ 1009c250     LIBCMTD:dbgrptt.obj
 0002:00016258       ??_C@_0P@DFJNDPOP@?$DMfile?5unknown?$DO?$AA@ 1009c258     LIBCMTD:dbgrptt.obj
 0002:00016268       ??_C@_0CG@BNGLOCEO@Second?5Chance?5Assertion?5Failed?3?5@ 1009c268     LIBCMTD:dbgrptt.obj
 0002:00016290       ??_C@_1FA@JPHJBHEM@?$AA_?$AAi?$AAt?$AAo?$AAa?$AA_?$AAs?$AA?$CI?$AAn?$AAL?$AAi?$AAn?$AAe?$AA?0?$AA?5?$AAs?$AAz?$AAL?$AAi?$AAn?$AAe?$AAM?$AAe?$AAs?$AAs?$AAa?$AAg?$AAe?$AA?0?$AA?5?$AA4?$AA0@ 1009c290     LIBCMTD:dbgrptt.obj
 0002:000162e0       ??_C@_1CA@KHJHLKA@?$AA_?$AAV?$AAC?$AAr?$AAt?$AAD?$AAb?$AAg?$AAR?$AAe?$AAp?$AAo?$AAr?$AAt?$AAA?$AA?$AA@ 1009c2e0     LIBCMTD:dbgrptt.obj
 0002:00016300       ??_C@_1IE@CPGKIAGP@?$AAw?$AAc?$AAs?$AAt?$AAo?$AAm?$AAb?$AAs?$AA_?$AAs?$AA?$CI?$AA?$CG?$AAr?$AAe?$AAt?$AA?0?$AA?5?$AAs?$AAz?$AAa?$AAO?$AAu?$AAt?$AAM?$AAe?$AAs?$AAs?$AAa?$AAg?$AAe?$AA?0?$AA?5@ 1009c300     LIBCMTD:dbgrptt.obj
 0002:00016384       ??_C@_0DP@GNPEPHJD@_CrtDbgReport?3?5String?5too?5long?5o@ 1009c384     LIBCMTD:dbgrptt.obj
 0002:000163c8       ??_C@_1MA@LBAMNNOB@?$AAs?$AAt?$AAr?$AAc?$AAp?$AAy?$AA_?$AAs?$AA?$CI?$AAs?$AAz?$AAO?$AAu?$AAt?$AAM?$AAe?$AAs?$AAs?$AAa?$AAg?$AAe?$AA2?$AA?0?$AA?5?$AA4?$AA0?$AA9?$AA6?$AA?0?$AA?5?$AA?$CC?$AA_@ 1009c3c8     LIBCMTD:dbgrptt.obj
 0002:00016488       ??_C@_1JC@EOAPFDLN@?$AAw?$AAc?$AAs?$AAt?$AAo?$AAm?$AAb?$AAs?$AA_?$AAs?$AA?$CI?$AA?$CI?$AA?$CI?$AAv?$AAo?$AAi?$AAd?$AA?5?$AA?$CK?$AA?$CJ?$AA0?$AA?$CJ?$AA?0?$AA?5?$AAs?$AAz?$AAO?$AAu?$AAt?$AAM?$AAe?$AAs@ 1009c488     LIBCMTD:dbgrptt.obj
 0002:00016520       ??_C@_1FI@DBAIJPJE@?$AAw?$AAc?$AAs?$AAc?$AAp?$AAy?$AA_?$AAs?$AA?$CI?$AAs?$AAz?$AAO?$AAu?$AAt?$AAM?$AAe?$AAs?$AAs?$AAa?$AAg?$AAe?$AA?0?$AA?5?$AA4?$AA0?$AA9?$AA6?$AA?0?$AA?5?$AAs?$AAz?$AAL@ 1009c520     LIBCMTD:dbgrptt.obj
 0002:00016578       ??_C@_1BI@JIDBEPIG@?$AA?$CF?$AAs?$AA?$CI?$AA?$CF?$AAd?$AA?$CJ?$AA?5?$AA?3?$AA?5?$AA?$CF?$AAs?$AA?$AA@ 1009c578     LIBCMTD:dbgrptt.obj
 0002:00016590       ??_C@_1EK@PHCBEDKB@?$AAw?$AAc?$AAs?$AAc?$AAa?$AAt?$AA_?$AAs?$AA?$CI?$AAs?$AAz?$AAL?$AAi?$AAn?$AAe?$AAM?$AAe?$AAs?$AAs?$AAa?$AAg?$AAe?$AA?0?$AA?5?$AA4?$AA0?$AA9?$AA6?$AA?0?$AA?5?$AAL?$AA?$CC@ 1009c590     LIBCMTD:dbgrptt.obj
 0002:000165dc       ??_C@_13CMNBPIDO@?$AA?$AN?$AA?$AA@ 1009c5dc     LIBCMTD:dbgrptt.obj
 0002:000165e0       ??_C@_1EK@NMDFGHMF@?$AAw?$AAc?$AAs?$AAc?$AAa?$AAt?$AA_?$AAs?$AA?$CI?$AAs?$AAz?$AAL?$AAi?$AAn?$AAe?$AAM?$AAe?$AAs?$AAs?$AAa?$AAg?$AAe?$AA?0?$AA?5?$AA4?$AA0?$AA9?$AA6?$AA?0?$AA?5?$AAL?$AA?$CC@ 1009c5e0     LIBCMTD:dbgrptt.obj
 0002:00016630       ??_C@_1FK@HPADHBBD@?$AAw?$AAc?$AAs?$AAc?$AAa?$AAt?$AA_?$AAs?$AA?$CI?$AAs?$AAz?$AAL?$AAi?$AAn?$AAe?$AAM?$AAe?$AAs?$AAs?$AAa?$AAg?$AAe?$AA?0?$AA?5?$AA4?$AA0?$AA9?$AA6?$AA?0?$AA?5?$AAs?$AAz@ 1009c630     LIBCMTD:dbgrptt.obj
 0002:00016690       ??_C@_1KO@DGAHENCH@?$AAw?$AAc?$AAs?$AAc?$AAp?$AAy?$AA_?$AAs?$AA?$CI?$AAs?$AAz?$AAL?$AAi?$AAn?$AAe?$AAM?$AAe?$AAs?$AAs?$AAa?$AAg?$AAe?$AA?0?$AA?5?$AA4?$AA0?$AA9?$AA6?$AA?0?$AA?5?$AAs?$AAz@ 1009c690     LIBCMTD:dbgrptt.obj
 0002:00016740       ??_C@_1CG@FFFGGODN@?$AAA?$AAs?$AAs?$AAe?$AAr?$AAt?$AAi?$AAo?$AAn?$AA?5?$AAf?$AAa?$AAi?$AAl?$AAe?$AAd?$AA?3?$AA?5?$AA?$AA@ 1009c740     LIBCMTD:dbgrptt.obj
 0002:00016768       ??_C@_1JK@KHFABAEO@?$AAw?$AAc?$AAs?$AAc?$AAp?$AAy?$AA_?$AAs?$AA?$CI?$AAs?$AAz?$AAU?$AAs?$AAe?$AAr?$AAM?$AAe?$AAs?$AAs?$AAa?$AAg?$AAe?$AA?0?$AA?5?$AA4?$AA0?$AA9?$AA6?$AA?0?$AA?5?$AAL?$AA?$CC@ 1009c768     LIBCMTD:dbgrptt.obj
 0002:00016804       ??_C@_1BA@ELMMDCFC@?$AA?0?$AA?5?$AAL?$AAi?$AAn?$AAe?$AA?5?$AA?$AA@ 1009c804     LIBCMTD:dbgrptt.obj
 0002:00016814       ??_C@_1BO@OCHMLCAG@?$AA?$DM?$AAf?$AAi?$AAl?$AAe?$AA?5?$AAu?$AAn?$AAk?$AAn?$AAo?$AAw?$AAn?$AA?$DO?$AA?$AA@ 1009c814     LIBCMTD:dbgrptt.obj
 0002:00016838       ??_C@_1EM@MJFLEDMB@?$AAS?$AAe?$AAc?$AAo?$AAn?$AAd?$AA?5?$AAC?$AAh?$AAa?$AAn?$AAc?$AAe?$AA?5?$AAA?$AAs?$AAs?$AAe?$AAr?$AAt?$AAi?$AAo?$AAn?$AA?5?$AAF?$AAa?$AAi?$AAl?$AAe?$AAd?$AA?3?$AA?5@ 1009c838     LIBCMTD:dbgrptt.obj
 0002:00016888       ??_C@_1FA@CNLLOMHI@?$AA_?$AAi?$AAt?$AAo?$AAw?$AA_?$AAs?$AA?$CI?$AAn?$AAL?$AAi?$AAn?$AAe?$AA?0?$AA?5?$AAs?$AAz?$AAL?$AAi?$AAn?$AAe?$AAM?$AAe?$AAs?$AAs?$AAa?$AAg?$AAe?$AA?0?$AA?5?$AA4?$AA0@ 1009c888     LIBCMTD:dbgrptt.obj
 0002:000168d8       ??_C@_1CA@HPALHDOD@?$AA_?$AAV?$AAC?$AAr?$AAt?$AAD?$AAb?$AAg?$AAR?$AAe?$AAp?$AAo?$AAr?$AAt?$AAW?$AA?$AA@ 1009c8d8     LIBCMTD:dbgrptt.obj
 0002:000168f8       ??_C@_1BE@BMIJMLDD@?$AA_?$AAs?$AAw?$AAp?$AAr?$AAi?$AAn?$AAt?$AAf?$AA?$AA@ 1009c8f8     LIBCMTD:swprintf.obj
 0002:00016910       ??_C@_1GE@DKGHLBLP@?$AAf?$AA?3?$AA?2?$AAd?$AAd?$AA?2?$AAv?$AAc?$AAt?$AAo?$AAo?$AAl?$AAs?$AA?2?$AAc?$AAr?$AAt?$AA_?$AAb?$AAl?$AAd?$AA?2?$AAs?$AAe?$AAl?$AAf?$AA_?$AAx?$AA8?$AA6?$AA?2?$AAc@ 1009c910     LIBCMTD:swprintf.obj
 0002:00016974       ??_C@_0DB@JEHOCBEJ@f?3?2dd?2vctools?2crt_bld?2self_x86?2c@ 1009c974     LIBCMTD:_getbuf.obj
 0002:000169a8       ??_C@_1GC@DKMGNNCC@?$AAf?$AA?3?$AA?2?$AAd?$AAd?$AA?2?$AAv?$AAc?$AAt?$AAo?$AAo?$AAl?$AAs?$AA?2?$AAc?$AAr?$AAt?$AA_?$AAb?$AAl?$AAd?$AA?2?$AAs?$AAe?$AAl?$AAf?$AA_?$AAx?$AA8?$AA6?$AA?2?$AAc@ 1009c9a8     LIBCMTD:_getbuf.obj
 0002:00016a0c       ??_C@_1BA@LEBDGIHM@?$AA_?$AAi?$AAs?$AAa?$AAt?$AAt?$AAy?$AA?$AA@ 1009ca0c     LIBCMTD:isatty.obj
 0002:00016a20       ??_C@_1GA@LPGDJDEN@?$AAf?$AA?3?$AA?2?$AAd?$AAd?$AA?2?$AAv?$AAc?$AAt?$AAo?$AAo?$AAl?$AAs?$AA?2?$AAc?$AAr?$AAt?$AA_?$AAb?$AAl?$AAd?$AA?2?$AAs?$AAe?$AAl?$AAf?$AA_?$AAx?$AA8?$AA6?$AA?2?$AAc@ 1009ca20     LIBCMTD:isatty.obj
 0002:00016a80       ??_C@_1O@GKDHFACN@?$AAp?$AAr?$AAi?$AAn?$AAt?$AAf?$AA?$AA@ 1009ca80     LIBCMTD:printf.obj
 0002:00016a90       ??_C@_1GA@LHEGHOAF@?$AAf?$AA?3?$AA?2?$AAd?$AAd?$AA?2?$AAv?$AAc?$AAt?$AAo?$AAo?$AAl?$AAs?$AA?2?$AAc?$AAr?$AAt?$AA_?$AAb?$AAl?$AAd?$AA?2?$AAs?$AAe?$AAl?$AAf?$AA_?$AAx?$AA8?$AA6?$AA?2?$AAc@ 1009ca90     LIBCMTD:printf.obj
 0002:00016af0       ??_C@_1BI@IEADNOHF@?$AA_?$AAw?$AAc?$AAt?$AAo?$AAm?$AAb?$AA_?$AAs?$AA_?$AAl?$AA?$AA@ 1009caf0     LIBCMTD:wctomb.obj
 0002:00016b08       ??_C@_1GA@LDLHPOO@?$AAf?$AA?3?$AA?2?$AAd?$AAd?$AA?2?$AAv?$AAc?$AAt?$AAo?$AAo?$AAl?$AAs?$AA?2?$AAc?$AAr?$AAt?$AA_?$AAb?$AAl?$AAd?$AA?2?$AAs?$AAe?$AAl?$AAf?$AA_?$AAx?$AA8?$AA6?$AA?2?$AAc@ 1009cb08     LIBCMTD:wctomb.obj
 0002:00016b68       ??_C@_1CO@HFMIILNF@?$AAs?$AAi?$AAz?$AAe?$AAI?$AAn?$AAB?$AAy?$AAt?$AAe?$AAs?$AA?5?$AA?$DM?$AA?$DN?$AA?5?$AAI?$AAN?$AAT?$AA_?$AAM?$AAA?$AAX?$AA?$AA@ 1009cb68     LIBCMTD:wctomb.obj
 0002:00016b98       ??_C@_0DB@KIKNCIEC@f?3?2dd?2vctools?2crt_bld?2self_x86?2c@ 1009cb98     LIBCMTD:osfinfo.obj
 0002:00016bcc       ??_C@_1BO@EMBOBGKE@?$AA_?$AAg?$AAe?$AAt?$AA_?$AAo?$AAs?$AAf?$AAh?$AAa?$AAn?$AAd?$AAl?$AAe?$AA?$AA@ 1009cbcc     LIBCMTD:osfinfo.obj
 0002:00016bf0       ??_C@_1GC@MLKLDJJG@?$AAf?$AA?3?$AA?2?$AAd?$AAd?$AA?2?$AAv?$AAc?$AAt?$AAo?$AAo?$AAl?$AAs?$AA?2?$AAc?$AAr?$AAt?$AA_?$AAb?$AAl?$AAd?$AA?2?$AAs?$AAe?$AAl?$AAf?$AA_?$AAx?$AA8?$AA6?$AA?2?$AAc@ 1009cbf0     LIBCMTD:osfinfo.obj
 0002:00016c54       ??_C@_1BK@JMCGJOCC@?$AA_?$AAe?$AAx?$AAp?$AAa?$AAn?$AAd?$AA_?$AAb?$AAa?$AAs?$AAe?$AA?$AA@ 1009cc54     LIBCMTD:expand.obj
 0002:00016c70       ??_C@_1GA@EBHFLDNH@?$AAf?$AA?3?$AA?2?$AAd?$AAd?$AA?2?$AAv?$AAc?$AAt?$AAo?$AAo?$AAl?$AAs?$AA?2?$AAc?$AAr?$AAt?$AA_?$AAb?$AAl?$AAd?$AA?2?$AAs?$AAe?$AAl?$AAf?$AA_?$AAx?$AA8?$AA6?$AA?2?$AAc@ 1009cc70     LIBCMTD:expand.obj
 0002:00016cd0       ??_C@_1BO@KFIJIAEA@?$AAp?$AAB?$AAl?$AAo?$AAc?$AAk?$AA?5?$AA?$CB?$AA?$DN?$AA?5?$AAN?$AAU?$AAL?$AAL?$AA?$AA@ 1009ccd0     LIBCMTD:expand.obj
 0002:00016cf0       ??_C@_1BA@KBJJGFFE@?$AAs?$AAp?$AAr?$AAi?$AAn?$AAt?$AAf?$AA?$AA@ 1009ccf0     LIBCMTD:sprintf.obj
 0002:00016d00       ??_C@_1GC@BMNPEKNN@?$AAf?$AA?3?$AA?2?$AAd?$AAd?$AA?2?$AAv?$AAc?$AAt?$AAo?$AAo?$AAl?$AAs?$AA?2?$AAc?$AAr?$AAt?$AA_?$AAb?$AAl?$AAd?$AA?2?$AAs?$AAe?$AAl?$AAf?$AA_?$AAx?$AA8?$AA6?$AA?2?$AAc@ 1009cd00     LIBCMTD:sprintf.obj
 0002:00016d64       ??_C@_1M@MFLJCMFJ@?$AA_?$AAo?$AAp?$AAe?$AAn?$AA?$AA@ 1009cd64     LIBCMTD:open.obj
 0002:00016d70       ??_C@_1FM@LFKHNNH@?$AAf?$AA?3?$AA?2?$AAd?$AAd?$AA?2?$AAv?$AAc?$AAt?$AAo?$AAo?$AAl?$AAs?$AA?2?$AAc?$AAr?$AAt?$AA_?$AAb?$AAl?$AAd?$AA?2?$AAs?$AAe?$AAl?$AAf?$AA_?$AAx?$AA8?$AA6?$AA?2?$AAc@ 1009cd70     LIBCMTD:open.obj
 0002:00016dcc       ??_C@_1BO@DPAOGEII@?$AA?$CI?$AAp?$AAa?$AAt?$AAh?$AA?5?$AA?$CB?$AA?$DN?$AA?5?$AAN?$AAU?$AAL?$AAL?$AA?$CJ?$AA?$AA@ 1009cdcc     LIBCMTD:open.obj
 0002:00016df0       ??_C@_1FG@NFINBJCM@?$AA?$CI?$AA?$CI?$AAp?$AAm?$AAo?$AAd?$AAe?$AA?5?$AA?$CG?$AA?5?$AA?$CI?$AA?$HO?$AA?$CI?$AA_?$AAS?$AA_?$AAI?$AAR?$AAE?$AAA?$AAD?$AA?5?$AA?$HM?$AA?5?$AA_?$AAS?$AA_?$AAI?$AAW?$AAR?$AAI?$AAT@ 1009cdf0     LIBCMTD:open.obj
 0002:00016e48       ??_C@_1BM@IOBAMMHO@?$AA_?$AAs?$AAo?$AAp?$AAe?$AAn?$AA_?$AAh?$AAe?$AAl?$AAp?$AAe?$AAr?$AA?$AA@ 1009ce48     LIBCMTD:open.obj
 0002:00016e64       ??_C@_1BM@PGEEHLHE@?$AA?$CI?$AAp?$AAf?$AAh?$AA?5?$AA?$CB?$AA?$DN?$AA?5?$AAN?$AAU?$AAL?$AAL?$AA?$CJ?$AA?$AA@ 1009ce64     LIBCMTD:open.obj
 0002:00016e80       ??_C@_1IA@IENOJNJF@?$AA0?$AA?5?$AA?$CG?$AA?$CG?$AA?5?$AA?$CC?$AAO?$AAn?$AAl?$AAy?$AA?5?$AAU?$AAT?$AAF?$AA?9?$AA1?$AA6?$AA?5?$AAl?$AAi?$AAt?$AAt?$AAl?$AAe?$AA?5?$AAe?$AAn?$AAd?$AAi?$AAa?$AAn?$AA?5@ 1009ce80     LIBCMTD:open.obj
 0002:00016f00       ??_C@_1CM@IDLMKMPG@?$AA0?$AA?5?$AA?$CG?$AA?$CG?$AA?5?$AA?$CC?$AAI?$AAn?$AAt?$AAe?$AAr?$AAn?$AAa?$AAl?$AA?5?$AAE?$AAr?$AAr?$AAo?$AAr?$AA?$CC?$AA?$AA@ 1009cf00     LIBCMTD:open.obj
 0002:00016f30       ??_C@_1HM@GJANBLHJ@?$AA?$CI?$AAo?$AAf?$AAl?$AAa?$AAg?$AA?5?$AA?$CG?$AA?5?$AA?$CI?$AA_?$AAO?$AA_?$AAT?$AAE?$AAX?$AAT?$AA?5?$AA?$HM?$AA?5?$AA_?$AAO?$AA_?$AAW?$AAT?$AAE?$AAX?$AAT?$AA?5?$AA?$HM?$AA?5?$AA_@ 1009cf30     LIBCMTD:open.obj
 0002:00016fac       ??_C@_1DO@PJLMOANO@?$AA?$CI?$AA?5?$AA?$CC?$AAI?$AAn?$AAv?$AAa?$AAl?$AAi?$AAd?$AA?5?$AAs?$AAh?$AAa?$AAr?$AAi?$AAn?$AAg?$AA?5?$AAf?$AAl?$AAa?$AAg?$AA?$CC?$AA?5?$AA?0?$AA?5?$AA0?$AA?5?$AA?$CJ?$AA?$AA@ 1009cfac     LIBCMTD:open.obj
 0002:00016fec       ??_C@_1DI@DGKIFCCE@?$AA?$CI?$AA?5?$AA?$CC?$AAI?$AAn?$AAv?$AAa?$AAl?$AAi?$AAd?$AA?5?$AAo?$AAp?$AAe?$AAn?$AA?5?$AAf?$AAl?$AAa?$AAg?$AA?$CC?$AA?5?$AA?0?$AA?5?$AA0?$AA?5?$AA?$CJ?$AA?$AA@ 1009cfec     LIBCMTD:open.obj
 0002:00017024       ??_C@_1CG@ICBEBDJJ@?$AA_?$AAg?$AAe?$AAt?$AA_?$AAf?$AAm?$AAo?$AAd?$AAe?$AA?$CI?$AA?$CG?$AAf?$AAm?$AAo?$AAd?$AAe?$AA?$CJ?$AA?$AA@ 1009d024     LIBCMTD:open.obj
 0002:0001704c       ??_C@_1BO@JOPFMPGH@?$AA_?$AAt?$AAs?$AAo?$AAp?$AAe?$AAn?$AA_?$AAn?$AAo?$AAl?$AAo?$AAc?$AAk?$AA?$AA@ 1009d04c     LIBCMTD:open.obj
 0002:0001706c       ??_C@_1BG@GBJNMPFA@?$AAs?$AA2?$AA?5?$AA?$CB?$AA?$DN?$AA?5?$AAN?$AAU?$AAL?$AAL?$AA?$AA@ 1009d06c     LIBCMTD:mbsnbicm.obj
 0002:00017084       ??_C@_1BK@GEJONGBG@?$AA_?$AAm?$AAb?$AAs?$AAn?$AAb?$AAi?$AAc?$AAm?$AAp?$AA_?$AAl?$AA?$AA@ 1009d084     LIBCMTD:mbsnbicm.obj
 0002:000170a0       ??_C@_1GE@JLFFJINF@?$AAf?$AA?3?$AA?2?$AAd?$AAd?$AA?2?$AAv?$AAc?$AAt?$AAo?$AAo?$AAl?$AAs?$AA?2?$AAc?$AAr?$AAt?$AA_?$AAb?$AAl?$AAd?$AA?2?$AAs?$AAe?$AAl?$AAf?$AA_?$AAx?$AA8?$AA6?$AA?2?$AAc@ 1009d0a0     LIBCMTD:mbsnbicm.obj
 0002:00017104       ??_C@_1BG@MODEICJK@?$AAs?$AA1?$AA?5?$AA?$CB?$AA?$DN?$AA?5?$AAN?$AAU?$AAL?$AAL?$AA?$AA@ 1009d104     LIBCMTD:mbsnbicm.obj
 0002:0001711c       ??_C@_1BI@LPHOHGHI@?$AA_?$AAm?$AAb?$AAs?$AAn?$AAb?$AAc?$AAm?$AAp?$AA_?$AAl?$AA?$AA@ 1009d11c     LIBCMTD:mbsnbcmp.obj
 0002:00017138       ??_C@_1GE@IIBFGEPN@?$AAf?$AA?3?$AA?2?$AAd?$AAd?$AA?2?$AAv?$AAc?$AAt?$AAo?$AAo?$AAl?$AAs?$AA?2?$AAc?$AAr?$AAt?$AA_?$AAb?$AAl?$AAd?$AA?2?$AAs?$AAe?$AAl?$AAf?$AA_?$AAx?$AA8?$AA6?$AA?2?$AAc@ 1009d138     LIBCMTD:mbsnbcmp.obj
 0002:0001719c       ?commonFlags@?1??_control87@@9@9 1009d19c     LIBCMTD:_ieee87_.obj
 0002:000171a0       ??_C@_1GO@OKJGOMCB@?$AA_?$AAc?$AAo?$AAn?$AAt?$AAr?$AAo?$AAl?$AAf?$AAp?$AA_?$AAs?$AA?$CI?$AA?$CI?$AA?$CI?$AAv?$AAo?$AAi?$AAd?$AA?5?$AA?$CK?$AA?$CJ?$AA0?$AA?$CJ?$AA?0?$AA?5?$AAn?$AAe?$AAw?$AAc?$AAt?$AAr@ 1009d1a0     LIBCMTD:_ieee87_.obj
 0002:00017210       ??_C@_1BO@OFDNCLL@?$AA_?$AAs?$AAe?$AAt?$AA_?$AAc?$AAo?$AAn?$AAt?$AAr?$AAo?$AAl?$AAf?$AAp?$AA?$AA@ 1009d210     LIBCMTD:_ieee87_.obj
 0002:00017230       ??_C@_1HO@BFDKGHOI@?$AAf?$AA?3?$AA?2?$AAd?$AAd?$AA?2?$AAv?$AAc?$AAt?$AAo?$AAo?$AAl?$AAs?$AA?2?$AAc?$AAr?$AAt?$AA_?$AAb?$AAl?$AAd?$AA?2?$AAs?$AAe?$AAl?$AAf?$AA_?$AAx?$AA8?$AA6?$AA?2?$AAc@ 1009d230     LIBCMTD:_ieee87_.obj
 0002:000172b0       ??_C@_1BO@IHLJHOPI@?$AA_?$AA_?$AAs?$AAt?$AAr?$AAg?$AAt?$AAo?$AAl?$AAd?$AA1?$AA2?$AA_?$AAl?$AA?$AA@ 1009d2b0     LIBCMTD:_strgtold_.obj
 0002:000172d0       ??_C@_1IG@IGKPPFIM@?$AAf?$AA?3?$AA?2?$AAd?$AAd?$AA?2?$AAv?$AAc?$AAt?$AAo?$AAo?$AAl?$AAs?$AA?2?$AAc?$AAr?$AAt?$AA_?$AAb?$AAl?$AAd?$AA?2?$AAs?$AAe?$AAl?$AAf?$AA_?$AAx?$AA8?$AA6?$AA?2?$AAc@ 1009d2d0     LIBCMTD:_strgtold_.obj
 0002:00017358       ??_C@_1CA@MBDBOHIB@?$AA_?$AAL?$AAo?$AAc?$AAa?$AAl?$AAe?$AA?5?$AA?$CB?$AA?$DN?$AA?5?$AAN?$AAU?$AAL?$AAL?$AA?$AA@ 1009d358     LIBCMTD:_strgtold_.obj
 0002:00017378       ??_C@_06IMKFLFPG@1?$CDQNAN?$AA@ 1009d378     LIBCMTD:_x10fout_.obj
 0002:00017380       ??_C@_1EG@MCFPJJEM@?$AAs?$AAt?$AAr?$AAc?$AAp?$AAy?$AA_?$AAs?$AA?$CI?$AAf?$AAo?$AAs?$AA?9?$AA?$DO?$AAm?$AAa?$AAn?$AA?0?$AA?5?$AA2?$AA1?$AA?$CL?$AA1?$AA?0?$AA?5?$AA?$CC?$AA1?$AA?$CD?$AAQ?$AAN?$AAA?$AAN@ 1009d380     LIBCMTD:_x10fout_.obj
 0002:000173c8       ??_C@_05DNEBIAHO@1?$CDINF?$AA@ 1009d3c8     LIBCMTD:_x10fout_.obj
 0002:000173d0       ??_C@_1EE@ICBBBPAI@?$AAs?$AAt?$AAr?$AAc?$AAp?$AAy?$AA_?$AAs?$AA?$CI?$AAf?$AAo?$AAs?$AA?9?$AA?$DO?$AAm?$AAa?$AAn?$AA?0?$AA?5?$AA2?$AA1?$AA?$CL?$AA1?$AA?0?$AA?5?$AA?$CC?$AA1?$AA?$CD?$AAI?$AAN?$AAF?$AA?$CC@ 1009d3d0     LIBCMTD:_x10fout_.obj
 0002:00017414       ??_C@_05PHHOCPM@1?$CDIND?$AA@ 1009d414     LIBCMTD:_x10fout_.obj
 0002:00017420       ??_C@_1EE@MADEBIHF@?$AAs?$AAt?$AAr?$AAc?$AAp?$AAy?$AA_?$AAs?$AA?$CI?$AAf?$AAo?$AAs?$AA?9?$AA?$DO?$AAm?$AAa?$AAn?$AA?0?$AA?5?$AA2?$AA1?$AA?$CL?$AA1?$AA?0?$AA?5?$AA?$CC?$AA1?$AA?$CD?$AAI?$AAN?$AAD?$AA?$CC@ 1009d420     LIBCMTD:_x10fout_.obj
 0002:00017464       ??_C@_06PGGFOGJG@1?$CDSNAN?$AA@ 1009d464     LIBCMTD:_x10fout_.obj
 0002:00017470       ??_C@_1EG@CDDBFNOB@?$AAs?$AAt?$AAr?$AAc?$AAp?$AAy?$AA_?$AAs?$AA?$CI?$AAf?$AAo?$AAs?$AA?9?$AA?$DO?$AAm?$AAa?$AAn?$AA?0?$AA?5?$AA2?$AA1?$AA?$CL?$AA1?$AA?0?$AA?5?$AA?$CC?$AA1?$AA?$CD?$AAS?$AAN?$AAA?$AAN@ 1009d470     LIBCMTD:_x10fout_.obj
 0002:000174b8       ??_C@_1BI@ELMAAFLN@?$AA$?$AAI?$AA1?$AA0?$AA_?$AAO?$AAU?$AAT?$AAP?$AAU?$AAT?$AA?$AA@ 1009d4b8     LIBCMTD:_x10fout_.obj
 0002:000174d0       ??_C@_1HG@HFJMHCFK@?$AAf?$AA?3?$AA?2?$AAd?$AAd?$AA?2?$AAv?$AAc?$AAt?$AAo?$AAo?$AAl?$AAs?$AA?2?$AAc?$AAr?$AAt?$AA_?$AAb?$AAl?$AAd?$AA?2?$AAs?$AAe?$AAl?$AAf?$AA_?$AAx?$AA8?$AA6?$AA?2?$AAc@ 1009d4d0     LIBCMTD:_x10fout_.obj
 0002:00017548       ??_C@_0BK@CIDNPOGP@GetUserObjectInformationA?$AA@ 1009d548     LIBCMTD:crtmbox.obj
 0002:00017564       ??_C@_0M@CHKKJDAI@MessageBoxA?$AA@ 1009d564     LIBCMTD:crtmbox.obj
 0002:00017570       ??_C@_1BK@KHBCJPCH@?$AA_?$AAw?$AAm?$AAa?$AAk?$AAe?$AAp?$AAa?$AAt?$AAh?$AA_?$AAs?$AA?$AA@ 1009d570     LIBCMTD:wmakepath_s.obj
 0002:00017590       ??_C@_1GO@DHMODCKM@?$AAf?$AA?3?$AA?2?$AAd?$AAd?$AA?2?$AAv?$AAc?$AAt?$AAo?$AAo?$AAl?$AAs?$AA?2?$AAc?$AAr?$AAt?$AA_?$AAb?$AAl?$AAd?$AA?2?$AAs?$AAe?$AAl?$AAf?$AA_?$AAx?$AA8?$AA6?$AA?2?$AAc@ 1009d590     LIBCMTD:wmakepath_s.obj
 0002:00017600       ??_C@_1DE@MLEJGPLF@?$AA?$CI?$AAL?$AA?$CC?$AAI?$AAn?$AAv?$AAa?$AAl?$AAi?$AAd?$AA?5?$AAp?$AAa?$AAr?$AAa?$AAm?$AAe?$AAt?$AAe?$AAr?$AA?$CC?$AA?0?$AA?5?$AA0?$AA?$CJ?$AA?$AA@ 1009d600     LIBCMTD:wsplitpath_s.obj
 0002:00017634       ??_C@_1BM@OEAFIBCF@?$AA_?$AAw?$AAs?$AAp?$AAl?$AAi?$AAt?$AAp?$AAa?$AAt?$AAh?$AA_?$AAs?$AA?$AA@ 1009d634     LIBCMTD:wsplitpath_s.obj
 0002:00017650       ??_C@_1HA@GHKPFCBF@?$AAf?$AA?3?$AA?2?$AAd?$AAd?$AA?2?$AAv?$AAc?$AAt?$AAo?$AAo?$AAl?$AAs?$AA?2?$AAc?$AAr?$AAt?$AA_?$AAb?$AAl?$AAd?$AA?2?$AAs?$AAe?$AAl?$AAf?$AA_?$AAx?$AA8?$AA6?$AA?2?$AAc@ 1009d650     LIBCMTD:wsplitpath_s.obj
 0002:000176c0       ??_C@_1CI@MLPLHPBP@?$AA?$CI?$AA?$CI?$AA?$CI?$AA_?$AAP?$AAa?$AAt?$AAh?$AA?$CJ?$AA?$CJ?$AA?$CJ?$AA?5?$AA?$CB?$AA?$DN?$AA?5?$AAN?$AAU?$AAL?$AAL?$AA?$AA@ 1009d6c0     LIBCMTD:wsplitpath_s.obj
 0002:000176e8       ??_C@_1O@HJNPHHHB@?$AAf?$AAp?$AAu?$AAt?$AAw?$AAc?$AA?$AA@ 1009d6e8     LIBCMTD:fputwc.obj
 0002:000176f8       ??_C@_1GA@BJIGKGEA@?$AAf?$AA?3?$AA?2?$AAd?$AAd?$AA?2?$AAv?$AAc?$AAt?$AAo?$AAo?$AAl?$AAs?$AA?2?$AAc?$AAr?$AAt?$AA_?$AAb?$AAl?$AAd?$AA?2?$AAs?$AAe?$AAl?$AAf?$AA_?$AAx?$AA8?$AA6?$AA?2?$AAc@ 1009d6f8     LIBCMTD:fputwc.obj
 0002:00017758       ___lookuptable_s           1009d758     LIBCMTD:outputs.obj
 0002:000177b4       ??_C@_1BI@COFBLHCG@?$AA_?$AAo?$AAu?$AAt?$AAp?$AAu?$AAt?$AA_?$AAs?$AA_?$AAl?$AA?$AA@ 1009d7b4     LIBCMTD:outputs.obj
 0002:000177d0       ??_C@_1IK@MHEDJAMK@?$AA_?$AAt?$AAv?$AAa?$AAl?$AAi?$AAd?$AAa?$AAt?$AAe?$AA_?$AAp?$AAa?$AAr?$AAa?$AAm?$AA_?$AAr?$AAe?$AAu?$AAs?$AAe?$AA?$CI?$AA?$CG?$AAp?$AAo?$AAs?$AA_?$AAv?$AAa?$AAl?$AAu@ 1009d7d0     LIBCMTD:outputp.obj
 0002:0001785c       ??_C@_1BI@KANOLAMF@?$AA_?$AAo?$AAu?$AAt?$AAp?$AAu?$AAt?$AA_?$AAp?$AA_?$AAl?$AA?$AA@ 1009d85c     LIBCMTD:outputp.obj
 0002:00017874       ??_C@_1BA@PCFLFGNC@?$AAw?$AAc?$AAs?$AAt?$AAo?$AAx?$AAl?$AA?$AA@ 1009d874     LIBCMTD:wcstol.obj
 0002:00017888       ??_C@_1GA@CADFOND@?$AAf?$AA?3?$AA?2?$AAd?$AAd?$AA?2?$AAv?$AAc?$AAt?$AAo?$AAo?$AAl?$AAs?$AA?2?$AAc?$AAr?$AAt?$AA_?$AAb?$AAl?$AAd?$AA?2?$AAs?$AAe?$AAl?$AAf?$AA_?$AAx?$AA8?$AA6?$AA?2?$AAc@ 1009d888     LIBCMTD:wcstol.obj
 0002:000178e8       __pDestructExceptionObject 1009d8e8     LIBCMTD:frame.obj
 0002:000178ec       ??_C@_0O@DPKOEFFH@bad?5exception?$AA@ 1009d8ec     LIBCMTD:frame.obj
 0002:00017900       ??_7bad_exception@std@@6B@ 1009d900     LIBCMTD:frame.obj
 0002:00017908       ??_C@_1O@GIMBNLEI@?$AAx?$AAt?$AAo?$AAa?$AA_?$AAs?$AA?$AA@ 1009d908     LIBCMTD:xtoas.obj
 0002:00017918       ??_C@_1BC@MJJNBNFN@?$AAx?$AA6?$AA4?$AAt?$AAo?$AAa?$AA_?$AAs?$AA?$AA@ 1009d918     LIBCMTD:xtoas.obj
 0002:0001792c       ??_C@_1CC@JLPHKJPH@?$AAc?$AAo?$AAu?$AAn?$AAt?$AA?5?$AA?$DM?$AA?$DN?$AA?5?$AAI?$AAN?$AAT?$AA_?$AAM?$AAA?$AAX?$AA?$AA@ 1009d92c     LIBCMTD:strnicmp.obj
 0002:00017950       ??_C@_1BI@BJLEPLEF@?$AA_?$AAs?$AAt?$AAr?$AAn?$AAi?$AAc?$AAm?$AAp?$AA_?$AAl?$AA?$AA@ 1009d950     LIBCMTD:strnicmp.obj
 0002:00017968       ??_C@_1GE@CONPOJMA@?$AAf?$AA?3?$AA?2?$AAd?$AAd?$AA?2?$AAv?$AAc?$AAt?$AAo?$AAo?$AAl?$AAs?$AA?2?$AAc?$AAr?$AAt?$AA_?$AAb?$AAl?$AAd?$AA?2?$AAs?$AAe?$AAl?$AAf?$AA_?$AAx?$AA8?$AA6?$AA?2?$AAc@ 1009d968     LIBCMTD:strnicmp.obj
 0002:000179cc       ??_C@_1BE@BHJDFFNA@?$AA_?$AAs?$AAt?$AAr?$AAn?$AAi?$AAc?$AAm?$AAp?$AA?$AA@ 1009d9cc     LIBCMTD:strnicmp.obj
 0002:000179e0       ??_C@_1CG@JEHFHLNG@?$AA_?$AAm?$AAb?$AAs?$AAt?$AAo?$AAw?$AAc?$AAs?$AA_?$AAl?$AA_?$AAh?$AAe?$AAl?$AAp?$AAe?$AAr?$AA?$AA@ 1009d9e0     LIBCMTD:mbstowcs.obj
 0002:00017a08       ??_C@_1GE@LCCDHBMH@?$AAf?$AA?3?$AA?2?$AAd?$AAd?$AA?2?$AAv?$AAc?$AAt?$AAo?$AAo?$AAl?$AAs?$AA?2?$AAc?$AAr?$AAt?$AA_?$AAb?$AAl?$AAd?$AA?2?$AAs?$AAe?$AAl?$AAf?$AA_?$AAx?$AA8?$AA6?$AA?2?$AAc@ 1009da08     LIBCMTD:mbstowcs.obj
 0002:00017a6c       ??_C@_1BE@EEKACIGI@?$AAs?$AA?5?$AA?$CB?$AA?$DN?$AA?5?$AAN?$AAU?$AAL?$AAL?$AA?$AA@ 1009da6c     LIBCMTD:mbstowcs.obj
 0002:00017a80       ??_C@_1CO@JNPEPJAL@?$AAr?$AAe?$AAt?$AAs?$AAi?$AAz?$AAe?$AA?5?$AA?$DM?$AA?$DN?$AA?5?$AAs?$AAi?$AAz?$AAe?$AAI?$AAn?$AAW?$AAo?$AAr?$AAd?$AAs?$AA?$AA@ 1009da80     LIBCMTD:mbstowcs.obj
 0002:00017ab0       ??_C@_1CM@LLECFMFH@?$AAb?$AAu?$AAf?$AAf?$AAe?$AAr?$AAS?$AAi?$AAz?$AAe?$AA?5?$AA?$DM?$AA?$DN?$AA?5?$AAI?$AAN?$AAT?$AA_?$AAM?$AAA?$AAX?$AA?$AA@ 1009dab0     LIBCMTD:mbstowcs.obj
 0002:00017adc       ??_C@_1BM@PHENIGHD@?$AA_?$AAm?$AAb?$AAs?$AAt?$AAo?$AAw?$AAc?$AAs?$AA_?$AAs?$AA_?$AAl?$AA?$AA@ 1009dadc     LIBCMTD:mbstowcs.obj
 0002:00017af8       ??_C@_1JA@JKDFMOPO@?$AA?$CI?$AAp?$AAw?$AAc?$AAs?$AA?5?$AA?$DN?$AA?$DN?$AA?5?$AAN?$AAU?$AAL?$AAL?$AA?5?$AA?$CG?$AA?$CG?$AA?5?$AAs?$AAi?$AAz?$AAe?$AAI?$AAn?$AAW?$AAo?$AAr?$AAd?$AAs?$AA?5?$AA?$DN?$AA?$DN?$AA?5@ 1009daf8     LIBCMTD:mbstowcs.obj
 0002:00017b88       ??_C@_1CE@PCFPEIFI@?$AA_?$AAv?$AAs?$AAn?$AAp?$AAr?$AAi?$AAn?$AAt?$AAf?$AA_?$AAh?$AAe?$AAl?$AAp?$AAe?$AAr?$AA?$AA@ 1009db88     LIBCMTD:vsnprnc.obj
 0002:00017bb0       ??_C@_1EE@OKCKIGFK@?$AAs?$AAt?$AAr?$AAi?$AAn?$AAg?$AA?5?$AA?$CB?$AA?$DN?$AA?5?$AAN?$AAU?$AAL?$AAL?$AA?5?$AA?$CG?$AA?$CG?$AA?5?$AAs?$AAi?$AAz?$AAe?$AAI?$AAn?$AAB?$AAy?$AAt?$AAe?$AAs?$AA?5?$AA?$DO?$AA?5@ 1009dbb0     LIBCMTD:vsnprnc.obj
 0002:00017bf4       ??_C@_1BM@BLJALHEF@?$AA_?$AAv?$AAs?$AAp?$AAr?$AAi?$AAn?$AAt?$AAf?$AA_?$AAs?$AA_?$AAl?$AA?$AA@ 1009dbf4     LIBCMTD:vsnprnc.obj
 0002:00017c10       ??_C@_1BO@MMPELNIM@?$AA_?$AAv?$AAs?$AAn?$AAp?$AAr?$AAi?$AAn?$AAt?$AAf?$AA_?$AAs?$AA_?$AAl?$AA?$AA@ 1009dc10     LIBCMTD:vsnprnc.obj
 0002:00017c30       ??_C@_1CG@LLJCAOHF@?$AA_?$AAw?$AAc?$AAs?$AAt?$AAo?$AAm?$AAb?$AAs?$AA_?$AAl?$AA_?$AAh?$AAe?$AAl?$AAp?$AAe?$AAr?$AA?$AA@ 1009dc30     LIBCMTD:wcstombs.obj
 0002:00017c58       ??_C@_1GE@OAENIBOD@?$AAf?$AA?3?$AA?2?$AAd?$AAd?$AA?2?$AAv?$AAc?$AAt?$AAo?$AAo?$AAl?$AAs?$AA?2?$AAc?$AAr?$AAt?$AA_?$AAb?$AAl?$AAd?$AA?2?$AAs?$AAe?$AAl?$AAf?$AA_?$AAx?$AA8?$AA6?$AA?2?$AAc@ 1009dc58     LIBCMTD:wcstombs.obj
 0002:00017cbc       ??_C@_1BK@OIBENBPM@?$AAp?$AAw?$AAc?$AAs?$AA?5?$AA?$CB?$AA?$DN?$AA?5?$AAN?$AAU?$AAL?$AAL?$AA?$AA@ 1009dcbc     LIBCMTD:wcstombs.obj
 0002:00017cd8       ??_C@_1CM@KEOGBFLI@?$AAs?$AAi?$AAz?$AAe?$AAI?$AAn?$AAB?$AAy?$AAt?$AAe?$AAs?$AA?5?$AA?$DO?$AA?5?$AAr?$AAe?$AAt?$AAs?$AAi?$AAz?$AAe?$AA?$AA@ 1009dcd8     LIBCMTD:wcstombs.obj
 0002:00017d04       ??_C@_1BM@BDMCLLDL@?$AA_?$AAw?$AAc?$AAs?$AAt?$AAo?$AAm?$AAb?$AAs?$AA_?$AAs?$AA_?$AAl?$AA?$AA@ 1009dd04     LIBCMTD:wcstombs.obj
 0002:00017d20       ??_C@_1IM@MFGKHGBP@?$AA?$CI?$AAd?$AAs?$AAt?$AA?5?$AA?$CB?$AA?$DN?$AA?5?$AAN?$AAU?$AAL?$AAL?$AA?5?$AA?$CG?$AA?$CG?$AA?5?$AAs?$AAi?$AAz?$AAe?$AAI?$AAn?$AAB?$AAy?$AAt?$AAe?$AAs?$AA?5?$AA?$DO?$AA?5?$AA0?$AA?$CJ@ 1009dd20     LIBCMTD:wcstombs.obj
 0002:00017dac       ??_C@_1BK@EPLNBKAK@?$AA_?$AAv?$AAs?$AAw?$AAp?$AAr?$AAi?$AAn?$AAt?$AAf?$AA_?$AAl?$AA?$AA@ 1009ddac     LIBCMTD:vswprint.obj
 0002:00017dc8       ??_C@_1CG@IMMIEPNA@?$AA_?$AAv?$AAs?$AAc?$AAw?$AAp?$AAr?$AAi?$AAn?$AAt?$AAf?$AA_?$AAh?$AAe?$AAl?$AAp?$AAe?$AAr?$AA?$AA@ 1009ddc8     LIBCMTD:vswprint.obj
 0002:00017df0       ??_C@_1BO@JGFPDJCP@?$AAv?$AAp?$AAr?$AAi?$AAn?$AAt?$AAf?$AA_?$AAh?$AAe?$AAl?$AAp?$AAe?$AAr?$AA?$AA@ 1009ddf0     LIBCMTD:vprintf.obj
 0002:00017e10       ??_C@_1GC@DHFFJKMC@?$AAf?$AA?3?$AA?2?$AAd?$AAd?$AA?2?$AAv?$AAc?$AAt?$AAo?$AAo?$AAl?$AAs?$AA?2?$AAc?$AAr?$AAt?$AA_?$AAb?$AAl?$AAd?$AA?2?$AAs?$AAe?$AAl?$AAf?$AA_?$AAx?$AA8?$AA6?$AA?2?$AAc@ 1009de10     LIBCMTD:vprintf.obj
 0002:00017e74       ??_C@_1BI@IGILPKD@?$AA_?$AAv?$AAs?$AAp?$AAr?$AAi?$AAn?$AAt?$AAf?$AA_?$AAl?$AA?$AA@ 1009de74     LIBCMTD:vsprintf.obj
 0002:00017e8c       ??_C@_1CE@HMKDJHB@?$AA_?$AAv?$AAs?$AAc?$AAp?$AAr?$AAi?$AAn?$AAt?$AAf?$AA_?$AAh?$AAe?$AAl?$AAp?$AAe?$AAr?$AA?$AA@ 1009de8c     LIBCMTD:vsprintf.obj
 0002:00017eb0       ??_C@_1BI@GALBKMKE@?$AA?$CI?$AAs?$AAi?$AAz?$AAe?$AA?5?$AA?$DO?$AA?$DN?$AA?5?$AA0?$AA?$CJ?$AA?$AA@ 1009deb0     LIBCMTD:chsize.obj
 0002:00017ec8       ??_C@_1BE@MAFDNGED@?$AA_?$AAc?$AAh?$AAs?$AAi?$AAz?$AAe?$AA_?$AAs?$AA?$AA@ 1009dec8     LIBCMTD:chsize.obj
 0002:00017ee0       ??_C@_1GA@DBKMEDOF@?$AAf?$AA?3?$AA?2?$AAd?$AAd?$AA?2?$AAv?$AAc?$AAt?$AAo?$AAo?$AAl?$AAs?$AA?2?$AAc?$AAr?$AAt?$AA_?$AAb?$AAl?$AAd?$AA?2?$AAs?$AAe?$AAl?$AAf?$AA_?$AAx?$AA8?$AA6?$AA?2?$AAc@ 1009dee0     LIBCMTD:chsize.obj
 0002:00017f40       ??_C@_1BC@JBGGJDCM@?$AA_?$AAs?$AAe?$AAt?$AAm?$AAo?$AAd?$AAe?$AA?$AA@ 1009df40     LIBCMTD:setmode.obj
 0002:00017f58       ??_C@_1GC@KODPFLLJ@?$AAf?$AA?3?$AA?2?$AAd?$AAd?$AA?2?$AAv?$AAc?$AAt?$AAo?$AAo?$AAl?$AAs?$AA?2?$AAc?$AAr?$AAt?$AA_?$AAb?$AAl?$AAd?$AA?2?$AAs?$AAe?$AAl?$AAf?$AA_?$AAx?$AA8?$AA6?$AA?2?$AAc@ 1009df58     LIBCMTD:setmode.obj
 0002:00017fc0       ??_C@_1OA@HGPJIFPM@?$AA?$CI?$AA?$CI?$AAm?$AAo?$AAd?$AAe?$AA?5?$AA?$DN?$AA?$DN?$AA?5?$AA_?$AAO?$AA_?$AAT?$AAE?$AAX?$AAT?$AA?$CJ?$AA?5?$AA?$HM?$AA?$HM?$AA?5?$AA?$CI?$AAm?$AAo?$AAd?$AAe?$AA?5?$AA?$DN?$AA?$DN?$AA?5?$AA_@ 1009dfc0     LIBCMTD:setmode.obj
 0002:000180a0       ??_C@_1BG@IEEHLOCL@?$AA_?$AAs?$AAe?$AAt?$AA_?$AAf?$AAm?$AAo?$AAd?$AAe?$AA?$AA@ 1009e0a0     LIBCMTD:setmode.obj
 0002:000180b8       ??_C@_1IC@NDCJMLB@?$AA?$CI?$AA?$CI?$AAm?$AAo?$AAd?$AAe?$AA?5?$AA?$DN?$AA?$DN?$AA?5?$AA_?$AAO?$AA_?$AAT?$AAE?$AAX?$AAT?$AA?$CJ?$AA?5?$AA?$HM?$AA?$HM?$AA?5?$AA?$CI?$AAm?$AAo?$AAd?$AAe?$AA?5?$AA?$DN?$AA?$DN?$AA?5?$AA_@ 1009e0b8     LIBCMTD:setmode.obj
 0002:0001813c       ??_C@_1BG@CKGMPOFH@?$AA_?$AAg?$AAe?$AAt?$AA_?$AAf?$AAm?$AAo?$AAd?$AAe?$AA?$AA@ 1009e13c     LIBCMTD:setmode.obj
 0002:00018154       ??_C@_1CA@GPIGPPFN@?$AA?$CI?$AAp?$AAM?$AAo?$AAd?$AAe?$AA?5?$AA?$CB?$AA?$DN?$AA?5?$AAN?$AAU?$AAL?$AAL?$AA?$CJ?$AA?$AA@ 1009e154     LIBCMTD:setmode.obj
 0002:00018174       ??_C@_1BA@BALFACEM@?$AAC?$AAO?$AAN?$AAO?$AAU?$AAT?$AA$?$AA?$AA@ 1009e174     LIBCMTD:initcon.obj
 0002:000181a8       ??_7type_info@@6B@         1009e1a8     LIBCMTD:typinfo.obj
 0002:000181b0       ??_7exception@std@@6B@     1009e1b0     LIBCMTD:stdexcpt.obj
 0002:000181b8       ??_C@_0BC@EOODALEL@Unknown?5exception?$AA@ 1009e1b8     LIBCMTD:stdexcpt.obj
 0002:000181d0       ??_7bad_cast@std@@6B@      1009e1d0     LIBCMTD:stdexcpt.obj
 0002:000181dc       ??_7bad_typeid@std@@6B@    1009e1dc     LIBCMTD:stdexcpt.obj
 0002:000181e8       ??_7__non_rtti_object@std@@6B@ 1009e1e8     LIBCMTD:stdexcpt.obj
 0002:000181f0       ??_C@_1GE@BDAODJCD@?$AAf?$AA?3?$AA?2?$AAd?$AAd?$AA?2?$AAv?$AAc?$AAt?$AAo?$AAo?$AAl?$AAs?$AA?2?$AAc?$AAr?$AAt?$AA_?$AAb?$AAl?$AAd?$AA?2?$AAs?$AAe?$AAl?$AAf?$AA_?$AAx?$AA8?$AA6?$AA?2?$AAc@ 1009e1f0     LIBCMTD:dbgdel.obj
 0002:00018258       ??_C@_1HG@KNCBMCDD@?$AAf?$AA?3?$AA?2?$AAd?$AAd?$AA?2?$AAv?$AAc?$AAt?$AAo?$AAo?$AAl?$AAs?$AA?2?$AAc?$AAr?$AAt?$AA_?$AAb?$AAl?$AAd?$AA?2?$AAs?$AAe?$AAl?$AAf?$AA_?$AAx?$AA8?$AA6?$AA?2?$AAc@ 1009e258     LIBCMTD:typname.obj
 0002:000182d0       ??_C@_1CK@GELGGBDK@?$AAp?$AAN?$AAo?$AAd?$AAe?$AA?9?$AA?$DO?$AA_?$AAN?$AAe?$AAx?$AAt?$AA?5?$AA?$CB?$AA?$DN?$AA?5?$AAN?$AAU?$AAL?$AAL?$AA?$AA@ 1009e2d0     LIBCMTD:typname.obj
 0002:00018300       ??_C@_1JK@NAFNEPGC@?$AAs?$AAt?$AAr?$AAc?$AAp?$AAy?$AA_?$AAs?$AA?5?$AA?$CI?$AA?$CI?$AAc?$AAh?$AAa?$AAr?$AA?5?$AA?$CK?$AA?$CJ?$AA?$CI?$AA?$CI?$AAt?$AAy?$AAp?$AAe?$AA_?$AAi?$AAn?$AAf?$AAo?$AA?5?$AA?$CK?$AA?$CJ@ 1009e300     LIBCMTD:typname.obj
 0002:0001839c       ??_C@_1CM@OOICDMK@?$AAt?$AAy?$AAp?$AAe?$AA_?$AAi?$AAn?$AAf?$AAo?$AA?3?$AA?3?$AA_?$AAN?$AAa?$AAm?$AAe?$AA_?$AAb?$AAa?$AAs?$AAe?$AA?$AA@ 1009e39c     LIBCMTD:typname.obj
 0002:000183c8       ??_C@_1GI@EAJKJPED@?$AAs?$AAt?$AAr?$AAc?$AAp?$AAy?$AA_?$AAs?$AA?5?$AA?$CI?$AAp?$AAT?$AAm?$AAp?$AAT?$AAy?$AAp?$AAe?$AAN?$AAa?$AAm?$AAe?$AA?0?$AA?5?$AAl?$AAe?$AAn?$AA?$CL?$AA2?$AA?0?$AA?5?$AA?$CI@ 1009e3c8     LIBCMTD:typname.obj
 0002:00018430       ??_C@_1DO@OJJLFJPE@?$AAt?$AAy?$AAp?$AAe?$AA_?$AAi?$AAn?$AAf?$AAo?$AA?3?$AA?3?$AA_?$AAN?$AAa?$AAm?$AAe?$AA_?$AAb?$AAa?$AAs?$AAe?$AA_?$AAi?$AAn?$AAt?$AAe?$AAr?$AAn?$AAa?$AAl?$AA?$AA@ 1009e430     LIBCMTD:typname.obj
 0002:00018470       ??_C@_0BK@CFCOFLF@?5Complete?5Object?5Locator?8?$AA@ 1009e470     LIBCMTD:undname.obj
 0002:0001848c       ??_C@_0BN@MECKDCOJ@?5Class?5Hierarchy?5Descriptor?8?$AA@ 1009e48c     LIBCMTD:undname.obj
 0002:000184ac       ??_C@_0BD@LGICGFMM@?5Base?5Class?5Array?8?$AA@ 1009e4ac     LIBCMTD:undname.obj
 0002:000184c0       ??_C@_0BM@LDKODKLH@?5Base?5Class?5Descriptor?5at?5?$CI?$AA@ 1009e4c0     LIBCMTD:undname.obj
 0002:000184dc       ??_C@_0BC@DAFEJGAK@?5Type?5Descriptor?8?$AA@ 1009e4dc     LIBCMTD:undname.obj
 0002:000184f0       ??_C@_0BM@PMGGMLDN@?$GAlocal?5static?5thread?5guard?8?$AA@ 1009e4f0     LIBCMTD:undname.obj
 0002:0001850c       ??_C@_0CL@FGIJHLCE@?$GAmanaged?5vector?5copy?5constructor@ 1009e50c     LIBCMTD:undname.obj
 0002:00018538       ??_C@_0CJ@GJELGAMM@?$GAvector?5vbase?5copy?5constructor?5i@ 1009e538     LIBCMTD:undname.obj
 0002:00018564       ??_C@_0CD@CGAJBKEJ@?$GAvector?5copy?5constructor?5iterato@ 1009e564     LIBCMTD:undname.obj
 0002:00018588       ??_C@_0CB@PDBIFEP@?$GAdynamic?5atexit?5destructor?5for?5?8@ 1009e588     LIBCMTD:undname.obj
 0002:000185ac       ??_C@_0BL@CLIPGLGB@?$GAdynamic?5initializer?5for?5?8?$AA@ 1009e5ac     LIBCMTD:undname.obj
 0002:000185c8       ??_C@_0CM@FCBBDIGB@?$GAeh?5vector?5vbase?5copy?5constructo@ 1009e5c8     LIBCMTD:undname.obj
 0002:000185f4       ??_C@_0CG@HLDDJMAG@?$GAeh?5vector?5copy?5constructor?5iter@ 1009e5f4     LIBCMTD:undname.obj
 0002:0001861c       ??_C@_0CF@IMGKMJNO@?$GAmanaged?5vector?5destructor?5itera@ 1009e61c     LIBCMTD:undname.obj
 0002:00018644       ??_C@_0CG@CFDHKGGD@?$GAmanaged?5vector?5constructor?5iter@ 1009e644     LIBCMTD:undname.obj
 0002:0001866c       ??_C@_0BN@CKNJLHMB@?$GAplacement?5delete?$FL?$FN?5closure?8?$AA@ 1009e66c     LIBCMTD:undname.obj
 0002:0001868c       ??_C@_0BL@CNOONJFP@?$GAplacement?5delete?5closure?8?$AA@ 1009e68c     LIBCMTD:undname.obj
 0002:000186a8       ??_C@_0P@HJKNJFNN@?$GAomni?5callsig?8?$AA@ 1009e6a8     LIBCMTD:undname.obj
 0002:000186b8       ??_C@_09LBNFPBCA@?5delete?$FL?$FN?$AA@ 1009e6b8     LIBCMTD:undname.obj
 0002:000186c4       ??_C@_06FHBGPFGH@?5new?$FL?$FN?$AA@ 1009e6c4     LIBCMTD:undname.obj
 0002:000186cc       ??_C@_0CE@IIHCMGGL@?$GAlocal?5vftable?5constructor?5closu@ 1009e6cc     LIBCMTD:undname.obj
 0002:000186f0       ??_C@_0BA@KKLDJDLB@?$GAlocal?5vftable?8?$AA@ 1009e6f0     LIBCMTD:undname.obj
 0002:00018700       ??_C@_05KHLCHHI@?$GARTTI?$AA@ 1009e700     LIBCMTD:undname.obj
 0002:00018708       ??_C@_03KLGMFNMG@?$GAEH?$AA@ 1009e708     LIBCMTD:undname.obj
 0002:0001870c       ??_C@_0BA@KBCDOMBN@?$GAudt?5returning?8?$AA@ 1009e70c     LIBCMTD:undname.obj
 0002:0001871c       ??_C@_0BL@LLKPOHJI@?$GAcopy?5constructor?5closure?8?$AA@ 1009e71c     LIBCMTD:undname.obj
 0002:00018738       ??_C@_0CH@OOJPLCPH@?$GAeh?5vector?5vbase?5constructor?5ite@ 1009e738     LIBCMTD:undname.obj
 0002:00018760       ??_C@_0CA@GCEOPDGL@?$GAeh?5vector?5destructor?5iterator?8?$AA@ 1009e760     LIBCMTD:undname.obj
 0002:00018780       ??_C@_0CB@JONCMFFK@?$GAeh?5vector?5constructor?5iterator?8@ 1009e780     LIBCMTD:undname.obj
 0002:000187a4       ??_C@_0BL@NILFHHPC@?$GAvirtual?5displacement?5map?8?$AA@ 1009e7a4     LIBCMTD:undname.obj
 0002:000187c0       ??_C@_0CE@IKBNEHA@?$GAvector?5vbase?5constructor?5iterat@ 1009e7c0     LIBCMTD:undname.obj
 0002:000187e4       ??_C@_0BN@LFPFMEDL@?$GAvector?5destructor?5iterator?8?$AA@ 1009e7e4     LIBCMTD:undname.obj
 0002:00018804       ??_C@_0BO@PFGOCPJJ@?$GAvector?5constructor?5iterator?8?$AA@ 1009e804     LIBCMTD:undname.obj
 0002:00018824       ??_C@_0BN@IMDCHIKM@?$GAscalar?5deleting?5destructor?8?$AA@ 1009e824     LIBCMTD:undname.obj
 0002:00018844       ??_C@_0BO@OBMKPJIG@?$GAdefault?5constructor?5closure?8?$AA@ 1009e844     LIBCMTD:undname.obj
 0002:00018864       ??_C@_0BN@DEGPLNFK@?$GAvector?5deleting?5destructor?8?$AA@ 1009e864     LIBCMTD:undname.obj
 0002:00018884       ??_C@_0BD@JDLKDPAB@?$GAvbase?5destructor?8?$AA@ 1009e884     LIBCMTD:undname.obj
 0002:00018898       ??_C@_08OBABFOLI@?$GAstring?8?$AA@ 1009e898     LIBCMTD:undname.obj
 0002:000188a4       ??_C@_0BF@KDPPACIK@?$GAlocal?5static?5guard?8?$AA@ 1009e8a4     LIBCMTD:undname.obj
 0002:000188bc       ??_C@_08LLFFHHDJ@?$GAtypeof?8?$AA@ 1009e8bc     LIBCMTD:undname.obj
 0002:000188c8       ??_C@_07FEEIOKP@?$GAvcall?8?$AA@ 1009e8c8     LIBCMTD:undname.obj
 0002:000188d0       ??_C@_09BLBHBJP@?$GAvbtable?8?$AA@ 1009e8d0     LIBCMTD:undname.obj
 0002:000188dc       ??_C@_09IFPLHPGF@?$GAvftable?8?$AA@ 1009e8dc     LIBCMTD:undname.obj
 0002:000188e8       ??_C@_02MHEGNOJ@?$FO?$DN?$AA@ 1009e8e8     LIBCMTD:undname.obj
 0002:000188ec       ??_C@_02DHLNPPGH@?$HM?$DN?$AA@ 1009e8ec     LIBCMTD:undname.obj
 0002:000188f0       ??_C@_02FGJGFEAB@?$CG?$DN?$AA@ 1009e8f0     LIBCMTD:undname.obj
 0002:000188f4       ??_C@_03CDNPDDLA@?$DM?$DM?$DN?$AA@ 1009e8f4     LIBCMTD:undname.obj
 0002:000188f8       ??_C@_03IKFCCPFF@?$DO?$DO?$DN?$AA@ 1009e8f8     LIBCMTD:undname.obj
 0002:000188fc       ??_C@_02FENAOKFI@?$CF?$DN?$AA@ 1009e8fc     LIBCMTD:undname.obj
 0002:00018900       ??_C@_02FJEHGPIO@?1?$DN?$AA@ 1009e900     LIBCMTD:undname.obj
 0002:00018904       ??_C@_02FKMDLLOA@?9?$DN?$AA@ 1009e904     LIBCMTD:undname.obj
 0002:00018908       ??_C@_02FOEOMHFC@?$CL?$DN?$AA@ 1009e908     LIBCMTD:undname.obj
 0002:0001890c       ??_C@_02FPIMKNGF@?$CK?$DN?$AA@ 1009e90c     LIBCMTD:undname.obj
 0002:00018910       ??_C@_02NONPIBCD@?$HM?$HM?$AA@ 1009e910     LIBCMTD:undname.obj
 0002:00018914       ??_C@_02PPKAJPJL@?$CG?$CG?$AA@ 1009e914     LIBCMTD:undname.obj
 0002:00018918       ??_C@_01DNKMNLPK@?$HM?$AA@ 1009e918     LIBCMTD:undname.obj
 0002:0001891c       ??_C@_01JKBOJNNK@?$FO?$AA@ 1009e91c     LIBCMTD:undname.obj
 0002:00018920       ??_C@_01PJKLJHI@?$HO?$AA@  1009e920     LIBCMTD:undname.obj
 0002:00018924       ??_C@_02HCKGKOFO@?$CI?$CJ?$AA@ 1009e924     LIBCMTD:undname.obj
 0002:00018928       ??_C@_01IHBHIGKO@?0?$AA@   1009e928     LIBCMTD:undname.obj
 0002:0001892c       ??_C@_02EEKDKGMJ@?$DO?$DN?$AA@ 1009e92c     LIBCMTD:undname.obj
 0002:00018930       ??_C@_01PPODPGHN@?$DO?$AA@ 1009e930     LIBCMTD:undname.obj
 0002:00018934       ??_C@_02EHCHHCKH@?$DM?$DN?$AA@ 1009e934     LIBCMTD:undname.obj
 0002:00018938       ??_C@_01MNNFJEPP@?$DM?$AA@ 1009e938     LIBCMTD:undname.obj
 0002:0001893c       ??_C@_01FGNFDNOH@?$CF?$AA@ 1009e93c     LIBCMTD:undname.obj
 0002:00018940       ??_C@_01KMDKNFGN@?1?$AA@   1009e940     LIBCMTD:undname.obj
 0002:00018944       ??_C@_03MNHNFDLC@?9?$DO?$CK?$AA@ 1009e944     LIBCMTD:undname.obj
 0002:00018948       ??_C@_01HNPIGOCE@?$CG?$AA@ 1009e948     LIBCMTD:undname.obj
 0002:0001894c       ??_C@_01MIFGBAGJ@?$CL?$AA@ 1009e94c     LIBCMTD:undname.obj
 0002:00018950       ??_C@_01JOAMLHOP@?9?$AA@   1009e950     LIBCMTD:undname.obj
 0002:00018954       ??_C@_02BAABKJLB@?9?9?$AA@ 1009e954     LIBCMTD:undname.obj
 0002:00018958       ??_C@_02ECNGHCIF@?$CL?$CL?$AA@ 1009e958     LIBCMTD:undname.obj
 0002:0001895c       ??_C@_01NBENCBCI@?$CK?$AA@ 1009e95c     LIBCMTD:undname.obj
 0002:00018960       ??_C@_02HBOOOICD@?9?$DO?$AA@ 1009e960     LIBCMTD:undname.obj
 0002:00018964       ??_C@_08LHJFAFGD@operator?$AA@ 1009e964     LIBCMTD:undname.obj
 0002:00018970       ??_C@_02GPECMEKF@?$FL?$FN?$AA@ 1009e970     LIBCMTD:undname.obj
 0002:00018974       ??_C@_02FDNJECIE@?$CB?$DN?$AA@ 1009e974     LIBCMTD:undname.obj
 0002:00018978       ??_C@_02EGOFBIJA@?$DN?$DN?$AA@ 1009e978     LIBCMTD:undname.obj
 0002:0001897c       ??_C@_01DCLJPIOD@?$CB?$AA@ 1009e97c     LIBCMTD:undname.obj
 0002:00018980       ??_C@_02FODMEDOG@?$DM?$DM?$AA@ 1009e980     LIBCMTD:undname.obj
 0002:00018984       ??_C@_02GPIOPFAK@?$DO?$DO?$AA@ 1009e984     LIBCMTD:undname.obj
 0002:00018988       ??_C@_07FPCDHGMM@?5delete?$AA@ 1009e988     LIBCMTD:undname.obj
 0002:00018990       ??_C@_04NIHEBCM@?5new?$AA@ 1009e990     LIBCMTD:undname.obj
 0002:00018998       ??_C@_0M@GFIIJFMG@__unaligned?$AA@ 1009e998     LIBCMTD:undname.obj
 0002:000189a4       ??_C@_0L@PILCLIHE@__restrict?$AA@ 1009e9a4     LIBCMTD:undname.obj
 0002:000189b0       ??_C@_07JOMMBBKO@__ptr64?$AA@ 1009e9b0     LIBCMTD:undname.obj
 0002:000189b8       ??_C@_06GHPCKEAG@__eabi?$AA@ 1009e9b8     LIBCMTD:undname.obj
 0002:000189c0       ??_C@_09HIJEGCPM@__clrcall?$AA@ 1009e9c0     LIBCMTD:undname.obj
 0002:000189cc       ??_C@_0L@JMKHOMEK@__fastcall?$AA@ 1009e9cc     LIBCMTD:undname.obj
 0002:000189d8       ??_C@_0L@NPHFGOKO@__thiscall?$AA@ 1009e9d8     LIBCMTD:undname.obj
 0002:000189e4       ??_C@_09IFJBGAPI@__stdcall?$AA@ 1009e9e4     LIBCMTD:undname.obj
 0002:000189f0       ??_C@_08GHMPAG@__pascal?$AA@ 1009e9f0     LIBCMTD:undname.obj
 0002:000189fc       ??_C@_07KOLFKCDI@__cdecl?$AA@ 1009e9fc     LIBCMTD:undname.obj
 0002:00018a04       ??_C@_08EHJDFFNH@__based?$CI?$AA@ 1009ea04     LIBCMTD:undname.obj
 0002:00018b94       ??_C@_04HEJADOOB@CV?3?5?$AA@ 1009eb94     LIBCMTD:undname.obj
 0002:00018b9c       ??_C@_02MOLJINC@?3?3?$AA@  1009eb9c     LIBCMTD:undname.obj
 0002:00018ba0       ??_C@_01GEODFPGF@?8?$AA@   1009eba0     LIBCMTD:undname.obj
 0002:00018ba4       ??_C@_01NLNLIGKH@?$GA?$AA@ 1009eba4     LIBCMTD:undname.obj
 0002:00018ba8       ??_C@_0O@KHGCOMHP@generic?9type?9?$AA@ 1009eba8     LIBCMTD:undname.obj
 0002:00018bb8       ??_C@_0BE@JAEOCHPE@template?9parameter?9?$AA@ 1009ebb8     LIBCMTD:undname.obj
 0002:00018bcc       ??_C@_02OHHJMEON@?8?8?$AA@ 1009ebcc     LIBCMTD:undname.obj
 0002:00018bd0       ??_C@_0BG@JNJLAMPM@?$GAanonymous?5namespace?8?$AA@ 1009ebd0     LIBCMTD:undname.obj
 0002:00018be8       ??_C@_0BN@IBLMMFAP@?$GAnon?9type?9template?9parameter?$AA@ 1009ebe8     LIBCMTD:undname.obj
 0002:00018c08       ??_C@_0BE@EODMJLIF@?$GAtemplate?9parameter?$AA@ 1009ec08     LIBCMTD:undname.obj
 0002:00018c1c       ??_C@_04GKJNKENE@void?$AA@ 1009ec1c     LIBCMTD:undname.obj
 0002:00018c24       ??_C@_04HIBGFPH@NULL?$AA@  1009ec24     LIBCMTD:undname.obj
 0002:00018c2c       ??_C@_0M@DHNBOJMP@extern?5?$CCC?$CC?5?$AA@ 1009ec2c     LIBCMTD:undname.obj
 0002:00018c38       ??_C@_08KJLFOPNE@?$FLthunk?$FN?3?$AA@ 1009ec38     LIBCMTD:undname.obj
 0002:00018c44       ??_C@_08GPDDCMKI@public?3?5?$AA@ 1009ec44     LIBCMTD:undname.obj
 0002:00018c50       ??_C@_0M@GAIFPFIP@protected?3?5?$AA@ 1009ec50     LIBCMTD:undname.obj
 0002:00018c5c       ??_C@_09LAPHOOG@private?3?5?$AA@ 1009ec5c     LIBCMTD:undname.obj
 0002:00018c68       ??_C@_08NIEOINHE@virtual?5?$AA@ 1009ec68     LIBCMTD:undname.obj
 0002:00018c74       ??_C@_07PGOEDBHP@static?5?$AA@ 1009ec74     LIBCMTD:undname.obj
 0002:00018c7c       ??_C@_0DA@HGFJFBBE@?$GAtemplate?5static?5data?5member?5des@ 1009ec7c     LIBCMTD:undname.obj
 0002:00018cac       ??_C@_0DB@ILEFOCIJ@?$GAtemplate?5static?5data?5member?5con@ 1009ecac     LIBCMTD:undname.obj
 0002:00018ce0       ??_C@_0CB@KJDOOODE@?$GAlocal?5static?5destructor?5helper?8@ 1009ece0     LIBCMTD:undname.obj
 0002:00018d04       ??_C@_0L@HNGCOGAE@?$GAadjustor?$HL?$AA@ 1009ed04     LIBCMTD:undname.obj
 0002:00018d10       ??_C@_0L@GHPFDFH@?$GAvtordisp?$HL?$AA@ 1009ed10     LIBCMTD:undname.obj
 0002:00018d1c       ??_C@_0N@CBHHHENL@?$GAvtordispex?$HL?$AA@ 1009ed1c     LIBCMTD:undname.obj
 0002:00018d2c       ??_C@_01CLKCMJKC@?5?$AA@   1009ed2c     LIBCMTD:undname.obj
 0002:00018d30       ??_C@_02IGFCGPIL@?$HN?8?$AA@ 1009ed30     LIBCMTD:undname.obj
 0002:00018d34       ??_C@_03OPGICMGF@?$HN?8?5?$AA@ 1009ed34     LIBCMTD:undname.obj
 0002:00018d38       ??_C@_02KCKGHPCA@?$CJ?5?$AA@ 1009ed38     LIBCMTD:undname.obj
 0002:00018d3c       ??_C@_05BEFAKPML@void?5?$AA@ 1009ed3c     LIBCMTD:undname.obj
 0002:00018d44       ??_C@_0P@GCOCNKDM@std?3?3nullptr_t?$AA@ 1009ed44     LIBCMTD:undname.obj
 0002:00018d54       ??_C@_08PABEKFH@volatile?$AA@ 1009ed54     LIBCMTD:undname.obj
 0002:00018d60       ??_C@_0M@ELJOJFFH@?0?$DMellipsis?$DO?$AA@ 1009ed60     LIBCMTD:undname.obj
 0002:00018d6c       ??_C@_04EENFHACM@?0?4?4?4?$AA@ 1009ed6c     LIBCMTD:undname.obj
 0002:00018d74       ??_C@_0L@EGPHHEKN@?$DMellipsis?$DO?$AA@ 1009ed74     LIBCMTD:undname.obj
 0002:00018d80       ??_C@_07HDJPLPEK@?5throw?$CI?$AA@ 1009ed80     LIBCMTD:undname.obj
 0002:00018d88       ??_C@_09EFNPDFFP@?5volatile?$AA@ 1009ed88     LIBCMTD:undname.obj
 0002:00018d94       ??_C@_05BNCCCJPP@const?$AA@ 1009ed94     LIBCMTD:undname.obj
 0002:00018d9c       ??_C@_07EDHNAJHC@signed?5?$AA@ 1009ed9c     LIBCMTD:undname.obj
 0002:00018da4       ??_C@_09EBBEKKIH@unsigned?5?$AA@ 1009eda4     LIBCMTD:undname.obj
 0002:00018db0       ??_C@_07NFANNNEC@UNKNOWN?$AA@ 1009edb0     LIBCMTD:undname.obj
 0002:00018db8       ??_C@_06GCICPBLB@__w64?5?$AA@ 1009edb8     LIBCMTD:undname.obj
 0002:00018dc0       ??_C@_07CLGGIAMF@wchar_t?$AA@ 1009edc0     LIBCMTD:undname.obj
 0002:00018dc8       ??_C@_09EEKGDCPH@?$DMunknown?$DO?$AA@ 1009edc8     LIBCMTD:undname.obj
 0002:00018dd4       ??_C@_08GAHOLHEO@__int128?$AA@ 1009edd4     LIBCMTD:undname.obj
 0002:00018de0       ??_C@_07LFCOJCAC@__int64?$AA@ 1009ede0     LIBCMTD:undname.obj
 0002:00018de8       ??_C@_07OFLPPHGP@__int32?$AA@ 1009ede8     LIBCMTD:undname.obj
 0002:00018df0       ??_C@_07ICFHOGAF@__int16?$AA@ 1009edf0     LIBCMTD:undname.obj
 0002:00018df8       ??_C@_06EBGKOKIG@__int8?$AA@ 1009edf8     LIBCMTD:undname.obj
 0002:00018e00       ??_C@_04DDKJGDCM@bool?$AA@ 1009ee00     LIBCMTD:undname.obj
 0002:00018e08       ??_C@_06BNJCAIGJ@double?$AA@ 1009ee08     LIBCMTD:undname.obj
 0002:00018e10       ??_C@_05CJIMAING@long?5?$AA@ 1009ee10     LIBCMTD:undname.obj
 0002:00018e18       ??_C@_05KNFBNCOH@float?$AA@ 1009ee18     LIBCMTD:undname.obj
 0002:00018e20       ??_C@_04GOKPGOLB@long?$AA@ 1009ee20     LIBCMTD:undname.obj
 0002:00018e28       ??_C@_03JBIPMCLC@int?$AA@  1009ee28     LIBCMTD:undname.obj
 0002:00018e2c       ??_C@_05BFKKPKCG@short?$AA@ 1009ee2c     LIBCMTD:undname.obj
 0002:00018e34       ??_C@_04ENMBGAPA@char?$AA@ 1009ee34     LIBCMTD:undname.obj
 0002:00018e3c       ??_C@_05LJGMCFOG@enum?5?$AA@ 1009ee3c     LIBCMTD:undname.obj
 0002:00018e44       ??_C@_0N@DLIEFKNA@cointerface?5?$AA@ 1009ee44     LIBCMTD:undname.obj
 0002:00018e54       ??_C@_08KOFANOFK@coclass?5?$AA@ 1009ee54     LIBCMTD:undname.obj
 0002:00018e60       ??_C@_06LJBABKPM@class?5?$AA@ 1009ee60     LIBCMTD:undname.obj
 0002:00018e68       ??_C@_07DIBCDNGL@struct?5?$AA@ 1009ee68     LIBCMTD:undname.obj
 0002:00018e70       ??_C@_06MOJHIBMG@union?5?$AA@ 1009ee70     LIBCMTD:undname.obj
 0002:00018e78       ??_C@_0P@GCIFDJCJ@?$GAunknown?5ecsu?8?$AA@ 1009ee78     LIBCMTD:undname.obj
 0002:00018e88       ??_C@_04LAHKHJMA@int?5?$AA@ 1009ee88     LIBCMTD:undname.obj
 0002:00018e90       ??_C@_06EHJMALKF@short?5?$AA@ 1009ee90     LIBCMTD:undname.obj
 0002:00018e98       ??_C@_05CIHEBHNO@char?5?$AA@ 1009ee98     LIBCMTD:undname.obj
 0002:00018ea0       ??_C@_06LIJLOJAG@const?5?$AA@ 1009eea0     LIBCMTD:undname.obj
 0002:00018ea8       ??_C@_09GAIEOBLP@volatile?5?$AA@ 1009eea8     LIBCMTD:undname.obj
 0002:00018eb4       ??_C@_0O@GKABPPIF@cli?3?3pin_ptr?$DM?$AA@ 1009eeb4     LIBCMTD:undname.obj
 0002:00018ec4       ??_C@_0M@EALIELKG@cli?3?3array?$DM?$AA@ 1009eec4     LIBCMTD:undname.obj
 0002:00018ed0       ??_C@_02GOGNNPBN@?$CJ?$FL?$AA@ 1009eed0     LIBCMTD:undname.obj
 0002:00018ed4       ??_C@_06EEGAIFAK@?$HLflat?$HN?$AA@ 1009eed4     LIBCMTD:undname.obj
 0002:00018edc       ??_C@_02MDINNEEG@s?5?$AA@  1009eedc     LIBCMTD:undname.obj
 0002:00018ee0       ??_C@_05JIBOFOHK@?$HLfor?5?$AA@ 1009eee0     LIBCMTD:undname.obj
 0002:00018ee8       ??_7DNameNode@@6B@         1009eee8     LIBCMTD:undname.obj
 0002:00018ef4       ??_7charNode@@6B@          1009eef4     LIBCMTD:undname.obj
 0002:00018f00       ??_7pcharNode@@6B@         1009ef00     LIBCMTD:undname.obj
 0002:00018f0c       ??_7pDNameNode@@6B@        1009ef0c     LIBCMTD:undname.obj
 0002:00018f18       ??_7DNameStatusNode@@6B@   1009ef18     LIBCMTD:undname.obj
 0002:00018f24       ??_C@_04OKOHEJBO@?5?$DP?$DP?5?$AA@ 1009ef24     LIBCMTD:undname.obj
 0002:00018f2c       ??_7pairNode@@6B@          1009ef2c     LIBCMTD:undname.obj
 0002:00019338       __real@c61c3c00            1009f338     libvorbis_static:block.obj
 0002:0001ee70       __real@41800000            100a4e70     libvorbis_static:psy.obj
 0002:0001ee78       __real@4030000000000000    100a4e78     libvorbis_static:psy.obj
 0002:0001ee80       __real@3f1a36e2e0000000    100a4e80     libvorbis_static:psy.obj
 0002:0001ee88       __real@4001eb8520000000    100a4e88     libvorbis_static:psy.obj
 0002:0001ee90       __real@3e53dd3dc0000000    100a4e90     libvorbis_static:psy.obj
 0002:0001ee98       __real@402a333340000000    100a4e98     libvorbis_static:psy.obj
 0002:0001eea0       __real@3f483f91e0000000    100a4ea0     libvorbis_static:psy.obj
 0002:0001eea8       __real@4059000000000000    100a4ea8     libvorbis_static:psy.obj
 0002:0001eeb0       __real@3fe62e42a0000000    100a4eb0     libvorbis_static:psy.obj
 0002:0001eeb8       __real@3fc0000000000000    100a4eb8     libvorbis_static:psy.obj
 0002:0001eec0       __real@3fa33333            100a4ec0     libvorbis_static:psy.obj
 0002:0001eec4       __real@3f70a3d7            100a4ec4     libvorbis_static:psy.obj
 0002:0001eec8       __real@4017dcf680000000    100a4ec8     libvorbis_static:psy.obj
 0002:0001eed0       __real@3ff7154760000000    100a4ed0     libvorbis_static:psy.obj
 0002:0001eed8       __real@3fd0000000000000    100a4ed8     libvorbis_static:psy.obj
 0002:0001eee0       __real@4020000000000000    100a4ee0     libvorbis_static:psy.obj
 0002:0001eee8       __real@c069000000000000    100a4ee8     libvorbis_static:psy.obj
 0002:0001eef0       __real@c479c000            100a4ef0     libvorbis_static:psy.obj
 0002:0001eef8       __real@3fff000000000000    100a4ef8     libvorbis_static:psy.obj
 0002:0001ef00       __real@4000800000000000    100a4f00     libvorbis_static:psy.obj
 0002:0001ef08       __real@403e000000000000    100a4f08     libvorbis_static:psy.obj
 0002:0001ef10       __real@4024000000000000    100a4f10     libvorbis_static:psy.obj
 0002:0001ef18       __real@4479c000            100a4f18     libvorbis_static:psy.obj
 0002:0001ef1c       __real@430c0000            100a4f1c     libvorbis_static:psy.obj
 0002:0001ef20       __real@4018000000000000    100a4f20     libvorbis_static:psy.obj
 0002:0001ef28       __real@3fb99999a0000000    100a4f28     libvorbis_static:psy.obj
 0002:0001ef30       __real@c0c3878000000000    100a4f30     libvorbis_static:psy.obj
 0002:0001ef38       __real@3f33a92a30553261    100a4f38     libvorbis_static:psy.obj
 0002:0001ef40       __real@38d1b717            100a4f40     libvorbis_static:psy.obj
 0002:0001ef48       __real@3f747ae147ae147b    100a4f48     libvorbis_static:psy.obj
 0002:0001ef50       __real@c189999a            100a4f50     libvorbis_static:psy.obj
 0002:0001ef54       __real@2edbe6ff            100a4f54     libvorbis_static:psy.obj
 0002:0001ef58       __real@3f50624dd2f1a9fc    100a4f58     libvorbis_static:sharedbook.obj
 0002:0001ef60       __floor_P                  100a4f60     libvorbis_static:registry.obj
 0002:0001ef68       __residue_P                100a4f68     libvorbis_static:registry.obj
 0002:0001ef74       __mapping_P                100a4f74     libvorbis_static:registry.obj
 0002:0001ef78       __real@401c000000000000    100a4f78     libvorbis_static:bitrate.obj
 0002:0001ef80       __real@402e000000000000    100a4f80     libvorbis_static:bitrate.obj
 0002:0001ef88       __real@400921fb60000000    100a4f88     libvorbis_static:envelope.obj
 0002:0001ef90       __real@3fb0000000000000    100a4f90     libvorbis_static:envelope.obj
 0002:0001ef98       __real@3fc999999999999a    100a4f98     libvorbis_static:envelope.obj
 0002:0001efa0       __real@3fe6666666666666    100a4fa0     libvorbis_static:envelope.obj
 0002:0001efa8       __real@4087e4ee00000000    100a4fa8     libvorbis_static:envelope.obj
 0002:0001efb0       __real@3ea8151820000000    100a4fb0     libvorbis_static:envelope.obj
 0002:0001efb8       __real@3fe6a09e60000000    100a4fb8     libvorbis_static:mdct.obj
 0002:0001efc0       __real@3fd87de2a0000000    100a4fc0     libvorbis_static:mdct.obj
 0002:0001efc8       __real@3fed906bc0000000    100a4fc8     libvorbis_static:mdct.obj
 0002:0001efd0       __real@3fefae147ae147ae    100a4fd0     libvorbis_static:lpc.obj
 0002:0001efd8       __real@3ddb7cdfd9d7bdbb    100a4fd8     libvorbis_static:lpc.obj
 0002:0001efe0       __real@3e112e0be826d695    100a4fe0     libvorbis_static:lpc.obj
 0002:0001efe8       __real@3ff000000006df38    100a4fe8     libvorbis_static:lpc.obj
 0002:00026f90       _mapping0_exportbundle     100acf90     libvorbis_static:mapping0.obj
 0002:00026fa8       __real@3fd6147ae147ae14    100acfa8     libvorbis_static:mapping0.obj
 0002:00026fb0       _residue0_exportbundle     100acfb0     libvorbis_static:res0.obj
 0002:00026fd0       _residue1_exportbundle     100acfd0     libvorbis_static:res0.obj
 0002:00026ff0       _residue2_exportbundle     100acff0     libvorbis_static:res0.obj
 0002:00027410       _floor1_exportbundle       100ad410     libvorbis_static:floor1.obj
 0002:00027430       __real@408ffc0000000000    100ad430     libvorbis_static:floor1.obj
 0002:00027438       __real@401d41d420000000    100ad438     libvorbis_static:floor1.obj
 0002:00027440       _floor0_exportbundle       100ad440     libvorbis_static:floor0.obj
 0002:00027460       __real@3fbd791c40000000    100ad460     libvorbis_static:lsp.obj
 0002:00027468       __real@3f000000            100ad468     libvorbis_static:lsp.obj
 0002:00027470       __real@3da5fd7fe1796495    100ad470     libvorbis_static:lsp.obj
 0002:00027478       __real@beb0c6f7a0b5ed8d    100ad478     libvorbis_static:lsp.obj
 0002:00027480       __real@3eb0c6f7a0b5ed8d    100ad480     libvorbis_static:lsp.obj
 0002:00027488       __real@3bc79ca10c924223    100ad488     libvorbis_static:lsp.obj
 0002:00027e88       __load_config_used         100ade88     LIBCMTD:loadcfg.obj
 0002:00027f2c       ??_R4bad_exception@std@@6B@ 100adf2c     LIBCMTD:frame.obj
 0002:00027f40       ??_R3bad_exception@std@@8  100adf40     LIBCMTD:frame.obj
 0002:00027f50       ??_R2bad_exception@std@@8  100adf50     LIBCMTD:frame.obj
 0002:00027f5c       ??_R1A@?0A@EA@bad_exception@std@@8 100adf5c     LIBCMTD:frame.obj
 0002:00027f78       ??_R1A@?0A@EA@exception@std@@8 100adf78     LIBCMTD:frame.obj
 0002:00027f94       ??_R3exception@std@@8      100adf94     LIBCMTD:frame.obj
 0002:00027fa4       ??_R2exception@std@@8      100adfa4     LIBCMTD:frame.obj
 0002:00027fac       ??_R4type_info@@6B@        100adfac     LIBCMTD:typinfo.obj
 0002:00027fc0       ??_R3type_info@@8          100adfc0     LIBCMTD:typinfo.obj
 0002:00027fd0       ??_R2type_info@@8          100adfd0     LIBCMTD:typinfo.obj
 0002:00027fd8       ??_R1A@?0A@EA@type_info@@8 100adfd8     LIBCMTD:typinfo.obj
 0002:00027ff4       ??_R4exception@std@@6B@    100adff4     LIBCMTD:stdexcpt.obj
 0002:00028008       ??_R4bad_cast@std@@6B@     100ae008     LIBCMTD:stdexcpt.obj
 0002:0002801c       ??_R3bad_cast@std@@8       100ae01c     LIBCMTD:stdexcpt.obj
 0002:0002802c       ??_R2bad_cast@std@@8       100ae02c     LIBCMTD:stdexcpt.obj
 0002:00028038       ??_R1A@?0A@EA@bad_cast@std@@8 100ae038     LIBCMTD:stdexcpt.obj
 0002:00028054       ??_R4bad_typeid@std@@6B@   100ae054     LIBCMTD:stdexcpt.obj
 0002:00028068       ??_R3bad_typeid@std@@8     100ae068     LIBCMTD:stdexcpt.obj
 0002:00028078       ??_R2bad_typeid@std@@8     100ae078     LIBCMTD:stdexcpt.obj
 0002:00028084       ??_R1A@?0A@EA@bad_typeid@std@@8 100ae084     LIBCMTD:stdexcpt.obj
 0002:000280a0       ??_R4__non_rtti_object@std@@6B@ 100ae0a0     LIBCMTD:stdexcpt.obj
 0002:000280b4       ??_R3__non_rtti_object@std@@8 100ae0b4     LIBCMTD:stdexcpt.obj
 0002:000280c4       ??_R2__non_rtti_object@std@@8 100ae0c4     LIBCMTD:stdexcpt.obj
 0002:000280d4       ??_R1A@?0A@EA@__non_rtti_object@std@@8 100ae0d4     LIBCMTD:stdexcpt.obj
 0002:000280f0       ___safe_se_handler_table   100ae0f0     <linker-defined>
 0002:0002811c       ___rtc_iaa                 100ae11c     LIBCMTD:_initsect_.obj
 0002:000281a0       ___rtc_izz                 100ae1a0     LIBCMTD:_initsect_.obj
 0002:000281a4       ___rtc_taa                 100ae1a4     LIBCMTD:_initsect_.obj
 0002:00028228       ___rtc_tzz                 100ae228     LIBCMTD:_initsect_.obj
 0002:00028bac       __TI2?AVbad_exception@std@@ 100aebac     LIBCMTD:frame.obj
 0002:00028bbc       __CTA2?AVbad_exception@std@@ 100aebbc     LIBCMTD:frame.obj
 0002:00028bc8       __CT??_R0?AVbad_exception@std@@@8??0bad_exception@std@@QAE@ABV01@@Z12 100aebc8     LIBCMTD:frame.obj
 0002:00028be4       __CT??_R0?AVexception@std@@@8??0exception@std@@QAE@ABV01@@Z12 100aebe4     LIBCMTD:frame.obj
 0002:00028f10       __IMPORT_DESCRIPTOR_KERNEL32 100aef10     kernel32:KERNEL32.dll
 0002:00028f24       __NULL_IMPORT_DESCRIPTOR   100aef24     kernel32:KERNEL32.dll
 0003:00000000       _axis_identity             100b0000     q_math.obj
 0003:00000024       _quat_identity             100b0024     q_math.obj
 0003:00000040       _bytedirs                  100b0040     q_math.obj
 0003:000007d8       _colorBlack                100b07d8     q_math.obj
 0003:000007e8       _colorRed                  100b07e8     q_math.obj
 0003:000007f8       _colorGreen                100b07f8     q_math.obj
 0003:00000808       _colorBlue                 100b0808     q_math.obj
 0003:00000818       _colorYellow               100b0818     q_math.obj
 0003:00000828       _colorOrange               100b0828     q_math.obj
 0003:00000838       _colorMagenta              100b0838     q_math.obj
 0003:00000848       _colorCyan                 100b0848     q_math.obj
 0003:00000858       _colorWhite                100b0858     q_math.obj
 0003:00000868       _colorLtGrey               100b0868     q_math.obj
 0003:00000878       _colorMdGrey               100b0878     q_math.obj
 0003:00000888       _colorDkGrey               100b0888     q_math.obj
 0003:00000898       _color_table               100b0898     q_math.obj
 0003:00000980       _SOUND_EXTENSIONS          100b0980     q_shared.obj
 0003:000009b0       _IMAGE_EXTENSIONS          100b09b0     q_shared.obj
 0003:00001af0       _qov_clear                 100b1af0     snd_decoder_ogg.obj
 0003:00001af4       _qov_open_callbacks        100b1af4     snd_decoder_ogg.obj
 0003:00001af8       _qov_pcm_total             100b1af8     snd_decoder_ogg.obj
 0003:00001afc       _qov_info                  100b1afc     snd_decoder_ogg.obj
 0003:00001b00       _qov_read                  100b1b00     snd_decoder_ogg.obj
 0003:00001b04       _qov_streams               100b1b04     snd_decoder_ogg.obj
 0003:00001b08       _qov_seekable              100b1b08     snd_decoder_ogg.obj
 0003:00001b0c       _qov_pcm_seek              100b1b0c     snd_decoder_ogg.obj
 0003:00001b2c       _ogg_decoder               100b1b2c     snd_decoder_ogg.obj
 0003:00001d70       _wav_decoder               100b1d70     snd_decoder_wav.obj
 0003:000024f8       __fltused                  100b24f8     LIBCMTD:_fpinit_.obj
 0003:000024fc       __ldused                   100b24fc     LIBCMTD:_fpinit_.obj
 0003:00002528       ___security_cookie         100b2528     LIBCMTD:gs_cookie.obj
 0003:0000252c       ___security_cookie_complement 100b252c     LIBCMTD:gs_cookie.obj
 0003:000025d0       __half                     100b25d0     LIBCMTD:_pow_.obj
 0003:00002750       __cfltcvt_tab              100b2750     LIBCMTD:cmiscdat.obj
 0003:00002780       ?_RTC_ErrorLevels@@3PAHA   100b2780     LIBCMTD:_error_.obj
 0003:00002888       __d_inf                    100b2888     LIBCMTD:_util_.obj
 0003:00002890       __d_ind                    100b2890     LIBCMTD:_util_.obj
 0003:00002898       __d_max                    100b2898     LIBCMTD:_util_.obj
 0003:000028a0       __d_min                    100b28a0     LIBCMTD:_util_.obj
 0003:000028a8       __d_mzero                  100b28a8     LIBCMTD:_util_.obj
 0003:000028d0       __iob                      100b28d0     LIBCMTD:_file.obj
 0003:00002b50       ___abort_behavior          100b2b50     LIBCMTD:abort.obj
 0003:00002b60       ___initialmbcinfo          100b2b60     LIBCMTD:mbctype.obj
 0003:00002d80       __mbctype                  100b2d80     LIBCMTD:mbctype.obj
 0003:00002e88       __mbcasemap                100b2e88     LIBCMTD:mbctype.obj
 0003:00002f88       ___ptmbcinfo               100b2f88     LIBCMTD:mbctype.obj
 0003:00003080       ___globallocalestatus      100b3080     LIBCMTD:glstatus.obj
 0003:00003084       ___clocalestr              100b3084     LIBCMTD:nlsdata2.obj
 0003:00003088       ___lc_time_c               100b3088     LIBCMTD:nlsdata2.obj
 0003:000031f0       ___initiallocinfo          100b31f0     LIBCMTD:nlsdata2.obj
 0003:000032c8       ___ptlocinfo               100b32c8     LIBCMTD:nlsdata2.obj
 0003:000032cc       ___initiallocalestructinfo 100b32cc     LIBCMTD:nlsdata2.obj
 0003:000032d4       ___flsindex                100b32d4     LIBCMTD:tidtable.obj
 0003:000032d8       ___getvalueindex           100b32d8     LIBCMTD:tidtable.obj
 0003:000032e4       ___nullstring              100b32e4     LIBCMTD:output.obj
 0003:000032e8       ___wnullstring             100b32e8     LIBCMTD:output.obj
 0003:000032f0       ___badioinfo               100b32f0     LIBCMTD:ioinit.obj
 0003:00003330       __crtDbgFlag               100b3330     LIBCMTD:dbgheap.obj
 0003:00003334       ___crtDebugFillThreshold   100b3334     LIBCMTD:dbgheap.obj
 0003:0000333c       __crtBreakAlloc            100b333c     LIBCMTD:dbgheap.obj
 0003:00003348       __lookuptrailbytes         100b3348     LIBCMTD:read.obj
 0003:00003464       __pfnAllocHook             100b3464     LIBCMTD:dbghook.obj
 0003:00003468       __matherr_flag             100b3468     LIBCMTD:_matherr_.obj
 0003:00003590       ___lconv_static_decimal    100b3590     LIBCMTD:lconv.obj
 0003:00003594       ___lconv_static_W_decimal  100b3594     LIBCMTD:lconv.obj
 0003:00003598       ___lconv_c                 100b3598     LIBCMTD:lconv.obj
 0003:000035e8       ___lconv                   100b35e8     LIBCMTD:lconv.obj
 0003:000035ec       __pctype                   100b35ec     LIBCMTD:ctype.obj
 0003:000035f0       __pwctype                  100b35f0     LIBCMTD:ctype.obj
 0003:000035f4       ___mb_cur_max              100b35f4     LIBCMTD:nlsdata1.obj
 0003:000035f8       ___decimal_point           100b35f8     LIBCMTD:nlsdata1.obj
 0003:000035fc       ___decimal_point_length    100b35fc     LIBCMTD:nlsdata1.obj
 0003:00003600       __crtAssertBusy            100b3600     LIBCMTD:dbgrptt.obj
 0003:00003604       __CrtDbgMode               100b3604     LIBCMTD:dbgrptt.obj
 0003:00003610       __CrtDbgFile               100b3610     LIBCMTD:dbgrptt.obj
 0003:00003620       __NLG_Destination          100b3620     LIBCMTD:exsup.obj
 0003:00003660       ??_R0?AVbad_exception@std@@@8 100b3660     LIBCMTD:frame.obj
 0003:00003680       ??_R0?AVexception@std@@@8  100b3680     LIBCMTD:frame.obj
 0003:000036a0       __pow10pos                 100b36a0     LIBCMTD:_constpow_.obj
 0003:00003800       __pow10neg                 100b3800     LIBCMTD:_constpow_.obj
 0003:0000395c       __confh                    100b395c     LIBCMTD:initcon.obj
 0003:00003960       ??_R0?AVtype_info@@@8      100b3960     LIBCMTD:typinfo.obj
 0003:00003978       ??_R0?AVbad_cast@std@@@8   100b3978     LIBCMTD:stdexcpt.obj
 0003:00003994       ??_R0?AVbad_typeid@std@@@8 100b3994     LIBCMTD:stdexcpt.obj
 0003:000039b4       ??_R0?AV__non_rtti_object@std@@@8 100b39b4     LIBCMTD:stdexcpt.obj
 0003:00003f1c       _vec3_origin               100b3f1c     q_math.obj
 0003:0005cd60       _s_attenuation_model       1010cd60     snd_main.obj
 0003:0005cd64       _s_attenuation_maxdistance 1010cd64     snd_main.obj
 0003:0005cd68       _s_attenuation_refdistance 1010cd68     snd_main.obj
 0003:00061248       ___fastflag                10111248     LIBCMTD:_fpinit_.obj
 0003:00061254       __aenvptr                  10111254     LIBCMTD:dllcrt0.obj
 0003:00061258       __wenvptr                  10111258     LIBCMTD:dllcrt0.obj
 0003:0006125c       ___error_mode              1011125c     LIBCMTD:dllcrt0.obj
 0003:00061260       ___app_type                10111260     LIBCMTD:dllcrt0.obj
 0003:0006126c       ?wsprintffp@@3P6AHPADPBDZZA 1011126c     LIBCMTD:_error_.obj
 0003:00061594       __umaskval                 10111594     LIBCMTD:crt0dat.obj
 0003:00061598       ___argc                    10111598     LIBCMTD:crt0dat.obj
 0003:0006159c       ___argv                    1011159c     LIBCMTD:crt0dat.obj
 0003:000615a0       ___wargv                   101115a0     LIBCMTD:crt0dat.obj
 0003:000615a4       __environ                  101115a4     LIBCMTD:crt0dat.obj
 0003:000615a8       ___initenv                 101115a8     LIBCMTD:crt0dat.obj
 0003:000615ac       __wenviron                 101115ac     LIBCMTD:crt0dat.obj
 0003:000615b0       ___winitenv                101115b0     LIBCMTD:crt0dat.obj
 0003:000615b4       __pgmptr                   101115b4     LIBCMTD:crt0dat.obj
 0003:000615b8       __wpgmptr                  101115b8     LIBCMTD:crt0dat.obj
 0003:000615bc       __exitflag                 101115bc     LIBCMTD:crt0dat.obj
 0003:000615c0       __C_Termination_Done       101115c0     LIBCMTD:crt0dat.obj
 0003:000615c4       __C_Exit_Done              101115c4     LIBCMTD:crt0dat.obj
 0003:000615f4       __cflush                   101115f4     LIBCMTD:_file.obj
 0003:000615f8       ___pInvalidArgHandler      101115f8     LIBCMTD:invarg.obj
 0003:00061600       ___mbulinfo                10111600     LIBCMTD:mbctype.obj
 0003:0006160c       ___mbcodepage              1011160c     LIBCMTD:mbctype.obj
 0003:00061610       ___ismbcodepage            10111610     LIBCMTD:mbctype.obj
 0003:00061614       ___mblcid                  10111614     LIBCMTD:mbctype.obj
 0003:00061618       _gpFlsAlloc                10111618     LIBCMTD:tidtable.obj
 0003:0006161c       _gpFlsGetValue             1011161c     LIBCMTD:tidtable.obj
 0003:00061620       _gpFlsSetValue             10111620     LIBCMTD:tidtable.obj
 0003:00061624       _gpFlsFree                 10111624     LIBCMTD:tidtable.obj
 0003:00061628       ___locale_changed          10111628     LIBCMTD:setlocal.obj
 0003:00061640       ?_pfnDumpClient@@3P6AXPAXI@ZA 10111640     LIBCMTD:dbgheap.obj
 0003:00061648       ___crtDebugCheckCount      10111648     LIBCMTD:dbgheap.obj
 0003:00061758       __crtheap                  10111758     LIBCMTD:heapinit.obj
 0003:0006175c       __newmode                  1011175c     LIBCMTD:_newmode.obj
 0003:00061764       __outputformat             10111764     LIBCMTD:outputformat.obj
 0003:00061f00       ?__pInconsistency@@3P6AXXZA 10111f00     LIBCMTD:hooks.obj
 0003:00061f08       ___pPurecall               10111f08     LIBCMTD:inithelp.obj
 0003:00061f0c       ?_pnhHeap@@3P6AHI@ZA       10111f0c     LIBCMTD:handler.obj
 0003:00061f10       __stdbuf                   10111f10     LIBCMTD:_sftbuf.obj
 0003:00061f18       ___lconv_static_null       10111f18     LIBCMTD:lconv.obj
 0003:00061f1c       ___lconv_static_W_null     10111f1c     LIBCMTD:lconv.obj
 0003:00061f24       __commode                  10111f24     LIBCMTD:ncommode.obj
 0003:00061f3c       __fmode                    10111f3c     LIBCMTD:txtmode.obj
 0003:00061f5c       ?pArgList@UnDecorator@@0PAVReplicator@@A 10111f5c     LIBCMTD:undname.obj
 0003:00061f60       ?pZNameList@UnDecorator@@0PAVReplicator@@A 10111f60     LIBCMTD:undname.obj
 0003:00061f64       ?pTemplateArgList@UnDecorator@@0PAVReplicator@@A 10111f64     LIBCMTD:undname.obj
 0003:00061f68       ?gName@UnDecorator@@0PBDB  10111f68     LIBCMTD:undname.obj
 0003:00061f6c       ?name@UnDecorator@@0PBDB   10111f6c     LIBCMTD:undname.obj
 0003:00061f70       ?outputString@UnDecorator@@0PADA 10111f70     LIBCMTD:undname.obj
 0003:00061f74       ?maxStringLength@UnDecorator@@0HA 10111f74     LIBCMTD:undname.obj
 0003:00061f78       ?disableFlags@UnDecorator@@0KA 10111f78     LIBCMTD:undname.obj
 0003:00061f7c       ?m_pGetParameter@UnDecorator@@0P6APADJ@ZA 10111f7c     LIBCMTD:undname.obj
 0003:00061f80       ?fExplicitTemplateParams@UnDecorator@@0_NA 10111f80     LIBCMTD:undname.obj
 0003:00061f81       ?fGetTemplateArgumentList@UnDecorator@@0_NA 10111f81     LIBCMTD:undname.obj
 0003:00061fd8       ?nodes@?1??make@DNameStatusNode@@SAPAV2@W4DNameStatus@@@Z@4PAV2@A 10111fd8     LIBCMTD:undname.obj
 0003:00062008       ??_B?1??make@DNameStatusNode@@SAPAV1@W4DNameStatus@@@Z@51 10112008     LIBCMTD:undname.obj
 0003:00062020       _SOUND_IMPORT              10112020     <common>
 0003:000620b8       _soundpool                 101120b8     <common>
 0003:000620bc       _s_stereo2mono             101120bc     <common>
 0003:000620c0       _s_volume                  101120c0     <common>
 0003:000620c4       _s_musicvolume             101120c4     <common>
 0003:000620c8       _s_openAL_device           101120c8     <common>
 0003:000620cc       _qalcIsExtensionPresent    101120cc     <common>
 0003:000620d0       _qalIsSource               101120d0     <common>
 0003:000620d4       _qalcProcessContext        101120d4     <common>
 0003:000620d8       _qalGetEnumValue           101120d8     <common>
 0003:000620dc       _qalSourceUnqueueBuffers   101120dc     <common>
 0003:000620e0       _qalGetString              101120e0     <common>
 0003:000620e4       _qalSourceRewind           101120e4     <common>
 0003:000620e8       _qalcSuspendContext        101120e8     <common>
 0003:000620ec       _qalSourcef                101120ec     <common>
 0003:000620f0       _qalSourceQueueBuffers     101120f0     <common>
 0003:000620f4       _qalSourcei                101120f4     <common>
 0003:000620f8       _qalGetDouble              101120f8     <common>
 0003:000620fc       _qalGetProcAddress         101120fc     <common>
 0003:00062100       _qalcGetIntegerv           10112100     <common>
 0003:00062104       _qalListeneri              10112104     <common>
 0003:00062108       _qalcMakeContextCurrent    10112108     <common>
 0003:0006210c       _qalcCreateContext         1011210c     <common>
 0003:00062110       _qalGetSourcei             10112110     <common>
 0003:00062114       _qalSpeedOfSound           10112114     <common>
 0003:00062118       _qalDopplerVelocity        10112118     <common>
 0003:0006211c       _qalSourcePause            1011211c     <common>
 0003:00062120       _qalBufferData             10112120     <common>
 0003:00062124       _qalcGetProcAddress        10112124     <common>
 0003:00062128       _qalSourcefv               10112128     <common>
 0003:0006212c       _qalSourcePlayv            1011212c     <common>
 0003:00062130       _qalGenBuffers             10112130     <common>
 0003:00062134       _qalcGetString             10112134     <common>
 0003:00062138       _qalGetFloatv              10112138     <common>
 0003:0006213c       _qalIsExtensionPresent     1011213c     <common>
 0003:00062140       _qalcCloseDevice           10112140     <common>
 0003:00062144       _qalGetListener3f          10112144     <common>
 0003:00062148       _qalListenerf              10112148     <common>
 0003:0006214c       _qalGenSources             1011214c     <common>
 0003:00062150       _qalGetBufferf             10112150     <common>
 0003:00062154       _qalGetListenerf           10112154     <common>
 0003:00062158       _qalcGetError              10112158     <common>
 0003:0006215c       _qalGetBoolean             1011215c     <common>
 0003:00062160       _qalcOpenDevice            10112160     <common>
 0003:00062164       _qalDeleteBuffers          10112164     <common>
 0003:00062168       _qalSourceStop             10112168     <common>
 0003:0006216c       _qalGetSourcef             1011216c     <common>
 0003:00062170       _qalcDestroyContext        10112170     <common>
 0003:00062174       _qalIsBuffer               10112174     <common>
 0003:00062178       _qalGetBooleanv            10112178     <common>
 0003:0006217c       _qalcGetCurrentContext     1011217c     <common>
 0003:00062180       _qalcGetContextsDevice     10112180     <common>
 0003:00062184       _qalDistanceModel          10112184     <common>
 0003:00062188       _qalGetInteger             10112188     <common>
 0003:0006218c       _qalDopplerFactor          1011218c     <common>
 0003:00062190       _qalGetIntegerv            10112190     <common>
 0003:00062194       _qalSourcePausev           10112194     <common>
 0003:00062198       _qalGetDoublev             10112198     <common>
 0003:0006219c       _qalDeleteSources          1011219c     <common>
 0003:000621a0       _qalGetListenerfv          101121a0     <common>
 0003:000621a4       _qalGetListeneri           101121a4     <common>
 0003:000621a8       _qalDisable                101121a8     <common>
 0003:000621ac       _qalGetSourcefv            101121ac     <common>
 0003:000621b0       _qalSourceRewindv          101121b0     <common>
 0003:000621b4       _qalGetError               101121b4     <common>
 0003:000621b8       _qalIsEnabled              101121b8     <common>
 0003:000621bc       _qalEnable                 101121bc     <common>
 0003:000621c0       _qalSourcePlay             101121c0     <common>
 0003:000621c4       _qalSourceStopv            101121c4     <common>
 0003:000621c8       _qalListener3f             101121c8     <common>
 0003:000621cc       _qalGetFloat               101121cc     <common>
 0003:000621d0       _qalcGetEnumValue          101121d0     <common>
 0003:000621d4       _qalGetBufferi             101121d4     <common>
 0003:000621d8       _qalListenerfv             101121d8     <common>
 0003:000621dc       _qalGetSource3f            101121dc     <common>
 0003:000621e0       _qalSource3f               101121e0     <common>
 0003:000621e4       __pfnReportHook            101121e4     <common>
 0003:000621e8       __pReportHookListW         101121e8     <common>
 0003:000621ec       __pReportHookList          101121ec     <common>
 0003:000621f0       __debugger_hook_dummy      101121f0     <common>
 0003:000621f4       __pmatherr                 101121f4     <common>
 0003:000621f8       __nhandle                  101121f8     <common>
 0003:00062200       ___pioinfo                 10112200     <common>
 0003:00062300       ___setlc_active            10112300     <common>
 0003:00062304       ___unguarded_readlc_active 10112304     <common>
 0003:00062308       ___piob                    10112308     <common>
 0003:00062320       __bufin                    10112320     <common>
 0003:00063320       __nstream                  10113320     <common>
 0003:00063324       ___env_initialized         10113324     <common>
 0003:00063328       ___onexitend               10113328     <common>
 0003:0006332c       ___onexitbegin             1011332c     <common>
 0003:00063330       ___mbctype_initialized     10113330     <common>
 0003:00063334       ___dyn_tls_init_callback   10113334     <common>
 0003:00063338       ___sse2_available          10113338     <common>
 0003:0006333c       ___use_sse2_mathfcns       1011333c     <common>
 0003:00063340       __acmdln                   10113340     <common>

 entry point at        0001:0001a240

 Static symbols

 0001:000040a0       _DualQuat_SetVector        100050a0 f   q_math.obj
 0001:00006bf0       _Info_ValidateKey          10007bf0 f   q_shared.obj
 0001:00006c90       _Info_FindKey              10007c90 f   q_shared.obj
 0001:000070c0       _Info_ValidateValue        100080c0 f   q_shared.obj
 0001:00007dc0       _GPA                       10008dc0 f   qal.obj
 0001:00008300       _trap_MemAlloc             10009300 f   snd_buffers.obj
 0001:00008330       _trap_MemFree              10009330 f   snd_buffers.obj
 0001:00008440       _buffer_unload             10009440 f   snd_buffers.obj
 0001:000085f0       _trap_Milliseconds         100095f0 f   snd_buffers.obj
 0001:00008610       _buffer_load               10009610 f   snd_buffers.obj
 0001:000088a0       _buffer_evict              100098a0 f   snd_buffers.obj
 0001:00008a00       _buffer_find               10009a00 f   snd_buffers.obj
 0001:00008aa0       _buffer_find_free          10009aa0 f   snd_buffers.obj
 0001:00008ca0       _trap_MemAlloc             10009ca0 f   snd_decoder.obj
 0001:00008cd0       _decoder_register          10009cd0 f   snd_decoder.obj
 0001:00008e40       _trap_MemFree              10009e40 f   snd_decoder.obj
 0001:00008f80       _findCodec                 10009f80 f   snd_decoder.obj
 0001:00009250       __ov_header_fseek_wrap     1000a250 f   snd_decoder_ogg.obj
 0001:00009610       _trap_FS_FOpenFile         1000a610 f   snd_decoder_ogg.obj
 0001:00009640       _trap_FS_IsUrl             1000a640 f   snd_decoder_ogg.obj
 0001:00009670       _trap_MemAlloc             1000a670 f   snd_decoder_ogg.obj
 0001:000096a0       _trap_MemFree              1000a6a0 f   snd_decoder_ogg.obj
 0001:000096d0       _read_ogg_header           1000a6d0 f   snd_decoder_ogg.obj
 0001:000097d0       _ovcb_read                 1000a7d0 f   snd_decoder_ogg.obj
 0001:00009810       _trap_FS_Read              1000a810 f   snd_decoder_ogg.obj
 0001:00009840       _ovcb_seek                 1000a840 f   snd_decoder_ogg.obj
 0001:000098c0       _trap_FS_Seek              1000a8c0 f   snd_decoder_ogg.obj
 0001:000098f0       _ovcb_close                1000a8f0 f   snd_decoder_ogg.obj
 0001:00009920       _trap_FS_FCloseFile        1000a920 f   snd_decoder_ogg.obj
 0001:00009950       _ovcb_tell                 1000a950 f   snd_decoder_ogg.obj
 0001:00009980       _trap_FS_Tell              1000a980 f   snd_decoder_ogg.obj
 0001:00009ad0       _decoder_ogg_stream_shutdown 1000aad0 f   snd_decoder_ogg.obj
 0001:00009e90       _trap_FS_Eof               1000ae90 f   snd_decoder_ogg.obj
 0001:0000a080       _trap_FS_FOpenFile         1000b080 f   snd_decoder_wav.obj
 0001:0000a0b0       _trap_FS_Read              1000b0b0 f   snd_decoder_wav.obj
 0001:0000a0e0       _trap_FS_FCloseFile        1000b0e0 f   snd_decoder_wav.obj
 0001:0000a110       _trap_FS_IsUrl             1000b110 f   snd_decoder_wav.obj
 0001:0000a140       _trap_MemAlloc             1000b140 f   snd_decoder_wav.obj
 0001:0000a170       _trap_MemFree              1000b170 f   snd_decoder_wav.obj
 0001:0000a1a0       _byteSwapRawSamples        1000b1a0 f   snd_decoder_wav.obj
 0001:0000a210       _read_wav_header           1000b210 f   snd_decoder_wav.obj
 0001:0000a3a0       _FGetLittleLong            1000b3a0 f   snd_decoder_wav.obj
 0001:0000a410       _FGetLittleShort           1000b410 f   snd_decoder_wav.obj
 0001:0000a480       _skipChunk                 1000b480 f   snd_decoder_wav.obj
 0001:0000a540       _findWavChunk              1000b540 f   snd_decoder_wav.obj
 0001:0000a600       _readChunkInfo             1000b600 f   snd_decoder_wav.obj
 0001:0000a760       _decoder_wav_stream_shutdown 1000b760 f   snd_decoder_wav.obj
 0001:0000a970       _trap_FS_Seek              1000b970 f   snd_decoder_wav.obj
 0001:0000a9d0       _trap_FS_Eof               1000b9d0 f   snd_decoder_wav.obj
 0001:0000aa30       _trap_FS_Tell              1000ba30 f   snd_decoder_wav.obj
 0001:0000ad90       _trap_Error                1000bd90 f   snd_main.obj
 0001:0000af20       _trap_Print                1000bf20 f   snd_main.obj
 0001:0000b700       _trap_Cvar_Get             1000c700 f   snd_main.obj
 0001:0000b730       _trap_Cvar_ForceSet        1000c730 f   snd_main.obj
 0001:0000b760       _trap_Cmd_AddCommand       1000c760 f   snd_main.obj
 0001:0000b790       _trap_MemAllocPool         1000c790 f   snd_main.obj
 0001:0000b7c0       _trap_MemFreePool          1000c7c0 f   snd_main.obj
 0001:0000b7f0       _S_Music                   1000c7f0 f   snd_main.obj
 0001:0000b860       _trap_Cmd_Argc             1000c860 f   snd_main.obj
 0001:0000b880       _trap_Cmd_Argv             1000c880 f   snd_main.obj
 0001:0000b8b0       _S_StopMusic               1000c8b0 f   snd_main.obj
 0001:0000b8d0       _S_PrevMusic               1000c8d0 f   snd_main.obj
 0001:0000b8f0       _S_NextMusic               1000c8f0 f   snd_main.obj
 0001:0000b910       _S_PauseMusic              1000c910 f   snd_main.obj
 0001:0000b930       _S_ListDevices             1000c930 f   snd_main.obj
 0001:0000bb80       _trap_Cmd_RemoveCommand    1000cb80 f   snd_main.obj
 0001:0000c2d0       _S_CloseMusicTrack         1000d2d0 f   snd_music.obj
 0001:0000c300       _music_process             1000d300 f   snd_music.obj
 0001:0000c440       _S_ValidMusicFile          1000d440 f   snd_music.obj
 0001:0000c4a0       _S_AdvanceBackgroundTrack  1000d4a0 f   snd_music.obj
 0001:0000c530       _S_PrevMusicTrack          1000d530 f   snd_music.obj
 0001:0000c5c0       _S_OpenMusicTrack          1000d5c0 f   snd_music.obj
 0001:0000c6f0       _S_NextMusicTrack          1000d6f0 f   snd_music.obj
 0001:0000cab0       _S_AllocTrack              1000dab0 f   snd_music.obj
 0001:0000cb50       _trap_FS_IsUrl             1000db50 f   snd_music.obj
 0001:0000cb80       _trap_MemAlloc             1000db80 f   snd_music.obj
 0001:0000cbb0       _S_ReadPlaylistFile        1000dbb0 f   snd_music.obj
 0001:0000cfe0       _time                      1000dfe0 f   snd_music.obj
 0001:0000d000       _trap_FS_FOpenFile         1000e000 f   snd_music.obj
 0001:0000d030       _trap_FS_Read              1000e030 f   snd_music.obj
 0001:0000d060       _trap_FS_FCloseFile        1000e060 f   snd_music.obj
 0001:0000d090       _trap_MemFree              1000e090 f   snd_music.obj
 0001:0000d0c0       _R_SortPlaylistItems       1000e0c0 f   snd_music.obj
 0001:0000d0f0       _R_PlaylistItemCmp         1000e0f0 f   snd_music.obj
 0001:0000d120       _music_source_get          1000e120 f   snd_music.obj
 0001:0000d390       _music_source_free         1000e390 f   snd_music.obj
 0001:0000d5a0       _trap_MemAlloc             1000e5a0 f   snd_sources.obj
 0001:0000d6a0       _trap_MemFree              1000e6a0 f   snd_sources.obj
 0001:0000d890       _source_kill               1000e890 f   snd_sources.obj
 0001:0000d950       _source_spatialize         1000e950 f   snd_sources.obj
 0001:0000da20       _trap_GetEntitySpatilization 1000ea20 f   snd_sources.obj
 0001:0000dbd0       _trap_Milliseconds         1000ebd0 f   snd_sources.obj
 0001:0000dcd0       _source_setup              1000ecd0 f   snd_sources.obj
 0001:0000df50       _S_StartSound              1000ef50 f   snd_sources.obj
 0001:0000e0c0       _source_loop               1000f0c0 f   snd_sources.obj
 0001:0000e570       _trap_Milliseconds         1000f570 f   snd_stream.obj
 0001:0000e590       _free_channel              1000f590 f   snd_stream.obj
 0001:0000e830       _allocate_channel          1000f830 f   snd_stream.obj
 0001:0000edd0       __ov_open1                 1000fdd0 f   libvorbisfile_static:vorbisfile.obj
 0001:0000f090       __fetch_headers            10010090 f   libvorbisfile_static:vorbisfile.obj
 0001:0000f470       __get_next_page            10010470 f   libvorbisfile_static:vorbisfile.obj
 0001:0000f5c0       __get_data                 100105c0 f   libvorbisfile_static:vorbisfile.obj
 0001:0000f690       __add_serialno             10010690 f   libvorbisfile_static:vorbisfile.obj
 0001:0000f710       __lookup_page_serialno     10010710 f   libvorbisfile_static:vorbisfile.obj
 0001:0000f750       __lookup_serialno          10010750 f   libvorbisfile_static:vorbisfile.obj
 0001:0000f7a0       __ov_open2                 100107a0 f   libvorbisfile_static:vorbisfile.obj
 0001:0000f820       __open_seekable2           10010820 f   libvorbisfile_static:vorbisfile.obj
 0001:0000fae0       __get_prev_page_serial     10010ae0 f   libvorbisfile_static:vorbisfile.obj
 0001:0000fd40       __seek_helper              10010d40 f   libvorbisfile_static:vorbisfile.obj
 0001:0000fdc0       __initial_pcmoffset        10010dc0 f   libvorbisfile_static:vorbisfile.obj
 0001:0000ff70       __bisect_forward_serialno  10010f70 f   libvorbisfile_static:vorbisfile.obj
 0001:00010760       __fseek64_wrap             10011760 f   libvorbisfile_static:vorbisfile.obj
 0001:00011780       __decode_clear             10012780 f   libvorbisfile_static:vorbisfile.obj
 0001:00012120       __get_prev_page            10013120 f   libvorbisfile_static:vorbisfile.obj
 0001:00012810       __make_decode_ready        10013810 f   libvorbisfile_static:vorbisfile.obj
 0001:000128e0       __fetch_and_process_packet 100138e0 f   libvorbisfile_static:vorbisfile.obj
 0001:00013920       _vorbis_ftoi               10014920 f   libvorbisfile_static:vorbisfile.obj
 0001:00013950       _vorbis_fpu_setround       10014950 f   libvorbisfile_static:vorbisfile.obj
 0001:00013960       _vorbis_fpu_restore        10014960 f   libvorbisfile_static:vorbisfile.obj
 0001:00013970       _host_is_big_endian        10014970 f   libvorbisfile_static:vorbisfile.obj
 0001:00013df0       __ov_splice                10014df0 f   libvorbisfile_static:vorbisfile.obj
 0001:00013f40       __ov_initset               10014f40 f   libvorbisfile_static:vorbisfile.obj
 0001:00013fa0       __ov_initprime             10014fa0 f   libvorbisfile_static:vorbisfile.obj
 0001:00014020       __ov_getlap                10015020 f   libvorbisfile_static:vorbisfile.obj
 0001:00014250       __ov_64_seek_lap           10015250 f   libvorbisfile_static:vorbisfile.obj
 0001:00014570       __ov_d_seek_lap            10015570 f   libvorbisfile_static:vorbisfile.obj
 0001:00015f60       _swprintf                  10016f60 f   LIBCMTD:wassert.obj
 0001:00017240       _vscan_fn                  10018240 f   LIBCMTD:sscanf.obj
 0001:00019f60       _shortsort                 1001af60 f   LIBCMTD:qsort.obj
 0001:00019fd0       _swap                      1001afd0 f   LIBCMTD:qsort.obj
 0001:0001a270       ___DllMainCRTStartup       1001b270 f   LIBCMTD:dllcrt0.obj
 0001:0001b3d0       __cftoe2_l                 1001c3d0 f   LIBCMTD:cvt.obj
 0001:0001c170       __cftof2_l                 1001d170 f   LIBCMTD:cvt.obj
 0001:0001c750       __shift                    1001d750 f   LIBCMTD:cvt.obj
 0001:0001d5d0       ?failwithmessage@@YAXPAXHHPBD@Z 1001e5d0 f   LIBCMTD:_error_.obj
 0001:0001d7f0       ?DebuggerProbe@@YAHK@Z     1001e7f0 f   LIBCMTD:_error_.obj
 0001:0001d880       ?DebuggerRuntime@@YAHKHPAXPB_W@Z 1001e880 f   LIBCMTD:_error_.obj
 0001:0001db60       ?_getMemBlockDataString@@YAXPAD00I@Z 1001eb60 f   LIBCMTD:_error_.obj
 0001:0001edd0       __get_fname                1001fdd0 f   LIBCMTD:_fpexcept_.obj
 0001:0001fc20       _doexit                    10020c20 f   LIBCMTD:crt0dat.obj
 0001:0001ff10       __initterm                 10020f10 f   LIBCMTD:crt0dat.obj
 0001:00020540       _ctrlevent_capture@4       10021540 f   LIBCMTD:winsig.obj
 0001:00020940       _siglookup                 10021940 f   LIBCMTD:winsig.obj
 0001:00020c60       _xtow_s@20                 10021c60 f   LIBCMTD:xtows.obj
 0001:00021090       @x64tow_s@24               10022090 f   LIBCMTD:xtows.obj
 0001:000225f0       _flsall                    100235f0 f   LIBCMTD:fflush.obj
 0001:00024f70       ?getSystemCP@@YAHH@Z       10025f70 f   LIBCMTD:mbctype.obj
 0001:000253d0       ?CPtoLCID@@YAHH@Z          100263d0 f   LIBCMTD:mbctype.obj
 0001:00025450       ?setSBCS@@YAXPAUthreadmbcinfostruct@@@Z 10026450 f   LIBCMTD:mbctype.obj
 0001:00025530       ?setSBUpLow@@YAXPAUthreadmbcinfostruct@@@Z 10026530 f   LIBCMTD:mbctype.obj
 0001:00026c90       __copytlocinfo_nolock      10027c90 f   LIBCMTD:setlocal.obj
 0001:00027090       _sync_legacy_variables_lk  10028090 f   LIBCMTD:setlocal.obj
 0001:000270d0       __setlocale_nolock         100280d0 f   LIBCMTD:setlocal.obj
 0001:000274c0       __setlocale_set_cat        100284c0 f   LIBCMTD:setlocal.obj
 0001:000279f0       __setlocale_get_all        100289f0 f   LIBCMTD:setlocal.obj
 0001:00029a40       ___check_float_string      1002aa40 f   LIBCMTD:input.obj
 0001:00029b60       __hextodec                 1002ab60 f   LIBCMTD:input.obj
 0001:00029ba0       __inc                      1002aba0 f   LIBCMTD:input.obj
 0001:00029c00       __un_inc                   1002ac00 f   LIBCMTD:input.obj
 0001:00029c20       __whiteout                 1002ac20 f   LIBCMTD:input.obj
 0001:0002bfc0       ___check_float_string      1002cfc0 f   LIBCMTD:inputs.obj
 0001:0002c0c0       __hextodec                 1002d0c0 f   LIBCMTD:inputs.obj
 0001:0002c100       __inc                      1002d100 f   LIBCMTD:inputs.obj
 0001:0002c160       __un_inc                   1002d160 f   LIBCMTD:inputs.obj
 0001:0002c180       __whiteout                 1002d180 f   LIBCMTD:inputs.obj
 0001:0002d760       _write_char                1002e760 f   LIBCMTD:output.obj
 0001:0002d810       _write_multi_char          1002e810 f   LIBCMTD:output.obj
 0001:0002d850       _write_string              1002e850 f   LIBCMTD:output.obj
 0001:0002d9c0       ?__crtLCMapStringA_stat@@YAHPAUlocaleinfo_struct@@KKPBDHPADHHH@Z 1002e9c0 f   LIBCMTD:a_map.obj
 0001:0002dcf0       ?strncnt@@YAHPBDH@Z        1002ecf0 f   LIBCMTD:a_map.obj
 0001:0002f1b0       _ValidateLocalCookies      100301b0 f   LIBCMTD:chandler4.obj
 0001:0002fb00       __nh_malloc_dbg_impl       10030b00 f   LIBCMTD:dbgheap.obj
 0001:0002fba0       __heap_alloc_dbg_impl      10030ba0 f   LIBCMTD:dbgheap.obj
 0001:00030170       _realloc_help              10031170 f   LIBCMTD:dbgheap.obj
 0001:00031230       _CheckBytes                10032230 f   LIBCMTD:dbgheap.obj
 0001:00031ff0       ?_CrtMemDumpAllObjectsSince_stat@@YAXPBU_CrtMemState@@PAUlocaleinfo_struct@@@Z 10032ff0 f   LIBCMTD:dbgheap.obj
 0001:00032300       __printMemBlockData        10033300 f   LIBCMTD:dbgheap.obj
 0001:000352c0       ?strtoxl@@YAKPAUlocaleinfo_struct@@PBDPAPBDHH@Z 100362c0 f   LIBCMTD:strtol.obj
 0001:000358a0       ?strtoxq@@YA_KPAUlocaleinfo_struct@@PBDPAPBDHH@Z 100368a0 f   LIBCMTD:strtoq.obj
 0001:000361b0       _parse_cmdline             100371b0 f   LIBCMTD:stdargv.obj
 0001:00036a20       _xcptlookup                10037a20 f   LIBCMTD:winxfltr.obj
 0001:00037540       __unwind_handler4          10038540 f   LIBCMTD:exsup4.obj
 0001:00039c70       ?GetPdbDll@@YAPAUHINSTANCE__@@XZ 1003ac70 f   LIBCMTD:_pdblkup_.obj
 0001:00039d60       ?GetPdbDllFromInstallPath@@YAPAUHINSTANCE__@@XZ 1003ad60 f   LIBCMTD:_pdblkup_.obj
 0001:00039f20       ?GetPdbDllPathFromFilePath@@YAHPB_WPA_WI@Z 1003af20 f   LIBCMTD:_pdblkup_.obj
 0001:0003a0c0       __onexit_nolock            1003b0c0 f   LIBCMTD:onexit.obj
 0001:0003d5b0       _write_char                1003e5b0 f   LIBCMTD:woutput.obj
 0001:0003d610       _write_multi_char          1003e610 f   LIBCMTD:woutput.obj
 0001:0003d650       _write_string              1003e650 f   LIBCMTD:woutput.obj
 0001:0003ecd0       _write_char                1003fcd0 f   LIBCMTD:woutputs.obj
 0001:0003ed30       _write_multi_char          1003fd30 f   LIBCMTD:woutputs.obj
 0001:0003ed70       _write_string              1003fd70 f   LIBCMTD:woutputs.obj
 0001:000426d0       _write_char                100436d0 f   LIBCMTD:woutputp.obj
 0001:00042730       _write_multi_char          10043730 f   LIBCMTD:woutputp.obj
 0001:00042770       _write_string              10043770 f   LIBCMTD:woutputp.obj
 0001:00042880       ?__crtGetStringTypeA_stat@@YAHPAUlocaleinfo_struct@@KPBDHPAGHHH@Z 10043880 f   LIBCMTD:a_str.obj
 0001:00042bc0       ?CatchGuardHandler@@YA?AW4_EXCEPTION_DISPOSITION@@PAUEHExceptionRecord@@PAUCatchGuardRN@@PAX2@Z 10043bc0 f   LIBCMTD:_trnsctrl_.obj
 0001:00042d00       ?TranslatorGuardHandler@@YA?AW4_EXCEPTION_DISPOSITION@@PAUEHExceptionRecord@@PAUTranslatorGuardRN@@PAX2@Z 10043d00 f   LIBCMTD:_trnsctrl_.obj
 0001:00042fe0       __get_lc_time              10043fe0 f   LIBCMTD:inittime.obj
 0001:000445c0       _fix_grouping              100455c0 f   LIBCMTD:initnum.obj
 0001:00044c60       _fix_grouping              10045c60 f   LIBCMTD:initmon.obj
 0001:00045cb0       _cmpBYTE                   10046cb0 f   LIBCMTD:memcmp.obj
 0001:00045ce0       _cmpResult                 10046ce0 f   LIBCMTD:memcmp.obj
 0001:00045d00       _unaligned_memcmp          10046d00 f   LIBCMTD:memcmp.obj
 0001:00046410       _cmpWORD                   10047410 f   LIBCMTD:memcmp.obj
 0001:00046490       _cmpDWORD                  10047490 f   LIBCMTD:memcmp.obj
 0001:00046bf0       _TranslateName             10047bf0 f   LIBCMTD:getqloc.obj
 0001:00046c80       _GetLcidFromLangCountry    10047c80 f   LIBCMTD:getqloc.obj
 0001:00046d40       _LangCountryEnumProc@4     10047d40 f   LIBCMTD:getqloc.obj
 0001:00047180       _GetLcidFromLanguage       10048180 f   LIBCMTD:getqloc.obj
 0001:00047200       _LanguageEnumProc@4        10048200 f   LIBCMTD:getqloc.obj
 0001:000473a0       _GetLcidFromCountry        100483a0 f   LIBCMTD:getqloc.obj
 0001:000473f0       _CountryEnumProc@4         100483f0 f   LIBCMTD:getqloc.obj
 0001:000474f0       _GetLcidFromDefault        100484f0 f   LIBCMTD:getqloc.obj
 0001:00047530       _ProcessCodePage           10048530 f   LIBCMTD:getqloc.obj
 0001:000475e0       _TestDefaultCountry        100485e0 f   LIBCMTD:getqloc.obj
 0001:00047630       _TestDefaultLanguage       10048630 f   LIBCMTD:getqloc.obj
 0001:000476b0       _LcidFromHexString         100486b0 f   LIBCMTD:getqloc.obj
 0001:00047730       _GetPrimaryLen             10048730 f   LIBCMTD:getqloc.obj
 0001:0004af30       __is_LFH_enabled           1004bf30 f   LIBCMTD:expand.obj
 0001:0004b7b0       ?x_ismbbtype_l@@YAHPAUlocaleinfo_struct@@IHH@Z 1004c7b0 f   LIBCMTD:ismbbyte.obj
 0001:0004bc50       __tsopen_nolock            1004cc50 f   LIBCMTD:open.obj
 0001:0004d4f0       __unwind_handler           1004e4f0 f   LIBCMTD:exsup.obj
 0001:0004d960       __abstract_cw              1004e960 f   LIBCMTD:_ieee87_.obj
 0001:0004dab0       __hw_cw                    1004eab0 f   LIBCMTD:_ieee87_.obj
 0001:0004dc10       __abstract_sw              1004ec10 f   LIBCMTD:_ieee87_.obj
 0001:0004dca0       ___statusfp_sse2           1004eca0 f   LIBCMTD:_ieee87_.obj
 0001:0004dcc0       ___clearfp_sse2            1004ecc0 f   LIBCMTD:_ieee87_.obj
 0001:0004dcf0       ___control87_sse2          1004ecf0 f   LIBCMTD:_ieee87_.obj
 0001:0004dd70       ___abstract_cw_sse2        1004ed70 f   LIBCMTD:_ieee87_.obj
 0001:0004dec0       ___hw_cw_sse2              1004eec0 f   LIBCMTD:_ieee87_.obj
 0001:0004e010       ___abstract_sw_sse2        1004f010 f   LIBCMTD:_ieee87_.obj
 0001:0004e0a0       ___fpreset_sse2            1004f0a0 f   LIBCMTD:_ieee87_.obj
 0001:00050be0       ?__crtGetLocaleInfoA_stat@@YAHPAUlocaleinfo_struct@@KKPADH@Z 10051be0 f   LIBCMTD:a_loc.obj
 0001:00052610       _write_char                10053610 f   LIBCMTD:outputs.obj
 0001:000526c0       _write_multi_char          100536c0 f   LIBCMTD:outputs.obj
 0001:00052700       _write_string              10053700 f   LIBCMTD:outputs.obj
 0001:00056490       _write_char                10057490 f   LIBCMTD:outputp.obj
 0001:00056540       _write_multi_char          10057540 f   LIBCMTD:outputp.obj
 0001:00056580       _write_string              10057580 f   LIBCMTD:outputp.obj
 0001:00056670       ?wcstoxl@@YAKPB_WPAPB_WHH@Z 10057670 f   LIBCMTD:wcstol.obj
 0001:00056be0       ?FindHandler@@YAXPAUEHExceptionRecord@@PAUEHRegistrationNode@@PAU_CONTEXT@@PAXPBU_s_FuncInfo@@EH1@Z 10057be0 f   LIBCMTD:frame.obj
 0001:00057130       ?FindHandlerForForeignException@@YAXPAUEHExceptionRecord@@PAUEHRegistrationNode@@PAU_CONTEXT@@PAXPBU_s_FuncInfo@@HH1@Z 10058130 f   LIBCMTD:frame.obj
 0001:00057570       ?CatchIt@@YAXPAUEHExceptionRecord@@PAUEHRegistrationNode@@PAU_CONTEXT@@PAXPBU_s_FuncInfo@@PBU_s_HandlerType@@PBU_s_CatchableType@@PBU_s_TryBlockMapEntry@@H1E@Z 10058570 f   LIBCMTD:frame.obj
 0001:00057630       ?CallCatchBlock@@YAPAXPAUEHExceptionRecord@@PAUEHRegistrationNode@@PAU_CONTEXT@@PBU_s_FuncInfo@@PAXHK@Z 10058630 f   LIBCMTD:frame.obj
 0001:000578c0       ?ExFilterRethrow@@YAHPAU_EXCEPTION_POINTERS@@@Z 100588c0 f   LIBCMTD:frame.obj
 0001:00058530       ?IsInExceptionSpec@@YAEPAUEHExceptionRecord@@PBU_s_ESTypeList@@@Z 10059530 f   LIBCMTD:frame.obj
 0001:000585f0       ?CallUnexpected@@YAXPBU_s_ESTypeList@@@Z 100595f0 f   LIBCMTD:frame.obj
 0001:0005863e       __catch$?CallUnexpected@@YAXPBU_s_ESTypeList@@@Z$0 1005963e f   LIBCMTD:frame.obj
 0001:00058680       ?Is_bad_exception_allowed@@YAEPBU_s_ESTypeList@@@Z 10059680 f   LIBCMTD:frame.obj
 0001:00058860       _xtoa_s@20                 10059860 f   LIBCMTD:xtoas.obj
 0001:00058c80       @x64toa_s@24               10059c80 f   LIBCMTD:xtoas.obj
 0001:0005aa10       ?wcsncnt@@YAIPB_WI@Z       1005ba10 f   LIBCMTD:wcstombs.obj
 0001:00067310       ?und_strlen@@YAIPBD@Z      10068310 f   LIBCMTD:undname.obj
 0001:00067350       ?und_memcpy@@YAXPADPBDI@Z  10068350 f   LIBCMTD:undname.obj
 0001:00067390       ?und_strncmp@@YAIPBD0I@Z   10068390 f   LIBCMTD:undname.obj
 0001:00067ca0       __os_body_expand           10068ca0 f   libogg_static:framing.obj
 0001:00067d30       __os_lacing_expand         10068d30 f   libogg_static:framing.obj
 0001:00067ec0       _ogg_stream_flush_i        10068ec0 f   libogg_static:framing.obj
 0001:00069010       __packetout                1006a010 f   libogg_static:framing.obj
 0001:000695a0       _tagcompare                1006a5a0 f   libvorbis_static:info.obj
 0001:00069c10       __v_readstring             1006ac10 f   libvorbis_static:info.obj
 0001:00069e00       __vorbis_unpack_info       1006ae00 f   libvorbis_static:info.obj
 0001:00069f60       __vorbis_unpack_comment    1006af60 f   libvorbis_static:info.obj
 0001:0006a130       __vorbis_unpack_books      1006b130 f   libvorbis_static:info.obj
 0001:0006a730       __vorbis_pack_comment      1006b730 f   libvorbis_static:info.obj
 0001:0006a860       __v_writestring            1006b860 f   libvorbis_static:info.obj
 0001:0006ac60       __vorbis_pack_info         1006bc60 f   libvorbis_static:info.obj
 0001:0006ad80       _ilog2                     1006bd80 f   libvorbis_static:info.obj
 0001:0006add0       __vorbis_pack_books        1006bdd0 f   libvorbis_static:info.obj
 0001:0006b5f0       __vds_shared_init          1006c5f0 f   libvorbis_static:block.obj
 0001:0006bb40       _ilog2                     1006cb40 f   libvorbis_static:block.obj
 0001:0006c2c0       __preextrapolate_helper    1006d2c0 f   libvorbis_static:block.obj
 0001:0006e6d0       _setup_tone_curves         1006f6d0 f   libvorbis_static:psy.obj
 0001:0006f460       _min_curve                 10070460 f   libvorbis_static:psy.obj
 0001:0006f4c0       _max_curve                 100704c0 f   libvorbis_static:psy.obj
 0001:0006f520       _attenuate_curve           10070520 f   libvorbis_static:psy.obj
 0001:0006f890       _bark_noise_hybridmp       10070890 f   libvorbis_static:psy.obj
 0001:00070240       _seed_loop                 10071240 f   libvorbis_static:psy.obj
 0001:000703a0       _seed_curve                100713a0 f   libvorbis_static:psy.obj
 0001:000704d0       _max_seeds                 100714d0 f   libvorbis_static:psy.obj
 0001:000706b0       _seed_chase                100716b0 f   libvorbis_static:psy.obj
 0001:000718a0       _flag_lossless             100728a0 f   libvorbis_static:psy.obj
 0001:00071950       _noise_normalize           10072950 f   libvorbis_static:psy.obj
 0001:00071d10       _unitnorm                  10072d10 f   libvorbis_static:psy.obj
 0001:00071d80       _apsort                    10072d80 f   libvorbis_static:psy.obj
 0001:00072e70       _bitreverse                10073e70 f   libvorbis_static:sharedbook.obj
 0001:00072f00       _sort32a                   10073f00 f   libvorbis_static:sharedbook.obj
 0001:00073900       _decode_packed_entry_number 10074900 f   libvorbis_static:codebook.obj
 0001:00073ac0       _bitreverse                10074ac0 f   libvorbis_static:codebook.obj
 0001:00075110       __ve_amp                   10076110 f   libvorbis_static:envelope.obj
 0001:000757b0       _todB                      100767b0 f   libvorbis_static:envelope.obj
 0001:00075ab0       _drftf1                    10076ab0 f   libvorbis_static:smallft.obj
 0001:00075d40       _dradf2                    10076d40 f   libvorbis_static:smallft.obj
 0001:00076000       _dradf4                    10077000 f   libvorbis_static:smallft.obj
 0001:00076510       _dradfg                    10077510 f   libvorbis_static:smallft.obj
 0001:000773d0       _drftb1                    100783d0 f   libvorbis_static:smallft.obj
 0001:000776d0       _dradb2                    100786d0 f   libvorbis_static:smallft.obj
 0001:00077990       _dradb3                    10078990 f   libvorbis_static:smallft.obj
 0001:00077cf0       _dradb4                    10078cf0 f   libvorbis_static:smallft.obj
 0001:00078240       _dradbg                    10079240 f   libvorbis_static:smallft.obj
 0001:00079140       _fdrffti                   1007a140 f   libvorbis_static:smallft.obj
 0001:00079170       _drfti1                    1007a170 f   libvorbis_static:smallft.obj
 0001:00079c80       _mdct_butterflies          1007ac80 f   libvorbis_static:mdct.obj
 0001:00079d90       _mdct_butterfly_32         1007ad90 f   libvorbis_static:mdct.obj
 0001:0007a120       _mdct_butterfly_16         1007b120 f   libvorbis_static:mdct.obj
 0001:0007a2d0       _mdct_butterfly_8          1007b2d0 f   libvorbis_static:mdct.obj
 0001:0007a3c0       _mdct_butterfly_first      1007b3c0 f   libvorbis_static:mdct.obj
 0001:0007a5f0       _mdct_butterfly_generic    1007b5f0 f   libvorbis_static:mdct.obj
 0001:0007a840       _mdct_bitreverse           1007b840 f   libvorbis_static:mdct.obj
 0001:0007b480       _mapping0_free_info        1007c480 f   libvorbis_static:mapping0.obj
 0001:0007b4d0       _mapping0_pack             1007c4d0 f   libvorbis_static:mapping0.obj
 0001:0007b6c0       _ilog                      1007c6c0 f   libvorbis_static:mapping0.obj
 0001:0007b710       _mapping0_unpack           1007c710 f   libvorbis_static:mapping0.obj
 0001:0007ba20       _mapping0_forward          1007ca20 f   libvorbis_static:mapping0.obj
 0001:0007c660       _todB                      1007d660 f   libvorbis_static:mapping0.obj
 0001:0007c6e0       _mapping0_inverse          1007d6e0 f   libvorbis_static:mapping0.obj
 0001:0007cfc0       _ilog                      1007dfc0 f   libvorbis_static:res0.obj
 0001:0007d000       _icount                    1007e000 f   libvorbis_static:res0.obj
 0001:0007d600       __01inverse                1007e600 f   libvorbis_static:res0.obj
 0001:0007d9e0       __encodepart               1007e9e0 f   libvorbis_static:res0.obj
 0001:0007da80       _local_book_besterror      1007ea80 f   libvorbis_static:res0.obj
 0001:0007df20       __01forward                1007ef20 f   libvorbis_static:res0.obj
 0001:0007e350       __01class                  1007f350 f   libvorbis_static:res0.obj
 0001:0007e6b0       __2class                   1007f6b0 f   libvorbis_static:res0.obj
 0001:0007ec40       _floor1_free_info          1007fc40 f   libvorbis_static:floor1.obj
 0001:0007ec90       _floor1_free_look          1007fc90 f   libvorbis_static:floor1.obj
 0001:0007ece0       _floor1_pack               1007fce0 f   libvorbis_static:floor1.obj
 0001:0007ef30       _ilog2                     1007ff30 f   libvorbis_static:floor1.obj
 0001:0007ef80       _floor1_unpack             1007ff80 f   libvorbis_static:floor1.obj
 0001:0007f390       _icomp                     10080390 f   libvorbis_static:floor1.obj
 0001:0007f3b0       _floor1_look               100803b0 f   libvorbis_static:floor1.obj
 0001:00080100       _render_point              10081100 f   libvorbis_static:floor1.obj
 0001:00080190       _accumulate_fit            10081190 f   libvorbis_static:floor1.obj
 0001:000803a0       _vorbis_dBquant            100813a0 f   libvorbis_static:floor1.obj
 0001:000803f0       _fit_line                  100813f0 f   libvorbis_static:floor1.obj
 0001:00080770       _inspect_error             10081770 f   libvorbis_static:floor1.obj
 0001:00080a20       _post_Y                    10081a20 f   libvorbis_static:floor1.obj
 0001:00081520       _ilog                      10082520 f   libvorbis_static:floor1.obj
 0001:00081560       _render_line0              10082560 f   libvorbis_static:floor1.obj
 0001:00081680       _floor1_inverse1           10082680 f   libvorbis_static:floor1.obj
 0001:00081a60       _floor1_inverse2           10082a60 f   libvorbis_static:floor1.obj
 0001:00081c50       _render_line               10082c50 f   libvorbis_static:floor1.obj
 0001:00081d90       _floor0_free_info          10082d90 f   libvorbis_static:floor0.obj
 0001:00081de0       _floor0_free_look          10082de0 f   libvorbis_static:floor0.obj
 0001:00081e80       _floor0_unpack             10082e80 f   libvorbis_static:floor0.obj
 0001:00082020       _floor0_look               10083020 f   libvorbis_static:floor0.obj
 0001:00082090       _floor0_inverse1           10083090 f   libvorbis_static:floor0.obj
 0001:00082240       _floor0_inverse2           10083240 f   libvorbis_static:floor0.obj
 0001:00082320       _floor0_map_lazy_init      10083320 f   libvorbis_static:floor0.obj
 0001:00082b30       _cheby                     10083b30 f   libvorbis_static:lsp.obj
 0001:00082bd0       _comp                      10083bd0 f   libvorbis_static:lsp.obj
 0001:00082c40       _Laguerre_With_Deflation   10083c40 f   libvorbis_static:lsp.obj
 0001:00082f10       _Newton_Raphson            10083f10 f   libvorbis_static:lsp.obj
 0001:00083fd0       _oggpack_writecopy_helper  10084fd0 f   libogg_static:bitwise.obj
 0001:00084c20       __unwindfunclet$?getSystemCP@@YAHH@Z$0 10085c20 f   LIBCMTD:mbctype.obj
 0001:00084c28       __ehhandler$?getSystemCP@@YAHH@Z 10085c28 f   LIBCMTD:mbctype.obj
 0001:00084c50       __unwindfunclet$?strtoxl@@YAKPAUlocaleinfo_struct@@PBDPAPBDHH@Z$0 10085c50 f   LIBCMTD:strtol.obj
 0001:00084c58       __ehhandler$?strtoxl@@YAKPAUlocaleinfo_struct@@PBDPAPBDHH@Z 10085c58 f   LIBCMTD:strtol.obj
 0001:00084c80       __unwindfunclet$?strtoxq@@YA_KPAUlocaleinfo_struct@@PBDPAPBDHH@Z$0 10085c80 f   LIBCMTD:strtoq.obj
 0001:00084c88       __ehhandler$?strtoxq@@YA_KPAUlocaleinfo_struct@@PBDPAPBDHH@Z 10085c88 f   LIBCMTD:strtoq.obj
 0001:00084cb0       __unwindfunclet$?x_ismbbtype_l@@YAHPAUlocaleinfo_struct@@IHH@Z$0 10085cb0 f   LIBCMTD:ismbbyte.obj
 0001:00084cb8       __ehhandler$?x_ismbbtype_l@@YAHPAUlocaleinfo_struct@@IHH@Z 10085cb8 f   LIBCMTD:ismbbyte.obj
 0001:00084ce0       __ehhandler$?CallUnexpected@@YAXPBU_s_ESTypeList@@@Z 10085ce0 f   LIBCMTD:frame.obj
 0001:00084d00       __unwindfunclet$?make@DNameStatusNode@@SAPAV1@W4DNameStatus@@@Z$0 10085d00 f   LIBCMTD:undname.obj
 0001:00084d0e       __ehhandler$?make@DNameStatusNode@@SAPAV1@W4DNameStatus@@@Z 10085d0e f   LIBCMTD:undname.obj
