 cgame_x86

 Timestamp is 51ba2772 (Fri Jun 14 00:11:30 2013)

 Preferred load address is 10000000

 Start         Length     Name                   Class
 0001:00000000 000a4a52H .text                   CODE
 0001:000a4a60 00000109H .text$x                 CODE
 0002:00000000 00000158H .idata$5                DATA
 0002:00000158 00000004H .CRT$XCA                DATA
 0002:0000015c 00000004H .CRT$XCZ                DATA
 0002:00000160 00000004H .CRT$XIA                DATA
 0002:00000164 00000014H .CRT$XIC                DATA
 0002:00000178 00000004H .CRT$XIZ                DATA
 0002:0000017c 00000004H .CRT$XPA                DATA
 0002:00000180 00000008H .CRT$XPX                DATA
 0002:00000188 00000004H .CRT$XPXA               DATA
 0002:0000018c 00000004H .CRT$XPZ                DATA
 0002:00000190 00000004H .CRT$XTA                DATA
 0002:00000194 00000004H .CRT$XTZ                DATA
 0002:000001a0 000256e8H .rdata                  DATA
 0002:00025888 00000051H .rdata$debug            DATA
 0002:000258dc 000001c4H .rdata$r                DATA
 0002:00025aa0 0000002cH .rdata$sxdata           DATA
 0002:00025acc 00000004H .rtc$IAA                DATA
 0002:00025ad0 00000090H .rtc$IMZ                DATA
 0002:00025b60 00000004H .rtc$IZZ                DATA
 0002:00025b64 00000004H .rtc$TAA                DATA
 0002:00025b68 00000090H .rtc$TMZ                DATA
 0002:00025bf8 00000004H .rtc$TZZ                DATA
 0002:00025c00 00000c40H .xdata$x                DATA
 0002:00026840 00000014H .idata$2                DATA
 0002:00026854 00000014H .idata$3                DATA
 0002:00026868 00000158H .idata$4                DATA
 0002:000269c0 0000063cH .idata$6                DATA
 0002:00027000 0000004cH .edata                  DATA
 0003:00000000 00004270H .data                   DATA
 0003:00004280 004e2d80H .bss                    DATA

  Address         Publics by Value              Rva+Base       Lib:Object

 0000:00000000       __except_list              00000000     <absolute>
 0000:0000000b       ___safe_se_handler_count   0000000b     <absolute>
 0000:00000000       ___ImageBase               10000000     <linker-defined>
 0001:00000000       ?CG_SkeletonForModel@@YAPAUcgs_skeleton_s@@PAUmodel_s@@@Z 10001000 f   cg_boneposes.obj
 0001:000004a0       ?CG_BoneNodeFromNum@@YAPAUbonenode_s@@PAUcgs_skeleton_s@@H@Z 100014a0 f   cg_boneposes.obj
 0001:000004d0       ?CG_RecurseBlendSkeletalBone@@YAXPAUbonepose_s@@0PAUbonenode_s@@M@Z 100014d0 f   cg_boneposes.obj
 0001:000005c0       ?CG_TransformBoneposes@@YAXPAUcgs_skeleton_s@@PAUbonepose_s@@1@Z 100015c0 f   cg_boneposes.obj
 0001:000006d0       ?CG_LerpBoneposes@@YA_NPAUcgs_skeleton_s@@PAUbonepose_s@@11M@Z 100016d0 f   cg_boneposes.obj
 0001:000007f0       ?CG_LerpSkeletonPoses@@YA_NPAUcgs_skeleton_s@@HHPAUbonepose_s@@M@Z 100017f0 f   cg_boneposes.obj
 0001:000008d0       ?CG_RotateBonePose@@YAXQAMPAUbonepose_s@@@Z 100018d0 f   cg_boneposes.obj
 0001:000009d0       ?CG_SkeletalPoseGetAttachment@@YA_NPAUorientation_s@@PAUcgs_skeleton_s@@PAUbonepose_s@@PAD@Z 100019d0 f   cg_boneposes.obj
 0001:00000dd0       ?CG_InitTemporaryBoneposesCache@@YAXXZ 10001dd0 f   cg_boneposes.obj
 0001:00000e10       ?CG_ResetTemporaryBoneposesCache@@YAXXZ 10001e10 f   cg_boneposes.obj
 0001:00000e20       ?CG_RegisterTemporaryExternalBoneposes@@YAPAUbonepose_s@@PAUcgs_skeleton_s@@@Z 10001e20 f   cg_boneposes.obj
 0001:00000f90       ?CG_SetBoneposesForTemporaryEntity@@YAPAUcgs_skeleton_s@@PAUentity_s@@@Z 10001f90 f   cg_boneposes.obj
 0001:00001040       ?CG_InitChat@@YAXPAUcg_gamechat_t@@@Z 10002040 f   cg_chat.obj
 0001:000010f0       ?CG_StackChatString@@YAXPAUcg_gamechat_t@@PBD@Z 100020f0 f   cg_chat.obj
 0001:00001160       ?CG_DrawChat@@YAXPAUcg_gamechat_t@@HHPADPAUqfontface_s@@HHHHQAMPAUshader_s@@@Z 10002160 f   cg_chat.obj
 0001:00001ef0       ?CG_ConfigString@@YAXHPBD@Z 10002ef0 f   cg_cmds.obj
 0001:00002300       ?CG_SC_PrintStatsToFile@@YAXPBDZZ 10003300 f   cg_cmds.obj
 0001:00002740       ?CG_SC_AutoRecordAction@@YAXPBD@Z 10003740 f   cg_cmds.obj
 0001:000033e0       ?CG_AddAward@@YAXPBD@Z     100043e0 f   cg_cmds.obj
 0001:000034b0       ?CG_GameCommand@@YAXPBD@Z  100044b0 f   cg_cmds.obj
 0001:00003580       ?CG_UseItem@@YAXPBD@Z      10004580 f   cg_cmds.obj
 0001:000038d0       ?CG_RegisterCGameCommands@@YAXXZ 100048d0 f   cg_cmds.obj
 0001:00003a20       ?CG_UnregisterCGameCommands@@YAXXZ 10004a20 f   cg_cmds.obj
 0001:00003b60       ?CG_DamageIndicatorAdd@@YAXHQBM@Z 10004b60 f   cg_damage_indicator.obj
 0001:000040f0       ?CG_ResetDamageIndicator@@YAXXZ 100050f0 f   cg_damage_indicator.obj
 0001:00004130       ?CG_ClearDecals@@YAXXZ     10005130 f   cg_decals.obj
 0001:00004250       ?CG_SpawnDecal@@YAXQAM0MMMMMMMM_NPAUshader_s@@@Z 10005250 f   cg_decals.obj
 0001:00004b90       ?CG_AddDecals@@YAXXZ       10005b90 f   cg_decals.obj
 0001:00004e80       ?CG_Democam_FreeCams@@YAXXZ 10005e80 f   cg_democams.obj
 0001:00004f80       ?CG_Democam_FreeSubtitles@@YAXXZ 10005f80 f   cg_democams.obj
 0001:000050a0       ?CG_LoadRecamScriptFile@@YA_NPAD@Z 100060a0 f   cg_democams.obj
 0001:000060b0       ?CG_SaveRecamScriptFile@@YAXPBD@Z 100070b0 f   cg_democams.obj
 0001:00006410       ?CG_Democam_DrawCenterSubtitle@@YAXHIPAUqfontface_s@@PAD@Z 10007410 f   cg_democams.obj
 0001:00006770       ?CG_DrawDemocam2D@@YAXXZ   10007770 f   cg_democams.obj
 0001:00007100       ?CG_DemoCam_LookAt@@YA_NHQAM0@Z 10008100 f   cg_democams.obj
 0001:00007310       ?CG_DemoCam_GetViewType@@YAHXZ 10008310 f   cg_democams.obj
 0001:00007320       ?CG_DemoCam_GetThirdPerson@@YA_NXZ 10008320 f   cg_democams.obj
 0001:00007370       ?CG_DemoCam_GetViewDef@@YAXPAUcg_viewdef_t@@@Z 10008370 f   cg_democams.obj
 0001:000073b0       ?CG_DemoCam_GetOrientation@@YAMQAM00@Z 100083b0 f   cg_democams.obj
 0001:00007440       ?CG_DemoCam_FreeFly@@YAHXZ 10008440 f   cg_democams.obj
 0001:00007880       ?CG_Democam_CalcView@@YAHXZ 10008880 f   cg_democams.obj
 0001:00009670       ?CG_DemoCam_Update@@YA_NXZ 1000a670 f   cg_democams.obj
 0001:000098b0       ?CG_DemoCam_IsFree@@YA_NXZ 1000a8b0 f   cg_democams.obj
 0001:000098c0       ?CG_SaveCam_Cmd_f@@YAXXZ   1000a8c0 f   cg_democams.obj
 0001:00009a10       ?CG_Democam_ImportCams_f@@YAXXZ 1000aa10 f   cg_democams.obj
 0001:00009b10       ?CG_DemoEditMode_RemoveCmds@@YAXXZ 1000ab10 f   cg_democams.obj
 0001:00009bc0       ?CG_DemocamInit@@YAXXZ     1000abc0 f   cg_democams.obj
 0001:0000aab0       ?CG_DemocamShutdown@@YAXXZ 1000bab0 f   cg_democams.obj
 0001:0000ab30       ?pow@@YAMMH@Z              1000bb30 f i cg_democams.obj
 0001:0000ab50       ??$_Pow_int@M@@YAMMH@Z     1000bb50 f i cg_democams.obj
 0001:0000abe0       ?CG_HorizontalAlignForWidth@@YAHHHH@Z 1000bbe0 f   cg_draw.obj
 0001:0000ac50       ?CG_VerticalAlignForHeight@@YAHHHH@Z 1000bc50 f   cg_draw.obj
 0001:0000acc0       ?CG_DrawHUDNumeric@@YAXHHHPAMHHH@Z 1000bcc0 f   cg_draw.obj
 0001:0000ae90       ?CG_DrawHUDField@@YAXHHHPAMHHH@Z 1000be90 f   cg_draw.obj
 0001:0000b060       ?CG_DrawHUDModel@@YAXHHHHHPAUmodel_s@@PAUshader_s@@M@Z 1000c060 f   cg_draw.obj
 0001:0000b4a0       ?CG_DrawMiniMap@@YAXHHHH_N0HQAM@Z 1000c4a0 f   cg_draw.obj
 0001:0000bef0       ?CG_DrawHUDRect@@YAXHHHHHHHQAMPAUshader_s@@@Z 1000cef0 f   cg_draw.obj
 0001:0000c130       ?CG_DrawPicBar@@YAXHHHHHMPAUshader_s@@QAM1@Z 1000d130 f   cg_draw.obj
 0001:0000c2d0       ?CG_RunLightStyles@@YAXXZ  1000d2d0 f   cg_effects.obj
 0001:0000c410       ?CG_SetLightStyle@@YAXH@Z  1000d410 f   cg_effects.obj
 0001:0000c4d0       ?CG_AddLightStyles@@YAXXZ  1000d4d0 f   cg_effects.obj
 0001:0000c590       ?CG_AddLightToScene@@YAXQAMMMMM@Z 1000d590 f   cg_effects.obj
 0001:0000c670       ?CG_AddDlights@@YAXXZ      1000d670 f   cg_effects.obj
 0001:0000c750       ?CG_AllocShadeBox@@YAXHQBM00PAUshader_s@@@Z 1000d750 f   cg_effects.obj
 0001:0000c930       ?CG_AddShadeBoxes@@YAXXZ   1000d930 f   cg_effects.obj
 0001:0000d2c0       ?CG_ClearFragmentedDecals@@YAXXZ 1000e2c0 f   cg_effects.obj
 0001:0000d2d0       ?CG_AddFragmentedDecal@@YAXQAM0MMMMMMPAUshader_s@@@Z 1000e2d0 f   cg_effects.obj
 0001:0000d940       ?CG_ParticleEffect@@YAXQAM0MMMH@Z 1000e940 f   cg_effects.obj
 0001:0000db70       ?CG_ParticleEffect2@@YAXQAM0MMMH@Z 1000eb70 f   cg_effects.obj
 0001:0000dd50       ?CG_ParticleExplosionEffect@@YAXQAM0MMMH@Z 1000ed50 f   cg_effects.obj
 0001:0000df70       ?CG_BlasterTrail@@YAXQAM0@Z 1000ef70 f   cg_effects.obj
 0001:0000e220       ?CG_ElectroWeakTrail@@YAXQAM00@Z 1000f220 f   cg_effects.obj
 0001:0000e510       ?CG_ImpactPuffParticles@@YAXQAM0HMMMMMPAUshader_s@@@Z 1000f510 f   cg_effects.obj
 0001:0000e6f0       ?CG_ElectroIonsTrail@@YAXQAM0@Z 1000f6f0 f   cg_effects.obj
 0001:0000ea10       ?CG_FlyEffect@@YAXPAUcentity_t@@QAM@Z 1000fa10 f   cg_effects.obj
 0001:0000ee70       ?CG_AddParticles@@YAXXZ    1000fe70 f   cg_effects.obj
 0001:0000f620       ?CG_ClearEffects@@YAXXZ    10010620 f   cg_effects.obj
 0001:0000f7a0       ?floor@@YAMM@Z             100107a0 f i cg_effects.obj
 0001:0000f7c0       _floorf                    100107c0 f i cg_effects.obj
 0001:0000f7f0       ?cos@@YAMM@Z               100107f0 f i cg_effects.obj
 0001:0000f810       _cosf                      10010810 f i cg_effects.obj
 0001:0000f840       ?sin@@YAMM@Z               10010840 f i cg_effects.obj
 0001:0000f860       _sinf                      10010860 f i cg_effects.obj
 0001:0000f890       ?CG_LostMultiviewPOV@@YAHXZ 10010890 f   cg_ents.obj
 0001:0000f970       ?CG_NewFrameSnap@@YAXPAUsnapshot_s@@0@Z 10010970 f   cg_ents.obj
 0001:00010ca0       ?CG_CModelForEntity@@YAPAUcmodel_s@@H@Z 10011ca0 f   cg_ents.obj
 0001:00010ed0       ?CG_DrawEntityBox@@YAXPAUcentity_t@@@Z 10011ed0 f   cg_ents.obj
 0001:00011090       ?CG_ExtrapolateLinearProjectile@@YAXPAUcentity_t@@@Z 10012090 f   cg_ents.obj
 0001:00011150       ?CG_LerpGenericEnt@@YAXPAUcentity_t@@@Z 10012150 f   cg_ents.obj
 0001:00011b40       ?CG_AddFlagModelOnTag@@YAXPAUcentity_t@@QAEPAD@Z 10012b40 f   cg_ents.obj
 0001:00012110       ?CG_ResetItemTimers@@YAXXZ 10013110 f   cg_ents.obj
 0001:00012120       ?CG_GetItemTimerEnt@@YAPAUcentity_t@@H@Z 10013120 f   cg_ents.obj
 0001:00012150       ?CG_UpdateParticlesEnt@@YAXPAUcentity_t@@@Z 10013150 f   cg_ents.obj
 0001:00012210       ?CG_SoundEntityNewState@@YAXPAUcentity_t@@@Z 10013210 f   cg_ents.obj
 0001:000124c0       ?CG_EntityLoopSound@@YAXPAUentity_state_s@@M@Z 100134c0 f   cg_ents.obj
 0001:000125a0       ?CG_AddEntities@@YAXXZ     100135a0 f   cg_ents.obj
 0001:00014900       ?CG_LerpEntities@@YAXXZ    10015900 f   cg_ents.obj
 0001:00015c00       ?CG_GetEntitySpatilization@@YAXHQAM0@Z 10016c00 f   cg_ents.obj
 0001:00015e60       ?abs@@YAMM@Z               10016e60 f i cg_ents.obj
 0001:00015e80       _fabsf                     10016e80 f i cg_ents.obj
 0001:00015eb0       ?fabs@@YAMM@Z              10016eb0 f i cg_ents.obj
 0001:00015ed0       ?CG_WeaponBeamEffect@@YAXPAUcentity_t@@@Z 10016ed0 f   cg_events.obj
 0001:00015fe0       ?CG_LaserBeamEffect@@YAXPAUcentity_t@@@Z 10016fe0 f   cg_events.obj
 0001:00016b40       ?CG_Event_LaserBeam@@YAXHHH@Z 10017b40 f   cg_events.obj
 0001:00016e90       ?CG_ClearAnnouncerEvents@@YAXXZ 10017e90 f   cg_events.obj
 0001:00016eb0       ?CG_AddAnnouncerEvent@@YAXPAUsfx_s@@_N@Z 10017eb0 f   cg_events.obj
 0001:00016f50       ?CG_ReleaseAnnouncerEvents@@YAXXZ 10017f50 f   cg_events.obj
 0001:00017000       ?CG_Event_Fall@@YAXPAUentity_state_s@@H@Z 10018000 f   cg_events.obj
 0001:00017370       ?CG_Event_Pain@@YAXPAUentity_state_s@@H@Z 10018370 f   cg_events.obj
 0001:00017510       ?CG_Event_Die@@YAXPAUentity_state_s@@H@Z 10018510 f   cg_events.obj
 0001:000175b0       ?CG_Event_Dash@@YAXPAUentity_state_s@@H@Z 100185b0 f   cg_events.obj
 0001:00017760       ?CG_Event_WallJump@@YAXPAUentity_state_s@@HH@Z 10018760 f   cg_events.obj
 0001:00017a30       ?CG_Event_DoubleJump@@YAXPAUentity_state_s@@H@Z 10018a30 f   cg_events.obj
 0001:00017a80       ?CG_Event_Jump@@YAXPAUentity_state_s@@H@Z 10018a80 f   cg_events.obj
 0001:00017d70       ?CG_EntityEvent@@YAXPAUentity_state_s@@HH_N@Z 10018d70 f   cg_events.obj
 0001:0001a290       ?CG_FireEvents@@YAX_N@Z    1001b290 f   cg_events.obj
 0001:0001b700       ?CG_SC_PrintObituary@@YAXPBDZZ 1001c700 f   cg_hud.obj
 0001:0001b7f0       ?CG_SC_Obituary@@YAXXZ     1001c7f0 f   cg_hud.obj
 0001:0001f420       ?Cmd_CG_PrintHudHelp_f@@YAXXZ 10020420 f   cg_hud.obj
 0001:0001f7f0       ?CG_ExecuteLayoutProgram@@YAXPAUcg_layoutnode_s@@@Z 100207f0 f   cg_hud.obj
 0001:0001f960       ?CG_LoadStatusBar@@YAXXZ   10020960 f   cg_hud.obj
 0001:000213f0       ?sqrt@@YAMM@Z              100223f0 f i cg_hud.obj
 0001:00021410       _sqrtf                     10022410 f i cg_hud.obj
 0001:00021440       ?acos@@YAMM@Z              10022440 f i cg_hud.obj
 0001:00021460       _acosf                     10022460 f i cg_hud.obj
 0001:00021490       ?strchr@@YAPADPADH@Z       10022490 f i cg_hud.obj
 0001:000214b0       ?CG_ClearLocalEntities@@YAXXZ 100224b0 f   cg_lents.obj
 0001:00021540       ?CG_SpawnSprite@@YAXQAM00MHH_N1MMMMMMMMPAUshader_s@@@Z 10022540 f   cg_lents.obj
 0001:00021c80       ?CG_ElectroTrail2@@YAXQAM0H@Z 10022c80 f   cg_lents.obj
 0001:00021cb0       ?CG_ImpactSmokePuff@@YAXQAM0MMHH@Z 10022cb0 f   cg_lents.obj
 0001:00021f70       ?CG_BulletExplosion@@YAXQAMPAMPAUtrace_t@@@Z 10022f70 f   cg_lents.obj
 0001:000224f0       ?CG_BubbleTrail@@YAXQAM0H@Z 100234f0 f   cg_lents.obj
 0001:00022730       ?CG_PlasmaExplosion@@YAXQAM0HM@Z 10023730 f   cg_lents.obj
 0001:00022920       ?CG_BoltExplosionMode@@YAXQAM0H@Z 10023920 f   cg_lents.obj
 0001:00022b30       ?CG_InstaExplosionMode@@YAXQAM0H@Z 10023b30 f   cg_lents.obj
 0001:00022d40       ?CG_RocketExplosionMode@@YAXQAM0HM@Z 10023d40 f   cg_lents.obj
 0001:000232a0       ?CG_BladeImpact@@YAXQAM0@Z 100242a0 f   cg_lents.obj
 0001:00023720       ?CG_GunBladeBlastImpact@@YAXQAM0M@Z 10024720 f   cg_lents.obj
 0001:00023940       ?CG_NewGrenadeTrail@@YAXPAUcentity_t@@@Z 10024940 f   cg_lents.obj
 0001:00023c90       ?CG_NewRocketTrail@@YAXPAUcentity_t@@@Z 10024c90 f   cg_lents.obj
 0001:000242f0       ?CG_NewBloodTrail@@YAXPAUcentity_t@@@Z 100252f0 f   cg_lents.obj
 0001:00024660       ?CG_BloodDamageEffect@@YAXQAM0H@Z 10025660 f   cg_lents.obj
 0001:00024a30       ?CG_CartoonHitEffect@@YAXQAM0H@Z 10025a30 f   cg_lents.obj
 0001:00024da0       ?CG_PModel_SpawnTeleportEffect@@YAXPAUcentity_t@@@Z 10025da0 f   cg_lents.obj
 0001:000251b0       ?CG_GrenadeExplosionMode@@YAXQAM0HM@Z 100261b0 f   cg_lents.obj
 0001:00025720       ?CG_GenericExplosion@@YAXQAM0HM@Z 10026720 f   cg_lents.obj
 0001:00025b70       ?CG_FlagTrail@@YAXQAM00MMM@Z 10026b70 f   cg_lents.obj
 0001:00025de0       ?CG_Explosion1@@YAXQAM@Z   10026de0 f   cg_lents.obj
 0001:00025e10       ?CG_Explosion2@@YAXQAM@Z   10026e10 f   cg_lents.obj
 0001:00025e40       ?CG_GreenLaser@@YAXQAM0@Z  10026e40 f   cg_lents.obj
 0001:00026020       ?CG_SpawnTracer@@YAXQAM000@Z 10027020 f   cg_lents.obj
 0001:00026320       ?CG_Dash@@YAXPAUentity_state_s@@@Z 10027320 f   cg_lents.obj
 0001:00026530       ?CG_Explosion_Puff@@YAXQAMMH@Z 10027530 f   cg_lents.obj
 0001:00026700       ?CG_Explosion_Puff_2@@YAXQAM0H@Z 10027700 f   cg_lents.obj
 0001:00026800       ?CG_DustCircle@@YAXQAM0MH@Z 10027800 f   cg_lents.obj
 0001:00026ae0       ?CG_ExplosionsDust@@YAXQAM0M@Z 10027ae0 f   cg_lents.obj
 0001:00026de0       ?CG_SmallPileOfGibs@@YAXQAMHQBM@Z 10027de0 f   cg_lents.obj
 0001:00027a80       ?CG_AddLocalEntities@@YAXXZ 10028a80 f   cg_lents.obj
 0001:00028bd0       ?CG_API@@YAHXZ             10029bd0 f   cg_main.obj
 0001:00028be0       ?CG_Error@@YAXPBDZZ        10029be0 f   cg_main.obj
 0001:00028cc0       ?CG_Printf@@YAXPBDZZ       10029cc0 f   cg_main.obj
 0001:00028da0       ?CG_LocalPrint@@YAX_NPBDZZ 10029da0 f   cg_main.obj
 0001:00028eb0       ?_CG_CopyString@@YAPADPBD0H@Z 10029eb0 f   cg_main.obj
 0001:00028f30       ?CG_ValidateItemDef@@YAXHPAD@Z 10029f30 f   cg_main.obj
 0001:00028f90       ?CG_OverrideWeapondef@@YAXHPBD@Z 10029f90 f   cg_main.obj
 0001:000290a0       ?CG_UpdateTVServerString@@YAXXZ 1002a0a0 f   cg_main.obj
 0001:00029150       ?CG_StartBackgroundTrack@@YAXXZ 1002a150 f   cg_main.obj
 0001:000292d0       ?CG_Reset@@YAXXZ           1002a2d0 f   cg_main.obj
 0001:00029340       ?CG_Init@@YAXPBDIHHW4qboolean@@01IHH@Z 1002a340 f   cg_main.obj
 0001:0002ac20       ?CG_Shutdown@@YAXXZ        1002bc20 f   cg_main.obj
 0001:0002ac40       _Sys_Error                 1002bc40 f   cg_main.obj
 0001:0002acf0       _Com_Printf                1002bcf0 f   cg_main.obj
 0001:0002ada0       ?CG_MediaSfx@@YAPAUsfx_s@@PAUcgs_media_handle_s@@@Z 1002bda0 f   cg_media.obj
 0001:0002ae00       ?CG_RegisterMediaSounds@@YAXXZ 1002be00 f   cg_media.obj
 0001:0002b590       ?CG_RegisterModel@@YAPAUmodel_s@@PBD@Z 1002c590 f   cg_media.obj
 0001:0002b640       ?CG_MediaModel@@YAPAUmodel_s@@PAUcgs_media_handle_s@@@Z 1002c640 f   cg_media.obj
 0001:0002b680       ?CG_RegisterMediaModels@@YAXXZ 1002c680 f   cg_media.obj
 0001:0002b8b0       ?CG_MediaShader@@YAPAUshader_s@@PAUcgs_media_handle_s@@@Z 1002c8b0 f   cg_media.obj
 0001:0002b910       ?CG_RegisterMediaShaders@@YAXXZ 1002c910 f   cg_media.obj
 0001:0002c330       ?CG_RegisterLevelMinimap@@YAXXZ 1002d330 f   cg_media.obj
 0001:0002c450       ?CG_RegisterFonts@@YAXXZ   1002d450 f   cg_media.obj
 0001:0002c700       ?CG_UpdateSexedSoundsRegistration@@YAXPAUpmodelinfo_s@@@Z 1002d700 f   cg_players.obj
 0001:0002cbf0       ?CG_RegisterSexedSound@@YAPAUsfx_s@@HPAD@Z 1002dbf0 f   cg_players.obj
 0001:0002cc30       ?CG_SexedSound@@YAXHHPADM@Z 1002dc30 f   cg_players.obj
 0001:0002cdd0       ?CG_LoadClientInfo@@YAXPAUcg_clientInfo_t@@PADH@Z 1002ddd0 f   cg_players.obj
 0001:0002d010       ?CG_PModelsInit@@YAXXZ     1002e010 f   cg_pmodels.obj
 0001:0002d030       ?CG_ResetPModels@@YAXXZ    1002e030 f   cg_pmodels.obj
 0001:0002d0c0       ?CG_RegisterPlayerModel@@YAPAUpmodelinfo_s@@PAD@Z 1002e0c0 f   cg_pmodels.obj
 0001:0002e240       ?CG_RegisterBasePModel@@YAXXZ 1002f240 f   cg_pmodels.obj
 0001:0002e380       ?CG_GrabTag@@YA_NPAUorientation_s@@PAUentity_s@@PAD@Z 1002f380 f   cg_pmodels.obj
 0001:0002e460       ?CG_PlaceRotatedModelOnTag@@YAXPAUentity_s@@0PAUorientation_s@@@Z 1002f460 f   cg_pmodels.obj
 0001:0002e610       ?CG_PlaceModelOnTag@@YAXPAUentity_s@@0PAUorientation_s@@@Z 1002f610 f   cg_pmodels.obj
 0001:0002e760       ?CG_MoveToTag@@YAXQAM0QBM111@Z 1002f760 f   cg_pmodels.obj
 0001:0002e8a0       ?CG_PModel_GetProjectionSource@@YA_NHPAUorientation_s@@@Z 1002f8a0 f   cg_pmodels.obj
 0001:0002e9d0       ?CG_AddShellEffects@@YAXPAUentity_s@@H@Z 1002f9d0 f   cg_pmodels.obj
 0001:0002ec90       ?CG_SetOutlineColor@@YAXQAE0@Z 1002fc90 f   cg_pmodels.obj
 0001:0002ed50       ?CG_AddColoredOutLineEffect@@YAXPAUentity_s@@HEEEE@Z 1002fd50 f   cg_pmodels.obj
 0001:0002f340       ?CG_AddCentityOutLineEffect@@YAXPAUcentity_t@@@Z 10030340 f   cg_pmodels.obj
 0001:0002f3a0       ?CG_PModel_ClearEventAnimations@@YAXH@Z 100303a0 f   cg_pmodels.obj
 0001:0002f3e0       ?CG_PModel_AddAnimation@@YAXHHHHH@Z 100303e0 f   cg_pmodels.obj
 0001:0002f420       ?CG_PModel_LeanAngles@@YAXPAUcentity_t@@PAUpmodel_t@@@Z 10030420 f   cg_pmodels.obj
 0001:0002fa80       ?CG_UpdatePModelAnimations@@YAXPAUcentity_t@@@Z 10030a80 f   cg_pmodels.obj
 0001:0002fbe0       ?CG_UpdatePlayerModelEnt@@YAXPAUcentity_t@@@Z 10030be0 f   cg_pmodels.obj
 0001:00030290       ?CG_AddPModel@@YAXPAUcentity_t@@@Z 10031290 f   cg_pmodels.obj
 0001:00030fc0       ?CG_ClearPolys@@YAXXZ      10031fc0 f   cg_polys.obj
 0001:000310d0       ?CG_KillPolyBeamsByTag@@YAXH@Z 100320d0 f   cg_polys.obj
 0001:00031180       ?CG_QuickPolyBeam@@YAXQAM0HPAUshader_s@@@Z 10032180 f   cg_polys.obj
 0001:00031dc0       ?CG_LaserGunPolyBeam@@YAXQAM00H@Z 10032dc0 f   cg_polys.obj
 0001:00032000       ?CG_ElectroPolyBeam@@YAXQAM0H@Z 10033000 f   cg_polys.obj
 0001:000323f0       ?CG_InstaPolyBeam@@YAXQAM0H@Z 100333f0 f   cg_polys.obj
 0001:000326d0       ?CG_PLink@@YAXQAM00H@Z     100336d0 f   cg_polys.obj
 0001:00032720       ?CG_AddPolys@@YAXXZ        10033720 f   cg_polys.obj
 0001:00032b20       ?CG_PredictedEvent@@YAXHHH@Z 10033b20 f   cg_predict.obj
 0001:00032bb0       ?CG_Predict_ChangeWeapon@@YAXH@Z 10033bb0 f   cg_predict.obj
 0001:00032bd0       ?CG_CheckPredictionError@@YAXXZ 10033bd0 f   cg_predict.obj
 0001:00032e10       ?CG_BuildSolidList@@YAXXZ  10033e10 f   cg_predict.obj
 0001:00032f40       ?CG_Predict_TouchTriggers@@YAXPAUpmove_t@@@Z 10033f40 f   cg_predict.obj
 0001:000332b0       ?CG_Trace@@YAXPAUtrace_t@@QAM111HH@Z 100342b0 f   cg_predict.obj
 0001:000336f0       ?CG_PointContents@@YAHQAM@Z 100346f0 f   cg_predict.obj
 0001:000337d0       ?CG_PredictMovement@@YAXXZ 100347d0 f   cg_predict.obj
 0001:00033dc0       ?CG_DrawScoreboard@@YAXXZ  10034dc0 f   cg_scoreboard.obj
 0001:00036280       ?SCR_UpdateScoreboardMessage@@YAXPBD@Z 10037280 f   cg_scoreboard.obj
 0001:000362b0       ?SCR_UpdatePlayerStatsMessage@@YAXPBD@Z 100372b0 f   cg_scoreboard.obj
 0001:00036540       ?CG_ToggleScores_f@@YAXXZ  10037540 f   cg_scoreboard.obj
 0001:000365c0       ?CG_ScoresOn_f@@YAXXZ      100375c0 f   cg_scoreboard.obj
 0001:00036610       ?CG_ScoresOff_f@@YAXXZ     10037610 f   cg_scoreboard.obj
 0001:00036660       ?CG_CenterPrint@@YAXPAD@Z  10037660 f   cg_screen.obj
 0001:00036720       ?CG_CenterPrintToUpper@@YAXPAD@Z 10037720 f   cg_screen.obj
 0001:000367e0       ?CG_ScreenCrosshairDamageUpdate@@YAXXZ 100377e0 f   cg_screen.obj
 0001:00036800       ?CG_CalcVrect@@YAXXZ       10037800 f   cg_screen.obj
 0001:00036910       ?CG_ScreenInit@@YAXXZ      10037910 f   cg_screen.obj
 0001:00036e10       ?CG_ScreenShutdown@@YAXXZ  10037e10 f   cg_screen.obj
 0001:00036e80       ?CG_ParseValue@@YAHPAPBD@Z 10037e80 f   cg_screen.obj
 0001:00036f20       ?CG_DrawNet@@YAXHHHHHQAM@Z 10037f20 f   cg_screen.obj
 0001:000370e0       ?CG_DrawCrosshair@@YAXHHH@Z 100380e0 f   cg_screen.obj
 0001:000375d0       ?CG_DrawKeyState@@YAXHHHHHPAD@Z 100385d0 f   cg_screen.obj
 0001:000377c0       ?CG_DrawClock@@YAXHHHPAUqfontface_s@@QAM@Z 100387c0 f   cg_screen.obj
 0001:000379b0       ?CG_UpdatePointedNum@@YAXXZ 100389b0 f   cg_screen.obj
 0001:00037b10       ?CG_DrawPlayerNames@@YAXPAUqfontface_s@@QAM@Z 10038b10 f   cg_screen.obj
 0001:00038410       ?CG_DrawTeamMates@@YAXXZ   10039410 f   cg_screen.obj
 0001:00038780       ?CG_DrawTeamInfo@@YAXHHHPAUqfontface_s@@QAM@Z 10039780 f   cg_screen.obj
 0001:00038da0       ?CG_DrawRSpeeds@@YAXHHHPAUqfontface_s@@QAM@Z 10039da0 f   cg_screen.obj
 0001:00038f20       ?CG_GameMenu_f@@YAXXZ      10039f20 f   cg_screen.obj
 0001:00039100       ?CG_EscapeKey@@YAXXZ       1003a100 f   cg_screen.obj
 0001:00039120       ?CG_DrawLoading@@YAXXZ     1003a120 f   cg_screen.obj
 0001:000392c0       ?CG_LoadingString@@YAXPAD@Z 1003a2c0 f   cg_screen.obj
 0001:00039310       ?CG_LoadingItemName@@YAXPAD@Z 1003a310 f   cg_screen.obj
 0001:00039360       ?CG_TileClear@@YAXXZ       1003a360 f   cg_screen.obj
 0001:00039530       ?CG_Draw2DView@@YAXXZ      1003a530 f   cg_screen.obj
 0001:00039d40       ?CG_Draw2D@@YAXXZ          1003ad40 f   cg_screen.obj
 0001:00039d70       _GetCGameAPI               1003ad70 f   cg_syscalls.obj
 0001:00039e00       ?CG_SetSceneTeamColors@@YAXXZ 1003ae00 f   cg_teams.obj
 0001:00039f60       ?CG_PModelForCentity@@YAPAUpmodelinfo_s@@PAUcentity_t@@@Z 1003af60 f   cg_teams.obj
 0001:0003a380       ?CG_SkinForCentity@@YAPAUskinfile_s@@PAUcentity_t@@@Z 1003b380 f   cg_teams.obj
 0001:0003a440       ?CG_RegisterTeamColor@@YAXH@Z 1003b440 f   cg_teams.obj
 0001:0003a560       ?CG_TeamColor@@YAPAMHQAM@Z 1003b560 f   cg_teams.obj
 0001:0003a680       ?_ColorForEntity@@YAPAEHQAE_N@Z 1003b680 f   cg_teams.obj
 0001:0003a8d0       ?CG_TeamColorForEntity@@YAPAEHQAE@Z 1003b8d0 f   cg_teams.obj
 0001:0003a8f0       ?CG_PlayerColorForEntity@@YAPAEHQAE@Z 1003b8f0 f   cg_teams.obj
 0001:0003a910       ?CG_RegisterForceModels@@YAXXZ 1003b910 f   cg_teams.obj
 0001:0003a9b0       ?CG_DrawTestLine@@YAXQAM0@Z 1003b9b0 f   cg_test.obj
 0001:0003a9e0       ?CG_DrawTestBox@@YAXQAM000@Z 1003b9e0 f   cg_test.obj
 0001:0003b550       ?CG_AddTest@@YAXXZ         1003c550 f   cg_test.obj
 0001:0003b960       ?CG_ChaseStep@@YAXH@Z      1003c960 f   cg_view.obj
 0001:0003bb20       ?CG_SetSensitivityScale@@YAMM@Z 1003cb20 f   cg_view.obj
 0001:0003bbb0       ?CG_AddKickAngles@@YAXQAM@Z 1003cbb0 f   cg_view.obj
 0001:0003bd00       ?CG_ResetKickAngles@@YAXXZ 1003cd00 f   cg_view.obj
 0001:0003bd20       ?CG_StartKickAnglesEffect@@YAXQAMMMH@Z 1003cd20 f   cg_view.obj
 0001:0003c240       ?CG_ResetColorBlend@@YAXXZ 1003d240 f   cg_view.obj
 0001:0003c260       ?CG_StartColorBlendEffect@@YAXMMMMH@Z 1003d260 f   cg_view.obj
 0001:0003c3b0       ?CG_AddEntityToScene@@YAXPAUentity_s@@@Z 1003d3b0 f   cg_view.obj
 0001:0003c470       ?CG_SkyPortal@@YAHXZ       1003d470 f   cg_view.obj
 0001:0003c670       ?CG_ViewSmoothPredictedSteps@@YAXQAM@Z 1003d670 f   cg_view.obj
 0001:0003c6d0       ?CG_SetupViewDef@@YAXPAUcg_viewdef_t@@H@Z 1003d6d0 f   cg_view.obj
 0001:0003d4f0       ?CG_RenderView@@YAXMMHIMI@Z 1003e4f0 f   cg_view.obj
 0001:0003e530       ?atan2@@YAMMM@Z            1003f530 f i cg_view.obj
 0001:0003e560       _atan2f                    1003f560 f i cg_view.obj
 0001:0003e5a0       ?CG_ViewWeapon_StartFallKickEff@@YAXH@Z 1003f5a0 f   cg_vweap.obj
 0001:0003e670       ?CG_ViewWeapon_RefreshAnimation@@YAXPAUcg_viewweapon_t@@@Z 1003f670 f   cg_vweap.obj
 0001:0003ea70       ?CG_ViewWeapon_StartAnimationEvent@@YAXH@Z 1003fa70 f   cg_vweap.obj
 0001:0003eab0       ?CG_CalcViewWeapon@@YAXPAUcg_viewweapon_t@@@Z 1003fab0 f   cg_vweap.obj
 0001:0003f480       ?CG_AddViewWeapon@@YAXPAUcg_viewweapon_t@@@Z 10040480 f   cg_vweap.obj
 0001:0003f650       ?CG_RegisterWeaponModel@@YAPAUweaponinfo_s@@PADH@Z 10040650 f   cg_wmodels.obj
 0001:00040c40       ?CG_CreateWeaponZeroModel@@YAPAUweaponinfo_s@@PAD@Z 10041c40 f   cg_wmodels.obj
 0001:00040d00       ?CG_GetWeaponInfo@@YAPAUweaponinfo_s@@H@Z 10041d00 f   cg_wmodels.obj
 0001:00040d50       ?CG_AddWeaponOnTag@@YAXPAUentity_s@@PAUorientation_s@@HH1II@Z 10041d50 f   cg_wmodels.obj
 0001:00041520       _GS_TeamName               10042520 f   gs_gameteams.obj
 0001:00041560       _GS_DefaultTeamName        10042560 f   gs_gameteams.obj
 0001:00041580       _GS_TeamSkinName           10042580 f   gs_gameteams.obj
 0001:000415a0       _GS_Teams_TeamFromName     100425a0 f   gs_gameteams.obj
 0001:00041660       _GS_IsTeamDamage           10042660 f   gs_gameteams.obj
 0001:000416e0       _GS_FindItemByTag          100426e0 f   gs_items.obj
 0001:00041730       _GS_FindItemByClassname    10042730 f   gs_items.obj
 0001:00041790       _GS_FindItemByName         10042790 f   gs_items.obj
 0001:00041810       _GS_Cmd_UseItem            10042810 f   gs_items.obj
 0001:00041a30       _GS_Cmd_NextWeapon_f       10042a30 f   gs_items.obj
 0001:00041bb0       _GS_Cmd_PrevWeapon_f       10042bb0 f   gs_items.obj
 0001:00041bd0       _GS_Armor_TagForCount      10042bd0 f   gs_items.obj
 0001:00041c90       _GS_Armor_MaxCountForTag   10042c90 f   gs_items.obj
 0001:00041cd0       _GS_Armor_PickupCountForTag 10042cd0 f   gs_items.obj
 0001:00041d10       ?ceil@@YAMM@Z              10042d10 f i gs_items.obj
 0001:00041d30       _ceilf                     10042d30 f i gs_items.obj
 0001:00041d60       _GS_TouchPushTrigger       10042d60 f   gs_misc.obj
 0001:00041df0       _GS_WaterLevel             10042df0 f   gs_misc.obj
 0001:00041f40       _GS_BBoxForEntityState     10042f40 f   gs_misc.obj
 0001:00042020       _GS_FrameForTime           10043020 f   gs_misc.obj
 0001:00042140       _GS_SetGametypeName        10043140 f   gs_misc.obj
 0001:00042160       _GS_Obituary               10043160 f   gs_misc.obj
 0001:00042580       _GS_MatchMessageString     10043580 f   gs_misc.obj
 0001:00042600       _GS_UpdateBaseAnims        10043600 f   gs_players.obj
 0001:00042ca0       _GS_PModel_AnimToFrame     10043ca0 f   gs_players.obj
 0001:00042f20       _GS_PlayerModel_ClearEventAnimations 10043f20 f   gs_players.obj
 0001:00042f70       _GS_PlayerModel_AddAnimation 10043f70 f   gs_players.obj
 0001:00043080       ?PM_AdjustViewheight@@YAXXZ 10044080 f   gs_pmove.obj
 0001:00043210       _Pmove                     10044210 f   gs_pmove.obj
 0001:00048f30       _GS_SnapInitialPosition    10049f30 f   gs_slidebox.obj
 0001:000491d0       _GS_SnapPosition           1004a1d0 f   gs_slidebox.obj
 0001:000493e0       _GS_SnapVelocity           1004a3e0 f   gs_slidebox.obj
 0001:000494a0       _GS_ClipVelocity           1004a4a0 f   gs_slidebox.obj
 0001:00049620       _GS_SlideMove              1004a620 f   gs_slidebox.obj
 0001:00049d90       _GS_GetWeaponDef           1004ad90 f   gs_weapondefs.obj
 0001:00049dd0       _GS_InitWeapons            1004add0 f   gs_weapondefs.obj
 0001:00049f00       _GS_TraceBullet            1004af00 f   gs_weapons.obj
 0001:0004a190       _GS_TraceLaserBeam         1004b190 f   gs_weapons.obj
 0001:0004a490       _GS_TraceCurveLaserBeam    1004b490 f   gs_weapons.obj
 0001:0004a7a0       _GS_AddLaserbeamPoint      1004b7a0 f   gs_weapons.obj
 0001:0004a930       _G_GetLaserbeamPoint       1004b930 f   gs_weapons.obj
 0001:0004aa50       _GS_SelectBestWeapon       1004ba50 f   gs_weapons.obj
 0001:0004ab50       _GS_FiredefForPlayerState  1004bb50 f   gs_weapons.obj
 0001:0004aba0       _GS_CheckAmmoInWeapon      1004bba0 f   gs_weapons.obj
 0001:0004ac20       _GS_ThinkPlayerWeapon      1004bc20 f   gs_weapons.obj
 0001:0004b480       _DirToByte                 1004c480 f   q_math.obj
 0001:0004b5d0       _ByteToDir                 1004c5d0 f   q_math.obj
 0001:0004b640       _ColorNormalize            1004c640 f   q_math.obj
 0001:0004b740       _NormToLatLong             1004c740 f   q_math.obj
 0001:0004b820       _MakeNormalVectors         1004c820 f   q_math.obj
 0001:0004b950       _RotatePointAroundVector   1004c950 f   q_math.obj
 0001:0004bbc0       _AngleVectors              1004cbc0 f   q_math.obj
 0001:0004bdd0       _VecToAngles               1004cdd0 f   q_math.obj
 0001:0004bf60       _AnglesToAxis              1004cf60 f   q_math.obj
 0001:0004bfd0       _NormalVectorToAxis        1004cfd0 f   q_math.obj
 0001:0004c100       _BuildBoxPoints            1004d100 f   q_math.obj
 0001:0004c2a0       _ProjectPointOntoPlane     1004d2a0 f   q_math.obj
 0001:0004c3c0       _PerpendicularVector       1004d3c0 f   q_math.obj
 0001:0004c4e0       _ProjectPointOntoVector    1004d4e0 f   q_math.obj
 0001:0004c610       _DistanceFromLineSquared   1004d610 f   q_math.obj
 0001:0004c830       _Q_RSqrt                   1004d830 f   q_math.obj
 0001:0004c8b0       _Q_rand                    1004d8b0 f   q_math.obj
 0001:0004c8f0       _Q_bitcount                1004d8f0 f   q_math.obj
 0001:0004c950       _LerpAngle                 1004d950 f   q_math.obj
 0001:0004c9b0       _AngleSubtract             1004d9b0 f   q_math.obj
 0001:0004ca10       _AnglesSubtract            1004da10 f   q_math.obj
 0001:0004ca80       _AngleNormalize360         1004da80 f   q_math.obj
 0001:0004cad0       _AngleNormalize180         1004dad0 f   q_math.obj
 0001:0004cb10       _AngleDelta                1004db10 f   q_math.obj
 0001:0004cb50       _anglemod                  1004db50 f   q_math.obj
 0001:0004cb90       _CalcFov                   1004db90 f   q_math.obj
 0001:0004cc50       _AdjustFov                 1004dc50 f   q_math.obj
 0001:0004cda0       _BoxOnPlaneSide            1004dda0 f   q_math.obj
 0001:0004d120       _SignbitsForPlane          1004e120 f   q_math.obj
 0001:0004d190       _PlaneTypeForNormal        1004e190 f   q_math.obj
 0001:0004d1f0       _CategorizePlane           1004e1f0 f   q_math.obj
 0001:0004d310       _PlaneFromPoints           1004e310 f   q_math.obj
 0001:0004d460       _ComparePlanes             1004e460 f   q_math.obj
 0001:0004d540       _SnapVector                1004e540 f   q_math.obj
 0001:0004d640       _SnapPlane                 1004e640 f   q_math.obj
 0001:0004d720       _ClearBounds               1004e720 f   q_math.obj
 0001:0004d770       _BoundsIntersect           1004e770 f   q_math.obj
 0001:0004d810       _BoundsAndSphereIntersect  1004e810 f   q_math.obj
 0001:0004d910       _AddPointToBounds          1004e910 f   q_math.obj
 0001:0004d990       _RadiusFromBounds          1004e990 f   q_math.obj
 0001:0004dab0       _VectorNormalize           1004eab0 f   q_math.obj
 0001:0004db60       _VectorNormalize2          1004eb60 f   q_math.obj
 0001:0004dc20       _Vector4Normalize          1004ec20 f   q_math.obj
 0001:0004dce0       _VectorNormalizeFast       1004ece0 f   q_math.obj
 0001:0004dd70       __VectorMA                 1004ed70 f   q_math.obj
 0001:0004ddc0       __DotProduct               1004edc0 f   q_math.obj
 0001:0004de00       __VectorSubtract           1004ee00 f   q_math.obj
 0001:0004de40       __VectorAdd                1004ee40 f   q_math.obj
 0001:0004de80       __VectorCopy               1004ee80 f   q_math.obj
 0001:0004deb0       _Q_log2                    1004eeb0 f   q_math.obj
 0001:0004dee0       _VectorReflect             1004eee0 f   q_math.obj
 0001:0004df70       _Matrix3_Identity          1004ef70 f   q_math.obj
 0001:0004dff0       _Matrix3_Copy              1004eff0 f   q_math.obj
 0001:0004e010       _Matrix3_Compare           1004f010 f   q_math.obj
 0001:0004e060       _Matrix3_Multiply          1004f060 f   q_math.obj
 0001:0004e200       _Matrix3_TransformVector   1004f200 f   q_math.obj
 0001:0004e290       _Matrix3_Transpose         1004f290 f   q_math.obj
 0001:0004e300       _Matrix3_FromAngles        1004f300 f   q_math.obj
 0001:0004e330       _Matrix3_ToAngles          1004f330 f   q_math.obj
 0001:0004e4c0       _Matrix3_Rotate            1004f4c0 f   q_math.obj
 0001:0004e640       _Matrix3_FromPoints        1004f640 f   q_math.obj
 0001:0004e840       _Matrix3_Normalize         1004f840 f   q_math.obj
 0001:0004e880       _Quat_Identity             1004f880 f   q_math.obj
 0001:0004e8b0       _Quat_Copy                 1004f8b0 f   q_math.obj
 0001:0004e8f0       _Quat_Quat3                1004f8f0 f   q_math.obj
 0001:0004e9d0       _Quat_Compare              1004f9d0 f   q_math.obj
 0001:0004ea30       _Quat_Conjugate            1004fa30 f   q_math.obj
 0001:0004ea70       _Quat_DotProduct           1004fa70 f   q_math.obj
 0001:0004eac0       _Quat_Normalize            1004fac0 f   q_math.obj
 0001:0004eb80       _Quat_Inverse              1004fb80 f   q_math.obj
 0001:0004ebb0       _Quat_FromMatrix3          1004fbb0 f   q_math.obj
 0001:0004edf0       _Quat_Multiply             1004fdf0 f   q_math.obj
 0001:0004eee0       _Quat_Lerp                 1004fee0 f   q_math.obj
 0001:0004f110       _Quat_Vectors              10050110 f   q_math.obj
 0001:0004f240       _Quat_ToMatrix3            10050240 f   q_math.obj
 0001:0004f270       _Quat_TransformVector      10050270 f   q_math.obj
 0001:0004f3c0       _Quat_ConcatTransforms     100503c0 f   q_math.obj
 0001:0004f430       _DualQuat_Identity         10050430 f   q_math.obj
 0001:0004f480       _DualQuat_Copy             10050480 f   q_math.obj
 0001:0004f4c0       _DualQuat_FromAnglesAndVector 100504c0 f   q_math.obj
 0001:0004f550       _DualQuat_FromMatrix3AndVector 10050550 f   q_math.obj
 0001:0004f660       _DualQuat_FromQuatAndVector 10050660 f   q_math.obj
 0001:0004f690       _DualQuat_FromQuat3AndVector 10050690 f   q_math.obj
 0001:0004f6c0       _DualQuat_GetVector        100506c0 f   q_math.obj
 0001:0004f820       _DualQuat_ToQuatAndVector  10050820 f   q_math.obj
 0001:0004f850       _DualQuat_ToMatrix3AndVector 10050850 f   q_math.obj
 0001:0004f880       _DualQuat_Invert           10050880 f   q_math.obj
 0001:0004f950       _DualQuat_Normalize        10050950 f   q_math.obj
 0001:0004fa70       _DualQuat_Multiply         10050a70 f   q_math.obj
 0001:0004fb60       _DualQuat_Lerp             10050b60 f   q_math.obj
 0001:0004fbb0       _LogisticCDF               10050bb0 f   q_math.obj
 0001:0004fbf0       _LogisticPDF               10050bf0 f   q_math.obj
 0001:0004fc50       _NormalCDF                 10050c50 f   q_math.obj
 0001:0004fe50       _NormalPDF                 10050e50 f   q_math.obj
 0001:0004fec0       ?atan@@YAMM@Z              10050ec0 f i q_math.obj
 0001:0004fee0       _atanf                     10050ee0 f i q_math.obj
 0001:0004ff10       ?asin@@YAMM@Z              10050f10 f i q_math.obj
 0001:0004ff30       _asinf                     10050f30 f i q_math.obj
 0001:0004ff60       ?exp@@YAMM@Z               10050f60 f i q_math.obj
 0001:0004ff80       _expf                      10050f80 f i q_math.obj
 0001:0004ffb0       _COM_SanitizeFilePath      10050fb0 f   q_shared.obj
 0001:00050020       _COM_ValidateFilename      10051020 f   q_shared.obj
 0001:00050080       _COM_ValidateRelativeFilename 10051080 f   q_shared.obj
 0001:000500f0       _COM_StripExtension        100510f0 f   q_shared.obj
 0001:00050170       _COM_FileExtension         10051170 f   q_shared.obj
 0001:00050200       _COM_DefaultExtension      10051200 f   q_shared.obj
 0001:000502f0       _COM_ReplaceExtension      100512f0 f   q_shared.obj
 0001:000503a0       _COM_FileBase              100513a0 f   q_shared.obj
 0001:000503e0       _COM_StripFilename         100513e0 f   q_shared.obj
 0001:00050420       _COM_FilePathLength        10051420 f   q_shared.obj
 0001:00050460       _ShortSwap                 10051460 f   q_shared.obj
 0001:000504a0       _LongSwap                  100514a0 f   q_shared.obj
 0001:00050510       _FloatSwap                 10051510 f   q_shared.obj
 0001:00050590       _Swap_Init                 10051590 f   q_shared.obj
 0001:000505a0       _tv                        100515a0 f   q_shared.obj
 0001:000505f0       _vtos                      100515f0 f   q_shared.obj
 0001:00050670       _va                        10051670 f   q_shared.obj
 0001:000506e0       _COM_Compress              100516e0 f   q_shared.obj
 0001:000508f0       _COM_ParseExt2             100518f0 f   q_shared.obj
 0001:00050b70       _Q_GrabCharFromColorString 10051b70 f   q_shared.obj
 0001:00050c70       _Q_GrabWCharFromColorString 10051c70 f   q_shared.obj
 0001:00050d80       _COM_RemoveColorTokensExt  10051d80 f   q_shared.obj
 0001:00050ec0       _COM_SanitizeColorString   10051ec0 f   q_shared.obj
 0001:000510a0       _Q_ColorStringTerminator   100520a0 f   q_shared.obj
 0001:00051220       _COM_RemoveJunkChars       10052220 f   q_shared.obj
 0001:00051390       _COM_ReadColorRGBString    10052390 f   q_shared.obj
 0001:000513f0       _COM_ValidatePlayerColor   100523f0 f   q_shared.obj
 0001:000514c0       _Q_memset32                100524c0 f   q_shared.obj
 0001:00051500       _Q_strncpyz                10052500 f   q_shared.obj
 0001:00051560       _Q_strncatz                10052560 f   q_shared.obj
 0001:00051600       _Q_vsnprintfz              10052600 f   q_shared.obj
 0001:00051680       _Q_snprintfz               10052680 f   q_shared.obj
 0001:000516c0       _Q_strupr                  100526c0 f   q_shared.obj
 0001:00051720       _Q_strlwr                  10052720 f   q_shared.obj
 0001:00051780       _Q_strlocate               10052780 f   q_shared.obj
 0001:00051830       _Q_strcount                10052830 f   q_shared.obj
 0001:000518c0       _Q_strrstr                 100528c0 f   q_shared.obj
 0001:00051920       _Q_trim                    10052920 f   q_shared.obj
 0001:00051a10       _Q_WCharToUtf8             10052a10 f   q_shared.obj
 0001:00051b10       _Q_Utf8SyncPos             10052b10 f   q_shared.obj
 0001:00051b80       _Q_GrabWCharFromUtf8String 10052b80 f   q_shared.obj
 0001:00051d40       _Q_isdigit                 10052d40 f   q_shared.obj
 0001:00051d90       _Q_chrreplace              10052d90 f   q_shared.obj
 0001:00051de0       _COM_ValidateConfigstring  10052de0 f   q_shared.obj
 0001:00051e80       _Info_Validate             10052e80 f   q_shared.obj
 0001:00052010       _Info_ValueForKey          10053010 f   q_shared.obj
 0001:000523a0       _Info_RemoveKey            100533a0 f   q_shared.obj
 0001:000524e0       _Info_SetValueForKey       100534e0 f   q_shared.obj
 0001:00052720       _Q_GainForAttenuation      10053720 f   q_shared.obj
 0001:00052960       _BlockAllocator            10053960 f   q_shared.obj
 0001:00052a00       _BA_Alloc                  10053a00 f   q_shared.obj
 0001:00052b20       _BlockAllocator_Free       10053b20 f   q_shared.obj
 0001:00052bb0       _LinearAllocator           10053bb0 f   q_shared.obj
 0001:00052c80       _LA_Alloc                  10053c80 f   q_shared.obj
 0001:00052d80       _LA_Pointer                10053d80 f   q_shared.obj
 0001:00052dc0       _LA_Size                   10053dc0 f   q_shared.obj
 0001:00052dd0       _LinearAllocator_Free      10053dd0 f   q_shared.obj
 0001:00052e00       ?strrchr@@YAPADPADH@Z      10053e00 f i q_shared.obj
 0001:00052e20       ?pow@@YAMMM@Z              10053e20 f i q_shared.obj
 0001:00052e50       _powf                      10053e50 f i q_shared.obj
 0001:00052e90       __RTC_CheckEsp             10053e90 f   LIBCMTD:_stack_.obj
 0001:00052ec0       @_RTC_CheckStackVars@8     10053ec0 f   LIBCMTD:_stack_.obj
 0001:00052f30       @_RTC_AllocaHelper@12      10053f30 f   LIBCMTD:_stack_.obj
 0001:00052f70       @_RTC_CheckStackVars2@12   10053f70 f   LIBCMTD:_stack_.obj
 0001:00053050       __RTC_InitBase             10054050 f   LIBCMTD:_init_.obj
 0001:00053080       __RTC_Shutdown             10054080 f   LIBCMTD:_init_.obj
 0001:000530a0       @__security_check_cookie@4 100540a0 f   LIBCMTD:secchk.obj
 0001:000530b0       _memcpy                    100540b0 f   LIBCMTD:memcpy.obj
 0001:00053420       __fpmath                   10054420 f   LIBCMTD:_fpinit_.obj
 0001:00053440       __cfltcvt_init             10054440 f   LIBCMTD:_fpinit_.obj
 0001:000534b0       ___setfflag                100544b0 f   LIBCMTD:_fpinit_.obj
 0001:000534d0       __wassert                  100544d0 f   LIBCMTD:wassert.obj
 0001:00054060       __invoke_watson_if_error   10055060 f i LIBCMTD:wassert.obj
 0001:000540d0       __stricmp_l                100550d0 f   LIBCMTD:stricmp.obj
 0001:00054280       ??0_LocaleUpdate@@QAE@PAUlocaleinfo_struct@@@Z 10055280 f i LIBCMTD:stricmp.obj
 0001:00054360       ??1_LocaleUpdate@@QAE@XZ   10055360 f i LIBCMTD:stricmp.obj
 0001:00054390       ?GetLocaleT@_LocaleUpdate@@QAEPAUlocaleinfo_struct@@XZ 10055390 f i LIBCMTD:stricmp.obj
 0001:000543a0       ___ascii_stricmp           100553a0 f   LIBCMTD:stricmp.obj
 0001:00054420       __stricmp                  10055420 f   LIBCMTD:stricmp.obj
 0001:00054530       _memset                    10055530 f   LIBCMTD:memset.obj
 0001:000545b0       __ftol2_sse                100555b0 f   LIBCMTD:ftol2.obj
 0001:000545b9       __ftol2_pentium4           100555b9 f   LIBCMTD:ftol2.obj
 0001:000545cc       __ftol2_sse_excpt          100555cc f   LIBCMTD:ftol2.obj
 0001:000545e6       __ftol2                    100555e6 f   LIBCMTD:ftol2.obj
 0001:00054660       _atol                      10055660 f   LIBCMTD:atox.obj
 0001:00054680       __atol_l                   10055680 f   LIBCMTD:atox.obj
 0001:000546a0       _atoi                      100556a0 f   LIBCMTD:atox.obj
 0001:000546c0       __atoi_l                   100556c0 f   LIBCMTD:atox.obj
 0001:000546e0       __atoi64                   100556e0 f   LIBCMTD:atox.obj
 0001:00054700       __atoi64_l                 10055700 f   LIBCMTD:atox.obj
 0001:00054720       _strlen                    10055720 f   LIBCMTD:strlen.obj
 0001:000547b0       _srand                     100557b0 f   LIBCMTD:rand.obj
 0001:000547d0       _rand                      100557d0 f   LIBCMTD:rand.obj
 0001:00054810       __localtime64_s            10055810 f   LIBCMTD:loctim64.obj
 0001:00054d30       __localtime64              10055d30 f   LIBCMTD:loctim64.obj
 0001:00054d70       __time64                   10055d70 f   LIBCMTD:time64.obj
 0001:00054df0       _strcmp                    10055df0 f   LIBCMTD:strcmp.obj
 0001:00054e80       __atof_l                   10055e80 f   LIBCMTD:atof.obj
 0001:00054fc0       _atof                      10055fc0 f   LIBCMTD:atof.obj
 0001:00054fe0       ___strgtold12              10055fe0 f   LIBCMTD:atof.obj
 0001:00055040       ___STRINGTOLD              10056040 f   LIBCMTD:atof.obj
 0001:00055090       _floor                     10056090 f   LIBCMTD:_floor_pentium4_.obj
 0001:000550d0       __floor_pentium4           100560d0 f   LIBCMTD:_floor_pentium4_.obj
 0001:000551c0       _cos                       100561c0 f   LIBCMTD:_cos_.obj
 0001:00055200       __CIcos                    10056200 f   LIBCMTD:_cos_.obj
 0001:0005523b       __CIcos_default            1005623b f   LIBCMTD:_cos_.obj
 0001:0005524f       __cos_default              1005624f     LIBCMTD:_cos_.obj
 0001:000552f0       _sin                       100562f0 f   LIBCMTD:_sin_.obj
 0001:00055330       __CIsin                    10056330 f   LIBCMTD:_sin_.obj
 0001:0005536b       __CIsin_default            1005636b f   LIBCMTD:_sin_.obj
 0001:0005537f       __sin_default              1005637f     LIBCMTD:_sin_.obj
 0001:00055420       __alloca_probe             10056420     LIBCMTD:chkstk.obj
 0001:00055420       __chkstk                   10056420 f   LIBCMTD:chkstk.obj
 0001:00055450       _abs                       10056450 f   LIBCMTD:abs.obj
 0001:00055480       __abs64                    10056480 f   LIBCMTD:abs.obj
 0001:000554d0       _memcmp                    100564d0 f   LIBCMTD:memcmp.obj
 0001:00055f40       _fabs                      10056f40 f   LIBCMTD:_fabs_.obj
 0001:00056040       _qsort                     10057040 f   LIBCMTD:qsort.obj
 0001:000565f0       __CIsqrt                   100575f0 f   LIBCMTD:_sqrt_.obj
 0001:00056604       _sqrt                      10057604     LIBCMTD:_sqrt_.obj
 0001:000566b0       _acos                      100576b0 f   LIBCMTD:_acos_.obj
 0001:000566f0       __CIacos                   100576f0 f   LIBCMTD:_acos_.obj
 0001:0005672b       __CIacos_default           1005772b f   LIBCMTD:_acos_.obj
 0001:0005673f       __acos_default             1005773f     LIBCMTD:_acos_.obj
 0001:00056810       _strchr                    10057810 f   LIBCMTD:strchr.obj
 0001:00056816       ___from_strstr_to_strchr   10057816     LIBCMTD:strchr.obj
 0001:000568d0       _strncmp                   100578d0 f   LIBCMTD:strncmp.obj
 0001:00056a50       _strcpy                    10057a50 f   LIBCMTD:strcat.obj
 0001:00056a60       _strcat                    10057a60 f   LIBCMTD:strcat.obj
 0001:00056b50       _sscanf                    10057b50 f   LIBCMTD:sscanf.obj
 0001:00056ce0       __sscanf_l                 10057ce0 f   LIBCMTD:sscanf.obj
 0001:00056d10       _sscanf_s                  10057d10 f   LIBCMTD:sscanf.obj
 0001:00056d40       __sscanf_s_l               10057d40 f   LIBCMTD:sscanf.obj
 0001:00056d70       _strstr                    10057d70 f   LIBCMTD:strstr.obj
 0001:00056e00       __toupper                  10057e00 f   LIBCMTD:toupper.obj
 0001:00056e10       __toupper_l                10057e10 f   LIBCMTD:toupper.obj
 0001:00056ff0       _toupper                   10057ff0 f   LIBCMTD:toupper.obj
 0001:00057040       _tan                       10058040 f   LIBCMTD:_tan_.obj
 0001:00057080       __CItan                    10058080 f   LIBCMTD:_tan_.obj
 0001:000570bb       __CItan_default            100580bb f   LIBCMTD:_tan_.obj
 0001:000570cf       __tan_default              100580cf     LIBCMTD:_tan_.obj
 0001:00057170       _atan2                     10058170 f   LIBCMTD:_87ctriga_.obj
 0001:0005717a       __CIatan2                  1005817a f   LIBCMTD:_87ctriga_.obj
 0001:00057190       _ceil                      10058190 f   LIBCMTD:_ceil_pentium4_.obj
 0001:000571d0       __ceil_pentium4            100581d0 f   LIBCMTD:_ceil_pentium4_.obj
 0001:000572b0       _atan                      100582b0 f   LIBCMTD:_atan_.obj
 0001:000572f0       __CIatan                   100582f0 f   LIBCMTD:_atan_.obj
 0001:0005732b       __CIatan_default           1005832b f   LIBCMTD:_atan_.obj
 0001:0005733f       __atan_default             1005833f     LIBCMTD:_atan_.obj
 0001:000573d0       _asin                      100583d0 f   LIBCMTD:_asin_.obj
 0001:00057410       __CIasin                   10058410 f   LIBCMTD:_asin_.obj
 0001:0005744b       __CIasin_default           1005844b f   LIBCMTD:_asin_.obj
 0001:0005745f       __asin_default             1005845f     LIBCMTD:_asin_.obj
 0001:00057520       _exp                       10058520 f   LIBCMTD:_87ctran_.obj
 0001:0005755c       __CIexp                    1005855c f   LIBCMTD:_87ctran_.obj
 0001:00057597       __exp_default              10058597 f   LIBCMTD:_87ctran_.obj
 0001:000575a1       __CIexp_default            100585a1 f   LIBCMTD:_87ctran_.obj
 0001:000575b0       _strrchr                   100585b0 f   LIBCMTD:strrchr.obj
 0001:000575e0       __isalpha_l                100585e0 f i LIBCMTD:_ctype.obj
 0001:00057670       _isalpha                   10058670 f i LIBCMTD:_ctype.obj
 0001:000576b0       __isupper_l                100586b0 f i LIBCMTD:_ctype.obj
 0001:00057730       _isupper                   10058730 f i LIBCMTD:_ctype.obj
 0001:00057760       __islower_l                10058760 f i LIBCMTD:_ctype.obj
 0001:000577e0       _islower                   100587e0 f i LIBCMTD:_ctype.obj
 0001:00057810       __isdigit_l                10058810 f i LIBCMTD:_ctype.obj
 0001:00057890       _isdigit                   10058890 f i LIBCMTD:_ctype.obj
 0001:000578c0       __isxdigit_l               100588c0 f i LIBCMTD:_ctype.obj
 0001:00057950       _isxdigit                  10058950 f i LIBCMTD:_ctype.obj
 0001:00057990       __isspace_l                10058990 f i LIBCMTD:_ctype.obj
 0001:00057a10       _isspace                   10058a10 f i LIBCMTD:_ctype.obj
 0001:00057a40       __ispunct_l                10058a40 f i LIBCMTD:_ctype.obj
 0001:00057ac0       _ispunct                   10058ac0 f i LIBCMTD:_ctype.obj
 0001:00057af0       __isalnum_l                10058af0 f i LIBCMTD:_ctype.obj
 0001:00057b80       _isalnum                   10058b80 f i LIBCMTD:_ctype.obj
 0001:00057bc0       __isprint_l                10058bc0 f i LIBCMTD:_ctype.obj
 0001:00057c50       _isprint                   10058c50 f i LIBCMTD:_ctype.obj
 0001:00057c90       __isgraph_l                10058c90 f i LIBCMTD:_ctype.obj
 0001:00057d20       _isgraph                   10058d20 f i LIBCMTD:_ctype.obj
 0001:00057d60       __iscntrl_l                10058d60 f i LIBCMTD:_ctype.obj
 0001:00057de0       _iscntrl                   10058de0 f i LIBCMTD:_ctype.obj
 0001:00057e10       ___isascii                 10058e10 f i LIBCMTD:_ctype.obj
 0001:00057e30       ___toascii                 10058e30 f i LIBCMTD:_ctype.obj
 0001:00057e40       __iscsymf_l                10058e40 f i LIBCMTD:_ctype.obj
 0001:00057e80       ___iscsymf                 10058e80 f i LIBCMTD:_ctype.obj
 0001:00057ec0       __iscsym_l                 10058ec0 f i LIBCMTD:_ctype.obj
 0001:00057f00       ___iscsym                  10058f00 f i LIBCMTD:_ctype.obj
 0001:00057f40       __vsnprintf_l              10058f40 f   LIBCMTD:vsnprint.obj
 0001:00058100       __vsnprintf                10059100 f   LIBCMTD:vsnprint.obj
 0001:00058130       __tolower                  10059130 f   LIBCMTD:tolower.obj
 0001:00058140       __tolower_l                10059140 f   LIBCMTD:tolower.obj
 0001:00058320       _tolower                   10059320 f   LIBCMTD:tolower.obj
 0001:00058370       _memmove                   10059370 f   LIBCMTD:memmove.obj
 0001:000586e0       _strncpy                   100596e0 f   LIBCMTD:strncpy.obj
 0001:00058810       _pow                       10059810 f   LIBCMTD:_pow_.obj
 0001:00058850       __CIpow                    10059850 f   LIBCMTD:_pow_.obj
 0001:0005888b       __CIpow_default            1005988b f   LIBCMTD:_pow_.obj
 0001:000588a4       __pow_default              100598a4     LIBCMTD:_pow_.obj
 0001:00058aa0       __CRT_INIT@12              10059aa0 f   LIBCMTD:dllcrt0.obj
 0001:00058cc0       __DllMainCRTStartup@12     10059cc0 f   LIBCMTD:dllcrt0.obj
 0001:00058eb0       ?_RTC_Failure@@YAXPAXH@Z   10059eb0 f   LIBCMTD:_error_.obj
 0001:00059260       ?_RTC_StackFailure@@YAXPAXPBD@Z 1005a260 f   LIBCMTD:_error_.obj
 0001:00059360       ?_RTC_AllocaFailure@@YAXPAXPAU_RTC_ALLOCA_NODE@@H@Z 1005a360 f   LIBCMTD:_error_.obj
 0001:00059510       __RTC_UninitUse            1005a510 f   LIBCMTD:_error_.obj
 0001:00059600       __RTC_NumErrors            1005a600 f   LIBCMTD:_userapi_.obj
 0001:00059610       __RTC_GetErrDesc           1005a610 f   LIBCMTD:_userapi_.obj
 0001:00059630       __RTC_SetErrorType         1005a630 f   LIBCMTD:_userapi_.obj
 0001:00059660       __RTC_SetErrorFunc         1005a660 f   LIBCMTD:_userapi_.obj
 0001:00059680       __RTC_SetErrorFuncW        1005a680 f   LIBCMTD:_userapi_.obj
 0001:000596a0       ?_RTC_GetErrorFunc@@YAP6AHHPBDH00ZZPBX@Z 1005a6a0 f   LIBCMTD:_userapi_.obj
 0001:000596b0       ?_RTC_GetErrorFuncW@@YAP6AHHPB_WH00ZZPBX@Z 1005a6b0 f   LIBCMTD:_userapi_.obj
 0001:000596c0       __chkesp                   1005a6c0 f   LIBCMTD:chkesp.obj
 0001:00059700       __CRT_RTC_INIT             1005a700 f   LIBCMTD:chkesp.obj
 0001:00059710       __CRT_RTC_INITW            1005a710 f   LIBCMTD:chkesp.obj
 0001:00059720       ___report_gsfailure        1005a720 f   LIBCMTD:gs_report.obj
 0001:00059830       __VEC_memcpy               1005a830 f   LIBCMTD:p4_memcpy.obj
 0001:00059940       ___sse2_available_init     1005a940 f   LIBCMTD:cpu_disp.obj
 0001:00059960       __setdefaultprecision      1005a960 f   LIBCMTD:fp8.obj
 0001:000599a0       __forcdecpt                1005a9a0 f   LIBCMTD:cvt.obj
 0001:000599c0       __forcdecpt_l              1005a9c0 f   LIBCMTD:cvt.obj
 0001:00059a80       __cropzeros                1005aa80 f   LIBCMTD:cvt.obj
 0001:00059aa0       __cropzeros_l              1005aaa0 f   LIBCMTD:cvt.obj
 0001:00059bb0       __positive                 1005abb0 f   LIBCMTD:cvt.obj
 0001:00059be0       __fassign_l                1005abe0 f   LIBCMTD:cvt.obj
 0001:00059c40       __fassign                  1005ac40 f   LIBCMTD:cvt.obj
 0001:00059c60       __cftoe_l                  1005ac60 f   LIBCMTD:cvt.obj
 0001:0005a1b0       __cftoe                    1005b1b0 f   LIBCMTD:cvt.obj
 0001:0005a1e0       __cftoa_l                  1005b1e0 f   LIBCMTD:cvt.obj
 0001:0005a9c0       __cftoa                    1005b9c0 f   LIBCMTD:cvt.obj
 0001:0005a9f0       __cftof_l                  1005b9f0 f   LIBCMTD:cvt.obj
 0001:0005ae00       __cftof                    1005be00 f   LIBCMTD:cvt.obj
 0001:0005ae30       __cftog_l                  1005be30 f   LIBCMTD:cvt.obj
 0001:0005b060       __cftog                    1005c060 f   LIBCMTD:cvt.obj
 0001:0005b090       __cfltcvt_l                1005c090 f   LIBCMTD:cvt.obj
 0001:0005b150       __cfltcvt                  1005c150 f   LIBCMTD:cvt.obj
 0001:0005b1b0       __initp_misc_cfltcvt_tab   1005c1b0 f   LIBCMTD:cmiscdat.obj
 0001:0005b1f0       __cinit                    1005c1f0 f   LIBCMTD:crt0dat.obj
 0001:0005b290       _exit                      1005c290 f   LIBCMTD:crt0dat.obj
 0001:0005b2b0       __exit                     1005c2b0 f   LIBCMTD:crt0dat.obj
 0001:0005b2d0       __cexit                    1005c2d0 f   LIBCMTD:crt0dat.obj
 0001:0005b2f0       __c_exit                   1005c2f0 f   LIBCMTD:crt0dat.obj
 0001:0005b310       __amsg_exit                1005c310 f   LIBCMTD:crt0dat.obj
 0001:0005b340       ___freeCrtMemory           1005c340 f   LIBCMTD:crt0dat.obj
 0001:0005b680       ___crtCorExitProcess       1005c680 f   LIBCMTD:crt0dat.obj
 0001:0005b6c0       ___crtExitProcess          1005c6c0 f   LIBCMTD:crt0dat.obj
 0001:0005b6e0       __lockexit                 1005c6e0 f   LIBCMTD:crt0dat.obj
 0001:0005b700       __unlockexit               1005c700 f   LIBCMTD:crt0dat.obj
 0001:0005b720       __init_pointers            1005c720 f   LIBCMTD:crt0dat.obj
 0001:0005b7b0       __initterm_e               1005c7b0 f   LIBCMTD:crt0dat.obj
 0001:0005b7f0       __get_wpgmptr              1005c7f0 f   LIBCMTD:crt0dat.obj
 0001:0005b8e0       __get_pgmptr               1005c8e0 f   LIBCMTD:crt0dat.obj
 0001:0005b9d0       __initp_misc_winsig        1005c9d0 f   LIBCMTD:winsig.obj
 0001:0005ba00       _signal                    1005ca00 f   LIBCMTD:winsig.obj
 0001:0005bea0       _raise                     1005cea0 f   LIBCMTD:winsig.obj
 0001:0005c210       ___get_sigabrt             1005d210 f   LIBCMTD:winsig.obj
 0001:0005c230       ___fpecode                 1005d230 f   LIBCMTD:winsig.obj
 0001:0005c240       ___pxcptinfoptrs           1005d240 f   LIBCMTD:winsig.obj
 0001:0005c250       ___crtMessageBoxW          1005d250 f   LIBCMTD:crtmboxw.obj
 0001:0005c470       __itow_s                   1005d470 f   LIBCMTD:xtows.obj
 0001:0005c850       __ltow_s                   1005d850 f   LIBCMTD:xtows.obj
 0001:0005c890       __ultow_s                  1005d890 f   LIBCMTD:xtows.obj
 0001:0005c8b0       __i64tow_s                 1005d8b0 f   LIBCMTD:xtows.obj
 0001:0005ccd0       __ui64tow_s                1005dcd0 f   LIBCMTD:xtows.obj
 0001:0005ccf0       _wcsncat_s                 1005dcf0 f   LIBCMTD:wcsncat_s.obj
 0001:0005d1a0       _wcsncpy_s                 1005e1a0 f   LIBCMTD:wcsncpy_s.obj
 0001:0005d5b0       _wcscat_s                  1005e5b0 f   LIBCMTD:wcscat_s.obj
 0001:0005d9a0       _wcscpy_s                  1005e9a0 f   LIBCMTD:wcscpy_s.obj
 0001:0005dc80       _fflush                    1005ec80 f   LIBCMTD:fflush.obj
 0001:0005dd20       __fflush_nolock            1005ed20 f   LIBCMTD:fflush.obj
 0001:0005dd80       __flush                    1005ed80 f   LIBCMTD:fflush.obj
 0001:0005de40       __flushall                 1005ee40 f   LIBCMTD:fflush.obj
 0001:0005e010       _fwprintf                  1005f010 f   LIBCMTD:fwprintf.obj
 0001:0005e190       __fwprintf_l               1005f190 f   LIBCMTD:fwprintf.obj
 0001:0005e1c0       __fwprintf_s_l             1005f1c0 f   LIBCMTD:fwprintf.obj
 0001:0005e1f0       _fwprintf_s                1005f1f0 f   LIBCMTD:fwprintf.obj
 0001:0005e220       __fwprintf_p_l             1005f220 f   LIBCMTD:fwprintf.obj
 0001:0005e250       __fwprintf_p               1005f250 f   LIBCMTD:fwprintf.obj
 0001:0005e280       _setvbuf                   1005f280 f   LIBCMTD:setvbuf.obj
 0001:0005e550       ___iob_func                1005f550 f   LIBCMTD:_file.obj
 0001:0005e560       ___initstdio               1005f560 f   LIBCMTD:_file.obj
 0001:0005e6b0       ___endstdio                1005f6b0 f   LIBCMTD:_file.obj
 0001:0005e6e0       __lock_file                1005f6e0 f   LIBCMTD:_file.obj
 0001:0005e740       __lock_file2               1005f740 f   LIBCMTD:_file.obj
 0001:0005e780       __unlock_file              1005f780 f   LIBCMTD:_file.obj
 0001:0005e7e0       __unlock_file2             1005f7e0 f   LIBCMTD:_file.obj
 0001:0005e820       _abort                     1005f820 f   LIBCMTD:abort.obj
 0001:0005e880       __set_abort_behavior       1005f880 f   LIBCMTD:abort.obj
 0001:0005e8b0       _wcslen                    1005f8b0 f   LIBCMTD:wcslen.obj
 0001:0005e8e0       __set_error_mode           1005f8e0 f   LIBCMTD:errmode.obj
 0001:0005e9a0       ___set_app_type            1005f9a0 f   LIBCMTD:errmode.obj
 0001:0005e9b0       __initp_misc_invarg        1005f9b0 f   LIBCMTD:invarg.obj
 0001:0005e9c0       __invalid_parameter        1005f9c0 f   LIBCMTD:invarg.obj
 0001:0005ea20       __invoke_watson            1005fa20 f   LIBCMTD:invarg.obj
 0001:0005ea50       __call_reportfault         1005fa50 f   LIBCMTD:invarg.obj
 0001:0005eba0       __set_invalid_parameter_handler 1005fba0 f   LIBCMTD:invarg.obj
 0001:0005ebe0       __get_invalid_parameter_handler 1005fbe0 f   LIBCMTD:invarg.obj
 0001:0005ec10       ?_invalid_parameter@@YAXPBG00II@Z 1005fc10 f   LIBCMTD:invarg.obj
 0001:0005ec40       ?_invoke_watson@@YAXPBG00II@Z 1005fc40 f   LIBCMTD:invarg.obj
 0001:0005ec60       __vswprintf_helper         1005fc60 f   LIBCMTD:vswprnc.obj
 0001:0005eec0       __vswprintf_c              1005fec0 f   LIBCMTD:vswprnc.obj
 0001:0005ef10       __vswprintf_c_l            1005ff10 f   LIBCMTD:vswprnc.obj
 0001:0005ef60       __vswprintf_s_l            1005ff60 f   LIBCMTD:vswprnc.obj
 0001:0005f1d0       _vswprintf_s               100601d0 f   LIBCMTD:vswprnc.obj
 0001:0005f200       __vsnwprintf_s_l           10060200 f   LIBCMTD:vswprnc.obj
 0001:0005f5b0       __vsnwprintf_s             100605b0 f   LIBCMTD:vswprnc.obj
 0001:0005f5e0       __vswprintf_p              100605e0 f   LIBCMTD:vswprnc.obj
 0001:0005f630       __vswprintf_p_l            10060630 f   LIBCMTD:vswprnc.obj
 0001:0005f680       __dosmaperr                10060680 f   LIBCMTD:dosmap.obj
 0001:0005f6b0       __get_errno_from_oserr     100606b0 f   LIBCMTD:dosmap.obj
 0001:0005f730       __set_errno                10060730 f   LIBCMTD:dosmap.obj
 0001:0005f760       __get_errno                10060760 f   LIBCMTD:dosmap.obj
 0001:0005f7e0       __set_doserrno             100607e0 f   LIBCMTD:dosmap.obj
 0001:0005f810       __get_doserrno             10060810 f   LIBCMTD:dosmap.obj
 0001:0005f890       __errno                    10060890 f   LIBCMTD:dosmap.obj
 0001:0005f8c0       ___doserrno                100608c0 f   LIBCMTD:dosmap.obj
 0001:0005f8f0       __CrtSetReportHookW2       100608f0 f   LIBCMTD:dbgrptw.obj
 0001:0005fc20       __CrtDbgReportW            10060c20 f   LIBCMTD:dbgrptw.obj
 0001:0005fc60       __CrtDbgReportWV           10060c60 f i LIBCMTD:dbgrptw.obj
 0001:0005fc90       ___crtMessageWindowW       10060c90 f   LIBCMTD:dbgrptw.obj
 0001:00060090       __invoke_watson_if_oneof   10061090 f i LIBCMTD:dbgrptw.obj
 0001:000600d0       ?_CrtDbgReportW@@YAHHPBGH00ZZ 100610d0 f   LIBCMTD:dbgrptw.obj
 0001:00060110       ___updatetmbcinfo          10061110 f   LIBCMTD:mbctype.obj
 0001:00060220       __setmbcp                  10061220 f   LIBCMTD:mbctype.obj
 0001:000605d0       __setmbcp_nolock           100615d0 f   LIBCMTD:mbctype.obj
 0001:00060dc0       __getmbcp                  10061dc0 f   LIBCMTD:mbctype.obj
 0001:00060e30       ___initmbctable            10061e30 f   LIBCMTD:mbctype.obj
 0001:00060e60       ___addlocaleref            10061e60 f   LIBCMTD:localref.obj
 0001:00060f80       ___removelocaleref         10061f80 f   LIBCMTD:localref.obj
 0001:000610b0       ___freetlocinfo            100620b0 f   LIBCMTD:localref.obj
 0001:00061390       __updatetlocinfoEx_nolock  10062390 f   LIBCMTD:localref.obj
 0001:00061410       ___updatetlocinfo          10062410 f   LIBCMTD:localref.obj
 0001:000614e0       __encoded_null             100624e0 f   LIBCMTD:tidtable.obj
 0001:000614f0       ___crtTlsAlloc@4           100624f0 f   LIBCMTD:tidtable.obj
 0001:00061500       ___fls_getvalue@4          10062500 f   LIBCMTD:tidtable.obj
 0001:00061520       ___get_flsindex            10062520 f   LIBCMTD:tidtable.obj
 0001:00061530       ___set_flsgetvalue         10062530 f   LIBCMTD:tidtable.obj
 0001:00061580       ___fls_setvalue@8          10062580 f   LIBCMTD:tidtable.obj
 0001:000615a0       __mtinit                   100625a0 f   LIBCMTD:tidtable.obj
 0001:000617a0       __mtterm                   100627a0 f   LIBCMTD:tidtable.obj
 0001:00061800       __initptd                  10062800 f   LIBCMTD:tidtable.obj
 0001:00061930       __getptd_noexit            10062930 f   LIBCMTD:tidtable.obj
 0001:000619f0       __getptd                   100629f0 f   LIBCMTD:tidtable.obj
 0001:00061a20       __freefls@4                10062a20 f   LIBCMTD:tidtable.obj
 0001:00061c30       __freeptd                  10062c30 f   LIBCMTD:tidtable.obj
 0001:00061cb0       ___threadid                10062cb0 f   LIBCMTD:tidtable.obj
 0001:00061cc0       ___threadhandle            10062cc0 f   LIBCMTD:tidtable.obj
 0001:00061cd0       ____setlc_active_func      10062cd0 f   LIBCMTD:setlocal.obj
 0001:00061ce0       ____unguarded_readlc_active_add_func 10062ce0 f   LIBCMTD:setlocal.obj
 0001:00061cf0       __configthreadlocale       10062cf0 f   LIBCMTD:setlocal.obj
 0001:00061e00       __locterm                  10062e00 f   LIBCMTD:setlocal.obj
 0001:00061ea0       __free_locale              10062ea0 f   LIBCMTD:setlocal.obj
 0001:00061fe0       ___free_locale             10062fe0 f   LIBCMTD:setlocal.obj
 0001:00062000       __create_locale            10063000 f   LIBCMTD:setlocal.obj
 0001:00062230       ___create_locale           10063230 f   LIBCMTD:setlocal.obj
 0001:00062250       __get_current_locale       10063250 f   LIBCMTD:setlocal.obj
 0001:00062370       ___get_current_locale      10063370 f   LIBCMTD:setlocal.obj
 0001:00062380       _setlocale                 10063380 f   LIBCMTD:setlocal.obj
 0001:00063230       __expandlocale             10064230 f   LIBCMTD:setlocal.obj
 0001:000634e0       ___init_dummy              100644e0 f   LIBCMTD:setlocal.obj
 0001:000634f0       __strcats                  100644f0 f   LIBCMTD:setlocal.obj
 0001:00063570       ___lc_strtolc              10064570 f   LIBCMTD:setlocal.obj
 0001:00063770       ___lc_lctostr              10064770 f   LIBCMTD:setlocal.obj
 0001:00063810       __VEC_memzero              10064810 f   LIBCMTD:p4_memset.obj
 0001:000638d0       _strtol                    100648d0 f   LIBCMTD:strtol.obj
 0001:00063e00       __strtol_l                 10064e00 f   LIBCMTD:strtol.obj
 0001:00063e30       _strtoul                   10064e30 f   LIBCMTD:strtol.obj
 0001:00063e80       __strtoul_l                10064e80 f   LIBCMTD:strtol.obj
 0001:00063eb0       __strtoi64                 10064eb0 f   LIBCMTD:strtoq.obj
 0001:00064420       __strtoi64_l               10065420 f   LIBCMTD:strtoq.obj
 0001:00064450       __strtoui64                10065450 f   LIBCMTD:strtoq.obj
 0001:000644a0       __strtoui64_l              100654a0 f   LIBCMTD:strtoq.obj
 0001:000644d0       ___tzset                   100654d0 f   LIBCMTD:tzset.obj
 0001:00064570       __tzset                    10065570 f   LIBCMTD:tzset.obj
 0001:00064b20       __set_daylight             10065b20 f i LIBCMTD:tzset.obj
 0001:00064b40       __set_dstbias              10065b40 f i LIBCMTD:tzset.obj
 0001:00064b60       __set_timezone             10065b60 f i LIBCMTD:tzset.obj
 0001:00064b80       __isindst                  10065b80 f   LIBCMTD:tzset.obj
 0001:00065230       __gmtime64_s               10066230 f   LIBCMTD:gmtime64.obj
 0001:00065630       __gmtime64                 10066630 f   LIBCMTD:gmtime64.obj
 0001:00065670       __get_daylight             10066670 f   LIBCMTD:timeset.obj
 0001:000656f0       __get_dstbias              100666f0 f   LIBCMTD:timeset.obj
 0001:00065770       __get_timezone             10066770 f   LIBCMTD:timeset.obj
 0001:000657f0       __get_tzname               100667f0 f   LIBCMTD:timeset.obj
 0001:000659c0       ___daylight                100669c0 f   LIBCMTD:timeset.obj
 0001:000659d0       ___dstbias                 100669d0 f   LIBCMTD:timeset.obj
 0001:000659e0       ___timezone                100669e0 f   LIBCMTD:timeset.obj
 0001:000659f0       ___tzname                  100669f0 f   LIBCMTD:timeset.obj
 0001:00065a00       __alldiv                   10066a00 f   LIBCMTD:lldiv.obj
 0001:00065ab0       __allrem                   10066ab0 f   LIBCMTD:llrem.obj
 0001:00065b70       __gmtime32_s               10066b70 f   LIBCMTD:gmtime.obj
 0001:00065e30       ___getgmtimebuf            10066e30 f   LIBCMTD:gmtime.obj
 0001:00065eb0       __gmtime32                 10066eb0 f   LIBCMTD:gmtime.obj
 0001:00065ef0       __aulldiv                  10066ef0 f   LIBCMTD:ulldiv.obj
 0001:00065f60       __fltin2                   10066f60 f   LIBCMTD:_cfin_.obj
 0001:00066040       __chvalidator              10067040 f   LIBCMTD:isctype.obj
 0001:00066090       __chvalidator_l            10067090 f   LIBCMTD:isctype.obj
 0001:00066140       __isctype_l                10067140 f   LIBCMTD:isctype.obj
 0001:00066260       __isctype                  10067260 f   LIBCMTD:isctype.obj
 0001:000662a0       ___strgtold12_l            100672a0 f   LIBCMTD:_strgtold_.obj
 0001:00066d50       ___multtenpow12            10067d50 f i LIBCMTD:_strgtold_.obj
 0001:00066e30       ___ld12mul                 10067e30 f i LIBCMTD:_strgtold_.obj
 0001:00067230       ___addl                    10068230 f i LIBCMTD:_strgtold_.obj
 0001:00067270       ___shl_12                  10068270 f i LIBCMTD:_strgtold_.obj
 0001:000672e0       ___shr_12                  100682e0 f i LIBCMTD:_strgtold_.obj
 0001:00067350       ___STRINGTOLD_L            10068350 f   LIBCMTD:_strgtold_.obj
 0001:000673c0       ___libm_setusermatherr     100683c0 f   LIBCMTD:_libm_error_.obj
 0001:00067400       ___libm_error_support      10068400 f   LIBCMTD:_libm_error_.obj
 0001:00067f30       __set_SSE2_enable          10068f30 f   LIBCMTD:_mathfcns_.obj
 0001:00067f50       __sse2_mathfcns_init       10068f50 f   LIBCMTD:_mathfcns_.obj
 0001:00067f70       __floor_default            10068f70 f   LIBCMTD:_floor_.obj
 0001:000680b0       __CIcos_pentium4           100690b0 f   LIBCMTD:_cos_pentium4_.obj
 0001:000680c8       __cos_pentium4             100690c8     LIBCMTD:_cos_pentium4_.obj
 0001:00068260       __trandisp1                10069260 f   LIBCMTD:_87disp_.obj
 0001:000682c7       __trandisp2                100692c7 f   LIBCMTD:_87disp_.obj
 0001:00068353       __rttospopde               10069353     LIBCMTD:_87disp_.obj
 0001:00068358       __rttospop                 10069358     LIBCMTD:_87disp_.obj
 0001:0006835a       __rtnospop                 1006935a     LIBCMTD:_87disp_.obj
 0001:0006835c       __rttosnpop                1006935c     LIBCMTD:_87disp_.obj
 0001:0006835d       __rtnospopde               1006935d     LIBCMTD:_87disp_.obj
 0001:00068364       __rtzeropop                10069364     LIBCMTD:_87disp_.obj
 0001:00068366       __rtzeronpop               10069366     LIBCMTD:_87disp_.obj
 0001:0006836b       __rtonepop                 1006936b     LIBCMTD:_87disp_.obj
 0001:0006836d       __rtonenpop                1006936d     LIBCMTD:_87disp_.obj
 0001:00068372       __tosnan1                  10069372     LIBCMTD:_87disp_.obj
 0001:0006839d       __nosnan2                  1006939d     LIBCMTD:_87disp_.obj
 0001:0006839f       __tosnan2                  1006939f     LIBCMTD:_87disp_.obj
 0001:000683c7       __nan2                     100693c7     LIBCMTD:_87disp_.obj
 0001:00068406       __rtindfpop                10069406     LIBCMTD:_87disp_.obj
 0001:00068408       __rtindfnpop               10069408     LIBCMTD:_87disp_.obj
 0001:00068419       __rttosnpopde              10069419     LIBCMTD:_87disp_.obj
 0001:00068423       __rtchsifneg               10069423     LIBCMTD:_87disp_.obj
 0001:00068430       __twoToTOS                 10069430 f   LIBCMTD:_common_.obj
 0001:00068445       __load_CW                  10069445 f   LIBCMTD:_common_.obj
 0001:0006845c       __convertTOStoQNaN         1006945c f   LIBCMTD:_common_.obj
 0001:00068475       __fload_withFB             10069475 f   LIBCMTD:_common_.obj
 0001:000684b8       __checkTOS_withFB          100694b8 f   LIBCMTD:_common_.obj
 0001:000684ce       __fast_exit                100694ce f   LIBCMTD:_common_.obj
 0001:000684db       __math_exit                100694db f   LIBCMTD:_common_.obj
 0001:00068505       __check_overflow_exit      10069505 f   LIBCMTD:_common_.obj
 0001:00068519       __check_range_exit         10069519 f   LIBCMTD:_common_.obj
 0001:000685c0       __startTwoArgErrorHandling 100695c0 f   LIBCMTD:_genexcep_.obj
 0001:000685d7       __startOneArgErrorHandling 100695d7 f   LIBCMTD:_genexcep_.obj
 0001:00068620       __CIsin_pentium4           10069620 f   LIBCMTD:_sin_pentium4_.obj
 0001:00068638       __sin_pentium4             10069638     LIBCMTD:_sin_pentium4_.obj
 0001:000687f0       __handle_qnan1             100697f0 f   LIBCMTD:_fpexcept_.obj
 0001:00068850       __handle_qnan2             10069850 f   LIBCMTD:_fpexcept_.obj
 0001:000688c0       __except1                  100698c0 f   LIBCMTD:_fpexcept_.obj
 0001:000689c0       __except2                  100699c0 f   LIBCMTD:_fpexcept_.obj
 0001:00068ad0       __raise_exc_ex             10069ad0 f   LIBCMTD:_fpexcept_.obj
 0001:00069000       __raise_exc                1006a000 f   LIBCMTD:_fpexcept_.obj
 0001:00069030       __raise_excf               1006a030 f   LIBCMTD:_fpexcept_.obj
 0001:00069060       __handle_exc               1006a060 f   LIBCMTD:_fpexcept_.obj
 0001:00069370       __umatherr                 1006a370 f   LIBCMTD:_fpexcept_.obj
 0001:00069410       __set_errno_from_matherr   1006a410 f   LIBCMTD:_fpexcept_.obj
 0001:000694a0       __errcode                  1006a4a0 f   LIBCMTD:_fpexcept_.obj
 0001:00069510       __set_exp                  1006a510 f   LIBCMTD:_util_.obj
 0001:00069550       __get_exp                  1006a550 f   LIBCMTD:_util_.obj
 0001:00069580       __add_exp                  1006a580 f   LIBCMTD:_util_.obj
 0001:000695c0       __set_bexp                 1006a5c0 f   LIBCMTD:_util_.obj
 0001:000695f0       __sptype                   1006a5f0 f   LIBCMTD:_util_.obj
 0001:00069670       __decomp                   1006a670 f   LIBCMTD:_util_.obj
 0001:000697a0       __statfp                   1006a7a0 f   LIBCMTD:_fpctrl_.obj
 0001:000697c0       __clrfp                    1006a7c0 f   LIBCMTD:_fpctrl_.obj
 0001:000697e0       __ctrlfp                   1006a7e0 f   LIBCMTD:_fpctrl_.obj
 0001:00069810       __set_statfp               1006a810 f   LIBCMTD:_fpctrl_.obj
 0001:00069880       ___get_fpsr_sse2           1006a880 f   LIBCMTD:_fpctrl_.obj
 0001:000698b0       ___set_fpsr_sse2           1006a8b0 f   LIBCMTD:_fpctrl_.obj
 0001:00069990       ___fclrf_sse2              1006a990 f   LIBCMTD:_fpctrl_.obj
 0001:000699b0       ___statfp_sse2             1006a9b0 f   LIBCMTD:_fpctrl_.obj
 0001:000699e0       ___clrfp_sse2              1006a9e0 f   LIBCMTD:_fpctrl_.obj
 0001:00069a20       ___ctrlfp_sse2             1006aa20 f   LIBCMTD:_fpctrl_.obj
 0001:00069a80       ___set_statfp_sse2         1006aa80 f   LIBCMTD:_fpctrl_.obj
 0001:00069ab0       __CIacos_pentium4          1006aab0 f   LIBCMTD:_acos_pentium4_.obj
 0001:00069ac8       __acos_pentium4            1006aac8     LIBCMTD:_acos_pentium4_.obj
 0001:0006a010       __input_l                  1006b010 f   LIBCMTD:input.obj
 0001:0006b890       __INTRN_LOCALE_CONV        1006c890 f i LIBCMTD:input.obj
 0001:0006b9c0       __input_s_l                1006c9c0 f   LIBCMTD:inputs.obj
 0001:0006d700       ___crtLCMapStringA         1006e700 f   LIBCMTD:a_map.obj
 0001:0006d9f0       __MarkAllocaS              1006e9f0 f i LIBCMTD:a_map.obj
 0001:0006da20       __freea                    1006ea20 f i LIBCMTD:a_map.obj
 0001:0006dae0       __isleadbyte_l             1006eae0 f i LIBCMTD:_wctype.obj
 0001:0006db30       _isleadbyte                1006eb30 f i LIBCMTD:_wctype.obj
 0001:0006db50       __iswalpha_l               1006eb50 f i LIBCMTD:_wctype.obj
 0001:0006db70       _iswalpha                  1006eb70 f i LIBCMTD:_wctype.obj
 0001:0006db90       __iswupper_l               1006eb90 f i LIBCMTD:_wctype.obj
 0001:0006dbb0       _iswupper                  1006ebb0 f i LIBCMTD:_wctype.obj
 0001:0006dbd0       __iswlower_l               1006ebd0 f i LIBCMTD:_wctype.obj
 0001:0006dbf0       _iswlower                  1006ebf0 f i LIBCMTD:_wctype.obj
 0001:0006dc10       __iswdigit_l               1006ec10 f i LIBCMTD:_wctype.obj
 0001:0006dc30       _iswdigit                  1006ec30 f i LIBCMTD:_wctype.obj
 0001:0006dc50       __iswxdigit_l              1006ec50 f i LIBCMTD:_wctype.obj
 0001:0006dc70       _iswxdigit                 1006ec70 f i LIBCMTD:_wctype.obj
 0001:0006dc90       __iswspace_l               1006ec90 f i LIBCMTD:_wctype.obj
 0001:0006dcb0       _iswspace                  1006ecb0 f i LIBCMTD:_wctype.obj
 0001:0006dcd0       __iswpunct_l               1006ecd0 f i LIBCMTD:_wctype.obj
 0001:0006dcf0       _iswpunct                  1006ecf0 f i LIBCMTD:_wctype.obj
 0001:0006dd10       __iswalnum_l               1006ed10 f i LIBCMTD:_wctype.obj
 0001:0006dd30       _iswalnum                  1006ed30 f i LIBCMTD:_wctype.obj
 0001:0006dd50       __iswprint_l               1006ed50 f i LIBCMTD:_wctype.obj
 0001:0006dd70       _iswprint                  1006ed70 f i LIBCMTD:_wctype.obj
 0001:0006dd90       __iswgraph_l               1006ed90 f i LIBCMTD:_wctype.obj
 0001:0006ddb0       _iswgraph                  1006edb0 f i LIBCMTD:_wctype.obj
 0001:0006ddd0       __iswcntrl_l               1006edd0 f i LIBCMTD:_wctype.obj
 0001:0006ddf0       _iswcntrl                  1006edf0 f i LIBCMTD:_wctype.obj
 0001:0006de10       _iswascii                  1006ee10 f i LIBCMTD:_wctype.obj
 0001:0006de30       __iswcsym_l                1006ee30 f i LIBCMTD:_wctype.obj
 0001:0006de70       ___iswcsym                 1006ee70 f i LIBCMTD:_wctype.obj
 0001:0006deb0       __iswcsymf_l               1006eeb0 f i LIBCMTD:_wctype.obj
 0001:0006def0       ___iswcsymf                1006eef0 f i LIBCMTD:_wctype.obj
 0001:0006df30       __CItan_pentium4           1006ef30 f   LIBCMTD:_tan_pentium4_.obj
 0001:0006df48       __tan_pentium4             1006ef48     LIBCMTD:_tan_pentium4_.obj
 0001:0006e1ac       __fFATN2                   1006f1ac     LIBCMTD:_87triga_.obj
 0001:0006e1fc       __rtpiby2                  1006f1fc     LIBCMTD:_87triga_.obj
 0001:0006e240       __cintrindisp2             1006f240 f   LIBCMTD:_87cdisp_.obj
 0001:0006e27e       __cintrindisp1             1006f27e f   LIBCMTD:_87cdisp_.obj
 0001:0006e2bb       __ctrandisp2               1006f2bb f   LIBCMTD:_87cdisp_.obj
 0001:0006e44a       __ctrandisp1               1006f44a f   LIBCMTD:_87cdisp_.obj
 0001:0006e47d       __fload                    1006f47d f   LIBCMTD:_87cdisp_.obj
 0001:0006e4c0       __ceil_default             1006f4c0 f   LIBCMTD:_ceil_.obj
 0001:0006e600       __CIatan_pentium4          1006f600 f   LIBCMTD:_atan_pentium4_.obj
 0001:0006e618       __atan_pentium4            1006f618     LIBCMTD:_atan_pentium4_.obj
 0001:0006e8f0       __CIasin_pentium4          1006f8f0 f   LIBCMTD:_asin_pentium4_.obj
 0001:0006e908       __asin_pentium4            1006f908     LIBCMTD:_asin_pentium4_.obj
 0001:0006ee70       __CIexp_pentium4           1006fe70 f   LIBCMTD:_exp_pentium4_.obj
 0001:0006ee88       __exp_pentium4             1006fe88     LIBCMTD:_exp_pentium4_.obj
 0001:0006f141       __fFEXP                    10070141     LIBCMTD:_87tran_.obj
 0001:0006f198       __rtinfpopse               10070198     LIBCMTD:_87tran_.obj
 0001:0006f19a       __rtinfnpopse              1007019a     LIBCMTD:_87tran_.obj
 0001:0006f1aa       __fFLN                     100701aa     LIBCMTD:_87tran_.obj
 0001:0006f25f       __rtinfpop                 1007025f     LIBCMTD:_87tran_.obj
 0001:0006f261       __rtinfnpop                10070261     LIBCMTD:_87tran_.obj
 0001:0006f27e       __ffexpm1                  1007027e     LIBCMTD:_87tran_.obj
 0001:0006f330       __flsbuf                   10070330 f   LIBCMTD:_flsbuf.obj
 0001:0006f5f0       __output_l                 100705f0 f   LIBCMTD:output.obj
 0001:00070a60       _get_int_arg               10071a60 f i LIBCMTD:output.obj
 0001:00070a80       _get_int64_arg             10071a80 f i LIBCMTD:output.obj
 0001:00070aa0       _get_short_arg             10071aa0 f i LIBCMTD:output.obj
 0001:00070ac0       __CIpow_pentium4           10071ac0 f   LIBCMTD:_pow_pentium4_.obj
 0001:00070ad9       __pow_pentium4             10071ad9     LIBCMTD:_pow_pentium4_.obj
 0001:00071620       __powhlp                   10072620 f   LIBCMTD:_powhlp_.obj
 0001:000717d0       __d_inttype                100727d0 f   LIBCMTD:_powhlp_.obj
 0001:00071860       __malloc_dbg               10072860 f   LIBCMTD:dbgheap.obj
 0001:00071890       __nh_malloc                10072890 f   LIBCMTD:dbgheap.obj
 0001:000718b0       __nh_malloc_dbg            100728b0 f   LIBCMTD:dbgheap.obj
 0001:00071990       __heap_alloc               10072990 f   LIBCMTD:dbgheap.obj
 0001:00071d70       __heap_alloc_dbg           10072d70 f   LIBCMTD:dbgheap.obj
 0001:00071dd0       __calloc_dbg_impl          10072dd0 f   LIBCMTD:dbgheap.obj
 0001:00071e50       __calloc_dbg               10072e50 f   LIBCMTD:dbgheap.obj
 0001:00071eb0       __recalloc                 10072eb0 f   LIBCMTD:dbgheap.obj
 0001:00071ee0       __realloc_dbg              10072ee0 f   LIBCMTD:dbgheap.obj
 0001:00072580       __recalloc_dbg             10073580 f   LIBCMTD:dbgheap.obj
 0001:00072630       __expand                   10073630 f   LIBCMTD:dbgheap.obj
 0001:00072660       __expand_dbg               10073660 f   LIBCMTD:dbgheap.obj
 0001:00072770       __free_nolock              10073770 f   LIBCMTD:dbgheap.obj
 0001:00072790       __free_dbg                 10073790 f   LIBCMTD:dbgheap.obj
 0001:00072810       __free_dbg_nolock          10073810 f   LIBCMTD:dbgheap.obj
 0001:00072cf0       __msize                    10073cf0 f   LIBCMTD:dbgheap.obj
 0001:00072d10       __msize_dbg                10073d10 f   LIBCMTD:dbgheap.obj
 0001:00072f00       __CrtSetBreakAlloc         10073f00 f   LIBCMTD:dbgheap.obj
 0001:00072f20       __CrtSetDbgBlockType       10073f20 f   LIBCMTD:dbgheap.obj
 0001:00073010       __CrtSetAllocHook          10074010 f   LIBCMTD:dbgheap.obj
 0001:00073030       __CrtGetAllocHook          10074030 f   LIBCMTD:dbgheap.obj
 0001:00073080       __CrtCheckMemory           10074080 f   LIBCMTD:dbgheap.obj
 0001:000734e0       __CrtSetDbgFlag            100744e0 f   LIBCMTD:dbgheap.obj
 0001:00073630       __CrtDoForAllClientObjects 10074630 f   LIBCMTD:dbgheap.obj
 0001:00073750       __CrtIsValidPointer        10074750 f   LIBCMTD:dbgheap.obj
 0001:00073760       __CrtIsValidHeapPointer    10074760 f   LIBCMTD:dbgheap.obj
 0001:000737b0       __CrtIsMemoryBlock         100747b0 f   LIBCMTD:dbgheap.obj
 0001:00073920       __CrtReportBlockType       10074920 f   LIBCMTD:dbgheap.obj
 0001:00073950       __CrtSetDumpClient         10074950 f   LIBCMTD:dbgheap.obj
 0001:00073970       __CrtGetDumpClient         10074970 f   LIBCMTD:dbgheap.obj
 0001:00073980       __CrtMemCheckpoint         10074980 f   LIBCMTD:dbgheap.obj
 0001:00073ba0       __CrtMemDifference         10074ba0 f   LIBCMTD:dbgheap.obj
 0001:00073dc0       __CrtMemDumpAllObjectsSince 10074dc0 f   LIBCMTD:dbgheap.obj
 0001:000742b0       __CrtDumpMemoryLeaks       100752b0 f   LIBCMTD:dbgheap.obj
 0001:00074330       __CrtMemDumpStatistics     10075330 f   LIBCMTD:dbgheap.obj
 0001:00074440       __aligned_malloc           10075440 f   LIBCMTD:dbgheap.obj
 0001:00074460       __aligned_malloc_dbg       10075460 f   LIBCMTD:dbgheap.obj
 0001:00074490       __aligned_realloc          10075490 f   LIBCMTD:dbgheap.obj
 0001:000744c0       __aligned_recalloc         100754c0 f   LIBCMTD:dbgheap.obj
 0001:000744f0       __aligned_realloc_dbg      100754f0 f   LIBCMTD:dbgheap.obj
 0001:00074520       __aligned_recalloc_dbg     10075520 f   LIBCMTD:dbgheap.obj
 0001:00074550       __aligned_offset_malloc    10075550 f   LIBCMTD:dbgheap.obj
 0001:00074570       __aligned_offset_malloc_dbg 10075570 f   LIBCMTD:dbgheap.obj
 0001:00074730       __aligned_offset_realloc   10075730 f   LIBCMTD:dbgheap.obj
 0001:00074760       __aligned_offset_recalloc  10075760 f   LIBCMTD:dbgheap.obj
 0001:00074790       __aligned_offset_realloc_dbg 10075790 f   LIBCMTD:dbgheap.obj
 0001:00074a80       __aligned_offset_recalloc_dbg 10075a80 f   LIBCMTD:dbgheap.obj
 0001:00074b40       __aligned_free             10075b40 f   LIBCMTD:dbgheap.obj
 0001:00074b60       __aligned_free_dbg         10075b60 f   LIBCMTD:dbgheap.obj
 0001:00074c10       __CrtSetDebugFillThreshold 10075c10 f   LIBCMTD:dbgheap.obj
 0001:00074c30       __CrtSetCheckCount         10075c30 f   LIBCMTD:dbgheap.obj
 0001:00074c50       __CrtGetCheckCount         10075c50 f   LIBCMTD:dbgheap.obj
 0001:00074c60       __aligned_msize            10075c60 f   LIBCMTD:dbgheap.obj
 0001:00074c80       __aligned_msize_dbg        10075c80 f   LIBCMTD:dbgheap.obj
 0001:00074d90       __ioinit                   10075d90 f   LIBCMTD:ioinit.obj
 0001:000751a0       __ioterm                   100761a0 f   LIBCMTD:ioinit.obj
 0001:00075240       __setenvp                  10076240 f   LIBCMTD:stdenvp.obj
 0001:000753e0       __setargv                  100763e0 f   LIBCMTD:stdargv.obj
 0001:00075500       __set_pgmptr               10076500 f i LIBCMTD:stdargv.obj
 0001:00075870       ___crtGetEnvironmentStringsA 10076870 f   LIBCMTD:a_env.obj
 0001:00075970       __RTC_Initialize           10076970 f   LIBCMTD:_initsect_.obj
 0001:000759a0       __RTC_Terminate            100769a0 f   LIBCMTD:_initsect_.obj
 0001:000759d0       __heap_init                100769d0 f   LIBCMTD:heapinit.obj
 0001:00075a10       __heap_term                10076a10 f   LIBCMTD:heapinit.obj
 0001:00075a30       __get_heap_handle          10076a30 f   LIBCMTD:heapinit.obj
 0001:00075a70       __except_handler4          10076a70 f   LIBCMTD:chandler4.obj
 0001:00075c90       ___security_init_cookie    10076c90 f   LIBCMTD:gs_support.obj
 0001:00075d70       ___CppXcptFilter           10076d70 f   LIBCMTD:winxfltr.obj
 0001:00075da0       __XcptFilter               10076da0 f   LIBCMTD:winxfltr.obj
 0001:00076000       _DllMain@12                10077000 f   LIBCMTD:dllmain.obj
 0001:00076010       ?_RTC_GetSrcLine@@YAHPAEPA_WKPAH1K@Z 10077010 f   LIBCMTD:_pdblkup_.obj
 0001:00076660       __CrtSetReportHook2        10077660 f   LIBCMTD:dbgrpt.obj
 0001:00076990       __CrtDbgReport             10077990 f   LIBCMTD:dbgrpt.obj
 0001:000769d0       __CrtDbgReportV            100779d0 f i LIBCMTD:dbgrpt.obj
 0001:00076a00       ___crtMessageWindowA       10077a00 f   LIBCMTD:dbgrpt.obj
 0001:00076e00       __CrtDefaultAllocHook      10077e00 f   LIBCMTD:dbghook.obj
 0001:00076e10       __crt_debugger_hook        10077e10 f   LIBCMTD:dbghook.obj
 0001:00076e30       __controlfp_s              10077e30 f   LIBCMTD:_contrlfp_.obj
 0001:00076f10       __atodbl_l                 10077f10 f   LIBCMTD:atodbl.obj
 0001:00077020       __atodbl                   10078020 f   LIBCMTD:atodbl.obj
 0001:00077040       __atoldbl_l                10078040 f   LIBCMTD:atodbl.obj
 0001:00077150       __atoldbl                  10078150 f   LIBCMTD:atodbl.obj
 0001:00077170       __atoflt_l                 10078170 f   LIBCMTD:atodbl.obj
 0001:00077280       __atoflt                   10078280 f   LIBCMTD:atodbl.obj
 0001:000772a0       __fptostr                  100782a0 f   LIBCMTD:_fptostr.obj
 0001:00077550       __fltout2                  10078550 f   LIBCMTD:_cfout_.obj
 0001:00077600       ___dtold                   10078600 f   LIBCMTD:_cfout_.obj
 0001:00077760       __set_output_format        10078760 f   LIBCMTD:outputformat.obj
 0001:000777e0       __get_output_format        100787e0 f   LIBCMTD:outputformat.obj
 0001:000777f0       _strcpy_s                  100787f0 f   LIBCMTD:strcpy_s.obj
 0001:00077ad0       __allshl                   10078ad0 f   LIBCMTD:llshl.obj
 0001:00077af0       __aullshr                  10078af0 f   LIBCMTD:ullshr.obj
 0001:00077b10       __fptrap                   10078b10 f   LIBCMTD:crt0fp.obj
 0001:00077b30       __onexit                   10078b30 f   LIBCMTD:onexit.obj
 0001:00077d00       _atexit                    10078d00 f   LIBCMTD:onexit.obj
 0001:00077d20       ___onexitinit              10078d20 f   LIBCMTD:onexit.obj
 0001:00077d80       __ValidateImageBase        10078d80 f   LIBCMTD:pesect.obj
 0001:00077de0       __FindPESection            10078de0 f   LIBCMTD:pesect.obj
 0001:00077e60       __IsNonwritableInCurrentImage 10078e60 f   LIBCMTD:pesect.obj
 0001:00077f80       __FF_MSGBANNER             10078f80 f   LIBCMTD:crt0msg.obj
 0001:00077fd0       __GET_RTERRMSG             10078fd0 f   LIBCMTD:crt0msg.obj
 0001:00078020       __NMSG_WRITE               10079020 f   LIBCMTD:crt0msg.obj
 0001:00078360       __mtinitlocks              10079360 f   LIBCMTD:mlock.obj
 0001:000783f0       __mtdeletelocks            100793f0 f   LIBCMTD:mlock.obj
 0001:000784b0       __mtinitlocknum            100794b0 f   LIBCMTD:mlock.obj
 0001:00078600       __lock                     10079600 f   LIBCMTD:mlock.obj
 0001:00078640       __unlock                   10079640 f   LIBCMTD:mlock.obj
 0001:00078660       __lockerr_exit             10079660 f   LIBCMTD:mlock.obj
 0001:00078680       __initp_eh_hooks           10079680 f   LIBCMTD:hooks.obj
 0001:000786a0       ?terminate@@YAXXZ          100796a0 f   LIBCMTD:hooks.obj
 0001:00078720       ?unexpected@@YAXXZ         10079720 f   LIBCMTD:hooks.obj
 0001:00078750       ?_inconsistency@@YAXXZ     10079750 f   LIBCMTD:hooks.obj
 0001:000787e0       __initp_misc_rand_s        100797e0 f   LIBCMTD:rand_s.obj
 0001:000787f0       _rand_s                    100797f0 f   LIBCMTD:rand_s.obj
 0001:00078a10       ___getlocaleinfo           10079a10 f   LIBCMTD:inithelp.obj
 0001:00078cf0       __initp_misc_purevirt      10079cf0 f   LIBCMTD:inithelp.obj
 0001:00078d00       __initp_heap_handler       10079d00 f   LIBCMTD:handler.obj
 0001:00078d10       ?_set_new_handler@@YAP6AHI@ZP6AHI@Z@Z 10079d10 f   LIBCMTD:handler.obj
 0001:00078d50       ?_set_new_handler@@YAP6AHI@ZH@Z 10079d50 f   LIBCMTD:handler.obj
 0001:00078d90       ?_query_new_handler@@YAP6AHI@ZXZ 10079d90 f   LIBCMTD:handler.obj
 0001:00078db0       __callnewh                 10079db0 f   LIBCMTD:handler.obj
 0001:00078df0       __aullrem                  10079df0 f   LIBCMTD:ullrem.obj
 0001:00078e70       __commit                   10079e70 f   LIBCMTD:commit.obj
 0001:00079090       __fileno                   1007a090 f   LIBCMTD:fileno.obj
 0001:00079110       __write                    1007a110 f   LIBCMTD:write.obj
 0001:00079340       __write_nolock             1007a340 f   LIBCMTD:write.obj
 0001:00079e80       __stbuf                    1007ae80 f   LIBCMTD:_sftbuf.obj
 0001:00079fe0       __ftbuf                    1007afe0 f   LIBCMTD:_sftbuf.obj
 0001:0007a070       __woutput_l                1007b070 f   LIBCMTD:woutput.obj
 0001:0007b270       _vfwprintf_helper          1007c270 f   LIBCMTD:vfwprint.obj
 0001:0007b3f0       __vfwprintf_l              1007c3f0 f   LIBCMTD:vfwprint.obj
 0001:0007b420       __vfwprintf_s_l            1007c420 f   LIBCMTD:vfwprint.obj
 0001:0007b450       __vfwprintf_p_l            1007c450 f   LIBCMTD:vfwprint.obj
 0001:0007b480       _vfwprintf                 1007c480 f   LIBCMTD:vfwprint.obj
 0001:0007b4b0       _vfwprintf_s               1007c4b0 f   LIBCMTD:vfwprint.obj
 0001:0007b4e0       __vfwprintf_p              1007c4e0 f   LIBCMTD:vfwprint.obj
 0001:0007b510       __freebuf                  1007c510 f   LIBCMTD:_freebuf.obj
 0001:0007b5a0       __fcloseall                1007c5a0 f   LIBCMTD:closeall.obj
 0001:0007b6d0       __woutput_s_l              1007c6d0 f   LIBCMTD:woutputs.obj
 0001:0007ca20       __validate_param_reuseW    1007da20 f   LIBCMTD:woutputp.obj
 0001:0007cc90       __woutput_p_l              1007dc90 f   LIBCMTD:woutputp.obj
 0001:00080420       __CrtDbgBreak              10081420 f   LIBCMTD:dbgrptt.obj
 0001:00080430       __CrtSetReportMode         10081430 f   LIBCMTD:dbgrptt.obj
 0001:00080570       __CrtSetReportFile         10081570 f   LIBCMTD:dbgrptt.obj
 0001:00080670       __CrtSetReportHook         10081670 f   LIBCMTD:dbgrptt.obj
 0001:00080690       __CrtGetReportHook         10081690 f   LIBCMTD:dbgrptt.obj
 0001:000806a0       __VCrtDbgReportA           100816a0 f   LIBCMTD:dbgrptt.obj
 0001:00080ed0       __VCrtDbgReportW           10081ed0 f   LIBCMTD:dbgrptt.obj
 0001:00081800       __swprintf                 10082800 f   LIBCMTD:swprintf.obj
 0001:00081a00       ___swprintf_l              10082a00 f   LIBCMTD:swprintf.obj
 0001:00081a30       _swprintf_s                10082a30 f   LIBCMTD:swprintf.obj
 0001:00081a60       __snwprintf_s              10082a60 f   LIBCMTD:swprintf.obj
 0001:00081a90       __swprintf_p               10082a90 f   LIBCMTD:swprintf.obj
 0001:00081ac0       __swprintf_s_l             10082ac0 f   LIBCMTD:swprintf.obj
 0001:00081af0       __snwprintf_s_l            10082af0 f   LIBCMTD:swprintf.obj
 0001:00081b20       __swprintf_p_l             10082b20 f   LIBCMTD:swprintf.obj
 0001:00081b50       __scwprintf                10082b50 f   LIBCMTD:swprintf.obj
 0001:00081b70       __scwprintf_p              10082b70 f   LIBCMTD:swprintf.obj
 0001:00081b90       __scwprintf_l              10082b90 f   LIBCMTD:swprintf.obj
 0001:00081bc0       __scwprintf_p_l            10082bc0 f   LIBCMTD:swprintf.obj
 0001:00081bf0       _memcpy_s                  10082bf0 f   LIBCMTD:memcpy_s.obj
 0001:00081d80       ?_JumpToContinuation@@YGXPAXPAUEHRegistrationNode@@@Z 10082d80 f   LIBCMTD:_trnsctrl_.obj
 0001:00081dc0       ?_CallMemberFunction0@@YGXPAX0@Z 10082dc0 f   LIBCMTD:_trnsctrl_.obj
 0001:00081dd0       ?_CallMemberFunction1@@YGXPAX00@Z 10082dd0 f   LIBCMTD:_trnsctrl_.obj
 0001:00081de0       ?_CallMemberFunction2@@YGXPAX00H@Z 10082de0 f   LIBCMTD:_trnsctrl_.obj
 0001:00081df0       ?_UnwindNestedFrames@@YGXPAUEHRegistrationNode@@PAUEHExceptionRecord@@@Z 10082df0 f   LIBCMTD:_trnsctrl_.obj
 0001:00081e50       ___CxxFrameHandler         10082e50 f   LIBCMTD:_trnsctrl_.obj
 0001:00081e90       ___CxxFrameHandler3        10082e90 f   LIBCMTD:_trnsctrl_.obj
 0001:00081ed0       ___CxxFrameHandler2        10082ed0 f   LIBCMTD:_trnsctrl_.obj
 0001:00081f10       ___CxxLongjmpUnwind@4      10082f10 f   LIBCMTD:_trnsctrl_.obj
 0001:00081f40       ?_CallCatchBlock2@@YAPAXPAUEHRegistrationNode@@PBU_s_FuncInfo@@PAXHK@Z 10082f40 f   LIBCMTD:_trnsctrl_.obj
 0001:00082000       ?_CallSETranslator@@YAHPAUEHExceptionRecord@@PAUEHRegistrationNode@@PAX2PBU_s_FuncInfo@@H1@Z 10083000 f   LIBCMTD:_trnsctrl_.obj
 0001:000821a0       ?_GetRangeOfTrysToCheck@@YAPBU_s_TryBlockMapEntry@@PBU_s_FuncInfo@@HHPAI1@Z 100831a0 f   LIBCMTD:_trnsctrl_.obj
 0001:00082220       __CreateFrameInfo          10083220 f   LIBCMTD:_trnsctrl_.obj
 0001:00082250       __IsExceptionObjectToBeDestroyed 10083250 f   LIBCMTD:_trnsctrl_.obj
 0001:00082280       __FindAndUnlinkFrame       10083280 f   LIBCMTD:_trnsctrl_.obj
 0001:000822e0       ___crtGetStringTypeA       100832e0 f   LIBCMTD:a_str.obj
 0001:00082450       ___init_time               10083450 f   LIBCMTD:inittime.obj
 0001:00083180       ___free_lc_time            10084180 f   LIBCMTD:inittime.obj
 0001:000837f0       ___init_numeric            100847f0 f   LIBCMTD:initnum.obj
 0001:00083ba0       ___free_lconv_num          10084ba0 f   LIBCMTD:initnum.obj
 0001:00083c50       ___init_monetary           10084c50 f   LIBCMTD:initmon.obj
 0001:00084240       ___free_lconv_mon          10085240 f   LIBCMTD:initmon.obj
 0001:000843f0       _localeconv                100853f0 f   LIBCMTD:lconv.obj
 0001:00084440       ___pwctype_func            10085440 f   LIBCMTD:ctype.obj
 0001:00084450       ___pctype_func             10085450 f   LIBCMTD:ctype.obj
 0001:000844a0       ___init_ctype              100854a0 f   LIBCMTD:initctyp.obj
 0001:00084a50       ____mb_cur_max_func        10085a50 f   LIBCMTD:initctyp.obj
 0001:00084aa0       ____mb_cur_max_l_func      10085aa0 f   LIBCMTD:initctyp.obj
 0001:00084ad0       ____lc_codepage_func       10085ad0 f   LIBCMTD:initctyp.obj
 0001:00084b20       ____lc_collate_cp_func     10085b20 f   LIBCMTD:initctyp.obj
 0001:00084b70       ____lc_handle_func         10085b70 f   LIBCMTD:initctyp.obj
 0001:00084bc0       ___init_collate            10085bc0 f   LIBCMTD:initcoll.obj
 0001:00084bd0       _strncpy_s                 10085bd0 f   LIBCMTD:strncpy_s.obj
 0001:00084fc0       _strcspn                   10085fc0 f   LIBCMTD:strcspn.obj
 0001:00085010       _strpbrk                   10086010 f   LIBCMTD:strpbrk.obj
 0001:00085050       _strcat_s                  10086050 f   LIBCMTD:strcat_s.obj
 0001:00085430       ___get_qualified_locale    10086430 f   LIBCMTD:getqloc.obj
 0001:00086290       __allmul                   10087290 f   LIBCMTD:llmul.obj
 0001:000862d0       _getenv                    100872d0 f   LIBCMTD:getenv.obj
 0001:00086420       __getenv_helper_nolock     10087420 f   LIBCMTD:getenv.obj
 0001:00086540       _getenv_s                  10087540 f   LIBCMTD:getenv.obj
 0001:00086770       __dupenv_s                 10087770 f   LIBCMTD:getenv.obj
 0001:000867a0       __dupenv_s_dbg             100877a0 f   LIBCMTD:getenv.obj
 0001:000869f0       __ld12tod                  100879f0 f   LIBCMTD:_intrncvt_.obj
 0001:00086a10       __ld12cvt                  10087a10 f i LIBCMTD:_intrncvt_.obj
 0001:00086c70       __RoundMan                 10087c70 f i LIBCMTD:_intrncvt_.obj
 0001:00086d50       __ZeroTail                 10087d50 f i LIBCMTD:_intrncvt_.obj
 0001:00086de0       __IncMan                   10087de0 f i LIBCMTD:_intrncvt_.obj
 0001:00086e90       __CopyMan                  10087e90 f i LIBCMTD:_intrncvt_.obj
 0001:00086ee0       __FillZeroMan              10087ee0 f i LIBCMTD:_intrncvt_.obj
 0001:00086f20       __IsZeroMan                10087f20 f i LIBCMTD:_intrncvt_.obj
 0001:00086f60       __ShrMan                   10087f60 f i LIBCMTD:_intrncvt_.obj
 0001:00087050       __ld12tof                  10088050 f   LIBCMTD:_intrncvt_.obj
 0001:00087070       __ld12told                 10088070 f   LIBCMTD:_intrncvt_.obj
 0001:00087140       ___mtold12                 10088140 f   LIBCMTD:_mantold_.obj
 0001:000872a0       ___add_12                  100882a0 f i LIBCMTD:_mantold_.obj
 0001:00087350       __matherr                  10088350 f   LIBCMTD:_matherr_.obj
 0001:00087360       __frnd                     10088360 f   LIBCMTD:_frnd_.obj
 0001:00087380       __87except                 10088380 f   LIBCMTD:_87except_.obj
 0001:00087530       __mbtowc_l                 10088530 f   LIBCMTD:mbtowc.obj
 0001:00087750       _mbtowc                    10088750 f   LIBCMTD:mbtowc.obj
 0001:00087770       __filbuf                   10088770 f   LIBCMTD:_filbuf.obj
 0001:000879c0       _ungetc                    100889c0 f   LIBCMTD:ungetc.obj
 0001:00087ab0       __ungetc_nolock            10088ab0 f   LIBCMTD:ungetc.obj
 0001:00087cd0       _malloc                    10088cd0 f   LIBCMTD:dbgmalloc.obj
 0001:00087d00       _free                      10088d00 f   LIBCMTD:dbgfree.obj
 0001:00087d20       __iswctype_l               10088d20 f   LIBCMTD:iswctype.obj
 0001:00087d40       _iswctype                  10088d40 f   LIBCMTD:iswctype.obj
 0001:00087da0       _is_wctype                 10088da0 f   LIBCMTD:iswctype.obj
 0001:00087dc0       __lseeki64                 10088dc0 f   LIBCMTD:lseeki64.obj
 0001:00088010       __lseeki64_nolock          10089010 f   LIBCMTD:lseeki64.obj
 0001:00088100       __getbuf                   10089100 f   LIBCMTD:_getbuf.obj
 0001:000881d0       __isatty                   100891d0 f   LIBCMTD:isatty.obj
 0001:00088290       _printf                    10089290 f   LIBCMTD:printf.obj
 0001:000883d0       __printf_l                 100893d0 f   LIBCMTD:printf.obj
 0001:00088400       __printf_s_l               10089400 f   LIBCMTD:printf.obj
 0001:00088430       _printf_s                  10089430 f   LIBCMTD:printf.obj
 0001:00088460       __printf_p_l               10089460 f   LIBCMTD:printf.obj
 0001:00088490       __printf_p                 10089490 f   LIBCMTD:printf.obj
 0001:000884c0       __set_printf_count_output  100894c0 f   LIBCMTD:printf.obj
 0001:00088510       __get_printf_count_output  10089510 f   LIBCMTD:printf.obj
 0001:00088530       __wctomb_s_l               10089530 f   LIBCMTD:wctomb.obj
 0001:00088830       _wctomb_s                  10089830 f   LIBCMTD:wctomb.obj
 0001:00088860       __wctomb_l                 10089860 f   LIBCMTD:wctomb.obj
 0001:000888e0       _wctomb                    100898e0 f   LIBCMTD:wctomb.obj
 0001:00088930       __copysign                 10089930 f   LIBCMTD:_ieeemisc_.obj
 0001:00088970       __chgsign                  10089970 f   LIBCMTD:_ieeemisc_.obj
 0001:000889b0       __scalb                    100899b0 f   LIBCMTD:_ieeemisc_.obj
 0001:000889d0       __logb                     100899d0 f   LIBCMTD:_ieeemisc_.obj
 0001:00088b10       __nextafter                10089b10 f   LIBCMTD:_ieeemisc_.obj
 0001:00088e30       __finite                   10089e30 f   LIBCMTD:_ieeemisc_.obj
 0001:00088e50       __isnan                    10089e50 f   LIBCMTD:_ieeemisc_.obj
 0001:00088ea0       __fpclass                  10089ea0 f   LIBCMTD:_ieeemisc_.obj
 0001:00088f70       __malloc_base              10089f70 f   LIBCMTD:malloc.obj
 0001:00089000       __heap_alloc_base          1008a000 f i LIBCMTD:malloc.obj
 0001:00089060       __expand_base              1008a060 f   LIBCMTD:expand.obj
 0001:000891c0       __realloc_base             1008a1c0 f   LIBCMTD:realloc.obj
 0001:000892c0       __free_base                1008a2c0 f   LIBCMTD:free.obj
 0001:00089310       __heapchk                  1008a310 f   LIBCMTD:heapchk.obj
 0001:00089340       __heapset                  1008a340 f   LIBCMTD:heapchk.obj
 0001:00089350       _sprintf                   1008a350 f   LIBCMTD:sprintf.obj
 0001:000894f0       __sprintf_l                1008a4f0 f   LIBCMTD:sprintf.obj
 0001:00089520       _sprintf_s                 1008a520 f   LIBCMTD:sprintf.obj
 0001:00089550       __sprintf_s_l              1008a550 f   LIBCMTD:sprintf.obj
 0001:00089580       __snprintf_s               1008a580 f   LIBCMTD:sprintf.obj
 0001:000895b0       __snprintf_s_l             1008a5b0 f   LIBCMTD:sprintf.obj
 0001:000895e0       __sprintf_p                1008a5e0 f   LIBCMTD:sprintf.obj
 0001:00089610       __sprintf_p_l              1008a610 f   LIBCMTD:sprintf.obj
 0001:00089640       __scprintf                 1008a640 f   LIBCMTD:sprintf.obj
 0001:00089660       __scprintf_p               1008a660 f   LIBCMTD:sprintf.obj
 0001:00089680       __scprintf_l               1008a680 f   LIBCMTD:sprintf.obj
 0001:000896b0       __scprintf_p_l             1008a6b0 f   LIBCMTD:sprintf.obj
 0001:000896e0       __ismbbkalnum_l            1008a6e0 f   LIBCMTD:ismbbyte.obj
 0001:00089700       __ismbbkalnum              1008a700 f   LIBCMTD:ismbbyte.obj
 0001:00089720       __ismbbkprint_l            1008a720 f   LIBCMTD:ismbbyte.obj
 0001:00089740       __ismbbkprint              1008a740 f   LIBCMTD:ismbbyte.obj
 0001:00089760       __ismbbkpunct_l            1008a760 f   LIBCMTD:ismbbyte.obj
 0001:00089780       __ismbbkpunct              1008a780 f   LIBCMTD:ismbbyte.obj
 0001:000897a0       __ismbbalnum_l             1008a7a0 f   LIBCMTD:ismbbyte.obj
 0001:000897c0       __ismbbalnum               1008a7c0 f   LIBCMTD:ismbbyte.obj
 0001:000897e0       __ismbbalpha_l             1008a7e0 f   LIBCMTD:ismbbyte.obj
 0001:00089800       __ismbbalpha               1008a800 f   LIBCMTD:ismbbyte.obj
 0001:00089820       __ismbbgraph_l             1008a820 f   LIBCMTD:ismbbyte.obj
 0001:00089840       __ismbbgraph               1008a840 f   LIBCMTD:ismbbyte.obj
 0001:00089860       __ismbbprint_l             1008a860 f   LIBCMTD:ismbbyte.obj
 0001:00089880       __ismbbprint               1008a880 f   LIBCMTD:ismbbyte.obj
 0001:000898a0       __ismbbpunct_l             1008a8a0 f   LIBCMTD:ismbbyte.obj
 0001:000898c0       __ismbbpunct               1008a8c0 f   LIBCMTD:ismbbyte.obj
 0001:000898e0       __ismbblead_l              1008a8e0 f   LIBCMTD:ismbbyte.obj
 0001:00089900       __ismbblead                1008a900 f   LIBCMTD:ismbbyte.obj
 0001:00089920       __ismbbtrail_l             1008a920 f   LIBCMTD:ismbbyte.obj
 0001:00089940       __ismbbtrail               1008a940 f   LIBCMTD:ismbbyte.obj
 0001:00089960       __ismbbkana_l              1008a960 f   LIBCMTD:ismbbyte.obj
 0001:000899d0       __ismbbkana                1008a9d0 f   LIBCMTD:ismbbyte.obj
 0001:00089ac0       __local_unwind4            1008aac0 f   LIBCMTD:exsup4.obj
 0001:00089b96       __seh_longjmp_unwind4@4    1008ab96 f   LIBCMTD:exsup4.obj
 0001:00089bb2       @_EH4_CallFilterFunc@8     1008abb2 f   LIBCMTD:exsup4.obj
 0001:00089bc9       @_EH4_TransferToHandler@8  1008abc9 f   LIBCMTD:exsup4.obj
 0001:00089be2       @_EH4_GlobalUnwind2@8      1008abe2 f   LIBCMTD:exsup4.obj
 0001:00089bfb       @_EH4_LocalUnwind@16       1008abfb f   LIBCMTD:exsup4.obj
 0001:00089c20       __wmakepath_s              1008ac20 f   LIBCMTD:wmakepath_s.obj
 0001:00089fd0       __wsplitpath_s             1008afd0 f   LIBCMTD:wsplitpath_s.obj
 0001:0008a600       ___crtMessageBoxA          1008b600 f   LIBCMTD:crtmbox.obj
 0001:0008a820       __statusfp2                1008b820 f   LIBCMTD:_ieee87_.obj
 0001:0008a860       __statusfp                 1008b860 f   LIBCMTD:_ieee87_.obj
 0001:0008a8b0       __clearfp                  1008b8b0 f   LIBCMTD:_ieee87_.obj
 0001:0008a900       ___control87_2             1008b900 f   LIBCMTD:_ieee87_.obj
 0001:0008a9b0       __controlfp                1008b9b0 f   LIBCMTD:_ieee87_.obj
 0001:0008a9d0       __control87                1008b9d0 f i LIBCMTD:_ieee87_.obj
 0001:0008aa80       __set_controlfp            1008ba80 f   LIBCMTD:_ieee87_.obj
 0001:0008ab10       __fpreset                  1008bb10 f   LIBCMTD:_ieee87_.obj
 0001:0008b2d0       _$I10_OUTPUT               1008c2d0 f   LIBCMTD:_x10fout_.obj
 0001:0008b880       ___crtGetLocaleInfoA       1008c880 f   LIBCMTD:a_loc.obj
 0001:0008b9e0       __alloc_osfhnd             1008c9e0 f   LIBCMTD:osfinfo.obj
 0001:0008bc90       __set_osfhnd               1008cc90 f   LIBCMTD:osfinfo.obj
 0001:0008bd60       __free_osfhnd              1008cd60 f   LIBCMTD:osfinfo.obj
 0001:0008be50       __get_osfhandle            1008ce50 f   LIBCMTD:osfinfo.obj
 0001:0008bfc0       __open_osfhandle           1008cfc0 f   LIBCMTD:osfinfo.obj
 0001:0008c1f0       ___lock_fhandle            1008d1f0 f   LIBCMTD:osfinfo.obj
 0001:0008c2f0       __unlock_fhandle           1008d2f0 f   LIBCMTD:osfinfo.obj
 0001:0008c320       __putwch                   1008d320 f   LIBCMTD:putwch.obj
 0001:0008c3b0       __putwch_nolock            1008d3b0 f   LIBCMTD:putwch.obj
 0001:0008c400       _fputwc                    1008d400 f   LIBCMTD:fputwc.obj
 0001:0008c500       __fputwc_nolock            1008d500 f   LIBCMTD:fputwc.obj
 0001:0008c7f0       _putwc                     1008d7f0 f   LIBCMTD:fputwc.obj
 0001:0008c810       _fclose                    1008d810 f   LIBCMTD:fclose.obj
 0001:0008c920       __fclose_nolock            1008d920 f   LIBCMTD:fclose.obj
 0001:0008ca20       __output_s_l               1008da20 f   LIBCMTD:outputs.obj
 0001:0008dff0       __validate_param_reuseA    1008eff0 f   LIBCMTD:outputp.obj
 0001:0008e260       __output_p_l               1008f260 f   LIBCMTD:outputp.obj
 0001:00091e70       _get_crtdouble_arg         10092e70 f i LIBCMTD:outputp.obj
 0001:00091e90       _wcstol                    10092e90 f   LIBCMTD:wcstol.obj
 0001:00092260       __wcstol_l                 10093260 f   LIBCMTD:wcstol.obj
 0001:00092280       _wcstoul                   10093280 f   LIBCMTD:wcstol.obj
 0001:000922a0       __wcstoul_l                100932a0 f   LIBCMTD:wcstol.obj
 0001:000922c0       __mbstowcs_l_helper        100932c0 f   LIBCMTD:mbstowcs.obj
 0001:00092610       __mbstowcs_l               10093610 f   LIBCMTD:mbstowcs.obj
 0001:00092630       _mbstowcs                  10093630 f   LIBCMTD:mbstowcs.obj
 0001:00092680       __mbstowcs_s_l             10093680 f   LIBCMTD:mbstowcs.obj
 0001:00092a00       _mbstowcs_s                10093a00 f   LIBCMTD:mbstowcs.obj
 0001:00092a30       __vsnprintf_helper         10093a30 f   LIBCMTD:vsnprnc.obj
 0001:00092c20       __vsnprintf_c              10093c20 f   LIBCMTD:vsnprnc.obj
 0001:00092c70       __vsnprintf_c_l            10093c70 f   LIBCMTD:vsnprnc.obj
 0001:00092cc0       __vsprintf_s_l             10093cc0 f   LIBCMTD:vsnprnc.obj
 0001:00092f30       _vsprintf_s                10093f30 f   LIBCMTD:vsnprnc.obj
 0001:00092f60       __vsnprintf_s_l            10093f60 f   LIBCMTD:vsnprnc.obj
 0001:00093300       __vsnprintf_s              10094300 f   LIBCMTD:vsnprnc.obj
 0001:00093330       __vsprintf_p               10094330 f   LIBCMTD:vsnprnc.obj
 0001:00093380       __vsprintf_p_l             10094380 f   LIBCMTD:vsnprnc.obj
 0001:000933d0       __itoa_s                   100943d0 f   LIBCMTD:xtoas.obj
 0001:000937a0       __ltoa_s                   100947a0 f   LIBCMTD:xtoas.obj
 0001:000937e0       __ultoa_s                  100947e0 f   LIBCMTD:xtoas.obj
 0001:00093800       __i64toa_s                 10094800 f   LIBCMTD:xtoas.obj
 0001:00093c00       __ui64toa_s                10094c00 f   LIBCMTD:xtoas.obj
 0001:00093c20       __wcstombs_l_helper        10094c20 f   LIBCMTD:wcstombs.obj
 0001:00094160       __wcstombs_l               10095160 f   LIBCMTD:wcstombs.obj
 0001:00094180       _wcstombs                  10095180 f   LIBCMTD:wcstombs.obj
 0001:000941a0       __wcstombs_s_l             100951a0 f   LIBCMTD:wcstombs.obj
 0001:000944d0       _wcstombs_s                100954d0 f   LIBCMTD:wcstombs.obj
 0001:00094500       __vswprintf_l              10095500 f   LIBCMTD:vswprint.obj
 0001:000946f0       __vswprintf                100956f0 f   LIBCMTD:vswprint.obj
 0001:00094710       ___vswprintf_l             10095710 f   LIBCMTD:vswprint.obj
 0001:00094730       __vscwprintf_helper        10095730 f   LIBCMTD:vswprint.obj
 0001:00094810       __vscwprintf               10095810 f   LIBCMTD:vswprint.obj
 0001:00094830       __vscwprintf_l             10095830 f   LIBCMTD:vswprint.obj
 0001:00094850       __vscwprintf_p             10095850 f   LIBCMTD:vswprint.obj
 0001:00094870       __vscwprintf_p_l           10095870 f   LIBCMTD:vswprint.obj
 0001:00094890       ___InternalCxxFrameHandler 10095890 f   LIBCMTD:frame.obj
 0001:00094e90       ??0bad_exception@std@@QAE@PBD@Z 10095e90 f i LIBCMTD:frame.obj
 0001:00094ec0       ??1bad_exception@std@@UAE@XZ 10095ec0 f i LIBCMTD:frame.obj
 0001:00094ee0       ??_Gbad_exception@std@@UAEPAXI@Z 10095ee0 f i LIBCMTD:frame.obj
 0001:00094ee0       ??_Ebad_exception@std@@UAEPAXI@Z 10095ee0 f i LIBCMTD:frame.obj
 0001:00094f10       ??0bad_exception@std@@QAE@ABV01@@Z 10095f10 f i LIBCMTD:frame.obj
 0001:000950d0       ___TypeMatch               100960d0 f   LIBCMTD:frame.obj
 0001:00095180       ___FrameUnwindFilter       10096180 f   LIBCMTD:frame.obj
 0001:00095200       ___FrameUnwindToState      10096200 f   LIBCMTD:frame.obj
 0001:00095740       ___BuildCatchObjectHelper  10096740 f   LIBCMTD:frame.obj
 0001:000959b0       ___BuildCatchObject        100969b0 f   LIBCMTD:frame.obj
 0001:00095ac0       ___DestructExceptionObject 10096ac0 f   LIBCMTD:frame.obj
 0001:00095b70       ___AdjustPointer           10096b70 f   LIBCMTD:frame.obj
 0001:00095bc0       ?__uncaught_exception@@YA_NXZ 10096bc0 f   LIBCMTD:frame.obj
 0001:00095be0       ___CxxExceptionFilter      10096be0 f   LIBCMTD:frame.obj
 0001:00095de0       ___CxxRegisterExceptionObject 10096de0 f   LIBCMTD:frame.obj
 0001:00095f10       ___CxxDetectRethrow        10096f10 f   LIBCMTD:frame.obj
 0001:00095fa0       ___CxxUnregisterExceptionObject 10096fa0 f   LIBCMTD:frame.obj
 0001:00096120       ___CxxQueryExceptionSize   10097120 f   LIBCMTD:frame.obj
 0001:00096130       ___CxxCallUnwindDtor       10097130 f   LIBCMTD:frame.obj
 0001:000961b0       ___CxxCallUnwindDelDtor    100971b0 f   LIBCMTD:frame.obj
 0001:00096230       ___CxxCallUnwindStdDelDtor 10097230 f   LIBCMTD:frame.obj
 0001:000962b0       ___CxxCallUnwindVecDtor    100972b0 f   LIBCMTD:frame.obj
 0001:000964e0       ?_is_exception_typeof@@YAHABVtype_info@@PAU_EXCEPTION_POINTERS@@@Z 100974e0 f   LIBCMTD:frame.obj
 0001:000965c0       __CallSettingFrame@12      100975c0 f   LIBCMTD:lowhelpr.obj
 0001:000965e7       __NLG_Return               100975e7     LIBCMTD:lowhelpr.obj
 0001:00096610       __strnicmp_l               10097610 f   LIBCMTD:strnicmp.obj
 0001:00096850       __strnicmp                 10097850 f   LIBCMTD:strnicmp.obj
 0001:000969e0       _strnlen                   100979e0 f   LIBCMTD:strlen_s.obj
 0001:00096a20       __mbsnbicoll_l             10097a20 f   LIBCMTD:mbsnbico.obj
 0001:00096c60       __mbsnbicoll               10097c60 f   LIBCMTD:mbsnbico.obj
 0001:00096c80       ___wtomb_environ           10097c80 f   LIBCMTD:wtombenv.obj
 0001:00096d70       __read                     10097d70 f   LIBCMTD:read.obj
 0001:00097000       __read_nolock              10098000 f   LIBCMTD:read.obj
 0001:00097f50       _vprintf_helper            10098f50 f   LIBCMTD:vprintf.obj
 0001:00098070       __vprintf_l                10099070 f   LIBCMTD:vprintf.obj
 0001:00098090       __vprintf_s_l              10099090 f   LIBCMTD:vprintf.obj
 0001:000980b0       __vprintf_p_l              100990b0 f   LIBCMTD:vprintf.obj
 0001:000980d0       _vprintf                   100990d0 f   LIBCMTD:vprintf.obj
 0001:000980f0       _vprintf_s                 100990f0 f   LIBCMTD:vprintf.obj
 0001:00098110       __vprintf_p                10099110 f   LIBCMTD:vprintf.obj
 0001:00098130       _ldexp                     10099130 f   LIBCMTD:_ldexp_.obj
 0001:000983f0       __vsprintf_l               100993f0 f   LIBCMTD:vsprintf.obj
 0001:00098590       _vsprintf                  10099590 f   LIBCMTD:vsprintf.obj
 0001:000985b0       __vscprintf_helper         100995b0 f   LIBCMTD:vsprintf.obj
 0001:00098690       __vscprintf                10099690 f   LIBCMTD:vsprintf.obj
 0001:000986b0       __vscprintf_l              100996b0 f   LIBCMTD:vsprintf.obj
 0001:000986d0       __vscprintf_p              100996d0 f   LIBCMTD:vsprintf.obj
 0001:000986f0       __vscprintf_p_l            100996f0 f   LIBCMTD:vsprintf.obj
 0001:00098710       __global_unwind2           10099710 f   LIBCMTD:exsup.obj
 0001:00098775       __local_unwind2            10099775 f   LIBCMTD:exsup.obj
 0001:000987f9       __abnormal_termination     100997f9 f   LIBCMTD:exsup.obj
 0001:0009881c       __NLG_Notify1              1009981c f   LIBCMTD:exsup.obj
 0001:00098825       __NLG_Notify               10099825 f   LIBCMTD:exsup.obj
 0001:0009883c       __NLG_Dispatch             1009983c     LIBCMTD:exsup.obj
 0001:0009883c       __NLG_Dispatch2            1009983c     LIBCMTD:exsup.obj
 0001:00098844       __NLG_Call                 10099844 f   LIBCMTD:exsup.obj
 0001:00098846       __NLG_Return2              10099846     LIBCMTD:exsup.obj
 0001:00098850       ___initconout              10099850 f   LIBCMTD:initcon.obj
 0001:00098880       ___termconout              10099880 f   LIBCMTD:initcon.obj
 0001:000988b0       __flswbuf                  100998b0 f   LIBCMTD:_flswbuf.obj
 0001:00098b90       __close                    10099b90 f   LIBCMTD:close.obj
 0001:00098da0       __close_nolock             10099da0 f   LIBCMTD:close.obj
 0001:00098e70       __wchartodigit             10099e70 f   LIBCMTD:wchtodig.obj
 0001:000991a0       ?_ValidateRead@@YAHPBXI@Z  1009a1a0 f   LIBCMTD:validate.obj
 0001:000991d0       ?_ValidateWrite@@YAHPAXI@Z 1009a1d0 f   LIBCMTD:validate.obj
 0001:00099200       ?_ValidateExecute@@YAHP6GHXZ@Z 1009a200 f   LIBCMTD:validate.obj
 0001:00099230       __CxxThrowException@8      1009a230 f   LIBCMTD:throw.obj
 0001:00099290       ?name@type_info@@QBEPBDPAU__type_info_node@@@Z 1009a290 f   LIBCMTD:typinfo.obj
 0001:000992b0       ??1type_info@@UAE@XZ       1009a2b0 f   LIBCMTD:typinfo.obj
 0001:000992e0       ??_Gtype_info@@UAEPAXI@Z   1009a2e0 f i LIBCMTD:typinfo.obj
 0001:000992e0       ??_Etype_info@@UAEPAXI@Z   1009a2e0 f i LIBCMTD:typinfo.obj
 0001:00099310       ?_name_internal_method@type_info@@QBEPBDPAU__type_info_node@@@Z 1009a310 f   LIBCMTD:typinfo.obj
 0001:00099330       ?_type_info_dtor_internal_method@type_info@@QAEXXZ 1009a330 f   LIBCMTD:typinfo.obj
 0001:00099350       ??8type_info@@QBE_NABV0@@Z 1009a350 f   LIBCMTD:typinfo.obj
 0001:00099380       ??9type_info@@QBE_NABV0@@Z 1009a380 f   LIBCMTD:typinfo.obj
 0001:000993b0       ?before@type_info@@QBEHABV1@@Z 1009a3b0 f   LIBCMTD:typinfo.obj
 0001:000993e0       ?raw_name@type_info@@QBEPBDXZ 1009a3e0 f   LIBCMTD:typinfo.obj
 0001:00099400       ??0type_info@@AAE@ABV0@@Z  1009a400 f   LIBCMTD:typinfo.obj
 0001:00099420       ??4type_info@@AAEAAV0@ABV0@@Z 1009a420 f   LIBCMTD:typinfo.obj
 0001:00099440       ??0exception@std@@QAE@XZ   1009a440 f   LIBCMTD:stdexcpt.obj
 0001:00099470       ??_Gexception@std@@UAEPAXI@Z 1009a470 f i LIBCMTD:stdexcpt.obj
 0001:00099470       ??_Eexception@std@@UAEPAXI@Z 1009a470 f i LIBCMTD:stdexcpt.obj
 0001:000994a0       ??0exception@std@@QAE@ABQBD@Z 1009a4a0 f   LIBCMTD:stdexcpt.obj
 0001:000994e0       ??0exception@std@@QAE@ABQBDH@Z 1009a4e0 f   LIBCMTD:stdexcpt.obj
 0001:00099510       ??0exception@std@@QAE@ABV01@@Z 1009a510 f   LIBCMTD:stdexcpt.obj
 0001:00099550       ??4exception@std@@QAEAAV01@ABV01@@Z 1009a550 f   LIBCMTD:stdexcpt.obj
 0001:000995a0       ??1exception@std@@UAE@XZ   1009a5a0 f   LIBCMTD:stdexcpt.obj
 0001:000995c0       ?what@exception@std@@UBEPBDXZ 1009a5c0 f   LIBCMTD:stdexcpt.obj
 0001:000995f0       ?_Copy_str@exception@std@@AAEXPBD@Z 1009a5f0 f   LIBCMTD:stdexcpt.obj
 0001:00099660       ?_Tidy@exception@std@@AAEXXZ 1009a660 f   LIBCMTD:stdexcpt.obj
 0001:000996a0       ??0bad_cast@std@@QAE@PBD@Z 1009a6a0 f   LIBCMTD:stdexcpt.obj
 0001:000996d0       ??_Ebad_cast@std@@UAEPAXI@Z 1009a6d0 f i LIBCMTD:stdexcpt.obj
 0001:000996d0       ??_Gbad_cast@std@@UAEPAXI@Z 1009a6d0 f i LIBCMTD:stdexcpt.obj
 0001:00099700       ??0bad_cast@std@@QAE@ABV01@@Z 1009a700 f   LIBCMTD:stdexcpt.obj
 0001:00099730       ??1bad_cast@std@@UAE@XZ    1009a730 f   LIBCMTD:stdexcpt.obj
 0001:00099750       ??0bad_typeid@std@@QAE@PBD@Z 1009a750 f   LIBCMTD:stdexcpt.obj
 0001:00099780       ??_Ebad_typeid@std@@UAEPAXI@Z 1009a780 f i LIBCMTD:stdexcpt.obj
 0001:00099780       ??_Gbad_typeid@std@@UAEPAXI@Z 1009a780 f i LIBCMTD:stdexcpt.obj
 0001:000997b0       ??0bad_typeid@std@@QAE@ABV01@@Z 1009a7b0 f   LIBCMTD:stdexcpt.obj
 0001:000997e0       ??1bad_typeid@std@@UAE@XZ  1009a7e0 f   LIBCMTD:stdexcpt.obj
 0001:00099800       ??0__non_rtti_object@std@@QAE@PBD@Z 1009a800 f   LIBCMTD:stdexcpt.obj
 0001:00099830       ??_G__non_rtti_object@std@@UAEPAXI@Z 1009a830 f i LIBCMTD:stdexcpt.obj
 0001:00099830       ??_E__non_rtti_object@std@@UAEPAXI@Z 1009a830 f i LIBCMTD:stdexcpt.obj
 0001:00099860       ??0__non_rtti_object@std@@QAE@ABV01@@Z 1009a860 f   LIBCMTD:stdexcpt.obj
 0001:00099890       ??1__non_rtti_object@std@@UAE@XZ 1009a890 f   LIBCMTD:stdexcpt.obj
 0001:000998b0       ??3@YAXPAX@Z               1009a8b0 f   LIBCMTD:dbgdel.obj
 0001:000999a0       ___ascii_strnicmp          1009a9a0 f   LIBCMTD:_strnicm.obj
 0001:00099a10       ___crtCompareStringA       1009aa10 f   LIBCMTD:a_cmp.obj
 0001:00099e50       __strnicoll_l              1009ae50 f   LIBCMTD:strnicol.obj
 0001:0009a0a0       __strnicoll                1009b0a0 f   LIBCMTD:strnicol.obj
 0001:0009a0e0       ___crtsetenv               1009b0e0 f   LIBCMTD:setenv.obj
 0001:0009a760       ?_Type_info_dtor@type_info@@CAXPAV1@@Z 1009b760 f   LIBCMTD:typname.obj
 0001:0009a870       ?_Name_base@type_info@@CAPBDPBV1@PAU__type_info_node@@@Z 1009b870 f   LIBCMTD:typname.obj
 0001:0009aa20       ?_Type_info_dtor_internal@type_info@@CAXPAV1@@Z 1009ba20 f   LIBCMTD:typname.obj
 0001:0009ab30       ___unDNameHelper           1009bb30 f   LIBCMTD:typname.obj
 0001:0009ab70       ?_Name_base_internal@type_info@@CAPBDPBV1@PAU__type_info_node@@@Z 1009bb70 f   LIBCMTD:typname.obj
 0001:0009ad30       ___clean_type_info_names_internal 1009bd30 f   LIBCMTD:typname.obj
 0001:0009adf0       __mbschr_l                 1009bdf0 f   LIBCMTD:mbschr.obj
 0001:0009af80       __mbschr                   1009bf80 f   LIBCMTD:mbschr.obj
 0001:0009afa0       ___unDName                 1009bfa0 f   LIBCMTD:undname.obj
 0001:0009b080       ?Constructor@_HeapManager@@QAEXP6APAXI@ZP6AXPAX@Z@Z 1009c080 f i LIBCMTD:undname.obj
 0001:0009b0c0       ?Destructor@_HeapManager@@QAEXXZ 1009c0c0 f i LIBCMTD:undname.obj
 0001:0009b110       ___unDNameEx               1009c110 f   LIBCMTD:undname.obj
 0001:0009b1f0       ??0UnDecorator@@QAE@PADPBDHP6APADJ@ZK@Z 1009c1f0 f i LIBCMTD:undname.obj
 0001:0009b290       ??BUnDecorator@@QAEPADXZ   1009c290 f i LIBCMTD:undname.obj
 0001:0009b4c0       ?dbGetString@DName@@QBEPADXZ 1009c4c0 f   LIBCMTD:undname.obj
 0001:0009b4f0       ?getDecoratedName@UnDecorator@@CA?AVDName@@XZ 1009c4f0 f   LIBCMTD:undname.obj
 0001:0009b800       ?getSymbolName@UnDecorator@@CA?AVDName@@XZ 1009c800 f i LIBCMTD:undname.obj
 0001:0009b880       ?getZName@UnDecorator@@CA?AVDName@@_N0@Z 1009c880 f   LIBCMTD:undname.obj
 0001:0009bb20       ?getOperatorName@UnDecorator@@CA?AVDName@@_NPA_N@Z 1009cb20 f i LIBCMTD:undname.obj
 0001:0009c490       ?getStringEncoding@UnDecorator@@CA?AVDName@@PADH@Z 1009d490 f   LIBCMTD:undname.obj
 0001:0009c590       ?getScope@UnDecorator@@CA?AVDName@@XZ 1009d590 f   LIBCMTD:undname.obj
 0001:0009c970       ?getSignedDimension@UnDecorator@@CA?AVDName@@XZ 1009d970 f   LIBCMTD:undname.obj
 0001:0009c9f0       ?getDimension@UnDecorator@@CA?AVDName@@_N@Z 1009d9f0 f   LIBCMTD:undname.obj
 0001:0009cca0       ?getNumberOfDimensions@UnDecorator@@CAHXZ 1009dca0 f   LIBCMTD:undname.obj
 0001:0009cda0       ?getTemplateName@UnDecorator@@CA?AVDName@@_N@Z 1009dda0 f   LIBCMTD:undname.obj
 0001:0009cf60       ?getTemplateArgumentList@UnDecorator@@CA?AVDName@@XZ 1009df60 f   LIBCMTD:undname.obj
 0001:0009d1e0       ?getTemplateConstant@UnDecorator@@CA?AVDName@@XZ 1009e1e0 f   LIBCMTD:undname.obj
 0001:0009d670       ?composeDeclaration@UnDecorator@@CA?AVDName@@ABV2@@Z 1009e670 f i LIBCMTD:undname.obj
 0001:0009ec70       ?getTypeEncoding@UnDecorator@@CAHXZ 1009fc70 f i LIBCMTD:undname.obj
 0001:0009f6b0       ?getBasedType@UnDecorator@@CA?AVDName@@XZ 100a06b0 f   LIBCMTD:undname.obj
 0001:0009f770       ?getScopedName@UnDecorator@@CA?AVDName@@XZ 100a0770 f   LIBCMTD:undname.obj
 0001:0009f890       ?getCallingConvention@UnDecorator@@CA?AVDName@@XZ 100a0890 f   LIBCMTD:undname.obj
 0001:0009fa10       ?getReturnType@UnDecorator@@CA?AVDName@@PAV2@@Z 100a0a10 f   LIBCMTD:undname.obj
 0001:0009fa60       ?getDataType@UnDecorator@@CA?AVDName@@PAV2@@Z 100a0a60 f   LIBCMTD:undname.obj
 0001:0009fb80       ?getPrimaryDataType@UnDecorator@@CA?AVDName@@ABV2@@Z 100a0b80 f   LIBCMTD:undname.obj
 0001:0009ff20       ?getArgumentTypes@UnDecorator@@CA?AVDName@@XZ 100a0f20 f   LIBCMTD:undname.obj
 0001:000a0080       ?getArgumentList@UnDecorator@@CA?AVDName@@XZ 100a1080 f   LIBCMTD:undname.obj
 0001:000a01d0       ?getThrowTypes@UnDecorator@@CA?AVDName@@XZ 100a11d0 f   LIBCMTD:undname.obj
 0001:000a0280       ?getBasicDataType@UnDecorator@@CA?AVDName@@ABV2@@Z 100a1280 f   LIBCMTD:undname.obj
 0001:000a0840       ?getECSUDataType@UnDecorator@@CA?AVDName@@XZ 100a1840 f   LIBCMTD:undname.obj
 0001:000a0a10       ?getECSUName@UnDecorator@@CA?AVDName@@XZ 100a1a10 f i LIBCMTD:undname.obj
 0001:000a0a30       ?getEnumType@UnDecorator@@CA?AVDName@@XZ 100a1a30 f i LIBCMTD:undname.obj
 0001:000a0b80       ?getFunctionIndirectType@UnDecorator@@CA?AVDName@@ABV2@@Z 100a1b80 f   LIBCMTD:undname.obj
 0001:000a0fc0       ?getPtrRefType@UnDecorator@@CA?AVDName@@ABV2@0PBD@Z 100a1fc0 f   LIBCMTD:undname.obj
 0001:000a1120       ?getExtendedDataIndirectType@UnDecorator@@CA?AVDName@@AAPBDAA_NH@Z 100a2120 f   LIBCMTD:undname.obj
 0001:000a1340       ?getDataIndirectType@UnDecorator@@CA?AVDName@@ABV2@PBD0H@Z 100a2340 f   LIBCMTD:undname.obj
 0001:000a1a40       ?getPtrRefDataType@UnDecorator@@CA?AVDName@@ABV2@H@Z 100a2a40 f i LIBCMTD:undname.obj
 0001:000a1b80       ?getArrayType@UnDecorator@@CA?AVDName@@ABV2@@Z 100a2b80 f i LIBCMTD:undname.obj
 0001:000a1db0       ?getLexicalFrame@UnDecorator@@CA?AVDName@@XZ 100a2db0 f i LIBCMTD:undname.obj
 0001:000a1df0       ?getThisType@UnDecorator@@CA?AVDName@@XZ 100a2df0 f i LIBCMTD:undname.obj
 0001:000a1e30       ?getPointerType@UnDecorator@@CA?AVDName@@ABV2@0@Z 100a2e30 f i LIBCMTD:undname.obj
 0001:000a1e60       ?getPointerTypeArray@UnDecorator@@CA?AVDName@@ABV2@0@Z 100a2e60 f i LIBCMTD:undname.obj
 0001:000a1e90       ?getReferenceType@UnDecorator@@CA?AVDName@@ABV2@0PBD@Z 100a2e90 f i LIBCMTD:undname.obj
 0001:000a1ec0       ?getDisplacement@UnDecorator@@CA?AVDName@@XZ 100a2ec0 f i LIBCMTD:undname.obj
 0001:000a1ee0       ?getCallIndex@UnDecorator@@CA?AVDName@@XZ 100a2ee0 f i LIBCMTD:undname.obj
 0001:000a1f00       ?getGuardNumber@UnDecorator@@CA?AVDName@@XZ 100a2f00 f i LIBCMTD:undname.obj
 0001:000a1f20       ?getVbTableType@UnDecorator@@CA?AVDName@@ABV2@@Z 100a2f20 f i LIBCMTD:undname.obj
 0001:000a1f40       ?getVCallThunkType@UnDecorator@@CA?AVDName@@XZ 100a2f40 f i LIBCMTD:undname.obj
 0001:000a1fa0       ?getVfTableType@UnDecorator@@CA?AVDName@@ABV2@@Z 100a2fa0 f i LIBCMTD:undname.obj
 0001:000a2160       ?getStorageConvention@UnDecorator@@CA?AVDName@@XZ 100a3160 f i LIBCMTD:undname.obj
 0001:000a2180       ?getDataIndirectType@UnDecorator@@CA?AVDName@@XZ 100a3180 f i LIBCMTD:undname.obj
 0001:000a21c0       ?getVdispMapType@UnDecorator@@CA?AVDName@@ABV2@@Z 100a31c0 f i LIBCMTD:undname.obj
 0001:000a2230       ?getExternalDataType@UnDecorator@@CA?AVDName@@ABV2@@Z 100a3230 f i LIBCMTD:undname.obj
 0001:000a22c0       ?doMSKeywords@UnDecorator@@SAHXZ 100a32c0 f i LIBCMTD:undname.obj
 0001:000a22e0       ?doPtr64@UnDecorator@@SAHXZ 100a32e0 f i LIBCMTD:undname.obj
 0001:000a2300       ?doFunctionReturns@UnDecorator@@SAHXZ 100a3300 f i LIBCMTD:undname.obj
 0001:000a2320       ?doAllocationModel@UnDecorator@@SAHXZ 100a3320 f i LIBCMTD:undname.obj
 0001:000a2340       ?doAllocationLanguage@UnDecorator@@SAHXZ 100a3340 f i LIBCMTD:undname.obj
 0001:000a2360       ?doThisTypes@UnDecorator@@SAHXZ 100a3360 f i LIBCMTD:undname.obj
 0001:000a2380       ?doAccessSpecifiers@UnDecorator@@SAHXZ 100a3380 f i LIBCMTD:undname.obj
 0001:000a23a0       ?doThrowTypes@UnDecorator@@SAHXZ 100a33a0 f i LIBCMTD:undname.obj
 0001:000a23c0       ?doMemberTypes@UnDecorator@@SAHXZ 100a33c0 f i LIBCMTD:undname.obj
 0001:000a23e0       ?doNameOnly@UnDecorator@@SAHXZ 100a33e0 f i LIBCMTD:undname.obj
 0001:000a2400       ?doTypeOnly@UnDecorator@@SAHXZ 100a3400 f i LIBCMTD:undname.obj
 0001:000a2420       ?haveTemplateParameters@UnDecorator@@SAHXZ 100a3420 f i LIBCMTD:undname.obj
 0001:000a2440       ?doEcsu@UnDecorator@@SAHXZ 100a3440 f i LIBCMTD:undname.obj
 0001:000a2460       ?doEllipsis@UnDecorator@@SAHXZ 100a3460 f i LIBCMTD:undname.obj
 0001:000a2480       ?UScore@UnDecorator@@SAPBDW4Tokens@@@Z 100a3480 f   LIBCMTD:undname.obj
 0001:000a24b0       ?doUnderScore@UnDecorator@@SAHXZ 100a34b0 f i LIBCMTD:undname.obj
 0001:000a24d0       ??2@YAPAXIAAV_HeapManager@@H@Z 100a34d0 f i LIBCMTD:undname.obj
 0001:000a24f0       ?getMemory@_HeapManager@@QAEPAXIH@Z 100a34f0 f   LIBCMTD:undname.obj
 0001:000a2600       ??0Block@_HeapManager@@QAE@XZ 100a3600 f i LIBCMTD:undname.obj
 0001:000a2620       ??H@YA?AVDName@@DABV0@@Z   100a3620 f i LIBCMTD:undname.obj
 0001:000a2650       ??H@YA?AVDName@@W4DNameStatus@@ABV0@@Z 100a3650 f i LIBCMTD:undname.obj
 0001:000a2680       ??H@YA?AVDName@@PBDABV0@@Z 100a3680 f i LIBCMTD:undname.obj
 0001:000a26b0       ??0DName@@QAE@XZ           100a36b0 f i LIBCMTD:undname.obj
 0001:000a2770       ??0DName@@QAE@D@Z          100a3770 f   LIBCMTD:undname.obj
 0001:000a2850       ??0DName@@QAE@ABV0@@Z      100a3850 f i LIBCMTD:undname.obj
 0001:000a2880       ??0DName@@QAE@PAV0@@Z      100a3880 f   LIBCMTD:undname.obj
 0001:000a29b0       ??0DName@@QAE@PBD@Z        100a39b0 f   LIBCMTD:undname.obj
 0001:000a2aa0       ??0DName@@QAE@AAPBDD@Z     100a3aa0 f   LIBCMTD:undname.obj
 0001:000a2d60       ?doNoIdentCharCheck@UnDecorator@@SAHXZ 100a3d60 f i LIBCMTD:undname.obj
 0001:000a2d80       ??0DName@@QAE@_K@Z         100a3d80 f   LIBCMTD:undname.obj
 0001:000a2ec0       ??0DName@@QAE@_J@Z         100a3ec0 f   LIBCMTD:undname.obj
 0001:000a3040       ??0DName@@QAE@W4DNameStatus@@@Z 100a4040 f   LIBCMTD:undname.obj
 0001:000a3160       ?isValid@DName@@QBEHXZ     100a4160 f i LIBCMTD:undname.obj
 0001:000a3190       ?isEmpty@DName@@QBEHXZ     100a4190 f i LIBCMTD:undname.obj
 0001:000a31b0       ?status@DName@@QBE?AW4DNameStatus@@XZ 100a41b0 f i LIBCMTD:undname.obj
 0001:000a31d0       ?setPtrRef@DName@@QAEAAV1@XZ 100a41d0 f i LIBCMTD:undname.obj
 0001:000a3200       ?isPtrRef@DName@@QBEHXZ    100a4200 f i LIBCMTD:undname.obj
 0001:000a3220       ?isUDC@DName@@QBEHXZ       100a4220 f i LIBCMTD:undname.obj
 0001:000a3260       ?setIsUDC@DName@@QAEXXZ    100a4260 f i LIBCMTD:undname.obj
 0001:000a3290       ?isUDTThunk@DName@@QBEHXZ  100a4290 f i LIBCMTD:undname.obj
 0001:000a32d0       ?setIsArray@DName@@QAEXXZ  100a42d0 f i LIBCMTD:undname.obj
 0001:000a32f0       ?isArray@DName@@QBEHXZ     100a42f0 f i LIBCMTD:undname.obj
 0001:000a3310       ?isNoTE@DName@@QBEHXZ      100a4310 f i LIBCMTD:undname.obj
 0001:000a3330       ?setIsNoTE@DName@@QAEXXZ   100a4330 f i LIBCMTD:undname.obj
 0001:000a3350       ?isPinPtr@DName@@QBEHXZ    100a4350 f i LIBCMTD:undname.obj
 0001:000a3370       ?setIsPinPtr@DName@@QAEXXZ 100a4370 f i LIBCMTD:undname.obj
 0001:000a3390       ?isComArray@DName@@QBEHXZ  100a4390 f i LIBCMTD:undname.obj
 0001:000a33b0       ?setIsComArray@DName@@QAEXXZ 100a43b0 f i LIBCMTD:undname.obj
 0001:000a33d0       ?isVCallThunk@DName@@QBEHXZ 100a43d0 f i LIBCMTD:undname.obj
 0001:000a33f0       ?setIsVCallThunk@DName@@QAEXXZ 100a43f0 f i LIBCMTD:undname.obj
 0001:000a3410       ?length@DName@@QBEHXZ      100a4410 f i LIBCMTD:undname.obj
 0001:000a3440       ?getLastChar@DName@@QBEDXZ 100a4440 f i LIBCMTD:undname.obj
 0001:000a3470       ?getString@DName@@QBEPADPADH@Z 100a4470 f i LIBCMTD:undname.obj
 0001:000a3500       ?getString@DName@@QBEPADPAD0@Z 100a4500 f i LIBCMTD:undname.obj
 0001:000a3540       ??HDName@@QBE?AV0@D@Z      100a4540 f   LIBCMTD:undname.obj
 0001:000a3580       ??HDName@@QBE?AV0@PBD@Z    100a4580 f   LIBCMTD:undname.obj
 0001:000a35c0       ??HDName@@QBE?AV0@ABV0@@Z  100a45c0 f   LIBCMTD:undname.obj
 0001:000a3600       ??HDName@@QBE?AV0@PAV0@@Z  100a4600 f   LIBCMTD:undname.obj
 0001:000a3640       ??HDName@@QBE?AV0@W4DNameStatus@@@Z 100a4640 f   LIBCMTD:undname.obj
 0001:000a3680       ?append@DName@@AAEXPAVDNameNode@@@Z 100a4680 f   LIBCMTD:undname.obj
 0001:000a3710       ??YDName@@QAEAAV0@D@Z      100a4710 f   LIBCMTD:undname.obj
 0001:000a37a0       ??YDName@@QAEAAV0@PBD@Z    100a47a0 f   LIBCMTD:undname.obj
 0001:000a3840       ??YDName@@QAEAAV0@ABV0@@Z  100a4840 f   LIBCMTD:undname.obj
 0001:000a38b0       ??YDName@@QAEAAV0@PAV0@@Z  100a48b0 f   LIBCMTD:undname.obj
 0001:000a3970       ??YDName@@QAEAAV0@W4DNameStatus@@@Z 100a4970 f   LIBCMTD:undname.obj
 0001:000a39e0       ??_5DName@@QAEAAV0@ABV0@@Z 100a49e0 f   LIBCMTD:undname.obj
 0001:000a3a40       ??4DName@@QAEAAV0@D@Z      100a4a40 f i LIBCMTD:undname.obj
 0001:000a3b20       ??4DName@@QAEAAV0@PBD@Z    100a4b20 f   LIBCMTD:undname.obj
 0001:000a3c00       ??4DName@@QAEAAV0@ABV0@@Z  100a4c00 f   LIBCMTD:undname.obj
 0001:000a3c30       ??4DName@@QAEAAV0@PAV0@@Z  100a4c30 f   LIBCMTD:undname.obj
 0001:000a3d70       ??4DName@@QAEAAV0@W4DNameStatus@@@Z 100a4d70 f   LIBCMTD:undname.obj
 0001:000a3e70       ?doPchar@DName@@AAEXPBDH@Z 100a4e70 f   LIBCMTD:undname.obj
 0001:000a3fb0       ?isFull@Replicator@@QBEHXZ 100a4fb0 f i LIBCMTD:undname.obj
 0001:000a3fd0       ??0Replicator@@QAE@XZ      100a4fd0 f i LIBCMTD:undname.obj
 0001:000a3ff0       ??YReplicator@@QAEAAV0@ABVDName@@@Z 100a4ff0 f   LIBCMTD:undname.obj
 0001:000a4080       ??AReplicator@@QBE?AVDName@@H@Z 100a5080 f   LIBCMTD:undname.obj
 0001:000a40f0       ??0DNameNode@@IAE@XZ       100a50f0 f   LIBCMTD:undname.obj
 0001:000a4110       ??0charNode@@QAE@D@Z       100a5110 f   LIBCMTD:undname.obj
 0001:000a4140       ?length@charNode@@UBEHXZ   100a5140 f i LIBCMTD:undname.obj
 0001:000a4160       ?getLastChar@charNode@@UBEDXZ 100a5160 f i LIBCMTD:undname.obj
 0001:000a4180       ?getString@charNode@@UBEPADPAD0@Z 100a5180 f i LIBCMTD:undname.obj
 0001:000a41b0       ??0pcharNode@@QAE@PBDH@Z   100a51b0 f   LIBCMTD:undname.obj
 0001:000a4240       ?length@pcharNode@@UBEHXZ  100a5240 f i LIBCMTD:undname.obj
 0001:000a4260       ?getLastChar@pcharNode@@UBEDXZ 100a5260 f i LIBCMTD:undname.obj
 0001:000a42a0       ?getString@pcharNode@@UBEPADPAD0@Z 100a52a0 f i LIBCMTD:undname.obj
 0001:000a42d0       ?getStringHelper@@YAPADPAD00H@Z 100a52d0 f i LIBCMTD:undname.obj
 0001:000a4310       ??0pDNameNode@@QAE@PAVDName@@@Z 100a5310 f   LIBCMTD:undname.obj
 0001:000a4370       ?length@pDNameNode@@UBEHXZ 100a5370 f i LIBCMTD:undname.obj
 0001:000a43b0       ?getLastChar@pDNameNode@@UBEDXZ 100a53b0 f i LIBCMTD:undname.obj
 0001:000a43e0       ?getString@pDNameNode@@UBEPADPAD0@Z 100a53e0 f i LIBCMTD:undname.obj
 0001:000a4420       ??0DNameStatusNode@@AAE@W4DNameStatus@@@Z 100a5420 f   LIBCMTD:undname.obj
 0001:000a4470       ?length@DNameStatusNode@@UBEHXZ 100a5470 f i LIBCMTD:undname.obj
 0001:000a4490       ?getLastChar@DNameStatusNode@@UBEDXZ 100a5490 f i LIBCMTD:undname.obj
 0001:000a44b0       ?getString@DNameStatusNode@@UBEPADPAD0@Z 100a54b0 f i LIBCMTD:undname.obj
 0001:000a44f0       ?make@DNameStatusNode@@SAPAV1@W4DNameStatus@@@Z 100a54f0 f i LIBCMTD:undname.obj
 0001:000a45a0       ??0pairNode@@QAE@PAVDNameNode@@0@Z 100a55a0 f   LIBCMTD:undname.obj
 0001:000a45e0       ?length@pairNode@@UBEHXZ   100a55e0 f i LIBCMTD:undname.obj
 0001:000a4630       ?getLastChar@pairNode@@UBEDXZ 100a5630 f i LIBCMTD:undname.obj
 0001:000a4680       ?getString@pairNode@@UBEPADPAD0@Z 100a5680 f i LIBCMTD:undname.obj
 0001:000a47c0       __purecall                 100a57c0 f   LIBCMTD:purevirt.obj
 0001:000a4800       __set_purecall_handler     100a5800 f   LIBCMTD:purevirt.obj
 0001:000a4840       __get_purecall_handler     100a5840 f   LIBCMTD:purevirt.obj
 0001:000a4854       _GetModuleFileNameW@12     100a5854 f   kernel32:KERNEL32.dll
 0001:000a485a       _WriteConsoleW@20          100a585a f   kernel32:KERNEL32.dll
 0001:000a4860       _GetFileType@4             100a5860 f   kernel32:KERNEL32.dll
 0001:000a4866       _GetStdHandle@4            100a5866 f   kernel32:KERNEL32.dll
 0001:000a486c       _GetSystemTimeAsFileTime@4 100a586c f   kernel32:KERNEL32.dll
 0001:000a4872       _GetCurrentThreadId@0      100a5872 f   kernel32:KERNEL32.dll
 0001:000a4878       _DecodePointer@4           100a5878 f   kernel32:KERNEL32.dll
 0001:000a487e       _GetCommandLineA@0         100a587e f   kernel32:KERNEL32.dll
 0001:000a4884       _WideCharToMultiByte@32    100a5884 f   kernel32:KERNEL32.dll
 0001:000a488a       _IsDebuggerPresent@0       100a588a f   kernel32:KERNEL32.dll
 0001:000a4890       _MultiByteToWideChar@24    100a5890 f   kernel32:KERNEL32.dll
 0001:000a4896       _RaiseException@16         100a5896 f   kernel32:KERNEL32.dll
 0001:000a489c       _lstrlenA@4                100a589c f   kernel32:KERNEL32.dll
 0001:000a48a2       _GetProcAddress@8          100a58a2 f   kernel32:KERNEL32.dll
 0001:000a48a8       _LoadLibraryW@4            100a58a8 f   kernel32:KERNEL32.dll
 0001:000a48ae       _TerminateProcess@8        100a58ae f   kernel32:KERNEL32.dll
 0001:000a48b4       _GetCurrentProcess@0       100a58b4 f   kernel32:KERNEL32.dll
 0001:000a48ba       _UnhandledExceptionFilter@4 100a58ba f   kernel32:KERNEL32.dll
 0001:000a48c0       _SetUnhandledExceptionFilter@4 100a58c0 f   kernel32:KERNEL32.dll
 0001:000a48c6       _IsProcessorFeaturePresent@4 100a58c6 f   kernel32:KERNEL32.dll
 0001:000a48cc       _EncodePointer@4           100a58cc f   kernel32:KERNEL32.dll
 0001:000a48d2       _InterlockedIncrement@4    100a58d2 f   kernel32:KERNEL32.dll
 0001:000a48d8       _InterlockedDecrement@4    100a58d8 f   kernel32:KERNEL32.dll
 0001:000a48de       _GetModuleHandleW@4        100a58de f   kernel32:KERNEL32.dll
 0001:000a48e4       _ExitProcess@4             100a58e4 f   kernel32:KERNEL32.dll
 0001:000a48ea       _GetLastError@0            100a58ea f   kernel32:KERNEL32.dll
 0001:000a48f0       _SetConsoleCtrlHandler@8   100a58f0 f   kernel32:KERNEL32.dll
 0001:000a48f6       _EnterCriticalSection@4    100a58f6 f   kernel32:KERNEL32.dll
 0001:000a48fc       _LeaveCriticalSection@4    100a58fc f   kernel32:KERNEL32.dll
 0001:000a4902       _GetACP@0                  100a5902 f   kernel32:KERNEL32.dll
 0001:000a4908       _GetOEMCP@0                100a5908 f   kernel32:KERNEL32.dll
 0001:000a490e       _GetCPInfo@8               100a590e f   kernel32:KERNEL32.dll
 0001:000a4914       _IsValidCodePage@4         100a5914 f   kernel32:KERNEL32.dll
 0001:000a491a       _TlsAlloc@0                100a591a f   kernel32:KERNEL32.dll
 0001:000a4920       _TlsGetValue@4             100a5920 f   kernel32:KERNEL32.dll
 0001:000a4926       _TlsSetValue@8             100a5926 f   kernel32:KERNEL32.dll
 0001:000a492c       _TlsFree@4                 100a592c f   kernel32:KERNEL32.dll
 0001:000a4932       _SetLastError@4            100a5932 f   kernel32:KERNEL32.dll
 0001:000a4938       _GetCurrentThread@0        100a5938 f   kernel32:KERNEL32.dll
 0001:000a493e       _GetTimeZoneInformation@4  100a593e f   kernel32:KERNEL32.dll
 0001:000a4944       _LCMapStringW@24           100a5944 f   kernel32:KERNEL32.dll
 0001:000a494a       _HeapValidate@12           100a594a f   kernel32:KERNEL32.dll
 0001:000a4950       _IsBadReadPtr@8            100a5950 f   kernel32:KERNEL32.dll
 0001:000a4956       _SetHandleCount@4          100a5956 f   kernel32:KERNEL32.dll
 0001:000a495c       _InitializeCriticalSectionAndSpinCount@8 100a595c f   kernel32:KERNEL32.dll
 0001:000a4962       _GetStartupInfoW@4         100a5962 f   kernel32:KERNEL32.dll
 0001:000a4968       _DeleteCriticalSection@4   100a5968 f   kernel32:KERNEL32.dll
 0001:000a496e       _GetModuleFileNameA@12     100a596e f   kernel32:KERNEL32.dll
 0001:000a4974       _FreeEnvironmentStringsW@4 100a5974 f   kernel32:KERNEL32.dll
 0001:000a497a       _GetEnvironmentStringsW@0  100a597a f   kernel32:KERNEL32.dll
 0001:000a4980       _HeapCreate@12             100a5980 f   kernel32:KERNEL32.dll
 0001:000a4986       _HeapDestroy@4             100a5986 f   kernel32:KERNEL32.dll
 0001:000a498c       _QueryPerformanceCounter@4 100a598c f   kernel32:KERNEL32.dll
 0001:000a4992       _GetTickCount@0            100a5992 f   kernel32:KERNEL32.dll
 0001:000a4998       _GetCurrentProcessId@0     100a5998 f   kernel32:KERNEL32.dll
 0001:000a499e       _HeapFree@12               100a599e f   kernel32:KERNEL32.dll
 0001:000a49a4       _HeapAlloc@12              100a59a4 f   kernel32:KERNEL32.dll
 0001:000a49aa       _GetProcessHeap@0          100a59aa f   kernel32:KERNEL32.dll
 0001:000a49b0       _VirtualQuery@12           100a59b0 f   kernel32:KERNEL32.dll
 0001:000a49b6       _FreeLibrary@4             100a59b6 f   kernel32:KERNEL32.dll
 0001:000a49bc       _WriteFile@20              100a59bc f   kernel32:KERNEL32.dll
 0001:000a49c2       _FatalAppExitA@8           100a59c2 f   kernel32:KERNEL32.dll
 0001:000a49c8       _InterlockedExchange@8     100a59c8 f   kernel32:KERNEL32.dll
 0001:000a49ce       _GetLocaleInfoW@16         100a59ce f   kernel32:KERNEL32.dll
 0001:000a49d4       _FlushFileBuffers@4        100a59d4 f   kernel32:KERNEL32.dll
 0001:000a49da       _GetConsoleCP@0            100a59da f   kernel32:KERNEL32.dll
 0001:000a49e0       _GetConsoleMode@8          100a59e0 f   kernel32:KERNEL32.dll
 0001:000a49e6       _OutputDebugStringA@4      100a59e6 f   kernel32:KERNEL32.dll
 0001:000a49ec       _OutputDebugStringW@4      100a59ec f   kernel32:KERNEL32.dll
 0001:000a49f2       _RtlUnwind@16              100a59f2 f   kernel32:KERNEL32.dll
 0001:000a49f8       _GetStringTypeW@16         100a59f8 f   kernel32:KERNEL32.dll
 0001:000a49fe       _GetLocaleInfoA@16         100a59fe f   kernel32:KERNEL32.dll
 0001:000a4a04       _IsValidLocale@8           100a5a04 f   kernel32:KERNEL32.dll
 0001:000a4a0a       _EnumSystemLocalesA@8      100a5a0a f   kernel32:KERNEL32.dll
 0001:000a4a10       _GetUserDefaultLCID@0      100a5a10 f   kernel32:KERNEL32.dll
 0001:000a4a16       _SetFilePointer@16         100a5a16 f   kernel32:KERNEL32.dll
 0001:000a4a1c       _HeapReAlloc@16            100a5a1c f   kernel32:KERNEL32.dll
 0001:000a4a22       _HeapSize@12               100a5a22 f   kernel32:KERNEL32.dll
 0001:000a4a28       _HeapQueryInformation@20   100a5a28 f   kernel32:KERNEL32.dll
 0001:000a4a2e       _SetStdHandle@8            100a5a2e f   kernel32:KERNEL32.dll
 0001:000a4a34       _ReadFile@20               100a5a34 f   kernel32:KERNEL32.dll
 0001:000a4a3a       _CreateFileW@28            100a5a3a f   kernel32:KERNEL32.dll
 0001:000a4a40       _CloseHandle@4             100a5a40 f   kernel32:KERNEL32.dll
 0001:000a4a46       _CompareStringW@24         100a5a46 f   kernel32:KERNEL32.dll
 0001:000a4a4c       _SetEnvironmentVariableA@8 100a5a4c f   kernel32:KERNEL32.dll
 0002:00000000       __imp__GetModuleFileNameW@12 100a6000     kernel32:KERNEL32.dll
 0002:00000004       __imp__WriteConsoleW@20    100a6004     kernel32:KERNEL32.dll
 0002:00000008       __imp__GetFileType@4       100a6008     kernel32:KERNEL32.dll
 0002:0000000c       __imp__GetStdHandle@4      100a600c     kernel32:KERNEL32.dll
 0002:00000010       __imp__GetSystemTimeAsFileTime@4 100a6010     kernel32:KERNEL32.dll
 0002:00000014       __imp__GetCurrentThreadId@0 100a6014     kernel32:KERNEL32.dll
 0002:00000018       __imp__DecodePointer@4     100a6018     kernel32:KERNEL32.dll
 0002:0000001c       __imp__GetCommandLineA@0   100a601c     kernel32:KERNEL32.dll
 0002:00000020       __imp__WideCharToMultiByte@32 100a6020     kernel32:KERNEL32.dll
 0002:00000024       __imp__IsDebuggerPresent@0 100a6024     kernel32:KERNEL32.dll
 0002:00000028       __imp__MultiByteToWideChar@24 100a6028     kernel32:KERNEL32.dll
 0002:0000002c       __imp__RaiseException@16   100a602c     kernel32:KERNEL32.dll
 0002:00000030       __imp__lstrlenA@4          100a6030     kernel32:KERNEL32.dll
 0002:00000034       __imp__GetProcAddress@8    100a6034     kernel32:KERNEL32.dll
 0002:00000038       __imp__LoadLibraryW@4      100a6038     kernel32:KERNEL32.dll
 0002:0000003c       __imp__TerminateProcess@8  100a603c     kernel32:KERNEL32.dll
 0002:00000040       __imp__GetCurrentProcess@0 100a6040     kernel32:KERNEL32.dll
 0002:00000044       __imp__UnhandledExceptionFilter@4 100a6044     kernel32:KERNEL32.dll
 0002:00000048       __imp__SetUnhandledExceptionFilter@4 100a6048     kernel32:KERNEL32.dll
 0002:0000004c       __imp__IsProcessorFeaturePresent@4 100a604c     kernel32:KERNEL32.dll
 0002:00000050       __imp__EncodePointer@4     100a6050     kernel32:KERNEL32.dll
 0002:00000054       __imp__InterlockedIncrement@4 100a6054     kernel32:KERNEL32.dll
 0002:00000058       __imp__InterlockedDecrement@4 100a6058     kernel32:KERNEL32.dll
 0002:0000005c       __imp__GetModuleHandleW@4  100a605c     kernel32:KERNEL32.dll
 0002:00000060       __imp__ExitProcess@4       100a6060     kernel32:KERNEL32.dll
 0002:00000064       __imp__GetLastError@0      100a6064     kernel32:KERNEL32.dll
 0002:00000068       __imp__SetConsoleCtrlHandler@8 100a6068     kernel32:KERNEL32.dll
 0002:0000006c       __imp__EnterCriticalSection@4 100a606c     kernel32:KERNEL32.dll
 0002:00000070       __imp__LeaveCriticalSection@4 100a6070     kernel32:KERNEL32.dll
 0002:00000074       __imp__GetACP@0            100a6074     kernel32:KERNEL32.dll
 0002:00000078       __imp__GetOEMCP@0          100a6078     kernel32:KERNEL32.dll
 0002:0000007c       __imp__GetCPInfo@8         100a607c     kernel32:KERNEL32.dll
 0002:00000080       __imp__IsValidCodePage@4   100a6080     kernel32:KERNEL32.dll
 0002:00000084       __imp__TlsAlloc@0          100a6084     kernel32:KERNEL32.dll
 0002:00000088       __imp__TlsGetValue@4       100a6088     kernel32:KERNEL32.dll
 0002:0000008c       __imp__TlsSetValue@8       100a608c     kernel32:KERNEL32.dll
 0002:00000090       __imp__TlsFree@4           100a6090     kernel32:KERNEL32.dll
 0002:00000094       __imp__SetLastError@4      100a6094     kernel32:KERNEL32.dll
 0002:00000098       __imp__GetCurrentThread@0  100a6098     kernel32:KERNEL32.dll
 0002:0000009c       __imp__GetTimeZoneInformation@4 100a609c     kernel32:KERNEL32.dll
 0002:000000a0       __imp__LCMapStringW@24     100a60a0     kernel32:KERNEL32.dll
 0002:000000a4       __imp__HeapValidate@12     100a60a4     kernel32:KERNEL32.dll
 0002:000000a8       __imp__IsBadReadPtr@8      100a60a8     kernel32:KERNEL32.dll
 0002:000000ac       __imp__SetHandleCount@4    100a60ac     kernel32:KERNEL32.dll
 0002:000000b0       __imp__InitializeCriticalSectionAndSpinCount@8 100a60b0     kernel32:KERNEL32.dll
 0002:000000b4       __imp__GetStartupInfoW@4   100a60b4     kernel32:KERNEL32.dll
 0002:000000b8       __imp__DeleteCriticalSection@4 100a60b8     kernel32:KERNEL32.dll
 0002:000000bc       __imp__GetModuleFileNameA@12 100a60bc     kernel32:KERNEL32.dll
 0002:000000c0       __imp__FreeEnvironmentStringsW@4 100a60c0     kernel32:KERNEL32.dll
 0002:000000c4       __imp__GetEnvironmentStringsW@0 100a60c4     kernel32:KERNEL32.dll
 0002:000000c8       __imp__HeapCreate@12       100a60c8     kernel32:KERNEL32.dll
 0002:000000cc       __imp__HeapDestroy@4       100a60cc     kernel32:KERNEL32.dll
 0002:000000d0       __imp__QueryPerformanceCounter@4 100a60d0     kernel32:KERNEL32.dll
 0002:000000d4       __imp__GetTickCount@0      100a60d4     kernel32:KERNEL32.dll
 0002:000000d8       __imp__GetCurrentProcessId@0 100a60d8     kernel32:KERNEL32.dll
 0002:000000dc       __imp__HeapFree@12         100a60dc     kernel32:KERNEL32.dll
 0002:000000e0       __imp__HeapAlloc@12        100a60e0     kernel32:KERNEL32.dll
 0002:000000e4       __imp__GetProcessHeap@0    100a60e4     kernel32:KERNEL32.dll
 0002:000000e8       __imp__VirtualQuery@12     100a60e8     kernel32:KERNEL32.dll
 0002:000000ec       __imp__FreeLibrary@4       100a60ec     kernel32:KERNEL32.dll
 0002:000000f0       __imp__WriteFile@20        100a60f0     kernel32:KERNEL32.dll
 0002:000000f4       __imp__FatalAppExitA@8     100a60f4     kernel32:KERNEL32.dll
 0002:000000f8       __imp__InterlockedExchange@8 100a60f8     kernel32:KERNEL32.dll
 0002:000000fc       __imp__GetLocaleInfoW@16   100a60fc     kernel32:KERNEL32.dll
 0002:00000100       __imp__FlushFileBuffers@4  100a6100     kernel32:KERNEL32.dll
 0002:00000104       __imp__GetConsoleCP@0      100a6104     kernel32:KERNEL32.dll
 0002:00000108       __imp__GetConsoleMode@8    100a6108     kernel32:KERNEL32.dll
 0002:0000010c       __imp__OutputDebugStringA@4 100a610c     kernel32:KERNEL32.dll
 0002:00000110       __imp__OutputDebugStringW@4 100a6110     kernel32:KERNEL32.dll
 0002:00000114       __imp__RtlUnwind@16        100a6114     kernel32:KERNEL32.dll
 0002:00000118       __imp__GetStringTypeW@16   100a6118     kernel32:KERNEL32.dll
 0002:0000011c       __imp__GetLocaleInfoA@16   100a611c     kernel32:KERNEL32.dll
 0002:00000120       __imp__IsValidLocale@8     100a6120     kernel32:KERNEL32.dll
 0002:00000124       __imp__EnumSystemLocalesA@8 100a6124     kernel32:KERNEL32.dll
 0002:00000128       __imp__GetUserDefaultLCID@0 100a6128     kernel32:KERNEL32.dll
 0002:0000012c       __imp__SetFilePointer@16   100a612c     kernel32:KERNEL32.dll
 0002:00000130       __imp__HeapReAlloc@16      100a6130     kernel32:KERNEL32.dll
 0002:00000134       __imp__HeapSize@12         100a6134     kernel32:KERNEL32.dll
 0002:00000138       __imp__HeapQueryInformation@20 100a6138     kernel32:KERNEL32.dll
 0002:0000013c       __imp__SetStdHandle@8      100a613c     kernel32:KERNEL32.dll
 0002:00000140       __imp__ReadFile@20         100a6140     kernel32:KERNEL32.dll
 0002:00000144       __imp__CreateFileW@28      100a6144     kernel32:KERNEL32.dll
 0002:00000148       __imp__CloseHandle@4       100a6148     kernel32:KERNEL32.dll
 0002:0000014c       __imp__CompareStringW@24   100a614c     kernel32:KERNEL32.dll
 0002:00000150       __imp__SetEnvironmentVariableA@8 100a6150     kernel32:KERNEL32.dll
 0002:00000154       \177KERNEL32_NULL_THUNK_DATA 100a6154     kernel32:KERNEL32.dll
 0002:00000158       ___xc_a                    100a6158     LIBCMTD:crt0init.obj
 0002:0000015c       ___xc_z                    100a615c     LIBCMTD:crt0init.obj
 0002:00000160       ___xi_a                    100a6160     LIBCMTD:crt0init.obj
 0002:00000178       ___xi_z                    100a6178     LIBCMTD:crt0init.obj
 0002:0000017c       ___xp_a                    100a617c     LIBCMTD:crt0init.obj
 0002:0000018c       ___xp_z                    100a618c     LIBCMTD:crt0init.obj
 0002:00000190       ___xt_a                    100a6190     LIBCMTD:crt0init.obj
 0002:00000194       ___xt_z                    100a6194     LIBCMTD:crt0init.obj
 0002:00000458       __real@3ff0000000000000    100a6458     cg_boneposes.obj
 0002:00000460       __real@0000000000000000    100a6460     cg_boneposes.obj
 0002:00000548       __real@00000000            100a6548     cg_chat.obj
 0002:0000054c       __real@3f800000            100a654c     cg_chat.obj
 0002:00000c30       __real@4059000000000000    100a6c30     cg_cmds.obj
 0002:00000c38       __real@40c3878000000000    100a6c38     cg_cmds.obj
 0002:00000c40       __real@40dfffc000000000    100a6c40     cg_cmds.obj
 0002:00000ca8       __real@bfd0000000000000    100a6ca8     cg_damage_indicator.obj
 0002:00000cb0       __real@3fd0000000000000    100a6cb0     cg_damage_indicator.obj
 0002:00000d00       __real@3f50624de0000000    100a6d00     cg_decals.obj
 0002:00000d08       __real@408f400000000000    100a6d08     cg_decals.obj
 0002:00000d10       __real@3fe0000000000000    100a6d10     cg_decals.obj
 0002:00000d18       __real@406fe00000000000    100a6d18     cg_decals.obj
 0002:00000d20       __real@437f0000            100a6d20     cg_decals.obj
 0002:00000d28       __real@40a0000000000000    100a6d28     cg_decals.obj
 0002:00001af4       __real@42c00000            100a7af4     cg_democams.obj
 0002:00001af8       __real@c066800000000000    100a7af8     cg_democams.obj
 0002:00001b00       __real@4076800000000000    100a7b00     cg_democams.obj
 0002:00001b08       __real@4066800000000000    100a7b08     cg_democams.obj
 0002:00001b10       __real@3fe8000000000000    100a7b10     cg_democams.obj
 0002:00001b18       __real@3fd3333340000000    100a7b18     cg_democams.obj
 0002:00001b20       __real@45000000            100a7b20     cg_democams.obj
 0002:00001b28       __real@3f76800000000000    100a7b28     cg_democams.obj
 0002:00001b30       __real@437a0000            100a7b30     cg_democams.obj
 0002:00001b34       __real@43fa0000            100a7b34     cg_democams.obj
 0002:00001b38       __real@4014000000000000    100a7b38     cg_democams.obj
 0002:00001b40       __real@4008000000000000    100a7b40     cg_democams.obj
 0002:00001b48       __real@c000000000000000    100a7b48     cg_democams.obj
 0002:00001b50       __real@bff0000000000000    100a7b50     cg_democams.obj
 0002:00001b58       __real@4000000000000000    100a7b58     cg_democams.obj
 0002:00001b60       __real@40f0000000000000    100a7b60     cg_democams.obj
 0002:00001bb8       __real@3fc6800000000000    100a7bb8     cg_draw.obj
 0002:00001bc0       __real@bfe0000000000000    100a7bc0     cg_draw.obj
 0002:00001bc8       __real@401658ab9ebfa478    100a7bc8     cg_draw.obj
 0002:00001bd0       __real@3e99999a            100a7bd0     cg_draw.obj
 0002:00001bd4       __real@41f00000            100a7bd4     cg_draw.obj
 0002:00001bd8       __real@4024000000000000    100a7bd8     cg_draw.obj
 0002:00001be0       __real@42c80000            100a7be0     cg_draw.obj
 0002:00001c48       __real@4028000000000000    100a7c48     cg_effects.obj
 0002:00001c50       __real@4090000000000000    100a7c50     cg_effects.obj
 0002:00001c58       __real@4038000000000000    100a7c58     cg_effects.obj
 0002:00001c60       __real@4053000000000000    100a7c60     cg_effects.obj
 0002:00001c68       __real@3f733333            100a7c68     cg_effects.obj
 0002:00001c70       __real@c058000000000000    100a7c70     cg_effects.obj
 0002:00001c78       __real@4020000000000000    100a7c78     cg_effects.obj
 0002:00001c80       __real@3fd3333333333333    100a7c80     cg_effects.obj
 0002:00001c88       __real@c37a0000            100a7c88     cg_effects.obj
 0002:00001c90       __real@4034000000000000    100a7c90     cg_effects.obj
 0002:00001c98       __real@3fb999999999999a    100a7c98     cg_effects.obj
 0002:00001ca0       __real@3fe6666666666666    100a7ca0     cg_effects.obj
 0002:00001ca8       __real@4069000000000000    100a7ca8     cg_effects.obj
 0002:00001cb0       __real@3fc999999999999a    100a7cb0     cg_effects.obj
 0002:00001cb8       __real@3f59999a            100a7cb8     cg_effects.obj
 0002:00001cbc       __real@3e800000            100a7cbc     cg_effects.obj
 0002:00001cc0       __real@40200000            100a7cc0     cg_effects.obj
 0002:00001cc4       __real@40400000            100a7cc4     cg_effects.obj
 0002:00001cc8       __real@40000000            100a7cc8     cg_effects.obj
 0002:00001ccc       __real@3f4ccccd            100a7ccc     cg_effects.obj
 0002:00001cd0       __real@40a00000            100a7cd0     cg_effects.obj
 0002:00001cd8       __real@4044000000000000    100a7cd8     cg_effects.obj
 0002:00001ce0       __real@4056800000000000    100a7ce0     cg_effects.obj
 0002:00001ce8       __real@3fe3333333333333    100a7ce8     cg_effects.obj
 0002:00001cf0       __real@4010000000000000    100a7cf0     cg_effects.obj
 0002:00001cf8       __real@3fe99999a0000000    100a7cf8     cg_effects.obj
 0002:00001d00       __real@3f99999a            100a7d00     cg_effects.obj
 0002:00001d04       __real@41c00000            100a7d04     cg_effects.obj
 0002:00001d08       __real@40d3880000000000    100a7d08     cg_effects.obj
 0002:00001d10       __real@c2c80000            100a7d10     cg_effects.obj
 0002:00001d18       __real@4030000000000000    100a7d18     cg_effects.obj
 0002:00001d20       __real@4050000000000000    100a7d20     cg_effects.obj
 0002:00001d28       __real@3f847ae147ae147b    100a7d28     cg_effects.obj
 0002:0000209c       __real@41200000            100a809c     cg_ents.obj
 0002:000020a0       __real@4080000000000000    100a80a0     cg_ents.obj
 0002:000020a8       __real@42400000            100a80a8     cg_ents.obj
 0002:000020ac       __real@41600000            100a80ac     cg_ents.obj
 0002:000020b0       __real@bf50624de0000000    100a80b0     cg_ents.obj
 0002:000020b8       __real@430c0000            100a80b8     cg_ents.obj
 0002:000020c0       __real@4061800000000000    100a80c0     cg_ents.obj
 0002:000020c8       __real@404e000000000000    100a80c8     cg_ents.obj
 0002:000020d0       __real@42700000            100a80d0     cg_ents.obj
 0002:000020d8       __real@3fe4ccccc0000000    100a80d8     cg_ents.obj
 0002:000020e0       __real@43af0000            100a80e0     cg_ents.obj
 0002:000020e4       __real@42000000            100a80e4     cg_ents.obj
 0002:000020e8       __real@409f400000000000    100a80e8     cg_ents.obj
 0002:000020f0       __real@4052c00000000000    100a80f0     cg_ents.obj
 0002:000020f8       __real@4004000000000000    100a80f8     cg_ents.obj
 0002:00002100       __real@3f70101010101010    100a8100     cg_ents.obj
 0002:00002108       __real@43960000            100a8108     cg_ents.obj
 0002:0000210c       __real@3f600000            100a810c     cg_ents.obj
 0002:00002110       __real@3fecccccc0000000    100a8110     cg_ents.obj
 0002:00002118       __real@3f747ae140000000    100a8118     cg_ents.obj
 0002:00002120       __real@3ee4f8b580000000    100a8120     cg_ents.obj
 0002:00002128       __real@41400000            100a8128     cg_ents.obj
 0002:00002130       __real@3feb333340000000    100a8130     cg_ents.obj
 0002:00002138       __real@3ff6666660000000    100a8138     cg_ents.obj
 0002:00002140       __real@401921fb54442d18    100a8140     cg_ents.obj
 0002:00002148       __real@3f50624dd2f1a9fc    100a8148     cg_ents.obj
 0002:00002150       __real@4070000000000000    100a8150     cg_ents.obj
 0002:00002158       __real@c32f0000            100a8158     cg_ents.obj
 0002:0000215c       __real@be4ccccd            100a815c     cg_ents.obj
 0002:00002160       __real@400921fb54442d18    100a8160     cg_ents.obj
 0002:00002168       __real@4040000000000000    100a8168     cg_ents.obj
 0002:000022fc       __real@40c00000            100a82fc     cg_events.obj
 0002:00002300       __real@4018000000000000    100a8300     cg_events.obj
 0002:00002308       __real@3f400000            100a8308     cg_events.obj
 0002:0000230c       __real@3ec00000            100a830c     cg_events.obj
 0002:00002310       __real@3fc00000            100a8310     cg_events.obj
 0002:00002314       __real@42480000            100a8314     cg_events.obj
 0002:00002318       __real@4048000000000000    100a8318     cg_events.obj
 0002:00002320       __real@42820000            100a8320     cg_events.obj
 0002:00002328       __real@402e000000000000    100a8328     cg_events.obj
 0002:00002330       __real@3f000000            100a8330     cg_events.obj
 0002:00002334       __real@42fa0000            100a8334     cg_events.obj
 0002:00002338       __real@43070000            100a8338     cg_events.obj
 0002:0000233c       __real@3f2b851f            100a833c     cg_events.obj
 0002:00002340       __real@3ef0a3d7            100a8340     cg_events.obj
 0002:00002344       __real@3ef5c28f            100a8344     cg_events.obj
 0002:00002348       __real@41000000            100a8348     cg_events.obj
 0002:00004fc8       __real@4072c00000000000    100aafc8     cg_hud.obj
 0002:00004fd0       __real@4046800000000000    100aafd0     cg_hud.obj
 0002:00004fd8       __real@4074000000000000    100aafd8     cg_hud.obj
 0002:00004fe0       __real@4089000000000000    100aafe0     cg_hud.obj
 0002:00004fe8       __real@4082c00000000000    100aafe8     cg_hud.obj
 0002:00004ff0       __real@4479c000            100aaff0     cg_hud.obj
 0002:00004ff8       __real@408f380000000000    100aaff8     cg_hud.obj
 0002:00005080       __real@3f847ae140000000    100ab080     cg_lents.obj
 0002:00005088       __real@4085e00000000000    100ab088     cg_lents.obj
 0002:00005090       __real@40800000            100ab090     cg_lents.obj
 0002:00005094       __real@3f19999a            100ab094     cg_lents.obj
 0002:00005098       __real@42b40000            100ab098     cg_lents.obj
 0002:0000509c       __real@41800000            100ab09c     cg_lents.obj
 0002:000050a0       __real@42a00000            100ab0a0     cg_lents.obj
 0002:000050a4       __real@43160000            100ab0a4     cg_lents.obj
 0002:000050a8       __real@3fa00000            100ab0a8     cg_lents.obj
 0002:000050ac       __real@3f266666            100ab0ac     cg_lents.obj
 0002:000050b0       __real@3fc99999a0000000    100ab0b0     cg_lents.obj
 0002:000050b8       __real@3f0872b0            100ab0b8     cg_lents.obj
 0002:000050c0       __real@3fbeb851e0000000    100ab0c0     cg_lents.obj
 0002:000050c8       __real@40301999a0000000    100ab0c8     cg_lents.obj
 0002:000050d0       __real@3fe00000            100ab0d0     cg_lents.obj
 0002:000050d4       __real@41100000            100ab0d4     cg_lents.obj
 0002:000050d8       __real@40e00000            100ab0d8     cg_lents.obj
 0002:000050e0       __real@4050400000000000    100ab0e0     cg_lents.obj
 0002:000050e8       __real@41300000            100ab0e8     cg_lents.obj
 0002:000050ec       __real@3dcccccd            100ab0ec     cg_lents.obj
 0002:000050f0       __real@3fc3333340000000    100ab0f0     cg_lents.obj
 0002:000050f8       __real@c0239999a0000000    100ab0f8     cg_lents.obj
 0002:00005100       __real@4049000000000000    100ab100     cg_lents.obj
 0002:00005108       __real@3f333333            100ab108     cg_lents.obj
 0002:0000510c       __real@41a00000            100ab10c     cg_lents.obj
 0002:00005110       __real@c4d04000            100ab110     cg_lents.obj
 0002:00005118       __real@407a400000000000    100ab118     cg_lents.obj
 0002:00005120       __real@4079000000000000    100ab120     cg_lents.obj
 0002:00005128       __real@3c23d70a            100ab128     cg_lents.obj
 0002:00005130       __real@4070e00000000000    100ab130     cg_lents.obj
 0002:00005138       __real@c018000000000000    100ab138     cg_lents.obj
 0002:00005140       __real@4041800000000000    100ab140     cg_lents.obj
 0002:00005148       __real@401921e500000000    100ab148     cg_lents.obj
 0002:00005150       __real@3fc921e500000000    100ab150     cg_lents.obj
 0002:00005158       __real@c4610000            100ab158     cg_lents.obj
 0002:00005160       __real@405f400000000000    100ab160     cg_lents.obj
 0002:00005168       __real@407f400000000000    100ab168     cg_lents.obj
 0002:00005170       __real@c059000000000000    100ab170     cg_lents.obj
 0002:00005178       __real@42f00000            100ab178     cg_lents.obj
 0002:0000517c       __real@c3fa0000            100ab17c     cg_lents.obj
 0002:00005180       __real@43c80000            100ab180     cg_lents.obj
 0002:00005184       __real@43480000            100ab184     cg_lents.obj
 0002:00005188       __real@c069000000000000    100ab188     cg_lents.obj
 0002:00005190       __real@c3480000            100ab190     cg_lents.obj
 0002:00005198       __real@3fb99999a0000000    100ab198     cg_lents.obj
 0002:000051a0       __real@3fe999999999999a    100ab1a0     cg_lents.obj
 0002:000051a8       __real@401c000000000000    100ab1a8     cg_lents.obj
 0002:000051b0       __real@3fe3333340000000    100ab1b0     cg_lents.obj
 0002:000051b8       __real@3f926e9780000000    100ab1b8     cg_lents.obj
 0002:000051c0       __real@3faa9fbe80000000    100ab1c0     cg_lents.obj
 0002:000051c8       __real@3f80624de0000000    100ab1c8     cg_lents.obj
 0002:00005d98       __real@c02c000000000000    100abd98     cg_main.obj
 0002:00007cb8       __real@3f747ae147ae147b    100adcb8     cg_pmodels.obj
 0002:00007cc0       __real@44800000            100adcc0     cg_pmodels.obj
 0002:00007cc8       __real@3ff4000000000000    100adcc8     cg_pmodels.obj
 0002:00007cd0       __real@40600000            100adcd0     cg_pmodels.obj
 0002:00007cd8       __real@4088000000000000    100adcd8     cg_pmodels.obj
 0002:00007ce0       __real@3f0f5c29            100adce0     cg_pmodels.obj
 0002:00007ce4       __real@3ed70a3d            100adce4     cg_pmodels.obj
 0002:00007ce8       __real@4060000000000000    100adce8     cg_pmodels.obj
 0002:00007cf0       __real@3e0f5c29            100adcf0     cg_pmodels.obj
 0002:00007cf8       __real@c034000000000000    100adcf8     cg_pmodels.obj
 0002:00007d00       __real@c1a00000            100add00     cg_pmodels.obj
 0002:00007d04       __real@41700000            100add04     cg_pmodels.obj
 0002:00007d08       __real@c02e000000000000    100add08     cg_pmodels.obj
 0002:00007d10       __real@c1700000            100add10     cg_pmodels.obj
 0002:00007d14       __real@42340000            100add14     cg_pmodels.obj
 0002:00007d18       __real@c046800000000000    100add18     cg_pmodels.obj
 0002:00007d20       __real@c2340000            100add20     cg_pmodels.obj
 0002:00007d28       __real@3fd6666666666666    100add28     cg_pmodels.obj
 0002:00007d30       __real@3ffc000000000000    100add30     cg_pmodels.obj
 0002:00007d38       __real@42960000            100add38     cg_pmodels.obj
 0002:00007d40       __real@bfb999999999999a    100add40     cg_pmodels.obj
 0002:00007d48       __real@3d23d70a            100add48     cg_pmodels.obj
 0002:00007d50       __real@c076800000000000    100add50     cg_pmodels.obj
 0002:00007d58       __real@420c0000            100add58     cg_pmodels.obj
 0002:00007d60       __real@c041800000000000    100add60     cg_pmodels.obj
 0002:00007d68       __real@c20c0000            100add68     cg_pmodels.obj
 0002:00007d70       __real@c038000000000000    100add70     cg_pmodels.obj
 0002:00007dbc       __real@3eb4b4b5            100addbc     cg_polys.obj
 0002:00007dc0       __real@3eb33333            100addc0     cg_polys.obj
 0002:00007dc8       __real@4060e00000000000    100addc8     cg_polys.obj
 0002:00007dd0       __real@3fd99999a0000000    100addd0     cg_polys.obj
 0002:00007dd8       __real@3ecccccd            100addd8     cg_polys.obj
 0002:00007e70       __real@4062c00000000000    100ade70     cg_predict.obj
 0002:00008280       __real@c020000000000000    100ae280     cg_scoreboard.obj
 0002:00008288       __real@403a000000000000    100ae288     cg_scoreboard.obj
 0002:00008290       __real@3ff8000000000000    100ae290     cg_scoreboard.obj
 0002:00008298       __real@4070400000000000    100ae298     cg_scoreboard.obj
 0002:000082a0       __real@3fc3333333333333    100ae2a0     cg_scoreboard.obj
 0002:00008898       __real@400999999999999a    100ae898     cg_screen.obj
 0002:000088a0       __real@3fd54fdf3b645a1d    100ae8a0     cg_screen.obj
 0002:000088a8       __real@3c800000            100ae8a8     cg_screen.obj
 0002:000088b0       __real@3fb47ae147ae147b    100ae8b0     cg_screen.obj
 0002:000088b8       __real@3d4ccccd            100ae8b8     cg_screen.obj
 0002:000088bc       __real@3e4ccccd            100ae8bc     cg_screen.obj
 0002:00008b60       __real@3f91df46a2529d39    100aeb60     cg_view.obj
 0002:00008b68       __real@403ccccce0000000    100aeb68     cg_view.obj
 0002:00008b70       __real@c0800000            100aeb70     cg_view.obj
 0002:00008b78       __real@3f8eb851eb851eb8    100aeb78     cg_view.obj
 0002:00008b80       __real@3fb0000000000000    100aeb80     cg_view.obj
 0002:00008b88       __real@bf800000            100aeb88     cg_view.obj
 0002:00008b90       __real@4022000000000000    100aeb90     cg_view.obj
 0002:00008c44       __real@43200000            100aec44     cg_vweap.obj
 0002:00008c48       __real@4064000000000000    100aec48     cg_vweap.obj
 0002:00008c50       __real@3f60624dd2f1a9fc    100aec50     cg_vweap.obj
 0002:00008c58       __real@3f789374bc6a7efa    100aec58     cg_vweap.obj
 0002:00008c60       __real@3f889374bc6a7efa    100aec60     cg_vweap.obj
 0002:0000b658       __real@4036000000000000    100b1658     gs_misc.obj
 0002:0000b788       __real@406b800000000000    100b1788     gs_players.obj
 0002:0000b790       __real@403ccccccccccccd    100b1790     gs_players.obj
 0002:0000b818       __real@4085180000000000    100b1818     gs_pmove.obj
 0002:0000b820       __real@3fe51eb860000000    100b1820     gs_pmove.obj
 0002:0000b828       __real@43ed8000            100b1828     gs_pmove.obj
 0002:0000b82c       __real@4394c000            100b182c     gs_pmove.obj
 0002:0000b830       __real@3ff1000000000000    100b1830     gs_pmove.obj
 0002:0000b838       __real@3fee666666666666    100b1838     gs_pmove.obj
 0002:0000b840       __real@4032000000000000    100b1840     gs_pmove.obj
 0002:0000b848       __real@3f8147ae            100b1848     gs_pmove.obj
 0002:0000b850       __real@3fa999999999999a    100b1850     gs_pmove.obj
 0002:0000b858       __real@41c80000            100b1858     gs_pmove.obj
 0002:0000b860       __real@4039000000000000    100b1860     gs_pmove.obj
 0002:0000b868       __real@c039000000000000    100b1868     gs_pmove.obj
 0002:0000b870       __real@c1c80000            100b1870     gs_pmove.obj
 0002:0000b878       __real@406f400000000000    100b1878     gs_pmove.obj
 0002:0000b880       __real@8000000000000000    100b1880     gs_pmove.obj
 0002:0000b888       __real@3ff028f5c0000000    100b1888     gs_pmove.obj
 0002:0000b890       __real@3f666666            100b1890     gs_pmove.obj
 0002:0000b894       __real@44610000            100b1894     gs_pmove.obj
 0002:0000b898       __real@3e22680a            100b1898     gs_pmove.obj
 0002:0000b89c       __real@3f800054            100b189c     gs_pmove.obj
 0002:0000b8a0       __real@c024000000000000    100b18a0     gs_pmove.obj
 0002:0000b8a8       __real@3f801062            100b18a8     gs_pmove.obj
 0002:0000b8b0       __real@3ff0083126e978d5    100b18b0     gs_pmove.obj
 0002:0000b8b8       __real@3f8eb851e0000000    100b18b8     gs_pmove.obj
 0002:0000b8c0       __real@403e000000000000    100b18c0     gs_pmove.obj
 0002:0000be74       __real@bf000000            100b1e74     gs_weapons.obj
 0002:0000beb8       __real@c2b40000            100b1eb8     q_math.obj
 0002:0000bebc       __real@43870000            100b1ebc     q_math.obj
 0002:0000bec0       __real@4066c16c16c16c17    100b1ec0     q_math.obj
 0002:0000bec8       __real@4066600000000000    100b1ec8     q_math.obj
 0002:0000bed0       __real@44200000            100b1ed0     q_math.obj
 0002:0000bed4       __real@43f00000            100b1ed4     q_math.obj
 0002:0000bed8       __real@3ee4f8b588e368f1    100b1ed8     q_math.obj
 0002:0000bee0       __real@c7c34f80            100b1ee0     q_math.obj
 0002:0000bee4       __real@47c34f80            100b1ee4     q_math.obj
 0002:0000bee8       __real@43340000            100b1ee8     q_math.obj
 0002:0000bef0       __real@3f0a36e2eb1c432d    100b1ef0     q_math.obj
 0002:0000bef8       __real@3fefff2e48e8a71e    100b1ef8     q_math.obj
 0002:0000bf00       __real@40040d931ff62704    100b1f00     q_math.obj
 0002:0000bf08       __real@3fe4cccccccccccd    100b1f08     q_math.obj
 0002:0000bf10       __real@407b869ea974c7e5    100b1f10     q_math.obj
 0002:0000bf18       __real@4088ce9cb298974a    100b1f18     q_math.obj
 0002:0000bf20       __real@4083eaab47fa1777    100b1f20     q_math.obj
 0002:0000bf28       __real@4072890729ba7820    100b1f28     q_math.obj
 0002:0000bf30       __real@4055b1f78433a59a    100b1f30     q_math.obj
 0002:0000bf38       __real@4030106df11bd49d    100b1f38     q_math.obj
 0002:0000bf40       __real@3db504f3            100b1f40     q_math.obj
 0002:0000bf48       __real@406b869ea974c7e5    100b1f48     q_math.obj
 0002:0000bf50       __real@406ba6d5c7a28cf2    100b1f50     q_math.obj
 0002:0000bf58       __real@405c05131ca58d3c    100b1f58     q_math.obj
 0002:0000bf60       __real@4040f4d8cbb02431    100b1f60     q_math.obj
 0002:0000bf68       __real@40197eeff2a86f23    100b1f68     q_math.obj
 0002:0000bf70       __real@3fe66989be8ea71f    100b1f70     q_math.obj
 0002:0000bf78       __real@3fa20ded0b57fbde    100b1f78     q_math.obj
 0002:0000bf80       __real@401c48c6001f0aba    100b1f80     q_math.obj
 0002:0000bf88       __real@4042800000000000    100b1f88     q_math.obj
 0002:0000bfa0       _NUM_SOUND_EXTENSIONS      100b1fa0     q_shared.obj
 0002:0000bfcc       _NUM_IMAGE_EXTENSIONS      100b1fcc     q_shared.obj
 0002:0000ca48       __real@3f1a36e2eb1c432d    100b2a48     q_shared.obj
 0002:0000ca50       __real@4054000000000000    100b2a50     q_shared.obj
 0002:0000ca58       __FPinit                   100b2a58     LIBCMTD:_fpinit_.obj
 0002:0000ca5c       ??_C@_15IABLJNFO@?$AA?6?$AA?6?$AA?$AA@ 100b2a5c     LIBCMTD:wassert.obj
 0002:0000ca64       ??_C@_13LBAGMAIH@?$AA?6?$AA?$AA@ 100b2a64     LIBCMTD:wassert.obj
 0002:0000ca68       ??_C@_17LGKOMLJ@?$AA?4?$AA?4?$AA?4?$AA?$AA@ 100b2a68     LIBCMTD:wassert.obj
 0002:0000ca70       ??_C@_1EK@MBDPDCGA@?$AAM?$AAi?$AAc?$AAr?$AAo?$AAs?$AAo?$AAf?$AAt?$AA?5?$AAV?$AAi?$AAs?$AAu?$AAa?$AAl?$AA?5?$AAC?$AA?$CL?$AA?$CL?$AA?5?$AAR?$AAu?$AAn?$AAt?$AAi?$AAm?$AAe?$AA?5?$AAL?$AAi?$AAb@ 100b2a70     LIBCMTD:wassert.obj
 0002:0000cac0       ??_C@_1HK@POCJMFGK@?$AA?$CI?$AAP?$AAr?$AAe?$AAs?$AAs?$AA?5?$AAR?$AAe?$AAt?$AAr?$AAy?$AA?5?$AAt?$AAo?$AA?5?$AAd?$AAe?$AAb?$AAu?$AAg?$AA?5?$AAt?$AAh?$AAe?$AA?5?$AAa?$AAp?$AAp?$AAl?$AAi?$AAc@ 100b2ac0     LIBCMTD:wassert.obj
 0002:0000cb40       ??_C@_1LO@HBAMOOPN@?$AAw?$AAc?$AAs?$AAc?$AAa?$AAt?$AA_?$AAs?$AA?$CI?$AAa?$AAs?$AAs?$AAe?$AAr?$AAt?$AAb?$AAu?$AAf?$AA?0?$AA?5?$AA?$CI?$AA6?$AA0?$AA?5?$AA?$CK?$AA?5?$AA9?$AA?$CJ?$AA?0?$AA?5?$AAL?$AA?$CC@ 100b2b40     LIBCMTD:wassert.obj
 0002:0000cc00       ??_C@_1FG@GMPCGFKH@?$AAw?$AAc?$AAs?$AAc?$AAa?$AAt?$AA_?$AAs?$AA?$CI?$AAa?$AAs?$AAs?$AAe?$AAr?$AAt?$AAb?$AAu?$AAf?$AA?0?$AA?5?$AA?$CI?$AA6?$AA0?$AA?5?$AA?$CK?$AA?5?$AA9?$AA?$CJ?$AA?0?$AA?5?$AAd?$AAb@ 100b2c00     LIBCMTD:wassert.obj
 0002:0000cc58       ??_C@_1OA@EGMLFBHJ@?$AAF?$AAo?$AAr?$AA?5?$AAi?$AAn?$AAf?$AAo?$AAr?$AAm?$AAa?$AAt?$AAi?$AAo?$AAn?$AA?5?$AAo?$AAn?$AA?5?$AAh?$AAo?$AAw?$AA?5?$AAy?$AAo?$AAu?$AAr?$AA?5?$AAp?$AAr?$AAo?$AAg@ 100b2c58     LIBCMTD:wassert.obj
 0002:0000cd38       ??_C@_1BCO@FMFFDPPF@?$AAw?$AAc?$AAs?$AAc?$AAa?$AAt?$AA_?$AAs?$AA?$CI?$AAa?$AAs?$AAs?$AAe?$AAr?$AAt?$AAb?$AAu?$AAf?$AA?0?$AA?5?$AA?$CI?$AA6?$AA0?$AA?5?$AA?$CK?$AA?5?$AA9?$AA?$CJ?$AA?0?$AA?5?$AAL?$AA?$CC@ 100b2d38     LIBCMTD:wassert.obj
 0002:0000ce68       ??_C@_1EM@MBEKCGIC@?$AAw?$AAc?$AAs?$AAc?$AAa?$AAt?$AA_?$AAs?$AA?$CI?$AA?5?$AAa?$AAs?$AAs?$AAe?$AAr?$AAt?$AAb?$AAu?$AAf?$AA?0?$AA?5?$AA?$CI?$AA6?$AA0?$AA?5?$AA?$CK?$AA?5?$AA9?$AA?$CJ?$AA?0?$AA?5?$AAe@ 100b2e68     LIBCMTD:wassert.obj
 0002:0000ceb8       ??_C@_1CHM@CEIMNDLH@?$AAw?$AAc?$AAs?$AAn?$AAc?$AAa?$AAt?$AA_?$AAs?$AA?$CI?$AA?5?$AAa?$AAs?$AAs?$AAe?$AAr?$AAt?$AAb?$AAu?$AAf?$AA?0?$AA?5?$AA?$CI?$AA6?$AA0?$AA?5?$AA?$CK?$AA?5?$AA9?$AA?$CJ?$AA?0?$AA?5@ 100b2eb8     LIBCMTD:wassert.obj
 0002:0000d134       ??_C@_1BK@PEDCIPMA@?$AAE?$AAx?$AAp?$AAr?$AAe?$AAs?$AAs?$AAi?$AAo?$AAn?$AA?3?$AA?5?$AA?$AA@ 100b3134     LIBCMTD:wassert.obj
 0002:0000d150       ??_C@_1GC@HOBBPFHJ@?$AAw?$AAc?$AAs?$AAc?$AAa?$AAt?$AA_?$AAs?$AA?$CI?$AA?5?$AAa?$AAs?$AAs?$AAe?$AAr?$AAt?$AAb?$AAu?$AAf?$AA?0?$AA?5?$AA?$CI?$AA6?$AA0?$AA?5?$AA?$CK?$AA?5?$AA9?$AA?$CJ?$AA?0?$AA?5?$AAL@ 100b3150     LIBCMTD:wassert.obj
 0002:0000d1b8       ??_C@_1KG@CFEIMPNH@?$AA_?$AAi?$AAt?$AAo?$AAw?$AA_?$AAs?$AA?$CI?$AA?5?$AAl?$AAi?$AAn?$AAe?$AAn?$AAo?$AA?0?$AA?5?$AAa?$AAs?$AAs?$AAe?$AAr?$AAt?$AAb?$AAu?$AAf?$AA?5?$AA?$CL?$AA?5?$AAw?$AAc?$AAs@ 100b31b8     LIBCMTD:wassert.obj
 0002:0000d260       ??_C@_1O@KCAFKHJE@?$AAL?$AAi?$AAn?$AAe?$AA?3?$AA?5?$AA?$AA@ 100b3260     LIBCMTD:wassert.obj
 0002:0000d270       ??_C@_1FG@NHDGJLMI@?$AAw?$AAc?$AAs?$AAc?$AAa?$AAt?$AA_?$AAs?$AA?$CI?$AA?5?$AAa?$AAs?$AAs?$AAe?$AAr?$AAt?$AAb?$AAu?$AAf?$AA?0?$AA?5?$AA?$CI?$AA6?$AA0?$AA?5?$AA?$CK?$AA?5?$AA9?$AA?$CJ?$AA?0?$AA?5?$AAL@ 100b3270     LIBCMTD:wassert.obj
 0002:0000d2c8       ??_C@_1FE@IIFBBPFI@?$AAw?$AAc?$AAs?$AAc?$AAa?$AAt?$AA_?$AAs?$AA?$CI?$AA?5?$AAa?$AAs?$AAs?$AAe?$AAr?$AAt?$AAb?$AAu?$AAf?$AA?0?$AA?5?$AA?$CI?$AA6?$AA0?$AA?5?$AA?$CK?$AA?5?$AA9?$AA?$CJ?$AA?0?$AA?5?$AAf@ 100b32c8     LIBCMTD:wassert.obj
 0002:0000d320       ??_C@_1IC@CFFJBMAD@?$AAw?$AAc?$AAs?$AAc?$AAa?$AAt?$AA_?$AAs?$AA?$CI?$AA?5?$AAa?$AAs?$AAs?$AAe?$AAr?$AAt?$AAb?$AAu?$AAf?$AA?0?$AA?5?$AA?$CI?$AA6?$AA0?$AA?5?$AA?$CK?$AA?5?$AA9?$AA?$CJ?$AA?0?$AA?5?$AAp@ 100b3320     LIBCMTD:wassert.obj
 0002:0000d3a8       ??_C@_1HG@OJJMBIKO@?$AAw?$AAc?$AAs?$AAn?$AAc?$AAa?$AAt?$AA_?$AAs?$AA?$CI?$AA?5?$AAa?$AAs?$AAs?$AAe?$AAr?$AAt?$AAb?$AAu?$AAf?$AA?0?$AA?5?$AA?$CI?$AA6?$AA0?$AA?5?$AA?$CK?$AA?5?$AA9?$AA?$CJ?$AA?0?$AA?5@ 100b33a8     LIBCMTD:wassert.obj
 0002:0000d420       ??_C@_1GO@BIHLMMND@?$AAw?$AAc?$AAs?$AAn?$AAc?$AAa?$AAt?$AA_?$AAs?$AA?$CI?$AA?5?$AAa?$AAs?$AAs?$AAe?$AAr?$AAt?$AAb?$AAu?$AAf?$AA?0?$AA?5?$AA?$CI?$AA6?$AA0?$AA?5?$AA?$CK?$AA?5?$AA9?$AA?$CJ?$AA?0?$AA?5@ 100b3420     LIBCMTD:wassert.obj
 0002:0000d490       ??_C@_1FO@IJLLDBEB@?$AAw?$AAc?$AAs?$AAc?$AAa?$AAt?$AA_?$AAs?$AA?$CI?$AA?5?$AAa?$AAs?$AAs?$AAe?$AAr?$AAt?$AAb?$AAu?$AAf?$AA?0?$AA?5?$AA?$CI?$AA6?$AA0?$AA?5?$AA?$CK?$AA?5?$AA9?$AA?$CJ?$AA?0?$AA?5?$AAp@ 100b3490     LIBCMTD:wassert.obj
 0002:0000d4f0       ??_C@_1FG@CLEECKIJ@?$AAw?$AAc?$AAs?$AAc?$AAa?$AAt?$AA_?$AAs?$AA?$CI?$AA?5?$AAa?$AAs?$AAs?$AAe?$AAr?$AAt?$AAb?$AAu?$AAf?$AA?0?$AA?5?$AA?$CI?$AA6?$AA0?$AA?5?$AA?$CK?$AA?5?$AA9?$AA?$CJ?$AA?0?$AA?5?$AAd@ 100b34f0     LIBCMTD:wassert.obj
 0002:0000d548       ??_C@_1GG@PMHOPJKA@?$AAw?$AAc?$AAs?$AAn?$AAc?$AAa?$AAt?$AA_?$AAs?$AA?$CI?$AA?5?$AAa?$AAs?$AAs?$AAe?$AAr?$AAt?$AAb?$AAu?$AAf?$AA?0?$AA?5?$AA?$CI?$AA6?$AA0?$AA?5?$AA?$CK?$AA?5?$AA9?$AA?$CJ?$AA?0?$AA?5@ 100b3548     LIBCMTD:wassert.obj
 0002:0000d5b0       ??_C@_1O@HEMHKNDC@?$AAF?$AAi?$AAl?$AAe?$AA?3?$AA?5?$AA?$AA@ 100b35b0     LIBCMTD:wassert.obj
 0002:0000d5c0       ??_C@_1FG@HIDBOJF@?$AAw?$AAc?$AAs?$AAc?$AAa?$AAt?$AA_?$AAs?$AA?$CI?$AA?5?$AAa?$AAs?$AAs?$AAe?$AAr?$AAt?$AAb?$AAu?$AAf?$AA?0?$AA?5?$AA?$CI?$AA6?$AA0?$AA?5?$AA?$CK?$AA?5?$AA9?$AA?$CJ?$AA?0?$AA?5?$AAL@ 100b35c0     LIBCMTD:wassert.obj
 0002:0000d618       ??_C@_1FC@FFKGGIKO@?$AAw?$AAc?$AAs?$AAc?$AAa?$AAt?$AA_?$AAs?$AA?$CI?$AA?5?$AAa?$AAs?$AAs?$AAe?$AAr?$AAt?$AAb?$AAu?$AAf?$AA?0?$AA?5?$AA?$CI?$AA6?$AA0?$AA?5?$AA?$CK?$AA?5?$AA9?$AA?$CJ?$AA?0?$AA?5?$AAn@ 100b3618     LIBCMTD:wassert.obj
 0002:0000d670       ??_C@_1EK@BDNABPEK@?$AAw?$AAc?$AAs?$AAc?$AAa?$AAt?$AA_?$AAs?$AA?$CI?$AA?5?$AAa?$AAs?$AAs?$AAe?$AAr?$AAt?$AAb?$AAu?$AAf?$AA?0?$AA?5?$AA?$CI?$AA6?$AA0?$AA?5?$AA?$CK?$AA?5?$AA9?$AA?$CJ?$AA?0?$AA?5?$AAp@ 100b3670     LIBCMTD:wassert.obj
 0002:0000d6c0       ??_C@_1HK@JKBDGMGN@?$AAw?$AAc?$AAs?$AAn?$AAc?$AAp?$AAy?$AA_?$AAs?$AA?$CI?$AA?5?$AAp?$AAc?$AAh?$AA?0?$AA?5?$AA?$CI?$AA2?$AA6?$AA0?$AA?5?$AA?$CL?$AA?5?$AA1?$AA?$CJ?$AA?5?$AA?9?$AA?5?$AA?$CI?$AAp?$AAc?$AAh@ 100b36c0     LIBCMTD:wassert.obj
 0002:0000d73c       ??_C@_1CO@EAEJAADC@?$AA?$DM?$AAp?$AAr?$AAo?$AAg?$AAr?$AAa?$AAm?$AA?5?$AAn?$AAa?$AAm?$AAe?$AA?5?$AAu?$AAn?$AAk?$AAn?$AAo?$AAw?$AAn?$AA?$DO?$AA?$AA@ 100b373c     LIBCMTD:wassert.obj
 0002:0000d770       ??_C@_1HA@EPFCONEE@?$AAw?$AAc?$AAs?$AAc?$AAp?$AAy?$AA_?$AAs?$AA?$CI?$AA?5?$AAp?$AAr?$AAo?$AAg?$AAn?$AAa?$AAm?$AAe?$AA?0?$AA?5?$AA2?$AA6?$AA0?$AA?5?$AA?$CL?$AA?5?$AA1?$AA?0?$AA?5?$AAL?$AA?$CC?$AA?$DM@ 100b3770     LIBCMTD:wassert.obj
 0002:0000d7e0       ??_C@_1BE@PHKBBGE@?$AAP?$AAr?$AAo?$AAg?$AAr?$AAa?$AAm?$AA?3?$AA?5?$AA?$AA@ 100b37e0     LIBCMTD:wassert.obj
 0002:0000d7f8       ??_C@_1FM@LKICECBD@?$AAw?$AAc?$AAs?$AAc?$AAa?$AAt?$AA_?$AAs?$AA?$CI?$AA?5?$AAa?$AAs?$AAs?$AAe?$AAr?$AAt?$AAb?$AAu?$AAf?$AA?0?$AA?5?$AA?$CI?$AA6?$AA0?$AA?5?$AA?$CK?$AA?5?$AA9?$AA?$CJ?$AA?0?$AA?5?$AAL@ 100b37f8     LIBCMTD:wassert.obj
 0002:0000d858       ??_C@_1FI@JIGMFG@?$AAw?$AAc?$AAs?$AAc?$AAa?$AAt?$AA_?$AAs?$AA?$CI?$AA?5?$AAa?$AAs?$AAs?$AAe?$AAr?$AAt?$AAb?$AAu?$AAf?$AA?0?$AA?5?$AA?$CI?$AA6?$AA0?$AA?5?$AA?$CK?$AA?5?$AA9?$AA?$CJ?$AA?0?$AA?5?$AAd@ 100b3858     LIBCMTD:wassert.obj
 0002:0000d8b0       ??_C@_1CE@OJBNHDMO@?$AAA?$AAs?$AAs?$AAe?$AAr?$AAt?$AAi?$AAo?$AAn?$AA?5?$AAf?$AAa?$AAi?$AAl?$AAe?$AAd?$AA?$CB?$AA?$AA@ 100b38b0     LIBCMTD:wassert.obj
 0002:0000d8d8       ??_C@_1GM@EFCJNBAA@?$AAw?$AAc?$AAs?$AAc?$AAp?$AAy?$AA_?$AAs?$AA?$CI?$AA?5?$AAa?$AAs?$AAs?$AAe?$AAr?$AAt?$AAb?$AAu?$AAf?$AA?0?$AA?5?$AA?$CI?$AA6?$AA0?$AA?5?$AA?$CK?$AA?5?$AA9?$AA?$CJ?$AA?0?$AA?5?$AAL@ 100b38d8     LIBCMTD:wassert.obj
 0002:0000d944       ??_C@_1BC@LNOOMFNA@?$AA_?$AAw?$AAa?$AAs?$AAs?$AAe?$AAr?$AAt?$AA?$AA@ 100b3944     LIBCMTD:wassert.obj
 0002:0000d958       ??_C@_1GA@COEIABIF@?$AAf?$AA?3?$AA?2?$AAd?$AAd?$AA?2?$AAv?$AAc?$AAt?$AAo?$AAo?$AAl?$AAs?$AA?2?$AAc?$AAr?$AAt?$AA_?$AAb?$AAl?$AAd?$AA?2?$AAs?$AAe?$AAl?$AAf?$AA_?$AAx?$AA8?$AA6?$AA?2?$AAc@ 100b3958     LIBCMTD:wassert.obj
 0002:0000d9b8       ?ProcessDetach@NativeDll@<CrtImplementationDetails>@@0IB 100b39b8     LIBCMTD:stricmp.obj
 0002:0000d9bc       ?ProcessAttach@NativeDll@<CrtImplementationDetails>@@0IB 100b39bc     LIBCMTD:stricmp.obj
 0002:0000d9c0       ?ThreadAttach@NativeDll@<CrtImplementationDetails>@@0IB 100b39c0     LIBCMTD:stricmp.obj
 0002:0000d9c4       ?ThreadDetach@NativeDll@<CrtImplementationDetails>@@0IB 100b39c4     LIBCMTD:stricmp.obj
 0002:0000d9c8       ?ProcessVerifier@NativeDll@<CrtImplementationDetails>@@0IB 100b39c8     LIBCMTD:stricmp.obj
 0002:0000d9cc       ??_C@_1BI@DCHLDCPP@?$AAs?$AAr?$AAc?$AA?5?$AA?$CB?$AA?$DN?$AA?5?$AAN?$AAU?$AAL?$AAL?$AA?$AA@ 100b39cc     LIBCMTD:stricmp.obj
 0002:0000d9e4       ??_C@_1BG@GLLONOEH@?$AA_?$AAs?$AAt?$AAr?$AAi?$AAc?$AAm?$AAp?$AA_?$AAl?$AA?$AA@ 100b39e4     LIBCMTD:stricmp.obj
 0002:0000da00       ??_C@_1GC@OILHAOLL@?$AAf?$AA?3?$AA?2?$AAd?$AAd?$AA?2?$AAv?$AAc?$AAt?$AAo?$AAo?$AAl?$AAs?$AA?2?$AAc?$AAr?$AAt?$AA_?$AAb?$AAl?$AAd?$AA?2?$AAs?$AAe?$AAl?$AAf?$AA_?$AAx?$AA8?$AA6?$AA?2?$AAc@ 100b3a00     LIBCMTD:stricmp.obj
 0002:0000da64       ??_C@_1BI@GKKCBDMD@?$AAd?$AAs?$AAt?$AA?5?$AA?$CB?$AA?$DN?$AA?5?$AAN?$AAU?$AAL?$AAL?$AA?$AA@ 100b3a64     LIBCMTD:stricmp.obj
 0002:0000da7c       ??_C@_1BC@JLGKKIIG@?$AA_?$AAs?$AAt?$AAr?$AAi?$AAc?$AAm?$AAp?$AA?$AA@ 100b3a7c     LIBCMTD:stricmp.obj
 0002:0000da90       ??_C@_1DC@CMKCHHFC@?$AA_?$AAg?$AAe?$AAt?$AA_?$AAt?$AAi?$AAm?$AAe?$AAz?$AAo?$AAn?$AAe?$AA?$CI?$AA?$CG?$AAt?$AAi?$AAm?$AAe?$AAz?$AAo?$AAn?$AAe?$AA?$CJ?$AA?$AA@ 100b3a90     LIBCMTD:loctim64.obj
 0002:0000dac4       ??_C@_1CO@IMMOMMCB@?$AA_?$AAg?$AAe?$AAt?$AA_?$AAd?$AAs?$AAt?$AAb?$AAi?$AAa?$AAs?$AA?$CI?$AA?$CG?$AAd?$AAs?$AAt?$AAb?$AAi?$AAa?$AAs?$AA?$CJ?$AA?$AA@ 100b3ac4     LIBCMTD:loctim64.obj
 0002:0000daf4       ??_C@_1DC@MEHEMOPB@?$AA_?$AAg?$AAe?$AAt?$AA_?$AAd?$AAa?$AAy?$AAl?$AAi?$AAg?$AAh?$AAt?$AA?$CI?$AA?$CG?$AAd?$AAa?$AAy?$AAl?$AAi?$AAg?$AAh?$AAt?$AA?$CJ?$AA?$AA@ 100b3af4     LIBCMTD:loctim64.obj
 0002:0000db28       ??_C@_1CE@EHHPAMNN@?$AA?$CI?$AA?5?$AAp?$AAt?$AAi?$AAm?$AAe?$AA?5?$AA?$CB?$AA?$DN?$AA?5?$AAN?$AAU?$AAL?$AAL?$AA?5?$AA?$CJ?$AA?$AA@ 100b3b28     LIBCMTD:loctim64.obj
 0002:0000db4c       ??_C@_1BO@OIBEEOEM@?$AA_?$AAl?$AAo?$AAc?$AAa?$AAl?$AAt?$AAi?$AAm?$AAe?$AA6?$AA4?$AA_?$AAs?$AA?$AA@ 100b3b4c     LIBCMTD:loctim64.obj
 0002:0000db70       ??_C@_1GE@FPHBIHGB@?$AAf?$AA?3?$AA?2?$AAd?$AAd?$AA?2?$AAv?$AAc?$AAt?$AAo?$AAo?$AAl?$AAs?$AA?2?$AAc?$AAr?$AAt?$AA_?$AAb?$AAl?$AAd?$AA?2?$AAs?$AAe?$AAl?$AAf?$AA_?$AAx?$AA8?$AA6?$AA?2?$AAc@ 100b3b70     LIBCMTD:loctim64.obj
 0002:0000dbd4       ??_C@_1CA@NJFECEIO@?$AA?$CI?$AA?5?$AAp?$AAt?$AAm?$AA?5?$AA?$CB?$AA?$DN?$AA?5?$AAN?$AAU?$AAL?$AAL?$AA?5?$AA?$CJ?$AA?$AA@ 100b3bd4     LIBCMTD:loctim64.obj
 0002:0000dbf4       ??_C@_1BA@NJCJMLHI@?$AA_?$AAa?$AAt?$AAo?$AAf?$AA_?$AAl?$AA?$AA@ 100b3bf4     LIBCMTD:atof.obj
 0002:0000dc08       ??_C@_1FM@HAAJIFE@?$AAf?$AA?3?$AA?2?$AAd?$AAd?$AA?2?$AAv?$AAc?$AAt?$AAo?$AAo?$AAl?$AAs?$AA?2?$AAc?$AAr?$AAt?$AA_?$AAb?$AAl?$AAd?$AA?2?$AAs?$AAe?$AAl?$AAf?$AA_?$AAx?$AA8?$AA6?$AA?2?$AAc@ 100b3c08     LIBCMTD:atof.obj
 0002:0000dc64       ??_C@_1BK@LAOAACLJ@?$AAn?$AAp?$AAt?$AAr?$AA?5?$AA?$CB?$AA?$DN?$AA?5?$AAN?$AAU?$AAL?$AAL?$AA?$AA@ 100b3c64     LIBCMTD:atof.obj
 0002:0000dcd0       ??_C@_1BK@HJGMBFLF@?$AAc?$AAo?$AAm?$AAp?$AA?5?$AA?$CB?$AA?$DN?$AA?5?$AAN?$AAU?$AAL?$AAL?$AA?$AA@ 100b3cd0     LIBCMTD:qsort.obj
 0002:0000dcec       ??_C@_1BE@NJBEBBME@?$AAw?$AAi?$AAd?$AAt?$AAh?$AA?5?$AA?$DO?$AA?5?$AA0?$AA?$AA@ 100b3cec     LIBCMTD:qsort.obj
 0002:0000dd00       ??_C@_1M@INMHODIG@?$AAq?$AAs?$AAo?$AAr?$AAt?$AA?$AA@ 100b3d00     LIBCMTD:qsort.obj
 0002:0000dd10       ??_C@_1FO@NDBPJPLL@?$AAf?$AA?3?$AA?2?$AAd?$AAd?$AA?2?$AAv?$AAc?$AAt?$AAo?$AAo?$AAl?$AAs?$AA?2?$AAc?$AAr?$AAt?$AA_?$AAb?$AAl?$AAd?$AA?2?$AAs?$AAe?$AAl?$AAf?$AA_?$AAx?$AA8?$AA6?$AA?2?$AAc@ 100b3d10     LIBCMTD:qsort.obj
 0002:0000dd70       ??_C@_1DC@HAGCIKOA@?$AAb?$AAa?$AAs?$AAe?$AA?5?$AA?$CB?$AA?$DN?$AA?5?$AAN?$AAU?$AAL?$AAL?$AA?5?$AA?$HM?$AA?$HM?$AA?5?$AAn?$AAu?$AAm?$AA?5?$AA?$DN?$AA?$DN?$AA?5?$AA0?$AA?$AA@ 100b3d70     LIBCMTD:qsort.obj
 0002:0000dda4       ??_C@_1CC@MGIEJOME@?$AA?$CI?$AAf?$AAo?$AAr?$AAm?$AAa?$AAt?$AA?5?$AA?$CB?$AA?$DN?$AA?5?$AAN?$AAU?$AAL?$AAL?$AA?$CJ?$AA?$AA@ 100b3da4     LIBCMTD:sscanf.obj
 0002:0000ddc8       ??_C@_1BC@KMGJCMNP@?$AAv?$AAs?$AAc?$AAa?$AAn?$AA_?$AAf?$AAn?$AA?$AA@ 100b3dc8     LIBCMTD:sscanf.obj
 0002:0000dde0       ??_C@_1GA@GDIHGGDN@?$AAf?$AA?3?$AA?2?$AAd?$AAd?$AA?2?$AAv?$AAc?$AAt?$AAo?$AAo?$AAl?$AAs?$AA?2?$AAc?$AAr?$AAt?$AA_?$AAb?$AAl?$AAd?$AA?2?$AAs?$AAe?$AAl?$AAf?$AA_?$AAx?$AA8?$AA6?$AA?2?$AAc@ 100b3de0     LIBCMTD:sscanf.obj
 0002:0000de40       ??_C@_1CC@OLIJCKA@?$AA?$CI?$AAs?$AAt?$AAr?$AAi?$AAn?$AAg?$AA?5?$AA?$CB?$AA?$DN?$AA?5?$AAN?$AAU?$AAL?$AAL?$AA?$CJ?$AA?$AA@ 100b3e40     LIBCMTD:sscanf.obj
 0002:0000deb8       ??_C@_1EC@FABAOFFO@?$AA?$CI?$AAc?$AAo?$AAu?$AAn?$AAt?$AA?5?$AA?$DN?$AA?$DN?$AA?5?$AA0?$AA?$CJ?$AA?5?$AA?$HM?$AA?$HM?$AA?5?$AA?$CI?$AAs?$AAt?$AAr?$AAi?$AAn?$AAg?$AA?5?$AA?$CB?$AA?$DN?$AA?5?$AAN?$AAU?$AAL?$AAL?$AA?$CJ@ 100b3eb8     LIBCMTD:vsnprint.obj
 0002:0000defc       ??_C@_1BK@FHMHFMNL@?$AA_?$AAv?$AAs?$AAn?$AAp?$AAr?$AAi?$AAn?$AAt?$AAf?$AA_?$AAl?$AA?$AA@ 100b3efc     LIBCMTD:vsnprint.obj
 0002:0000df18       ??_C@_1GE@DPADKNCG@?$AAf?$AA?3?$AA?2?$AAd?$AAd?$AA?2?$AAv?$AAc?$AAt?$AAo?$AAo?$AAl?$AAs?$AA?2?$AAc?$AAr?$AAt?$AA_?$AAb?$AAl?$AAd?$AA?2?$AAs?$AAe?$AAl?$AAf?$AA_?$AAx?$AA8?$AA6?$AA?2?$AAc@ 100b3f18     LIBCMTD:vsnprint.obj
 0002:0000df7c       __pDefaultRawDllMain       100b3f7c     LIBCMTD:dllcrt0.obj
 0002:0000df7c       __pRawDllMain              100b3f7c     LIBCMTD:dllcrt0.obj
 0002:0000df80       ??_C@_0DB@OLNOAEGF@f?3?2dd?2vctools?2crt_bld?2self_x86?2c@ 100b3f80     LIBCMTD:dllcrt0.obj
 0002:0000dfb4       ??_C@_0BO@GNIAFIKK@Unknown?5Runtime?5Check?5Error?6?$AN?$AA@ 100b3fb4     LIBCMTD:_error_.obj
 0002:0000dfd4       ??_C@_0CM@NGINOKPC@Stack?5memory?5around?5_alloca?5was?5@ 100b3fd4     LIBCMTD:_error_.obj
 0002:0000e000       ??_C@_0DG@HKJMLLLP@A?5local?5variable?5was?5used?5before@ 100b4000     LIBCMTD:_error_.obj
 0002:0000e038       ??_C@_0BN@FFOINMNJ@Stack?5memory?5was?5corrupted?6?$AN?$AA@ 100b4038     LIBCMTD:_error_.obj
 0002:0000e058       ??_C@_0BBN@GPMLNJCF@A?5cast?5to?5a?5smaller?5data?5type?5ha@ 100b4058     LIBCMTD:_error_.obj
 0002:0000e178       ??_C@_0NN@NGPKDKPD@The?5value?5of?5ESP?5was?5not?5properl@ 100b4178     LIBCMTD:_error_.obj
 0002:0000e2f4       ??_C@_0CA@IODNCDPG@Run?9Time?5Check?5Failure?5?$CD?$CFd?5?9?5?$CFs?$AA@ 100b42f4     LIBCMTD:_error_.obj
 0002:0000e314       ??_C@_0BE@GNBOBNCK@Unknown?5Module?5Name?$AA@ 100b4314     LIBCMTD:_error_.obj
 0002:0000e328       ??_C@_0BB@PFFGGCJP@Unknown?5Filename?$AA@ 100b4328     LIBCMTD:_error_.obj
 0002:0000e340       ??_C@_1EA@NFKNIFJP@?$AAR?$AAu?$AAn?$AA?9?$AAT?$AAi?$AAm?$AAe?$AA?5?$AAC?$AAh?$AAe?$AAc?$AAk?$AA?5?$AAF?$AAa?$AAi?$AAl?$AAu?$AAr?$AAe?$AA?5?$AA?$CD?$AA?$CF?$AAd?$AA?5?$AA?9?$AA?5?$AA?$CF?$AAs?$AA?$AA@ 100b4340     LIBCMTD:_error_.obj
 0002:0000e380       ??_C@_1GM@OLMCBDMB@?$AAR?$AAu?$AAn?$AAt?$AAi?$AAm?$AAe?$AA?5?$AAC?$AAh?$AAe?$AAc?$AAk?$AA?5?$AAE?$AAr?$AAr?$AAo?$AAr?$AA?4?$AA?6?$AA?$AN?$AA?5?$AAU?$AAn?$AAa?$AAb?$AAl?$AAe?$AA?5?$AAt?$AAo@ 100b4380     LIBCMTD:_error_.obj
 0002:0000e3ec       ??_C@_0CG@IAFNJNEE@Stack?5corrupted?5near?5unknown?5var@ 100b43ec     LIBCMTD:_error_.obj
 0002:0000e418       ??_C@_0EJ@LJKNEOLN@Stack?5area?5around?5_alloca?5memory@ 100b4418     LIBCMTD:_error_.obj
 0002:0000e464       ??_C@_08KJEDNCKC@?$CFs?$CFs?$CFs?$CFs?$AA@ 100b4464     LIBCMTD:_error_.obj
 0002:0000e470       ??_C@_02LLMPMKNF@?$DO?5?$AA@ 100b4470     LIBCMTD:_error_.obj
 0002:0000e474       ??_C@_01EEMJAFIK@?6?$AA@   100b4474     LIBCMTD:_error_.obj
 0002:0000e478       ??_C@_0BC@KIBAILCI@?$CFs?$CFs?$CFp?$CFs?$CFld?$CFs?$CFd?$CFs?$AA@ 100b4478     LIBCMTD:_error_.obj
 0002:0000e490       ??_C@_0EI@CLEPFNGI@Stack?5area?5around?5_alloca?5memory@ 100b4490     LIBCMTD:_error_.obj
 0002:0000e4d8       ??_C@_0N@MHFFIMFG@?6Address?3?50x?$AA@ 100b44d8     LIBCMTD:_error_.obj
 0002:0000e4e8       ??_C@_07DFDJCKFN@?6Size?3?5?$AA@ 100b44e8     LIBCMTD:_error_.obj
 0002:0000e4f0       ??_C@_0CK@DKGBICFE@?6Allocation?5number?5within?5this?5f@ 100b44f0     LIBCMTD:_error_.obj
 0002:0000e51c       ??_C@_08OMAHNMHJ@?6Data?3?5?$DM?$AA@ 100b451c     LIBCMTD:_error_.obj
 0002:0000e528       ??_C@_09FOPFMPEJ@wsprintfA?$AA@ 100b4528     LIBCMTD:_error_.obj
 0002:0000e534       ??_C@_1BG@OILDLIOJ@?$AAu?$AAs?$AAe?$AAr?$AA3?$AA2?$AA?4?$AAd?$AAl?$AAl?$AA?$AA@ 100b4534     LIBCMTD:_error_.obj
 0002:0000e54c       ??_C@_05MKKEDADM@?$CF?42X?5?$AA@ 100b454c     LIBCMTD:_error_.obj
 0002:0000e554       ??_C@_0DE@OHJBPMBP@A?5variable?5is?5being?5used?5without@ 100b4554     LIBCMTD:_error_.obj
 0002:0000e588       ??_C@_0BP@OGBCLIBO@Stack?5around?5_alloca?5corrupted?$AA@ 100b4588     LIBCMTD:_userapi_.obj
 0002:0000e5a8       ??_C@_0CK@CNLNOEPB@Local?5variable?5used?5before?5initi@ 100b45a8     LIBCMTD:_userapi_.obj
 0002:0000e5d4       ??_C@_0BI@CIGMDCBH@Stack?5memory?5corruption?$AA@ 100b45d4     LIBCMTD:_userapi_.obj
 0002:0000e5ec       ??_C@_0CK@FEGOIOPB@Cast?5to?5smaller?5type?5causing?5los@ 100b45ec     LIBCMTD:_userapi_.obj
 0002:0000e618       ??_C@_0BJ@HEGAHDFO@Stack?5pointer?5corruption?$AA@ 100b4618     LIBCMTD:_userapi_.obj
 0002:0000e648       ??_C@_0DP@CBBAPGOP@f?3?2dd?2vctools?2crt_bld?2self_x86?2c@ 100b4648     LIBCMTD:chkesp.obj
 0002:0000e687       ??_C@_00CNPNBAHC@?$AA@     100b4687     LIBCMTD:chkesp.obj
 0002:0000e688       ??_C@_0NM@DNEDKLDF@The?5value?5of?5ESP?5was?5not?5properl@ 100b4688     LIBCMTD:chkesp.obj
 0002:0000e770       ??_C@_1GE@KOCFNGPB@?$AA_?$AAc?$AAo?$AAn?$AAt?$AAr?$AAo?$AAl?$AAf?$AAp?$AA_?$AAs?$AA?$CI?$AA?$CI?$AA?$CI?$AAv?$AAo?$AAi?$AAd?$AA?5?$AA?$CK?$AA?$CJ?$AA0?$AA?$CJ?$AA?0?$AA?5?$AA0?$AAx?$AA0?$AA0?$AA0?$AA1@ 100b4770     LIBCMTD:fp8.obj
 0002:0000e7d4       ??_C@_1CK@JMKHCBEI@?$AA_?$AAs?$AAe?$AAt?$AAd?$AAe?$AAf?$AAa?$AAu?$AAl?$AAt?$AAp?$AAr?$AAe?$AAc?$AAi?$AAs?$AAi?$AAo?$AAn?$AA?$AA@ 100b47d4     LIBCMTD:fp8.obj
 0002:0000e800       ??_C@_1GG@PHGJJHBC@?$AAf?$AA?3?$AA?2?$AAd?$AAd?$AA?2?$AAv?$AAc?$AAt?$AAo?$AAo?$AAl?$AAs?$AA?2?$AAc?$AAr?$AAt?$AA_?$AAb?$AAl?$AAd?$AA?2?$AAs?$AAe?$AAl?$AAf?$AA_?$AAx?$AA8?$AA6?$AA?2?$AAc@ 100b4800     LIBCMTD:fp8.obj
 0002:0000e868       ??_C@_1CA@CBMNPEO@?$AAs?$AAi?$AAz?$AAe?$AAI?$AAn?$AAB?$AAy?$AAt?$AAe?$AAs?$AA?5?$AA?$DO?$AA?5?$AA0?$AA?$AA@ 100b4868     LIBCMTD:cvt.obj
 0002:0000e888       ??_C@_1BC@INKAPMHI@?$AA_?$AAc?$AAf?$AAt?$AAo?$AAe?$AA_?$AAl?$AA?$AA@ 100b4888     LIBCMTD:cvt.obj
 0002:0000e8a0       ??_C@_1GO@NCCGBNKI@?$AAf?$AA?3?$AA?2?$AAd?$AAd?$AA?2?$AAv?$AAc?$AAt?$AAo?$AAo?$AAl?$AAs?$AA?2?$AAc?$AAr?$AAt?$AA_?$AAb?$AAl?$AAd?$AA?2?$AAs?$AAe?$AAl?$AAf?$AA_?$AAx?$AA8?$AA6?$AA?2?$AAc@ 100b48a0     LIBCMTD:cvt.obj
 0002:0000e910       ??_C@_1BI@ICGGMGLK@?$AAb?$AAu?$AAf?$AA?5?$AA?$CB?$AA?$DN?$AA?5?$AAN?$AAU?$AAL?$AAL?$AA?$AA@ 100b4910     LIBCMTD:cvt.obj
 0002:0000e928       ??_C@_05KLBDPFGC@e?$CL000?$AA@ 100b4928     LIBCMTD:cvt.obj
 0002:0000e930       ??_C@_1LE@EOIFGNCJ@?$AAs?$AAt?$AAr?$AAc?$AAp?$AAy?$AA_?$AAs?$AA?$CI?$AAp?$AA?0?$AA?5?$AA?$CI?$AAs?$AAi?$AAz?$AAe?$AAI?$AAn?$AAB?$AAy?$AAt?$AAe?$AAs?$AA?5?$AA?$DN?$AA?$DN?$AA?5?$AA?$CI?$AAs?$AAi?$AAz@ 100b4930     LIBCMTD:cvt.obj
 0002:0000e9e8       ??_C@_1HE@NACBNDPP@?$AAs?$AAi?$AAz?$AAe?$AAI?$AAn?$AAB?$AAy?$AAt?$AAe?$AAs?$AA?5?$AA?$DO?$AA?5?$AA?$CI?$AAs?$AAi?$AAz?$AAe?$AA_?$AAt?$AA?$CJ?$AA?$CI?$AA3?$AA?5?$AA?$CL?$AA?5?$AA?$CI?$AAn?$AAd?$AAe?$AAc@ 100b49e8     LIBCMTD:cvt.obj
 0002:0000ea5c       ??_C@_1BE@OLBNEILL@?$AA_?$AAc?$AAf?$AAt?$AAo?$AAe?$AA2?$AA_?$AAl?$AA?$AA@ 100b4a5c     LIBCMTD:cvt.obj
 0002:0000ea70       ??_C@_1FC@IKIMAMJB@?$AAs?$AAi?$AAz?$AAe?$AAI?$AAn?$AAB?$AAy?$AAt?$AAe?$AAs?$AA?5?$AA?$DO?$AA?5?$AA?$CI?$AAs?$AAi?$AAz?$AAe?$AA_?$AAt?$AA?$CJ?$AA?$CI?$AA1?$AA?5?$AA?$CL?$AA?5?$AA4?$AA?5?$AA?$CL?$AA?5?$AAn@ 100b4a70     LIBCMTD:cvt.obj
 0002:0000eac4       ??_C@_1BC@JOKPCIC@?$AA_?$AAc?$AAf?$AAt?$AAo?$AAa?$AA_?$AAl?$AA?$AA@ 100b4ac4     LIBCMTD:cvt.obj
 0002:0000ead8       ??_C@_1BC@DCPPLJL@?$AA_?$AAc?$AAf?$AAt?$AAo?$AAf?$AA_?$AAl?$AA?$AA@ 100b4ad8     LIBCMTD:cvt.obj
 0002:0000eaec       ??_C@_1BE@CKPDLI@?$AA_?$AAc?$AAf?$AAt?$AAo?$AAf?$AA2?$AA_?$AAl?$AA?$AA@ 100b4aec     LIBCMTD:cvt.obj
 0002:0000eb00       ??_C@_1BC@MPIFPLAF@?$AA_?$AAc?$AAf?$AAt?$AAo?$AAg?$AA_?$AAl?$AA?$AA@ 100b4b00     LIBCMTD:cvt.obj
 0002:0000eb14       ??_C@_0P@MIGLKIOC@CorExitProcess?$AA@ 100b4b14     LIBCMTD:crt0dat.obj
 0002:0000eb24       ??_C@_1BI@BGOHAHKC@?$AAm?$AAs?$AAc?$AAo?$AAr?$AAe?$AAe?$AA?4?$AAd?$AAl?$AAl?$AA?$AA@ 100b4b24     LIBCMTD:crt0dat.obj
 0002:0000eb3c       ??_C@_1CC@CDIPMFPD@?$AA_?$AAw?$AAp?$AAg?$AAm?$AAp?$AAt?$AAr?$AA?5?$AA?$CB?$AA?$DN?$AA?5?$AAN?$AAU?$AAL?$AAL?$AA?$AA@ 100b4b3c     LIBCMTD:crt0dat.obj
 0002:0000eb60       ??_C@_1BK@PNLDCCDP@?$AA_?$AAg?$AAe?$AAt?$AA_?$AAw?$AAp?$AAg?$AAm?$AAp?$AAt?$AAr?$AA?$AA@ 100b4b60     LIBCMTD:crt0dat.obj
 0002:0000eb80       ??_C@_1GC@DGCPEDNJ@?$AAf?$AA?3?$AA?2?$AAd?$AAd?$AA?2?$AAv?$AAc?$AAt?$AAo?$AAo?$AAl?$AAs?$AA?2?$AAc?$AAr?$AAt?$AA_?$AAb?$AAl?$AAd?$AA?2?$AAs?$AAe?$AAl?$AAf?$AA_?$AAx?$AA8?$AA6?$AA?2?$AAc@ 100b4b80     LIBCMTD:crt0dat.obj
 0002:0000ebe4       ??_C@_1BO@LKEBEKJP@?$AAp?$AAV?$AAa?$AAl?$AAu?$AAe?$AA?5?$AA?$CB?$AA?$DN?$AA?5?$AAN?$AAU?$AAL?$AAL?$AA?$AA@ 100b4be4     LIBCMTD:crt0dat.obj
 0002:0000ec04       ??_C@_1CA@BBNAFCKO@?$AA_?$AAp?$AAg?$AAm?$AAp?$AAt?$AAr?$AA?5?$AA?$CB?$AA?$DN?$AA?5?$AAN?$AAU?$AAL?$AAL?$AA?$AA@ 100b4c04     LIBCMTD:crt0dat.obj
 0002:0000ec24       ??_C@_1BI@COAAPHJK@?$AA_?$AAg?$AAe?$AAt?$AA_?$AAp?$AAg?$AAm?$AAp?$AAt?$AAr?$AA?$AA@ 100b4c24     LIBCMTD:crt0dat.obj
 0002:0000ec3c       ??_C@_1O@EJLDHPPL@?$AAs?$AAi?$AAg?$AAn?$AAa?$AAl?$AA?$AA@ 100b4c3c     LIBCMTD:winsig.obj
 0002:0000ec50       ??_C@_1GA@DBECNFG@?$AAf?$AA?3?$AA?2?$AAd?$AAd?$AA?2?$AAv?$AAc?$AAt?$AAo?$AAo?$AAl?$AAs?$AA?2?$AAc?$AAr?$AAt?$AA_?$AAb?$AAl?$AAd?$AA?2?$AAs?$AAe?$AAl?$AAf?$AA_?$AAx?$AA8?$AA6?$AA?2?$AAc@ 100b4c50     LIBCMTD:winsig.obj
 0002:0000ecb0       ??_C@_1DO@MLNEDKGB@?$AA?$CI?$AA?$CC?$AAI?$AAn?$AAv?$AAa?$AAl?$AAi?$AAd?$AA?5?$AAs?$AAi?$AAg?$AAn?$AAa?$AAl?$AA?5?$AAo?$AAr?$AA?5?$AAe?$AAr?$AAr?$AAo?$AAr?$AA?$CC?$AA?0?$AA?5?$AA0?$AA?$CJ?$AA?$AA@ 100b4cb0     LIBCMTD:winsig.obj
 0002:0000ecf0       ??_C@_0DA@ELJOOIJF@f?3?2dd?2vctools?2crt_bld?2self_x86?2c@ 100b4cf0     LIBCMTD:winsig.obj
 0002:0000ed20       ??_C@_1M@DMJEIKHL@?$AAr?$AAa?$AAi?$AAs?$AAe?$AA?$AA@ 100b4d20     LIBCMTD:winsig.obj
 0002:0000ed2c       ??_C@_0BI@DFKBFLJE@GetProcessWindowStation?$AA@ 100b4d2c     LIBCMTD:crtmboxw.obj
 0002:0000ed44       ??_C@_0BK@DEKFELLI@GetUserObjectInformationW?$AA@ 100b4d44     LIBCMTD:crtmboxw.obj
 0002:0000ed60       ??_C@_0BD@HHGDFDBJ@GetLastActivePopup?$AA@ 100b4d60     LIBCMTD:crtmboxw.obj
 0002:0000ed74       ??_C@_0BA@HNOPNCHB@GetActiveWindow?$AA@ 100b4d74     LIBCMTD:crtmboxw.obj
 0002:0000ed84       ??_C@_0M@DLDCCGNP@MessageBoxW?$AA@ 100b4d84     LIBCMTD:crtmboxw.obj
 0002:0000ed90       ??_C@_1BG@GOEBHBDC@?$AAU?$AAS?$AAE?$AAR?$AA3?$AA2?$AA?4?$AAD?$AAL?$AAL?$AA?$AA@ 100b4d90     LIBCMTD:crtmboxw.obj
 0002:0000eda8       ??_C@_1CM@HABGDNLJ@?$AAl?$AAe?$AAn?$AAg?$AAt?$AAh?$AA?5?$AA?$DM?$AA?5?$AAs?$AAi?$AAz?$AAe?$AAI?$AAn?$AAT?$AAC?$AAh?$AAa?$AAr?$AAs?$AA?$AA@ 100b4da8     LIBCMTD:xtows.obj
 0002:0000edd4       ??_C@_1DE@PCJGDBBD@?$AA2?$AA?5?$AA?$DM?$AA?$DN?$AA?5?$AAr?$AAa?$AAd?$AAi?$AAx?$AA?5?$AA?$CG?$AA?$CG?$AA?5?$AAr?$AAa?$AAd?$AAi?$AAx?$AA?5?$AA?$DM?$AA?$DN?$AA?5?$AA3?$AA6?$AA?$AA@ 100b4dd4     LIBCMTD:xtows.obj
 0002:0000ee08       ??_C@_1FA@MKGGAGEI@?$AAs?$AAi?$AAz?$AAe?$AAI?$AAn?$AAT?$AAC?$AAh?$AAa?$AAr?$AAs?$AA?5?$AA?$DO?$AA?5?$AA?$CI?$AAs?$AAi?$AAz?$AAe?$AA_?$AAt?$AA?$CJ?$AA?$CI?$AAi?$AAs?$AA_?$AAn?$AAe?$AAg?$AA?5?$AA?$DP@ 100b4e08     LIBCMTD:xtows.obj
 0002:0000ee58       ??_C@_1CC@JNJFIMGE@?$AAs?$AAi?$AAz?$AAe?$AAI?$AAn?$AAT?$AAC?$AAh?$AAa?$AAr?$AAs?$AA?5?$AA?$DO?$AA?5?$AA0?$AA?$AA@ 100b4e58     LIBCMTD:xtows.obj
 0002:0000ee7c       ??_C@_1O@NCBFODOE@?$AAx?$AAt?$AAo?$AAw?$AA_?$AAs?$AA?$AA@ 100b4e7c     LIBCMTD:xtows.obj
 0002:0000ee90       ??_C@_1FM@MFCBFCGB@?$AAf?$AA?3?$AA?2?$AAd?$AAd?$AA?2?$AAv?$AAc?$AAt?$AAo?$AAo?$AAl?$AAs?$AA?2?$AAc?$AAr?$AAt?$AA_?$AAb?$AAl?$AAd?$AA?2?$AAs?$AAe?$AAl?$AAf?$AA_?$AAx?$AA8?$AA6?$AA?2?$AAc@ 100b4e90     LIBCMTD:xtows.obj
 0002:0000eeec       ??_C@_1BC@HDEJCFPB@?$AAx?$AA6?$AA4?$AAt?$AAo?$AAw?$AA_?$AAs?$AA?$AA@ 100b4eec     LIBCMTD:xtows.obj
 0002:0000ef00       ??_C@_1DM@MADKGDLO@?$AA?$CI?$AAL?$AA?$CC?$AAB?$AAu?$AAf?$AAf?$AAe?$AAr?$AA?5?$AAi?$AAs?$AA?5?$AAt?$AAo?$AAo?$AA?5?$AAs?$AAm?$AAa?$AAl?$AAl?$AA?$CC?$AA?5?$AA?$CG?$AA?$CG?$AA?5?$AA0?$AA?$CJ?$AA?$AA@ 100b4f00     LIBCMTD:wcsncat_s.obj
 0002:0000ef3c       ??_C@_1CI@HCPHDDLE@?$AAB?$AAu?$AAf?$AAf?$AAe?$AAr?$AA?5?$AAi?$AAs?$AA?5?$AAt?$AAo?$AAo?$AA?5?$AAs?$AAm?$AAa?$AAl?$AAl?$AA?$AA@ 100b4f3c     LIBCMTD:wcsncat_s.obj
 0002:0000ef68       ??_C@_1FA@MJKDNFFB@?$AA?$CI?$AAL?$AA?$CC?$AAS?$AAt?$AAr?$AAi?$AAn?$AAg?$AA?5?$AAi?$AAs?$AA?5?$AAn?$AAo?$AAt?$AA?5?$AAn?$AAu?$AAl?$AAl?$AA?5?$AAt?$AAe?$AAr?$AAm?$AAi?$AAn?$AAa?$AAt?$AAe?$AAd@ 100b4f68     LIBCMTD:wcsncat_s.obj
 0002:0000efb8       ??_C@_1DM@FHLMIEG@?$AAS?$AAt?$AAr?$AAi?$AAn?$AAg?$AA?5?$AAi?$AAs?$AA?5?$AAn?$AAo?$AAt?$AA?5?$AAn?$AAu?$AAl?$AAl?$AA?5?$AAt?$AAe?$AAr?$AAm?$AAi?$AAn?$AAa?$AAt?$AAe?$AAd?$AA?$AA@ 100b4fb8     LIBCMTD:wcsncat_s.obj
 0002:0000eff4       ??_C@_1CG@OFBJMIGJ@?$AA?$CI?$AA?$CI?$AA?$CI?$AA_?$AAS?$AAr?$AAc?$AA?$CJ?$AA?$CJ?$AA?$CJ?$AA?5?$AA?$CB?$AA?$DN?$AA?5?$AAN?$AAU?$AAL?$AAL?$AA?$AA@ 100b4ff4     LIBCMTD:wcsncat_s.obj
 0002:0000f01c       ??_C@_1BE@KPKIKKCF@?$AAw?$AAc?$AAs?$AAn?$AAc?$AAa?$AAt?$AA_?$AAs?$AA?$AA@ 100b501c     LIBCMTD:wcsncat_s.obj
 0002:0000f030       ??_C@_1GK@DICCLCDF@?$AAf?$AA?3?$AA?2?$AAd?$AAd?$AA?2?$AAv?$AAc?$AAt?$AAo?$AAo?$AAl?$AAs?$AA?2?$AAc?$AAr?$AAt?$AA_?$AAb?$AAl?$AAd?$AA?2?$AAs?$AAe?$AAl?$AAf?$AA_?$AAx?$AA8?$AA6?$AA?2?$AAc@ 100b5030     LIBCMTD:wcsncat_s.obj
 0002:0000f0a0       ??_C@_1FC@PFMLEHKI@?$AA?$CI?$AA?$CI?$AA_?$AAD?$AAs?$AAt?$AA?$CJ?$AA?$CJ?$AA?5?$AA?$CB?$AA?$DN?$AA?5?$AAN?$AAU?$AAL?$AAL?$AA?5?$AA?$CG?$AA?$CG?$AA?5?$AA?$CI?$AA?$CI?$AA_?$AAS?$AAi?$AAz?$AAe?$AAI?$AAn?$AAW?$AAo?$AAr@ 100b50a0     LIBCMTD:wcsncat_s.obj
 0002:0000f0f4       ??_C@_1BE@PMMBFFCC@?$AAw?$AAc?$AAs?$AAn?$AAc?$AAp?$AAy?$AA_?$AAs?$AA?$AA@ 100b50f4     LIBCMTD:wcsncpy_s.obj
 0002:0000f108       ??_C@_1GK@PAJJBKJF@?$AAf?$AA?3?$AA?2?$AAd?$AAd?$AA?2?$AAv?$AAc?$AAt?$AAo?$AAo?$AAl?$AAs?$AA?2?$AAc?$AAr?$AAt?$AA_?$AAb?$AAl?$AAd?$AA?2?$AAs?$AAe?$AAl?$AAf?$AA_?$AAx?$AA8?$AA6?$AA?2?$AAc@ 100b5108     LIBCMTD:wcsncpy_s.obj
 0002:0000f174       ??_C@_1BC@PLIEPKPJ@?$AAw?$AAc?$AAs?$AAc?$AAa?$AAt?$AA_?$AAs?$AA?$AA@ 100b5174     LIBCMTD:wcscat_s.obj
 0002:0000f188       ??_C@_1GI@NOKGIAGA@?$AAf?$AA?3?$AA?2?$AAd?$AAd?$AA?2?$AAv?$AAc?$AAt?$AAo?$AAo?$AAl?$AAs?$AA?2?$AAc?$AAr?$AAt?$AA_?$AAb?$AAl?$AAd?$AA?2?$AAs?$AAe?$AAl?$AAf?$AA_?$AAx?$AA8?$AA6?$AA?2?$AAc@ 100b5188     LIBCMTD:wcscat_s.obj
 0002:0000f1f0       ??_C@_1BC@KIONAFPO@?$AAw?$AAc?$AAs?$AAc?$AAp?$AAy?$AA_?$AAs?$AA?$AA@ 100b51f0     LIBCMTD:wcscpy_s.obj
 0002:0000f208       ??_C@_1GI@BGBNCIMA@?$AAf?$AA?3?$AA?2?$AAd?$AAd?$AA?2?$AAv?$AAc?$AAt?$AAo?$AAo?$AAl?$AAs?$AA?2?$AAc?$AAr?$AAt?$AA_?$AAb?$AAl?$AAd?$AA?2?$AAs?$AAe?$AAl?$AAf?$AA_?$AAx?$AA8?$AA6?$AA?2?$AAc@ 100b5208     LIBCMTD:wcscpy_s.obj
 0002:0000f270       ??_C@_1BC@BHLPNJBO@?$AAf?$AAw?$AAp?$AAr?$AAi?$AAn?$AAt?$AAf?$AA?$AA@ 100b5270     LIBCMTD:fwprintf.obj
 0002:0000f288       ??_C@_1GE@NIBJAMDO@?$AAf?$AA?3?$AA?2?$AAd?$AAd?$AA?2?$AAv?$AAc?$AAt?$AAo?$AAo?$AAl?$AAs?$AA?2?$AAc?$AAr?$AAt?$AA_?$AAb?$AAl?$AAd?$AA?2?$AAs?$AAe?$AAl?$AAf?$AA_?$AAx?$AA8?$AA6?$AA?2?$AAc@ 100b5288     LIBCMTD:fwprintf.obj
 0002:0000f2ec       ??_C@_1BM@JMKHIAHP@?$AA?$CI?$AAs?$AAt?$AAr?$AA?5?$AA?$CB?$AA?$DN?$AA?5?$AAN?$AAU?$AAL?$AAL?$AA?$CJ?$AA?$AA@ 100b52ec     LIBCMTD:fwprintf.obj
 0002:0000f308       ??_C@_0DB@MIGHMKAN@f?3?2dd?2vctools?2crt_bld?2self_x86?2c@ 100b5308     LIBCMTD:setvbuf.obj
 0002:0000f340       ??_C@_1EG@IJNJIDNB@?$AA?$CI?$AA?$CI?$AA2?$AA?5?$AA?$DM?$AA?$DN?$AA?5?$AAs?$AAi?$AAz?$AAe?$AA?$CJ?$AA?5?$AA?$CG?$AA?$CG?$AA?5?$AA?$CI?$AAs?$AAi?$AAz?$AAe?$AA?5?$AA?$DM?$AA?$DN?$AA?5?$AAI?$AAN?$AAT?$AA_?$AAM?$AAA?$AAX@ 100b5340     LIBCMTD:setvbuf.obj
 0002:0000f388       ??_C@_1HC@CBFEDAGG@?$AA?$CI?$AAt?$AAy?$AAp?$AAe?$AA?5?$AA?$DN?$AA?$DN?$AA?5?$AA_?$AAI?$AAO?$AAN?$AAB?$AAF?$AA?$CJ?$AA?5?$AA?$HM?$AA?$HM?$AA?5?$AA?$CI?$AAt?$AAy?$AAp?$AAe?$AA?5?$AA?$DN?$AA?$DN?$AA?5?$AA_?$AAI?$AAO@ 100b5388     LIBCMTD:setvbuf.obj
 0002:0000f3fc       ??_C@_1BA@OGODIODK@?$AAs?$AAe?$AAt?$AAv?$AAb?$AAu?$AAf?$AA?$AA@ 100b53fc     LIBCMTD:setvbuf.obj
 0002:0000f410       ??_C@_1GC@FPPJLAOD@?$AAf?$AA?3?$AA?2?$AAd?$AAd?$AA?2?$AAv?$AAc?$AAt?$AAo?$AAo?$AAl?$AAs?$AA?2?$AAc?$AAr?$AAt?$AA_?$AAb?$AAl?$AAd?$AA?2?$AAs?$AAe?$AAl?$AAf?$AA_?$AAx?$AA8?$AA6?$AA?2?$AAc@ 100b5410     LIBCMTD:setvbuf.obj
 0002:0000f474       ??_C@_0CP@BNKDODJJ@f?3?2dd?2vctools?2crt_bld?2self_x86?2c@ 100b5474     LIBCMTD:_file.obj
 0002:0000f4a4       ??_C@_1CA@LFDHAMEM@?$AA_?$AAs?$AAe?$AAt?$AA_?$AAe?$AAr?$AAr?$AAo?$AAr?$AA_?$AAm?$AAo?$AAd?$AAe?$AA?$AA@ 100b54a4     LIBCMTD:errmode.obj
 0002:0000f4c8       ??_C@_1GC@FGMGFCNB@?$AAf?$AA?3?$AA?2?$AAd?$AAd?$AA?2?$AAv?$AAc?$AAt?$AAo?$AAo?$AAl?$AAs?$AA?2?$AAc?$AAr?$AAt?$AA_?$AAb?$AAl?$AAd?$AA?2?$AAs?$AAe?$AAl?$AAf?$AA_?$AAx?$AA8?$AA6?$AA?2?$AAc@ 100b54c8     LIBCMTD:errmode.obj
 0002:0000f52c       ??_C@_1DE@BCNCAIK@?$AA?$CI?$AA?$CC?$AAI?$AAn?$AAv?$AAa?$AAl?$AAi?$AAd?$AA?5?$AAe?$AAr?$AAr?$AAo?$AAr?$AA_?$AAm?$AAo?$AAd?$AAe?$AA?$CC?$AA?0?$AA?5?$AA0?$AA?$CJ?$AA?$AA@ 100b552c     LIBCMTD:errmode.obj
 0002:0000f560       ??_C@_1CE@IGKFIJFD@?$AA_?$AAv?$AAs?$AAw?$AAp?$AAr?$AAi?$AAn?$AAt?$AAf?$AA_?$AAh?$AAe?$AAl?$AAp?$AAe?$AAr?$AA?$AA@ 100b5560     LIBCMTD:vswprnc.obj
 0002:0000f588       ??_C@_1GE@KINELFI@?$AAf?$AA?3?$AA?2?$AAd?$AAd?$AA?2?$AAv?$AAc?$AAt?$AAo?$AAo?$AAl?$AAs?$AA?2?$AAc?$AAr?$AAt?$AA_?$AAb?$AAl?$AAd?$AA?2?$AAs?$AAe?$AAl?$AAf?$AA_?$AAx?$AA8?$AA6?$AA?2?$AAc@ 100b5588     LIBCMTD:vswprnc.obj
 0002:0000f5ec       ??_C@_1DA@HPBFKMEB@?$AA?$CI?$AA?$CC?$AAB?$AAu?$AAf?$AAf?$AAe?$AAr?$AA?5?$AAt?$AAo?$AAo?$AA?5?$AAs?$AAm?$AAa?$AAl?$AAl?$AA?$CC?$AA?0?$AA?5?$AA0?$AA?$CJ?$AA?$AA@ 100b55ec     LIBCMTD:vswprnc.obj
 0002:0000f620       ??_C@_1EE@MPCHJFGP@?$AAs?$AAt?$AAr?$AAi?$AAn?$AAg?$AA?5?$AA?$CB?$AA?$DN?$AA?5?$AAN?$AAU?$AAL?$AAL?$AA?5?$AA?$CG?$AA?$CG?$AA?5?$AAs?$AAi?$AAz?$AAe?$AAI?$AAn?$AAW?$AAo?$AAr?$AAd?$AAs?$AA?5?$AA?$DO?$AA?5@ 100b5620     LIBCMTD:vswprnc.obj
 0002:0000f664       ??_C@_1BO@OALHJLCI@?$AA_?$AAv?$AAs?$AAw?$AAp?$AAr?$AAi?$AAn?$AAt?$AAf?$AA_?$AAs?$AA_?$AAl?$AA?$AA@ 100b5664     LIBCMTD:vswprnc.obj
 0002:0000f684       ??_C@_1BO@MLMCMBKN@?$AAf?$AAo?$AAr?$AAm?$AAa?$AAt?$AA?5?$AA?$CB?$AA?$DN?$AA?5?$AAN?$AAU?$AAL?$AAL?$AA?$AA@ 100b5684     LIBCMTD:vswprnc.obj
 0002:0000f6a4       ??_C@_1CA@BKFKMJFF@?$AA_?$AAv?$AAs?$AAn?$AAw?$AAp?$AAr?$AAi?$AAn?$AAt?$AAf?$AA_?$AAs?$AA_?$AAl?$AA?$AA@ 100b56a4     LIBCMTD:vswprnc.obj
 0002:0000f6c4       ??_C@_1BG@KCMPBBDK@?$AA_?$AAg?$AAe?$AAt?$AA_?$AAe?$AAr?$AAr?$AAn?$AAo?$AA?$AA@ 100b56c4     LIBCMTD:dosmap.obj
 0002:0000f6e0       ??_C@_1GA@MFGIMPNL@?$AAf?$AA?3?$AA?2?$AAd?$AAd?$AA?2?$AAv?$AAc?$AAt?$AAo?$AAo?$AAl?$AAs?$AA?2?$AAc?$AAr?$AAt?$AA_?$AAb?$AAl?$AAd?$AA?2?$AAs?$AAe?$AAl?$AAf?$AA_?$AAx?$AA8?$AA6?$AA?2?$AAc@ 100b56e0     LIBCMTD:dosmap.obj
 0002:0000f740       ??_C@_1BM@INIPHHDD@?$AA_?$AAg?$AAe?$AAt?$AA_?$AAd?$AAo?$AAs?$AAe?$AAr?$AAr?$AAn?$AAo?$AA?$AA@ 100b5740     LIBCMTD:dosmap.obj
 0002:0000f75c       ??_C@_1CC@CGHMNGDG@?$AAA?$AAs?$AAs?$AAe?$AAr?$AAt?$AAi?$AAo?$AAn?$AA?5?$AAF?$AAa?$AAi?$AAl?$AAe?$AAd?$AA?$AA@ 100b575c     LIBCMTD:dbgrptw.obj
 0002:0000f780       ??_C@_1M@ILHOPKA@?$AAE?$AAr?$AAr?$AAo?$AAr?$AA?$AA@ 100b5780     LIBCMTD:dbgrptw.obj
 0002:0000f78c       ??_C@_1BA@GLMCNLEM@?$AAW?$AAa?$AAr?$AAn?$AAi?$AAn?$AAg?$AA?$AA@ 100b578c     LIBCMTD:dbgrptw.obj
 0002:0000f7a8       ??_C@_0DA@PCCBBBID@f?3?2dd?2vctools?2crt_bld?2self_x86?2c@ 100b57a8     LIBCMTD:dbgrptw.obj
 0002:0000f7d8       ??_C@_1FI@PHIAFFHM@?$AA?$CI?$AA?$CC?$AAT?$AAh?$AAe?$AA?5?$AAh?$AAo?$AAo?$AAk?$AA?5?$AAf?$AAu?$AAn?$AAc?$AAt?$AAi?$AAo?$AAn?$AA?5?$AAi?$AAs?$AA?5?$AAn?$AAo?$AAt?$AA?5?$AAi?$AAn?$AA?5?$AAt?$AAh@ 100b57d8     LIBCMTD:dbgrptw.obj
 0002:0000f830       ??_C@_1CG@JBJEFOCM@?$AAp?$AAf?$AAn?$AAN?$AAe?$AAw?$AAH?$AAo?$AAo?$AAk?$AA?5?$AA?$CB?$AA?$DN?$AA?5?$AAN?$AAU?$AAL?$AAL?$AA?$AA@ 100b5830     LIBCMTD:dbgrptw.obj
 0002:0000f858       ??_C@_1CI@IIHEAKEI@?$AA_?$AAC?$AAr?$AAt?$AAS?$AAe?$AAt?$AAR?$AAe?$AAp?$AAo?$AAr?$AAt?$AAH?$AAo?$AAo?$AAk?$AAW?$AA2?$AA?$AA@ 100b5858     LIBCMTD:dbgrptw.obj
 0002:0000f880       ??_C@_1GA@IBJGKIFE@?$AAf?$AA?3?$AA?2?$AAd?$AAd?$AA?2?$AAv?$AAc?$AAt?$AAo?$AAo?$AAl?$AAs?$AA?2?$AAc?$AAr?$AAt?$AA_?$AAb?$AAl?$AAd?$AA?2?$AAs?$AAe?$AAl?$AAf?$AA_?$AAx?$AA8?$AA6?$AA?2?$AAc@ 100b5880     LIBCMTD:dbgrptw.obj
 0002:0000f8e0       ??_C@_1HI@OFEHGPPC@?$AAm?$AAo?$AAd?$AAe?$AA?5?$AA?$DN?$AA?$DN?$AA?5?$AA_?$AAC?$AAR?$AAT?$AA_?$AAR?$AAP?$AAT?$AAH?$AAO?$AAO?$AAK?$AA_?$AAI?$AAN?$AAS?$AAT?$AAA?$AAL?$AAL?$AA?5?$AA?$HM?$AA?$HM?$AA?5@ 100b58e0     LIBCMTD:dbgrptw.obj
 0002:0000f958       ??_C@_1EG@PEOEAKBB@?$AAM?$AAi?$AAc?$AAr?$AAo?$AAs?$AAo?$AAf?$AAt?$AA?5?$AAV?$AAi?$AAs?$AAu?$AAa?$AAl?$AA?5?$AAC?$AA?$CL?$AA?$CL?$AA?5?$AAD?$AAe?$AAb?$AAu?$AAg?$AA?5?$AAL?$AAi?$AAb?$AAr?$AAa@ 100b5958     LIBCMTD:dbgrptw.obj
 0002:0000f9a0       ??_C@_1FG@BBOLDHGF@?$AA_?$AAC?$AAr?$AAt?$AAD?$AAb?$AAg?$AAR?$AAe?$AAp?$AAo?$AAr?$AAt?$AA?3?$AA?5?$AAS?$AAt?$AAr?$AAi?$AAn?$AAg?$AA?5?$AAt?$AAo?$AAo?$AA?5?$AAl?$AAo?$AAn?$AAg?$AA?5?$AAo@ 100b59a0     LIBCMTD:dbgrptw.obj
 0002:0000f9f8       ??_C@_1JI@EACPGHID@?$AAw?$AAc?$AAs?$AAc?$AAp?$AAy?$AA_?$AAs?$AA?$CI?$AAs?$AAz?$AAO?$AAu?$AAt?$AAM?$AAe?$AAs?$AAs?$AAa?$AAg?$AAe?$AA?0?$AA?5?$AA4?$AA0?$AA9?$AA6?$AA?0?$AA?5?$AAL?$AA?$CC?$AA_@ 100b59f8     LIBCMTD:dbgrptw.obj
 0002:0000fa90       ??_C@_1BI@KALLJECN@?$AA?$CI?$AA?$CK?$AA_?$AAe?$AAr?$AAr?$AAn?$AAo?$AA?$CI?$AA?$CJ?$AA?$CJ?$AA?$AA@ 100b5a90     LIBCMTD:dbgrptw.obj
 0002:0000faa8       ??_C@_1KK@MEFMPOLM@?$AAD?$AAe?$AAb?$AAu?$AAg?$AA?5?$AA?$CF?$AAs?$AA?$CB?$AA?6?$AA?6?$AAP?$AAr?$AAo?$AAg?$AAr?$AAa?$AAm?$AA?3?$AA?5?$AA?$CF?$AAs?$AA?$CF?$AAs?$AA?$CF?$AAs?$AA?$CF?$AAs?$AA?$CF?$AAs?$AA?$CF?$AAs@ 100b5aa8     LIBCMTD:dbgrptw.obj
 0002:0000fb54       ??_C@_1BE@CGCJKGHI@?$AA?6?$AAM?$AAo?$AAd?$AAu?$AAl?$AAe?$AA?3?$AA?5?$AA?$AA@ 100b5b54     LIBCMTD:dbgrptw.obj
 0002:0000fb68       ??_C@_1BA@LNHECFIM@?$AA?6?$AAF?$AAi?$AAl?$AAe?$AA?3?$AA?5?$AA?$AA@ 100b5b68     LIBCMTD:dbgrptw.obj
 0002:0000fb78       ??_C@_1BA@GLLGCPCK@?$AA?6?$AAL?$AAi?$AAn?$AAe?$AA?3?$AA?5?$AA?$AA@ 100b5b78     LIBCMTD:dbgrptw.obj
 0002:0000fb88       ??_C@_11LOCGONAA@?$AA?$AA@ 100b5b88     LIBCMTD:dbgrptw.obj
 0002:0000fb90       ??_C@_1OG@PMPPFHAF@?$AA?6?$AA?6?$AAF?$AAo?$AAr?$AA?5?$AAi?$AAn?$AAf?$AAo?$AAr?$AAm?$AAa?$AAt?$AAi?$AAo?$AAn?$AA?5?$AAo?$AAn?$AA?5?$AAh?$AAo?$AAw?$AA?5?$AAy?$AAo?$AAu?$AAr?$AA?5?$AAp?$AAr@ 100b5b90     LIBCMTD:dbgrptw.obj
 0002:0000fc78       ??_C@_1NO@LECLLHOL@?$AAm?$AAe?$AAm?$AAc?$AAp?$AAy?$AA_?$AAs?$AA?$CI?$AAs?$AAz?$AAS?$AAh?$AAo?$AAr?$AAt?$AAP?$AAr?$AAo?$AAg?$AAN?$AAa?$AAm?$AAe?$AA?0?$AA?5?$AAs?$AAi?$AAz?$AAe?$AAo?$AAf@ 100b5c78     LIBCMTD:dbgrptw.obj
 0002:0000fd58       ??_C@_1GI@DEDNNLCI@?$AAw?$AAc?$AAs?$AAc?$AAp?$AAy?$AA_?$AAs?$AA?$CI?$AAs?$AAz?$AAE?$AAx?$AAe?$AAN?$AAa?$AAm?$AAe?$AA?0?$AA?5?$AA2?$AA6?$AA0?$AA?0?$AA?5?$AAL?$AA?$CC?$AA?$DM?$AAp?$AAr?$AAo?$AAg@ 100b5d58     LIBCMTD:dbgrptw.obj
 0002:0000fdc0       ??_C@_1CI@PGJIFDEK@?$AA_?$AA_?$AAc?$AAr?$AAt?$AAM?$AAe?$AAs?$AAs?$AAa?$AAg?$AAe?$AAW?$AAi?$AAn?$AAd?$AAo?$AAw?$AAW?$AA?$AA@ 100b5dc0     LIBCMTD:dbgrptw.obj
 0002:0000fde8       ??_C@_0DB@MHMEONEC@f?3?2dd?2vctools?2crt_bld?2self_x86?2c@ 100b5de8     LIBCMTD:mbctype.obj
 0002:0000fe20       ??_C@_1GE@HMAALBPJ@?$AAf?$AA?3?$AA?2?$AAd?$AAd?$AA?2?$AAv?$AAc?$AAt?$AAo?$AAo?$AAl?$AAs?$AA?2?$AAc?$AAr?$AAt?$AA_?$AAb?$AAl?$AAd?$AA?2?$AAs?$AAe?$AAl?$AAf?$AA_?$AAx?$AA8?$AA6?$AA?2?$AAc@ 100b5e20     LIBCMTD:localref.obj
 0002:0000fe88       ??_C@_1BKC@GGIENNAK@?$AA?$CI?$AA?$CI?$AAp?$AAt?$AAl?$AAo?$AAc?$AAi?$AA?9?$AA?$DO?$AAl?$AAc?$AA_?$AAc?$AAa?$AAt?$AAe?$AAg?$AAo?$AAr?$AAy?$AA?$FL?$AAc?$AAa?$AAt?$AAe?$AAg?$AAo?$AAr?$AAy?$AA?$FN?$AA?4@ 100b5e88     LIBCMTD:localref.obj
 0002:0001002c       ??_C@_1BC@GDGBMEMK@?$AAH?$AAH?$AA?3?$AAm?$AAm?$AA?3?$AAs?$AAs?$AA?$AA@ 100b602c     LIBCMTD:nlsdata2.obj
 0002:00010040       ??_C@_1CI@KNAKOEBC@?$AAd?$AAd?$AAd?$AAd?$AA?0?$AA?5?$AAM?$AAM?$AAM?$AAM?$AA?5?$AAd?$AAd?$AA?0?$AA?5?$AAy?$AAy?$AAy?$AAy?$AA?$AA@ 100b6040     LIBCMTD:nlsdata2.obj
 0002:00010068       ??_C@_1BC@IEBCMHCM@?$AAM?$AAM?$AA?1?$AAd?$AAd?$AA?1?$AAy?$AAy?$AA?$AA@ 100b6068     LIBCMTD:nlsdata2.obj
 0002:0001007c       ??_C@_15CLMNNGEL@?$AAP?$AAM?$AA?$AA@ 100b607c     LIBCMTD:nlsdata2.obj
 0002:00010084       ??_C@_15ODEHAHHF@?$AAA?$AAM?$AA?$AA@ 100b6084     LIBCMTD:nlsdata2.obj
 0002:0001008c       ??_C@_1BC@FEMKIFH@?$AAD?$AAe?$AAc?$AAe?$AAm?$AAb?$AAe?$AAr?$AA?$AA@ 100b608c     LIBCMTD:nlsdata2.obj
 0002:000100a0       ??_C@_1BC@BGLIFPF@?$AAN?$AAo?$AAv?$AAe?$AAm?$AAb?$AAe?$AAr?$AA?$AA@ 100b60a0     LIBCMTD:nlsdata2.obj
 0002:000100b4       ??_C@_1BA@EPANDLNG@?$AAO?$AAc?$AAt?$AAo?$AAb?$AAe?$AAr?$AA?$AA@ 100b60b4     LIBCMTD:nlsdata2.obj
 0002:000100c4       ??_C@_1BE@DKAAMBJL@?$AAS?$AAe?$AAp?$AAt?$AAe?$AAm?$AAb?$AAe?$AAr?$AA?$AA@ 100b60c4     LIBCMTD:nlsdata2.obj
 0002:000100d8       ??_C@_1O@PAHLKOAC@?$AAA?$AAu?$AAg?$AAu?$AAs?$AAt?$AA?$AA@ 100b60d8     LIBCMTD:nlsdata2.obj
 0002:000100e8       ??_C@_19BIFMLPCD@?$AAJ?$AAu?$AAl?$AAy?$AA?$AA@ 100b60e8     LIBCMTD:nlsdata2.obj
 0002:000100f4       ??_C@_19EPFLPGAP@?$AAJ?$AAu?$AAn?$AAe?$AA?$AA@ 100b60f4     LIBCMTD:nlsdata2.obj
 0002:00010100       ??_C@_1M@GJNLMHFD@?$AAA?$AAp?$AAr?$AAi?$AAl?$AA?$AA@ 100b6100     LIBCMTD:nlsdata2.obj
 0002:0001010c       ??_C@_1M@IKEENEDF@?$AAM?$AAa?$AAr?$AAc?$AAh?$AA?$AA@ 100b610c     LIBCMTD:nlsdata2.obj
 0002:00010118       ??_C@_1BC@JGDDFFAM@?$AAF?$AAe?$AAb?$AAr?$AAu?$AAa?$AAr?$AAy?$AA?$AA@ 100b6118     LIBCMTD:nlsdata2.obj
 0002:0001012c       ??_C@_1BA@EFMEIEBA@?$AAJ?$AAa?$AAn?$AAu?$AAa?$AAr?$AAy?$AA?$AA@ 100b612c     LIBCMTD:nlsdata2.obj
 0002:0001013c       ??_C@_17EGKACKIF@?$AAD?$AAe?$AAc?$AA?$AA@ 100b613c     LIBCMTD:nlsdata2.obj
 0002:00010144       ??_C@_17BBDMLCIG@?$AAN?$AAo?$AAv?$AA?$AA@ 100b6144     LIBCMTD:nlsdata2.obj
 0002:0001014c       ??_C@_17FNLKOI@?$AAO?$AAc?$AAt?$AA?$AA@ 100b614c     LIBCMTD:nlsdata2.obj
 0002:00010154       ??_C@_17HCHCOKMG@?$AAS?$AAe?$AAp?$AA?$AA@ 100b6154     LIBCMTD:nlsdata2.obj
 0002:0001015c       ??_C@_17ICPELBCN@?$AAA?$AAu?$AAg?$AA?$AA@ 100b615c     LIBCMTD:nlsdata2.obj
 0002:00010164       ??_C@_17IJPCKHK@?$AAJ?$AAu?$AAl?$AA?$AA@ 100b6164     LIBCMTD:nlsdata2.obj
 0002:0001016c       ??_C@_17KCJGOCPB@?$AAJ?$AAu?$AAn?$AA?$AA@ 100b616c     LIBCMTD:nlsdata2.obj
 0002:00010174       ??_C@_17PNNKMEED@?$AAM?$AAa?$AAy?$AA?$AA@ 100b6174     LIBCMTD:nlsdata2.obj
 0002:0001017c       ??_C@_17LFPOIHDD@?$AAA?$AAp?$AAr?$AA?$AA@ 100b617c     LIBCMTD:nlsdata2.obj
 0002:00010184       ??_C@_17CKNLEDEC@?$AAM?$AAa?$AAr?$AA?$AA@ 100b6184     LIBCMTD:nlsdata2.obj
 0002:0001018c       ??_C@_17LMDJEKJN@?$AAF?$AAe?$AAb?$AA?$AA@ 100b618c     LIBCMTD:nlsdata2.obj
 0002:00010194       ??_C@_17DKNBKCHM@?$AAJ?$AAa?$AAn?$AA?$AA@ 100b6194     LIBCMTD:nlsdata2.obj
 0002:0001019c       ??_C@_1BC@ENMNNPAJ@?$AAS?$AAa?$AAt?$AAu?$AAr?$AAd?$AAa?$AAy?$AA?$AA@ 100b619c     LIBCMTD:nlsdata2.obj
 0002:000101b0       ??_C@_1O@PDICJHAG@?$AAF?$AAr?$AAi?$AAd?$AAa?$AAy?$AA?$AA@ 100b61b0     LIBCMTD:nlsdata2.obj
 0002:000101c0       ??_C@_1BC@HHMNLIHE@?$AAT?$AAh?$AAu?$AAr?$AAs?$AAd?$AAa?$AAy?$AA?$AA@ 100b61c0     LIBCMTD:nlsdata2.obj
 0002:000101d4       ??_C@_1BE@EBOGMDOH@?$AAW?$AAe?$AAd?$AAn?$AAe?$AAs?$AAd?$AAa?$AAy?$AA?$AA@ 100b61d4     LIBCMTD:nlsdata2.obj
 0002:000101e8       ??_C@_1BA@ENFBFFEK@?$AAT?$AAu?$AAe?$AAs?$AAd?$AAa?$AAy?$AA?$AA@ 100b61e8     LIBCMTD:nlsdata2.obj
 0002:000101f8       ??_C@_1O@MMNBFLIA@?$AAM?$AAo?$AAn?$AAd?$AAa?$AAy?$AA?$AA@ 100b61f8     LIBCMTD:nlsdata2.obj
 0002:00010208       ??_C@_1O@IHNHDHPB@?$AAS?$AAu?$AAn?$AAd?$AAa?$AAy?$AA?$AA@ 100b6208     LIBCMTD:nlsdata2.obj
 0002:00010218       ??_C@_17GGIBDPIH@?$AAS?$AAa?$AAt?$AA?$AA@ 100b6218     LIBCMTD:nlsdata2.obj
 0002:00010220       ??_C@_17HFOLPPLP@?$AAF?$AAr?$AAi?$AA?$AA@ 100b6220     LIBCMTD:nlsdata2.obj
 0002:00010228       ??_C@_17PDPHAADD@?$AAT?$AAh?$AAu?$AA?$AA@ 100b6228     LIBCMTD:nlsdata2.obj
 0002:00010230       ??_C@_17CJEDCEPE@?$AAW?$AAe?$AAd?$AA?$AA@ 100b6230     LIBCMTD:nlsdata2.obj
 0002:00010238       ??_C@_17BMKGEGOJ@?$AAT?$AAu?$AAe?$AA?$AA@ 100b6238     LIBCMTD:nlsdata2.obj
 0002:00010240       ??_C@_17KBOMKBF@?$AAM?$AAo?$AAn?$AA?$AA@ 100b6240     LIBCMTD:nlsdata2.obj
 0002:00010248       ??_C@_17MBGCMIPB@?$AAS?$AAu?$AAn?$AA?$AA@ 100b6248     LIBCMTD:nlsdata2.obj
 0002:00010250       ??_C@_08JCCMCCIL@HH?3mm?3ss?$AA@ 100b6250     LIBCMTD:nlsdata2.obj
 0002:0001025c       ??_C@_0BE@CKGJFCPC@dddd?0?5MMMM?5dd?0?5yyyy?$AA@ 100b625c     LIBCMTD:nlsdata2.obj
 0002:00010270       ??_C@_08BPBNCDIB@MM?1dd?1yy?$AA@ 100b6270     LIBCMTD:nlsdata2.obj
 0002:0001027c       ??_C@_02CJNFDJBF@PM?$AA@   100b627c     LIBCMTD:nlsdata2.obj
 0002:00010280       ??_C@_02DEDBPAFC@AM?$AA@   100b6280     LIBCMTD:nlsdata2.obj
 0002:00010284       ??_C@_08EDHMEBNP@December?$AA@ 100b6284     LIBCMTD:nlsdata2.obj
 0002:00010290       ??_C@_08HCHEGEOA@November?$AA@ 100b6290     LIBCMTD:nlsdata2.obj
 0002:0001029c       ??_C@_07JJNFCEND@October?$AA@ 100b629c     LIBCMTD:nlsdata2.obj
 0002:000102a4       ??_C@_09BHHEALKD@September?$AA@ 100b62a4     LIBCMTD:nlsdata2.obj
 0002:000102b0       ??_C@_06LBBHFDDG@August?$AA@ 100b62b0     LIBCMTD:nlsdata2.obj
 0002:000102b8       ??_C@_04MIEPOIFP@July?$AA@ 100b62b8     LIBCMTD:nlsdata2.obj
 0002:000102c0       ??_C@_04CNLMGBGM@June?$AA@ 100b62c0     LIBCMTD:nlsdata2.obj
 0002:000102c8       ??_C@_05DMJDNLEJ@April?$AA@ 100b62c8     LIBCMTD:nlsdata2.obj
 0002:000102d0       ??_C@_05HPCKOFNC@March?$AA@ 100b62d0     LIBCMTD:nlsdata2.obj
 0002:000102d8       ??_C@_08GNJGEPFN@February?$AA@ 100b62d8     LIBCMTD:nlsdata2.obj
 0002:000102e4       ??_C@_07CGJPFGJA@January?$AA@ 100b62e4     LIBCMTD:nlsdata2.obj
 0002:000102ec       ??_C@_03MKABNOCG@Dec?$AA@  100b62ec     LIBCMTD:nlsdata2.obj
 0002:000102f0       ??_C@_03JPJOFNIA@Nov?$AA@  100b62f0     LIBCMTD:nlsdata2.obj
 0002:000102f4       ??_C@_03BMAOKBAD@Oct?$AA@  100b62f4     LIBCMTD:nlsdata2.obj
 0002:000102f8       ??_C@_03GGCAPAJC@Sep?$AA@  100b62f8     LIBCMTD:nlsdata2.obj
 0002:000102fc       ??_C@_03IFJFEIGA@Aug?$AA@  100b62fc     LIBCMTD:nlsdata2.obj
 0002:00010300       ??_C@_03LBGABGKK@Jul?$AA@  100b6300     LIBCMTD:nlsdata2.obj
 0002:00010304       ??_C@_03IDFGHECI@Jun?$AA@  100b6304     LIBCMTD:nlsdata2.obj
 0002:00010308       ??_C@_03CNMDKL@May?$AA@    100b6308     LIBCMTD:nlsdata2.obj
 0002:0001030c       ??_C@_03LEOLGMJP@Apr?$AA@  100b630c     LIBCMTD:nlsdata2.obj
 0002:00010310       ??_C@_03ODNJBKGA@Mar?$AA@  100b6310     LIBCMTD:nlsdata2.obj
 0002:00010314       ??_C@_03HJBDCHOM@Feb?$AA@  100b6314     LIBCMTD:nlsdata2.obj
 0002:00010318       ??_C@_03JIHJHPIE@Jan?$AA@  100b6318     LIBCMTD:nlsdata2.obj
 0002:0001031c       ??_C@_08INBOOONO@Saturday?$AA@ 100b631c     LIBCMTD:nlsdata2.obj
 0002:00010328       ??_C@_06JECMNKMI@Friday?$AA@ 100b6328     LIBCMTD:nlsdata2.obj
 0002:00010330       ??_C@_08HACCIKIA@Thursday?$AA@ 100b6330     LIBCMTD:nlsdata2.obj
 0002:0001033c       ??_C@_09DLIGFAKA@Wednesday?$AA@ 100b633c     LIBCMTD:nlsdata2.obj
 0002:00010348       ??_C@_07BAAGCFCM@Tuesday?$AA@ 100b6348     LIBCMTD:nlsdata2.obj
 0002:00010350       ??_C@_06JLEDEDGH@Monday?$AA@ 100b6350     LIBCMTD:nlsdata2.obj
 0002:00010358       ??_C@_06OOPIFAJ@Sunday?$AA@ 100b6358     LIBCMTD:nlsdata2.obj
 0002:00010360       ??_C@_03FEFJNEK@Sat?$AA@   100b6360     LIBCMTD:nlsdata2.obj
 0002:00010364       ??_C@_03IDIOELNC@Fri?$AA@  100b6364     LIBCMTD:nlsdata2.obj
 0002:00010368       ??_C@_03IOFIKPDN@Thu?$AA@  100b6368     LIBCMTD:nlsdata2.obj
 0002:0001036c       ??_C@_03MHOMLAJA@Wed?$AA@  100b636c     LIBCMTD:nlsdata2.obj
 0002:00010370       ??_C@_03NAGEINEP@Tue?$AA@  100b6370     LIBCMTD:nlsdata2.obj
 0002:00010374       ??_C@_03PDAGKDH@Mon?$AA@   100b6374     LIBCMTD:nlsdata2.obj
 0002:00010378       ??_C@_03KOEHGMDN@Sun?$AA@  100b6378     LIBCMTD:nlsdata2.obj
 0002:0001037c       ??_C@_0DC@LMJHGCKC@f?3?2dd?2vctools?2crt_bld?2self_x86?2c@ 100b637c     LIBCMTD:tidtable.obj
 0002:000103b0       ??_C@_07PEJMOBNF@FlsFree?$AA@ 100b63b0     LIBCMTD:tidtable.obj
 0002:000103b8       ??_C@_0M@JCPCPOEF@FlsSetValue?$AA@ 100b63b8     LIBCMTD:tidtable.obj
 0002:000103c4       ??_C@_0M@GDNOONDI@FlsGetValue?$AA@ 100b63c4     LIBCMTD:tidtable.obj
 0002:000103d0       ??_C@_08KNHFBNJ@FlsAlloc?$AA@ 100b63d0     LIBCMTD:tidtable.obj
 0002:000103dc       ??_C@_1BK@DBDEIDLH@?$AAK?$AAE?$AAR?$AAN?$AAE?$AAL?$AA3?$AA2?$AA?4?$AAD?$AAL?$AAL?$AA?$AA@ 100b63dc     LIBCMTD:tidtable.obj
 0002:000103f8       ??_C@_07LCBHPJJN@LC_TIME?$AA@ 100b63f8     LIBCMTD:setlocal.obj
 0002:00010400       ??_C@_0L@DLHIECNL@LC_NUMERIC?$AA@ 100b6400     LIBCMTD:setlocal.obj
 0002:0001040c       ??_C@_0M@MIENIKLA@LC_MONETARY?$AA@ 100b640c     LIBCMTD:setlocal.obj
 0002:00010418       ??_C@_08EADHIDAD@LC_CTYPE?$AA@ 100b6418     LIBCMTD:setlocal.obj
 0002:00010424       ??_C@_0L@KFJHEKIK@LC_COLLATE?$AA@ 100b6424     LIBCMTD:setlocal.obj
 0002:00010430       ??_C@_06NEFDFEKB@LC_ALL?$AA@ 100b6430     LIBCMTD:setlocal.obj
 0002:00010438       ___lc_category             100b6438     LIBCMTD:setlocal.obj
 0002:00010500       ??_C@_1CI@FGIONOJM@?$AA_?$AAc?$AAo?$AAn?$AAf?$AAi?$AAg?$AAt?$AAh?$AAr?$AAe?$AAa?$AAd?$AAl?$AAo?$AAc?$AAa?$AAl?$AAe?$AA?$AA@ 100b6500     LIBCMTD:setlocal.obj
 0002:00010528       ??_C@_1GE@OLEIGPBJ@?$AAf?$AA?3?$AA?2?$AAd?$AAd?$AA?2?$AAv?$AAc?$AAt?$AAo?$AAo?$AAl?$AAs?$AA?2?$AAc?$AAr?$AAt?$AA_?$AAb?$AAl?$AAd?$AA?2?$AAs?$AAe?$AAl?$AAf?$AA_?$AAx?$AA8?$AA6?$AA?2?$AAc@ 100b6528     LIBCMTD:setlocal.obj
 0002:00010590       ??_C@_1GA@LDEGDKD@?$AA?$CI?$AA?$CC?$AAI?$AAn?$AAv?$AAa?$AAl?$AAi?$AAd?$AA?5?$AAp?$AAa?$AAr?$AAa?$AAm?$AAe?$AAt?$AAe?$AAr?$AA?5?$AAf?$AAo?$AAr?$AA?5?$AA_?$AAc?$AAo?$AAn?$AAf?$AAi?$AAg?$AAt@ 100b6590     LIBCMTD:setlocal.obj
 0002:000105f0       ??_C@_0DC@JCPFNMID@f?3?2dd?2vctools?2crt_bld?2self_x86?2c@ 100b65f0     LIBCMTD:setlocal.obj
 0002:00010624       ??_C@_1BE@DBJGBOJC@?$AAs?$AAe?$AAt?$AAl?$AAo?$AAc?$AAa?$AAl?$AAe?$AA?$AA@ 100b6624     LIBCMTD:setlocal.obj
 0002:00010638       ??_C@_1FG@OHLFEKMC@?$AAL?$AAC?$AA_?$AAM?$AAI?$AAN?$AA?5?$AA?$DM?$AA?$DN?$AA?5?$AA_?$AAc?$AAa?$AAt?$AAe?$AAg?$AAo?$AAr?$AAy?$AA?5?$AA?$CG?$AA?$CG?$AA?5?$AA_?$AAc?$AAa?$AAt?$AAe?$AAg?$AAo?$AAr?$AAy@ 100b6638     LIBCMTD:setlocal.obj
 0002:00010690       ??_C@_1IA@PFIKKKFB@?$AAs?$AAt?$AAr?$AAn?$AAc?$AAp?$AAy?$AA_?$AAs?$AA?$CI?$AAl?$AAc?$AAt?$AAe?$AAm?$AAp?$AA?0?$AA?5?$AA?$CI?$AAs?$AAi?$AAz?$AAe?$AAo?$AAf?$AA?$CI?$AAl?$AAc?$AAt?$AAe?$AAm?$AAp@ 100b6690     LIBCMTD:setlocal.obj
 0002:00010710       ??_C@_1CE@OFNHIOO@?$AA_?$AAs?$AAe?$AAt?$AAl?$AAo?$AAc?$AAa?$AAl?$AAe?$AA_?$AAn?$AAo?$AAl?$AAo?$AAc?$AAk?$AA?$AA@ 100b6710     LIBCMTD:setlocal.obj
 0002:00010734       ??_C@_01ICJEACDI@?$DL?$AA@ 100b6734     LIBCMTD:setlocal.obj
 0002:00010738       ??_C@_02BALPLPBG@?$DN?$DL?$AA@ 100b6738     LIBCMTD:setlocal.obj
 0002:00010740       ??_C@_1GO@JALHLJEH@?$AAs?$AAt?$AAr?$AAc?$AAp?$AAy?$AA_?$AAs?$AA?$CI?$AAp?$AAc?$AAh?$AA?5?$AA?$CL?$AA?5?$AAs?$AAi?$AAz?$AAe?$AAo?$AAf?$AA?$CI?$AAi?$AAn?$AAt?$AA?$CJ?$AA?0?$AA?5?$AAc?$AAc?$AAh?$AA?5@ 100b6740     LIBCMTD:setlocal.obj
 0002:000107b0       ??_C@_1CG@IEFIICPK@?$AA_?$AAs?$AAe?$AAt?$AAl?$AAo?$AAc?$AAa?$AAl?$AAe?$AA_?$AAs?$AAe?$AAt?$AA_?$AAc?$AAa?$AAt?$AA?$AA@ 100b67b0     LIBCMTD:setlocal.obj
 0002:000107d8       ??_C@_1DA@GDKKLCLM@?$AAs?$AAt?$AAr?$AAc?$AAa?$AAt?$AA_?$AAs?$AA?$CI?$AAp?$AAc?$AAh?$AA?0?$AA?5?$AAc?$AAc?$AAh?$AA?0?$AA?5?$AA?$CC?$AA?$DL?$AA?$CC?$AA?$CJ?$AA?$AA@ 100b67d8     LIBCMTD:setlocal.obj
 0002:00010808       ??_C@_1CG@NNFIJLDA@?$AA_?$AAs?$AAe?$AAt?$AAl?$AAo?$AAc?$AAa?$AAl?$AAe?$AA_?$AAg?$AAe?$AAt?$AA_?$AAa?$AAl?$AAl?$AA?$AA@ 100b6808     LIBCMTD:setlocal.obj
 0002:00010830       ??_C@_01NEMOKFLO@?$DN?$AA@ 100b6830     LIBCMTD:setlocal.obj
 0002:00010838       ??_C@_1FA@MHAOOIBO@?$AAs?$AAt?$AAr?$AAc?$AAp?$AAy?$AA_?$AAs?$AA?$CI?$AAo?$AAu?$AAt?$AAp?$AAu?$AAt?$AA?0?$AA?5?$AAs?$AAi?$AAz?$AAe?$AAI?$AAn?$AAC?$AAh?$AAa?$AAr?$AAs?$AA?0?$AA?5?$AAc?$AAa@ 100b6838     LIBCMTD:setlocal.obj
 0002:00010888       ??_C@_1IA@ONNFOEDA@?$AAs?$AAt?$AAr?$AAn?$AAc?$AAp?$AAy?$AA_?$AAs?$AA?$CI?$AAc?$AAa?$AAc?$AAh?$AAe?$AAi?$AAn?$AA?0?$AA?5?$AAc?$AAa?$AAc?$AAh?$AAe?$AAi?$AAn?$AAS?$AAi?$AAz?$AAe?$AA?0?$AA?5@ 100b6888     LIBCMTD:setlocal.obj
 0002:00010908       ??_C@_01GFHCPBMG@C?$AA@    100b6908     LIBCMTD:setlocal.obj
 0002:00010910       ??_C@_1EG@MOMHKOD@?$AAs?$AAt?$AAr?$AAc?$AAp?$AAy?$AA_?$AAs?$AA?$CI?$AAo?$AAu?$AAt?$AAp?$AAu?$AAt?$AA?0?$AA?5?$AAs?$AAi?$AAz?$AAe?$AAI?$AAn?$AAC?$AAh?$AAa?$AAr?$AAs?$AA?0?$AA?5?$AA?$CC?$AAC@ 100b6910     LIBCMTD:setlocal.obj
 0002:00010958       ??_C@_1BM@OIIBLEFG@?$AA_?$AAe?$AAx?$AAp?$AAa?$AAn?$AAd?$AAl?$AAo?$AAc?$AAa?$AAl?$AAe?$AA?$AA@ 100b6958     LIBCMTD:setlocal.obj
 0002:00010978       ??_C@_1BGM@IJDLABMC@?$AAs?$AAt?$AAr?$AAc?$AAa?$AAt?$AA_?$AAs?$AA?$CI?$AAo?$AAu?$AAt?$AAs?$AAt?$AAr?$AA?0?$AA?5?$AAs?$AAi?$AAz?$AAe?$AAI?$AAn?$AAB?$AAy?$AAt?$AAe?$AAs?$AA?0?$AA?5?$AA?$CI?$AA?5@ 100b6978     LIBCMTD:setlocal.obj
 0002:00010ae4       ??_C@_1BC@PIABMDIP@?$AA_?$AAs?$AAt?$AAr?$AAc?$AAa?$AAt?$AAs?$AA?$AA@ 100b6ae4     LIBCMTD:setlocal.obj
 0002:00010af8       ??_C@_1MM@NOPMGFHF@?$AAs?$AAt?$AAr?$AAn?$AAc?$AAp?$AAy?$AA_?$AAs?$AA?$CI?$AAn?$AAa?$AAm?$AAe?$AAs?$AA?9?$AA?$DO?$AAs?$AAz?$AAC?$AAo?$AAd?$AAe?$AAP?$AAa?$AAg?$AAe?$AA?0?$AA?5?$AA?$CI?$AAs?$AAi@ 100b6af8     LIBCMTD:setlocal.obj
 0002:00010bc8       ??_C@_1MG@PHNILIAG@?$AAs?$AAt?$AAr?$AAn?$AAc?$AAp?$AAy?$AA_?$AAs?$AA?$CI?$AAn?$AAa?$AAm?$AAe?$AAs?$AA?9?$AA?$DO?$AAs?$AAz?$AAC?$AAo?$AAu?$AAn?$AAt?$AAr?$AAy?$AA?0?$AA?5?$AA?$CI?$AAs?$AAi?$AAz@ 100b6bc8     LIBCMTD:setlocal.obj
 0002:00010c90       ??_C@_1MM@BFEECMAF@?$AAs?$AAt?$AAr?$AAn?$AAc?$AAp?$AAy?$AA_?$AAs?$AA?$CI?$AAn?$AAa?$AAm?$AAe?$AAs?$AA?9?$AA?$DO?$AAs?$AAz?$AAL?$AAa?$AAn?$AAg?$AAu?$AAa?$AAg?$AAe?$AA?0?$AA?5?$AA?$CI?$AAs?$AAi@ 100b6c90     LIBCMTD:setlocal.obj
 0002:00010d5c       ??_C@_03EGDHDPFD@_?4?0?$AA@ 100b6d5c     LIBCMTD:setlocal.obj
 0002:00010d60       ??_C@_1NG@FMOPGKGG@?$AAs?$AAt?$AAr?$AAn?$AAc?$AAp?$AAy?$AA_?$AAs?$AA?$CI?$AAn?$AAa?$AAm?$AAe?$AAs?$AA?9?$AA?$DO?$AAs?$AAz?$AAC?$AAo?$AAd?$AAe?$AAP?$AAa?$AAg?$AAe?$AA?0?$AA?5?$AA?$CI?$AAs?$AAi@ 100b6d60     LIBCMTD:setlocal.obj
 0002:00010e38       ??_C@_1BK@CBMMLAGJ@?$AA_?$AA_?$AAl?$AAc?$AA_?$AAs?$AAt?$AAr?$AAt?$AAo?$AAl?$AAc?$AA?$AA@ 100b6e38     LIBCMTD:setlocal.obj
 0002:00010e54       ??_C@_01LFCBOECM@?4?$AA@   100b6e54     LIBCMTD:setlocal.obj
 0002:00010e58       ??_C@_01IDAFKMJL@_?$AA@    100b6e58     LIBCMTD:setlocal.obj
 0002:00010e60       ??_C@_1HC@IBDBLKCB@?$AAs?$AAt?$AAr?$AAc?$AAp?$AAy?$AA_?$AAs?$AA?$CI?$AAl?$AAo?$AAc?$AAa?$AAl?$AAe?$AA?0?$AA?5?$AAs?$AAi?$AAz?$AAe?$AAI?$AAn?$AAB?$AAy?$AAt?$AAe?$AAs?$AA?0?$AA?5?$AA?$CI?$AAc@ 100b6e60     LIBCMTD:setlocal.obj
 0002:00010ed4       ??_C@_1BK@FGDJDEPG@?$AA_?$AA_?$AAl?$AAc?$AA_?$AAl?$AAc?$AAt?$AAo?$AAs?$AAt?$AAr?$AA?$AA@ 100b6ed4     LIBCMTD:setlocal.obj
 0002:00010ef0       ??_C@_1FE@CEHLKAHD@?$AAi?$AAb?$AAa?$AAs?$AAe?$AA?5?$AA?$DN?$AA?$DN?$AA?5?$AA0?$AA?5?$AA?$HM?$AA?$HM?$AA?5?$AA?$CI?$AA2?$AA?5?$AA?$DM?$AA?$DN?$AA?5?$AAi?$AAb?$AAa?$AAs?$AAe?$AA?5?$AA?$CG?$AA?$CG?$AA?5?$AAi?$AAb?$AAa@ 100b6ef0     LIBCMTD:strtol.obj
 0002:00010f44       ??_C@_1BA@LOLAMAJG@?$AAs?$AAt?$AAr?$AAt?$AAo?$AAx?$AAl?$AA?$AA@ 100b6f44     LIBCMTD:strtol.obj
 0002:00010f58       ??_C@_1GA@IPHKKOEI@?$AAf?$AA?3?$AA?2?$AAd?$AAd?$AA?2?$AAv?$AAc?$AAt?$AAo?$AAo?$AAl?$AAs?$AA?2?$AAc?$AAr?$AAt?$AA_?$AAb?$AAl?$AAd?$AA?2?$AAs?$AAe?$AAl?$AAf?$AA_?$AAx?$AA8?$AA6?$AA?2?$AAc@ 100b6f58     LIBCMTD:strtol.obj
 0002:00010fb8       ??_C@_1BA@BMMDEPNE@?$AAs?$AAt?$AAr?$AAt?$AAo?$AAx?$AAq?$AA?$AA@ 100b6fb8     LIBCMTD:strtoq.obj
 0002:00010fc8       ??_C@_1GA@GIMEIKLC@?$AAf?$AA?3?$AA?2?$AAd?$AAd?$AA?2?$AAv?$AAc?$AAt?$AAo?$AAo?$AAl?$AAs?$AA?2?$AAc?$AAr?$AAt?$AA_?$AAb?$AAl?$AAd?$AA?2?$AAs?$AAe?$AAl?$AAf?$AA_?$AAx?$AA8?$AA6?$AA?2?$AAc@ 100b6fc8     LIBCMTD:strtoq.obj
 0002:00011028       ??_C@_1EA@GEPBEDLJ@?$AAs?$AAt?$AAr?$AAn?$AAc?$AAp?$AAy?$AA_?$AAs?$AA?$CI?$AAt?$AAz?$AAn?$AAa?$AAm?$AAe?$AA?$FL?$AA1?$AA?$FN?$AA?0?$AA?5?$AA6?$AA4?$AA?0?$AA?5?$AAT?$AAZ?$AA?0?$AA?5?$AA3?$AA?$CJ?$AA?$AA@ 100b7028     LIBCMTD:tzset.obj
 0002:00011068       ??_C@_1EA@FIJBKALB@?$AAs?$AAt?$AAr?$AAn?$AAc?$AAp?$AAy?$AA_?$AAs?$AA?$CI?$AAt?$AAz?$AAn?$AAa?$AAm?$AAe?$AA?$FL?$AA0?$AA?$FN?$AA?0?$AA?5?$AA6?$AA4?$AA?0?$AA?5?$AAT?$AAZ?$AA?0?$AA?5?$AA3?$AA?$CJ?$AA?$AA@ 100b7068     LIBCMTD:tzset.obj
 0002:000110a8       ??_C@_1EK@MCAIMDPB@?$AAs?$AAt?$AAr?$AAc?$AAp?$AAy?$AA_?$AAs?$AA?$CI?$AAl?$AAa?$AAs?$AAt?$AAT?$AAZ?$AA?0?$AA?5?$AAs?$AAt?$AAr?$AAl?$AAe?$AAn?$AA?$CI?$AAT?$AAZ?$AA?$CJ?$AA?5?$AA?$CL?$AA?5?$AA1?$AA?0@ 100b70a8     LIBCMTD:tzset.obj
 0002:000110f4       ??_C@_0CP@FODJBIFF@f?3?2dd?2vctools?2crt_bld?2self_x86?2c@ 100b70f4     LIBCMTD:tzset.obj
 0002:00011124       ??_C@_02CLFPBFFP@TZ?$AA@   100b7124     LIBCMTD:tzset.obj
 0002:00011128       ??_C@_1BM@IIODHMJC@?$AA_?$AAt?$AAz?$AAs?$AAe?$AAt?$AA_?$AAn?$AAo?$AAl?$AAo?$AAc?$AAk?$AA?$AA@ 100b7128     LIBCMTD:tzset.obj
 0002:00011148       ??_C@_1FO@MLHAIHAB@?$AAf?$AA?3?$AA?2?$AAd?$AAd?$AA?2?$AAv?$AAc?$AAt?$AAo?$AAo?$AAl?$AAs?$AA?2?$AAc?$AAr?$AAt?$AA_?$AAb?$AAl?$AAd?$AA?2?$AAs?$AAe?$AAl?$AAf?$AA_?$AAx?$AA8?$AA6?$AA?2?$AAc@ 100b7148     LIBCMTD:tzset.obj
 0002:000111a8       ??_C@_1CA@GOLIIEDM@?$AA_?$AAi?$AAs?$AAi?$AAn?$AAd?$AAs?$AAt?$AA_?$AAn?$AAo?$AAl?$AAo?$AAc?$AAk?$AA?$AA@ 100b71a8     LIBCMTD:tzset.obj
 0002:000111c8       ??_C@_1BA@GOCKIDGO@?$AAc?$AAv?$AAt?$AAd?$AAa?$AAt?$AAe?$AA?$AA@ 100b71c8     LIBCMTD:tzset.obj
 0002:000111d8       ??_C@_1CC@FPMHPAM@?$AA?$CI?$AA?5?$AAt?$AAi?$AAm?$AAp?$AA?5?$AA?$CB?$AA?$DN?$AA?5?$AAN?$AAU?$AAL?$AAL?$AA?5?$AA?$CJ?$AA?$AA@ 100b71d8     LIBCMTD:gmtime64.obj
 0002:000111fc       ??_C@_1BI@BFNFPMLP@?$AA_?$AAg?$AAm?$AAt?$AAi?$AAm?$AAe?$AA6?$AA4?$AA_?$AAs?$AA?$AA@ 100b71fc     LIBCMTD:gmtime64.obj
 0002:00011218       ??_C@_1GE@CKMEKJPD@?$AAf?$AA?3?$AA?2?$AAd?$AAd?$AA?2?$AAv?$AAc?$AAt?$AAo?$AAo?$AAl?$AAs?$AA?2?$AAc?$AAr?$AAt?$AA_?$AAb?$AAl?$AAd?$AA?2?$AAs?$AAe?$AAl?$AAf?$AA_?$AAx?$AA8?$AA6?$AA?2?$AAc@ 100b7218     LIBCMTD:gmtime64.obj
 0002:0001127c       ___dnames                  100b727c     LIBCMTD:timeset.obj
 0002:00011294       ___mnames                  100b7294     LIBCMTD:timeset.obj
 0002:000112bc       ??_C@_1BM@FIMHBHEB@?$AA_?$AAg?$AAe?$AAt?$AA_?$AAd?$AAa?$AAy?$AAl?$AAi?$AAg?$AAh?$AAt?$AA?$AA@ 100b72bc     LIBCMTD:timeset.obj
 0002:000112d8       ??_C@_1GC@NEGFAKA@?$AAf?$AA?3?$AA?2?$AAd?$AAd?$AA?2?$AAv?$AAc?$AAt?$AAo?$AAo?$AAl?$AAs?$AA?2?$AAc?$AAr?$AAt?$AA_?$AAb?$AAl?$AAd?$AA?2?$AAs?$AAe?$AAl?$AAf?$AA_?$AAx?$AA8?$AA6?$AA?2?$AAc@ 100b72d8     LIBCMTD:timeset.obj
 0002:0001133c       ??_C@_1CI@MKJEHFPG@?$AA?$CI?$AA_?$AAD?$AAa?$AAy?$AAl?$AAi?$AAg?$AAh?$AAt?$AA?5?$AA?$CB?$AA?$DN?$AA?5?$AAN?$AAU?$AAL?$AAL?$AA?$CJ?$AA?$AA@ 100b733c     LIBCMTD:timeset.obj
 0002:00011364       ??_C@_1BK@EMODDHEE@?$AA_?$AAg?$AAe?$AAt?$AA_?$AAd?$AAs?$AAt?$AAb?$AAi?$AAa?$AAs?$AA?$AA@ 100b7364     LIBCMTD:timeset.obj
 0002:00011380       ??_C@_1EC@PKDJPAAB@?$AA?$CI?$AA_?$AAD?$AAa?$AAy?$AAl?$AAi?$AAg?$AAh?$AAt?$AA_?$AAs?$AAa?$AAv?$AAi?$AAn?$AAg?$AAs?$AA_?$AAb?$AAi?$AAa?$AAs?$AA?5?$AA?$CB?$AA?$DN?$AA?5?$AAN?$AAU?$AAL?$AAL?$AA?$CJ@ 100b7380     LIBCMTD:timeset.obj
 0002:000113c4       ??_C@_1BM@MGEAKPEJ@?$AA_?$AAg?$AAe?$AAt?$AA_?$AAt?$AAi?$AAm?$AAe?$AAz?$AAo?$AAn?$AAe?$AA?$AA@ 100b73c4     LIBCMTD:timeset.obj
 0002:000113e0       ??_C@_1CI@PODJJGAL@?$AA?$CI?$AA_?$AAT?$AAi?$AAm?$AAe?$AAz?$AAo?$AAn?$AAe?$AA?5?$AA?$CB?$AA?$DN?$AA?5?$AAN?$AAU?$AAL?$AAL?$AA?$CJ?$AA?$AA@ 100b73e0     LIBCMTD:timeset.obj
 0002:00011408       ??_C@_1DG@HLGKANIP@?$AA_?$AAI?$AAn?$AAd?$AAe?$AAx?$AA?5?$AA?$DN?$AA?$DN?$AA?5?$AA0?$AA?5?$AA?$HM?$AA?$HM?$AA?5?$AA_?$AAI?$AAn?$AAd?$AAe?$AAx?$AA?5?$AA?$DN?$AA?$DN?$AA?5?$AA1?$AA?$AA@ 100b7408     LIBCMTD:timeset.obj
 0002:00011440       ??_C@_1CK@GBKHKEI@?$AA_?$AAR?$AAe?$AAt?$AAu?$AAr?$AAn?$AAV?$AAa?$AAl?$AAu?$AAe?$AA?5?$AA?$CB?$AA?$DN?$AA?5?$AAN?$AAU?$AAL?$AAL?$AA?$AA@ 100b7440     LIBCMTD:timeset.obj
 0002:0001146c       ??_C@_1BI@BHCKCCFA@?$AA_?$AAg?$AAe?$AAt?$AA_?$AAt?$AAz?$AAn?$AAa?$AAm?$AAe?$AA?$AA@ 100b746c     LIBCMTD:timeset.obj
 0002:00011488       ??_C@_1KA@POFLNEC@?$AA?$CI?$AA_?$AAB?$AAu?$AAf?$AAf?$AAe?$AAr?$AA?5?$AA?$CB?$AA?$DN?$AA?5?$AAN?$AAU?$AAL?$AAL?$AA?5?$AA?$CG?$AA?$CG?$AA?5?$AA_?$AAS?$AAi?$AAz?$AAe?$AAI?$AAn?$AAB?$AAy?$AAt?$AAe?$AAs@ 100b7488     LIBCMTD:timeset.obj
 0002:00011528       ??_C@_1BI@DFJDDOHM@?$AA_?$AAg?$AAm?$AAt?$AAi?$AAm?$AAe?$AA3?$AA2?$AA_?$AAs?$AA?$AA@ 100b7528     LIBCMTD:gmtime.obj
 0002:00011540       ??_C@_1GA@OAOCHJKE@?$AAf?$AA?3?$AA?2?$AAd?$AAd?$AA?2?$AAv?$AAc?$AAt?$AAo?$AAo?$AAl?$AAs?$AA?2?$AAc?$AAr?$AAt?$AA_?$AAb?$AAl?$AAd?$AA?2?$AAs?$AAe?$AAl?$AAf?$AA_?$AAx?$AA8?$AA6?$AA?2?$AAc@ 100b7540     LIBCMTD:gmtime.obj
 0002:000115a0       ??_C@_0DA@FNHOCICI@f?3?2dd?2vctools?2crt_bld?2self_x86?2c@ 100b75a0     LIBCMTD:gmtime.obj
 0002:000115d0       ??_C@_1GC@CHGJNMHG@?$AAf?$AA?3?$AA?2?$AAd?$AAd?$AA?2?$AAv?$AAc?$AAt?$AAo?$AAo?$AAl?$AAs?$AA?2?$AAc?$AAr?$AAt?$AA_?$AAb?$AAl?$AAd?$AA?2?$AAs?$AAe?$AAl?$AAf?$AA_?$AAx?$AA8?$AA6?$AA?2?$AAc@ 100b75d0     LIBCMTD:isctype.obj
 0002:00011634       ??_C@_1DC@BPLPALML@?$AA?$CI?$AAu?$AAn?$AAs?$AAi?$AAg?$AAn?$AAe?$AAd?$AA?$CJ?$AA?$CI?$AAc?$AA?5?$AA?$CL?$AA?5?$AA1?$AA?$CJ?$AA?5?$AA?$DM?$AA?$DN?$AA?5?$AA2?$AA5?$AA6?$AA?$AA@ 100b7634     LIBCMTD:isctype.obj
 0002:00011668       ??_C@_1BO@IHLJHOPI@?$AA_?$AA_?$AAs?$AAt?$AAr?$AAg?$AAt?$AAo?$AAl?$AAd?$AA1?$AA2?$AA_?$AAl?$AA?$AA@ 100b7668     LIBCMTD:_strgtold_.obj
 0002:00011688       ??_C@_1IG@IGKPPFIM@?$AAf?$AA?3?$AA?2?$AAd?$AAd?$AA?2?$AAv?$AAc?$AAt?$AAo?$AAo?$AAl?$AAs?$AA?2?$AAc?$AAr?$AAt?$AA_?$AAb?$AAl?$AAd?$AA?2?$AAs?$AAe?$AAl?$AAf?$AA_?$AAx?$AA8?$AA6?$AA?2?$AAc@ 100b7688     LIBCMTD:_strgtold_.obj
 0002:00011710       ??_C@_1CA@MBDBOHIB@?$AA_?$AAL?$AAo?$AAc?$AAa?$AAl?$AAe?$AA?5?$AA?$CB?$AA?$DN?$AA?5?$AAN?$AAU?$AAL?$AAL?$AA?$AA@ 100b7710     LIBCMTD:_strgtold_.obj
 0002:00011798       ??_C@_03IIINPABG@tan?$AA@  100b7798     LIBCMTD:_libm_error_.obj
 0002:0001179c       ??_C@_03LALBNOCG@cos?$AA@  100b779c     LIBCMTD:_libm_error_.obj
 0002:000117a0       ??_C@_03BLEJJJBH@sin?$AA@  100b77a0     LIBCMTD:_libm_error_.obj
 0002:000117a4       ??_C@_04EHEDPDJG@modf?$AA@ 100b77a4     LIBCMTD:_libm_error_.obj
 0002:000117ac       ??_C@_05PBJFFIGL@floor?$AA@ 100b77ac     LIBCMTD:_libm_error_.obj
 0002:000117b4       ??_C@_04GFPJNGEK@ceil?$AA@ 100b77b4     LIBCMTD:_libm_error_.obj
 0002:000117bc       ??_C@_04MLLJIGOK@atan?$AA@ 100b77bc     LIBCMTD:_libm_error_.obj
 0002:000117c4       ??_C@_05EOHGHCHD@exp10?$AA@ 100b77c4     LIBCMTD:_libm_error_.obj
 0002:000117cc       ??_C@_04PDIFKINK@acos?$AA@ 100b77cc     LIBCMTD:_libm_error_.obj
 0002:000117d4       ??_C@_04FIHNOPOL@asin?$AA@ 100b77d4     LIBCMTD:_libm_error_.obj
 0002:000117dc       ??_C@_03JGHBODFD@pow?$AA@  100b77dc     LIBCMTD:_libm_error_.obj
 0002:000117e0       ??_C@_03KHJOGHMM@exp?$AA@  100b77e0     LIBCMTD:_libm_error_.obj
 0002:000117e4       ??_C@_05HGHHAHAP@log10?$AA@ 100b77e4     LIBCMTD:_libm_error_.obj
 0002:000117ec       ??_C@_03MGHMBJCF@log?$AA@  100b77ec     LIBCMTD:_libm_error_.obj
 0002:000120a0       __indefinite               100b80a0     LIBCMTD:_87disp_.obj
 0002:000120aa       __piby2                    100b80aa     LIBCMTD:_87disp_.obj
 0002:000120d8       __DEFAULT_CW_in_mem        100b80d8     LIBCMTD:_common_.obj
 0002:000120da       __pi_by_2_to_61            100b80da     LIBCMTD:_common_.obj
 0002:000129c0       ??_C@_0L@KDOEJCKC@_nextafter?$AA@ 100b89c0     LIBCMTD:_fpexcept_.obj
 0002:000129cc       ??_C@_05JGDBENOH@_logb?$AA@ 100b89cc     LIBCMTD:_fpexcept_.obj
 0002:000129d4       ??_C@_03ONILCKOB@_yn?$AA@  100b89d4     LIBCMTD:_fpexcept_.obj
 0002:000129d8       ??_C@_03NAKIGLHK@_y1?$AA@  100b89d8     LIBCMTD:_fpexcept_.obj
 0002:000129dc       ??_C@_03MJLDFKDL@_y0?$AA@  100b89dc     LIBCMTD:_fpexcept_.obj
 0002:000129e0       ??_C@_05GKKHEGJL@frexp?$AA@ 100b89e0     LIBCMTD:_fpexcept_.obj
 0002:000129e8       ??_C@_04KEPJIHGP@fmod?$AA@ 100b89e8     LIBCMTD:_fpexcept_.obj
 0002:000129f0       ??_C@_06MEIMCGCF@_hypot?$AA@ 100b89f0     LIBCMTD:_fpexcept_.obj
 0002:000129f8       ??_C@_05KBKMEMPO@_cabs?$AA@ 100b89f8     LIBCMTD:_fpexcept_.obj
 0002:00012a00       ??_C@_05CEJMAHNP@ldexp?$AA@ 100b8a00     LIBCMTD:_fpexcept_.obj
 0002:00012a08       ??_C@_04ODHECPBC@fabs?$AA@ 100b8a08     LIBCMTD:_fpexcept_.obj
 0002:00012a10       ??_C@_04EIAKFFMI@sqrt?$AA@ 100b8a10     LIBCMTD:_fpexcept_.obj
 0002:00012a18       ??_C@_05KNGEOGJB@atan2?$AA@ 100b8a18     LIBCMTD:_fpexcept_.obj
 0002:00012a20       ??_C@_04FJHINJAO@tanh?$AA@ 100b8a20     LIBCMTD:_fpexcept_.obj
 0002:00012a28       ??_C@_04HPJJNFIM@cosh?$AA@ 100b8a28     LIBCMTD:_fpexcept_.obj
 0002:00012a30       ??_C@_04COOMCNPB@sinh?$AA@ 100b8a30     LIBCMTD:_fpexcept_.obj
 0002:00014260       ??_C@_1BAA@ODEGEDCK@?$AA?$CI?$AA?5?$AA?$CI?$AA_?$AAS?$AAt?$AAr?$AAe?$AAa?$AAm?$AA?9?$AA?$DO?$AA_?$AAf?$AAl?$AAa?$AAg?$AA?5?$AA?$CG?$AA?5?$AA_?$AAI?$AAO?$AAS?$AAT?$AAR?$AAG?$AA?$CJ?$AA?5?$AA?$HM?$AA?$HM?$AA?5@ 100ba260     LIBCMTD:input.obj
 0002:00014360       ??_C@_1CC@FADMNIL@?$AA?$CI?$AAs?$AAt?$AAr?$AAe?$AAa?$AAm?$AA?5?$AA?$CB?$AA?$DN?$AA?5?$AAN?$AAU?$AAL?$AAL?$AA?$CJ?$AA?$AA@ 100ba360     LIBCMTD:input.obj
 0002:00014384       ??_C@_1BC@MJNBEDIJ@?$AA_?$AAi?$AAn?$AAp?$AAu?$AAt?$AA_?$AAl?$AA?$AA@ 100ba384     LIBCMTD:input.obj
 0002:00014398       ??_C@_1FO@LDDBLKJ@?$AAf?$AA?3?$AA?2?$AAd?$AAd?$AA?2?$AAv?$AAc?$AAt?$AAo?$AAo?$AAl?$AAs?$AA?2?$AAc?$AAr?$AAt?$AA_?$AAb?$AAl?$AAd?$AA?2?$AAs?$AAe?$AAl?$AAf?$AA_?$AAx?$AA8?$AA6?$AA?2?$AAc@ 100ba398     LIBCMTD:input.obj
 0002:000143f8       ??_C@_0CP@MMGCGBFO@f?3?2dd?2vctools?2crt_bld?2self_x86?2c@ 100ba3f8     LIBCMTD:input.obj
 0002:00014428       ??_C@_1DO@MBOKMJPK@?$AAn?$AAF?$AAl?$AAo?$AAa?$AAt?$AAS?$AAt?$AAr?$AAU?$AAs?$AAe?$AAd?$AA?$DM?$AA?$DN?$AA?$CI?$AA?$CK?$AAp?$AAn?$AAF?$AAl?$AAo?$AAa?$AAt?$AAS?$AAt?$AAr?$AAS?$AAz?$AA?$CJ?$AA?$AA@ 100ba428     LIBCMTD:input.obj
 0002:00014468       ??_C@_1DG@MPPGJOHD@?$AA?$CI?$AA?$CC?$AAI?$AAn?$AAv?$AAa?$AAl?$AAi?$AAd?$AA?5?$AAI?$AAn?$AAp?$AAu?$AAt?$AA?5?$AAF?$AAo?$AAr?$AAm?$AAa?$AAt?$AA?$CC?$AA?0?$AA0?$AA?$CJ?$AA?$AA@ 100ba468     LIBCMTD:inputs.obj
 0002:000144a0       ??_C@_1BG@LBKFJFHM@?$AA_?$AAi?$AAn?$AAp?$AAu?$AAt?$AA_?$AAs?$AA_?$AAl?$AA?$AA@ 100ba4a0     LIBCMTD:inputs.obj
 0002:000144b8       ??_C@_1GA@INJGGEBC@?$AAf?$AA?3?$AA?2?$AAd?$AAd?$AA?2?$AAv?$AAc?$AAt?$AAo?$AAo?$AAl?$AAs?$AA?2?$AAc?$AAr?$AAt?$AA_?$AAb?$AAl?$AAd?$AA?2?$AAs?$AAe?$AAl?$AAf?$AA_?$AAx?$AA8?$AA6?$AA?2?$AAc@ 100ba4b8     LIBCMTD:a_map.obj
 0002:00014518       ??_C@_1FE@KNPCCODH@?$AA?$CI?$AA?$CC?$AAC?$AAo?$AAr?$AAr?$AAu?$AAp?$AAt?$AAe?$AAd?$AA?5?$AAp?$AAo?$AAi?$AAn?$AAt?$AAe?$AAr?$AA?5?$AAp?$AAa?$AAs?$AAs?$AAe?$AAd?$AA?5?$AAt?$AAo?$AA?5?$AA_?$AAf@ 100ba518     LIBCMTD:a_map.obj
 0002:00015c10       __OP_ATAN2jmptab           100bbc10     LIBCMTD:_87triga_.obj
 0002:00017ac0       __infinity                 100bdac0     LIBCMTD:_87tran_.obj
 0002:00017aca       __minfinity                100bdaca     LIBCMTD:_87tran_.obj
 0002:00017ad4       __logemax                  100bdad4     LIBCMTD:_87tran_.obj
 0002:00017afa       __OP_EXPjmptab             100bdafa     LIBCMTD:_87tran_.obj
 0002:00017b20       ??_C@_1HO@MLMGPAFH@?$AA?$CI?$AA?$CC?$AAi?$AAn?$AAc?$AAo?$AAn?$AAs?$AAi?$AAs?$AAt?$AAe?$AAn?$AAt?$AA?5?$AAI?$AAO?$AAB?$AA?5?$AAf?$AAi?$AAe?$AAl?$AAd?$AAs?$AA?$CC?$AA?0?$AA?5?$AAs?$AAt?$AAr?$AAe@ 100bdb20     LIBCMTD:_flsbuf.obj
 0002:00017ba0       ??_C@_1GC@GNCCMPNN@?$AAf?$AA?3?$AA?2?$AAd?$AAd?$AA?2?$AAv?$AAc?$AAt?$AAo?$AAo?$AAl?$AAs?$AA?2?$AAc?$AAr?$AAt?$AA_?$AAb?$AAl?$AAd?$AA?2?$AAs?$AAe?$AAl?$AAf?$AA_?$AAx?$AA8?$AA6?$AA?2?$AAc@ 100bdba0     LIBCMTD:_flsbuf.obj
 0002:00017c04       ??_C@_1BI@MFCLPIBM@?$AAs?$AAt?$AAr?$AA?5?$AA?$CB?$AA?$DN?$AA?5?$AAN?$AAU?$AAL?$AAL?$AA?$AA@ 100bdc04     LIBCMTD:_flsbuf.obj
 0002:00017c1c       ??_C@_1O@CEDCILHN@?$AA?$CI?$AAn?$AAu?$AAl?$AAl?$AA?$CJ?$AA?$AA@ 100bdc1c     LIBCMTD:output.obj
 0002:00017c2c       ??_C@_06OJHGLDPL@?$CInull?$CJ?$AA@ 100bdc2c     LIBCMTD:output.obj
 0002:00017c38       ___lookuptable             100bdc38     LIBCMTD:output.obj
 0002:00017c94       ??_C@_0DA@NFBEBPEE@f?3?2dd?2vctools?2crt_bld?2self_x86?2c@ 100bdc94     LIBCMTD:output.obj
 0002:00017cc8       ??_C@_1EK@PNGFDECN@?$AA?$CI?$AA?$CC?$AA?8?$AAn?$AA?8?$AA?5?$AAf?$AAo?$AAr?$AAm?$AAa?$AAt?$AA?5?$AAs?$AAp?$AAe?$AAc?$AAi?$AAf?$AAi?$AAe?$AAr?$AA?5?$AAd?$AAi?$AAs?$AAa?$AAb?$AAl?$AAe?$AAd?$AA?$CC@ 100bdcc8     LIBCMTD:output.obj
 0002:00017d14       ??_C@_1CC@IFFHEMNF@?$AA?$CI?$AAc?$AAh?$AA?5?$AA?$CB?$AA?$DN?$AA?5?$AA_?$AAT?$AA?$CI?$AA?8?$AA?2?$AA0?$AA?8?$AA?$CJ?$AA?$CJ?$AA?$AA@ 100bdd14     LIBCMTD:output.obj
 0002:00017d38       ??_C@_1BE@IONLIDNC@?$AA_?$AAo?$AAu?$AAt?$AAp?$AAu?$AAt?$AA_?$AAl?$AA?$AA@ 100bdd38     LIBCMTD:output.obj
 0002:00017d50       ??_C@_1GA@HHFOFBLN@?$AAf?$AA?3?$AA?2?$AAd?$AAd?$AA?2?$AAv?$AAc?$AAt?$AAo?$AAo?$AAl?$AAs?$AA?2?$AAc?$AAr?$AAt?$AA_?$AAb?$AAl?$AAd?$AA?2?$AAs?$AAe?$AAl?$AAf?$AA_?$AAx?$AA8?$AA6?$AA?2?$AAc@ 100bdd50     LIBCMTD:output.obj
 0002:0001b6f0       ??_C@_06PJIGMIJB@Client?$AA@ 100c16f0     LIBCMTD:dbgheap.obj
 0002:0001b6f8       ??_C@_06KMEJCCGM@Ignore?$AA@ 100c16f8     LIBCMTD:dbgheap.obj
 0002:0001b700       ??_C@_03OGPFLFLO@CRT?$AA@  100c1700     LIBCMTD:dbgheap.obj
 0002:0001b704       ??_C@_06EFAGIKOH@Normal?$AA@ 100c1704     LIBCMTD:dbgheap.obj
 0002:0001b70c       ??_C@_04HJMOFLDF@Free?$AA@ 100c170c     LIBCMTD:dbgheap.obj
 0002:0001b728       ??_C@_0DC@JEMAGEKG@Error?3?5memory?5allocation?3?5bad?5me@ 100c1728     LIBCMTD:dbgheap.obj
 0002:0001b75c       ??_C@_0CF@BICKFLAF@Invalid?5allocation?5size?3?5?$CFIu?5byt@ 100c175c     LIBCMTD:dbgheap.obj
 0002:0001b784       ??_C@_02DKCKIIND@?$CFs?$AA@ 100c1784     LIBCMTD:dbgheap.obj
 0002:0001b788       ??_C@_0CB@CCLOLAHO@Client?5hook?5allocation?5failure?4?6@ 100c1788     LIBCMTD:dbgheap.obj
 0002:0001b7ac       ??_C@_0DF@BBEGIFEK@Client?5hook?5allocation?5failure?5a@ 100c17ac     LIBCMTD:dbgheap.obj
 0002:0001b7e8       ??_C@_1GC@DNJKKEAA@?$AAf?$AA?3?$AA?2?$AAd?$AAd?$AA?2?$AAv?$AAc?$AAt?$AAo?$AAo?$AAl?$AAs?$AA?2?$AAc?$AAr?$AAt?$AA_?$AAb?$AAl?$AAd?$AA?2?$AAs?$AAe?$AAl?$AAf?$AA_?$AAx?$AA8?$AA6?$AA?2?$AAc@ 100c17e8     LIBCMTD:dbgheap.obj
 0002:0001b84c       ??_C@_1CE@LJFEPPMP@?$AA_?$AAC?$AAr?$AAt?$AAC?$AAh?$AAe?$AAc?$AAk?$AAM?$AAe?$AAm?$AAo?$AAr?$AAy?$AA?$CI?$AA?$CJ?$AA?$AA@ 100c184c     LIBCMTD:dbgheap.obj
 0002:0001b870       ??_C@_1DE@KOOKLFBB@?$AA_?$AAp?$AAF?$AAi?$AAr?$AAs?$AAt?$AAB?$AAl?$AAo?$AAc?$AAk?$AA?5?$AA?$DN?$AA?$DN?$AA?5?$AAp?$AAO?$AAl?$AAd?$AAB?$AAl?$AAo?$AAc?$AAk?$AA?$AA@ 100c1870     LIBCMTD:dbgheap.obj
 0002:0001b8a4       ??_C@_1DC@GEFKNOOL@?$AA_?$AAp?$AAL?$AAa?$AAs?$AAt?$AAB?$AAl?$AAo?$AAc?$AAk?$AA?5?$AA?$DN?$AA?$DN?$AA?5?$AAp?$AAO?$AAl?$AAd?$AAB?$AAl?$AAo?$AAc?$AAk?$AA?$AA@ 100c18a4     LIBCMTD:dbgheap.obj
 0002:0001b8d8       ??_C@_1GE@PCKLOLAO@?$AAf?$AAR?$AAe?$AAa?$AAl?$AAl?$AAo?$AAc?$AA?5?$AA?$HM?$AA?$HM?$AA?5?$AA?$CI?$AA?$CB?$AAf?$AAR?$AAe?$AAa?$AAl?$AAl?$AAo?$AAc?$AA?5?$AA?$CG?$AA?$CG?$AA?5?$AAp?$AAN?$AAe?$AAw?$AAB?$AAl@ 100c18d8     LIBCMTD:dbgheap.obj
 0002:0001b93c       ??_C@_0DA@HFBKENN@Error?3?5possible?5heap?5corruption?5@ 100c193c     LIBCMTD:dbgheap.obj
 0002:0001b970       ??_C@_1IK@DCPKDGNH@?$AAp?$AAO?$AAl?$AAd?$AAB?$AAl?$AAo?$AAc?$AAk?$AA?9?$AA?$DO?$AAn?$AAL?$AAi?$AAn?$AAe?$AA?5?$AA?$DN?$AA?$DN?$AA?5?$AAI?$AAG?$AAN?$AAO?$AAR?$AAE?$AA_?$AAL?$AAI?$AAN?$AAE?$AA?5@ 100c1970     LIBCMTD:dbgheap.obj
 0002:0001ba00       ??_C@_1EE@GFOPCECE@?$AA_?$AAC?$AAr?$AAt?$AAI?$AAs?$AAV?$AAa?$AAl?$AAi?$AAd?$AAH?$AAe?$AAa?$AAp?$AAP?$AAo?$AAi?$AAn?$AAt?$AAe?$AAr?$AA?$CI?$AAp?$AAU?$AAs?$AAe?$AAr?$AAD?$AAa?$AAt?$AAa@ 100c1a00     LIBCMTD:dbgheap.obj
 0002:0001ba48       ??_C@_0EM@LGFLMAGJ@The?5Block?5at?50x?$CFp?5was?5allocated?5@ 100c1a48     LIBCMTD:dbgheap.obj
 0002:0001ba98       ??_C@_0FA@EFEIGJKG@Error?3?5memory?5allocation?3?5bad?5me@ 100c1a98     LIBCMTD:dbgheap.obj
 0002:0001bae8       ??_C@_0ED@GPCPBAGP@Invalid?5allocation?5size?3?5?$CFIu?5byt@ 100c1ae8     LIBCMTD:dbgheap.obj
 0002:0001bb2c       ??_C@_0CE@DOFMDOL@Client?5hook?5re?9allocation?5failur@ 100c1b2c     LIBCMTD:dbgheap.obj
 0002:0001bb50       ??_C@_0DI@KKJPDPGM@Client?5hook?5re?9allocation?5failur@ 100c1b50     LIBCMTD:dbgheap.obj
 0002:0001bb88       ??_C@_1BI@HAPNGHDP@?$AA_?$AAe?$AAx?$AAp?$AAa?$AAn?$AAd?$AA_?$AAd?$AAb?$AAg?$AA?$AA@ 100c1b88     LIBCMTD:dbgheap.obj
 0002:0001bba0       ??_C@_1CE@CJACEFBA@?$AAp?$AAU?$AAs?$AAe?$AAr?$AAD?$AAa?$AAt?$AAa?$AA?5?$AA?$CB?$AA?$DN?$AA?5?$AAN?$AAU?$AAL?$AAL?$AA?$AA@ 100c1ba0     LIBCMTD:dbgheap.obj
 0002:0001bbc4       ??_C@_1CM@MMAADDMD@?$AA_?$AAp?$AAF?$AAi?$AAr?$AAs?$AAt?$AAB?$AAl?$AAo?$AAc?$AAk?$AA?5?$AA?$DN?$AA?$DN?$AA?5?$AAp?$AAH?$AAe?$AAa?$AAd?$AA?$AA@ 100c1bc4     LIBCMTD:dbgheap.obj
 0002:0001bbf0       ??_C@_1CK@DMAGEMBG@?$AA_?$AAp?$AAL?$AAa?$AAs?$AAt?$AAB?$AAl?$AAo?$AAc?$AAk?$AA?5?$AA?$DN?$AA?$DN?$AA?5?$AAp?$AAH?$AAe?$AAa?$AAd?$AA?$AA@ 100c1bf0     LIBCMTD:dbgheap.obj
 0002:0001bc1c       ??_C@_1DM@ODCJIDCP@?$AAp?$AAH?$AAe?$AAa?$AAd?$AA?9?$AA?$DO?$AAn?$AAB?$AAl?$AAo?$AAc?$AAk?$AAU?$AAs?$AAe?$AA?5?$AA?$DN?$AA?$DN?$AA?5?$AAn?$AAB?$AAl?$AAo?$AAc?$AAk?$AAU?$AAs?$AAe?$AA?$AA@ 100c1c1c     LIBCMTD:dbgheap.obj
 0002:0001bc58       ??_C@_1HK@HPCBMDFG@?$AAp?$AAH?$AAe?$AAa?$AAd?$AA?9?$AA?$DO?$AAn?$AAL?$AAi?$AAn?$AAe?$AA?5?$AA?$DN?$AA?$DN?$AA?5?$AAI?$AAG?$AAN?$AAO?$AAR?$AAE?$AA_?$AAL?$AAI?$AAN?$AAE?$AA?5?$AA?$CG?$AA?$CG?$AA?5?$AAp@ 100c1c58     LIBCMTD:dbgheap.obj
 0002:0001bcd8       ??_C@_0IG@LEMBDCJK@HEAP?5CORRUPTION?5DETECTED?3?5after?5@ 100c1cd8     LIBCMTD:dbgheap.obj
 0002:0001bd60       ??_C@_0KE@MBMNHHHN@HEAP?5CORRUPTION?5DETECTED?3?5after?5@ 100c1d60     LIBCMTD:dbgheap.obj
 0002:0001be08       ??_C@_0IK@PJCGLBOB@HEAP?5CORRUPTION?5DETECTED?3?5before@ 100c1e08     LIBCMTD:dbgheap.obj
 0002:0001be98       ??_C@_0KI@JGFOHMEB@HEAP?5CORRUPTION?5DETECTED?3?5before@ 100c1e98     LIBCMTD:dbgheap.obj
 0002:0001bf40       ??_C@_1EO@LHDAJOCM@?$AA_?$AAB?$AAL?$AAO?$AAC?$AAK?$AA_?$AAT?$AAY?$AAP?$AAE?$AA_?$AAI?$AAS?$AA_?$AAV?$AAA?$AAL?$AAI?$AAD?$AA?$CI?$AAp?$AAH?$AAe?$AAa?$AAd?$AA?9?$AA?$DO?$AAn?$AAB?$AAl?$AAo@ 100c1f40     LIBCMTD:dbgheap.obj
 0002:0001bf90       ??_C@_0BL@KEIPLFAC@Client?5hook?5free?5failure?4?6?$AA@ 100c1f90     LIBCMTD:dbgheap.obj
 0002:0001bfb0       ??_C@_0EJ@HEIBCIMJ@The?5Block?5at?50x?$CFp?5was?5allocated?5@ 100c1fb0     LIBCMTD:dbgheap.obj
 0002:0001bffc       ??_C@_1BG@MBKOGDLD@?$AA_?$AAm?$AAs?$AAi?$AAz?$AAe?$AA_?$AAd?$AAb?$AAg?$AA?$AA@ 100c1ffc     LIBCMTD:dbgheap.obj
 0002:0001c014       ??_C@_0CI@JMLBEDHJ@?$CFhs?5located?5at?50x?$CFp?5is?5?$CFIu?5bytes@ 100c2014     LIBCMTD:dbgheap.obj
 0002:0001c040       ??_C@_0EG@DGJMPDBH@?$CFhs?5located?5at?50x?$CFp?5is?5?$CFIu?5bytes@ 100c2040     LIBCMTD:dbgheap.obj
 0002:0001c088       ??_C@_0IC@BBJIOOJH@HEAP?5CORRUPTION?5DETECTED?3?5on?5top@ 100c2088     LIBCMTD:dbgheap.obj
 0002:0001c110       ??_C@_0KA@IHNJJKPL@HEAP?5CORRUPTION?5DETECTED?3?5on?5top@ 100c2110     LIBCMTD:dbgheap.obj
 0002:0001c1b0       ??_C@_07OHKEFPKJ@DAMAGED?$AA@ 100c21b0     LIBCMTD:dbgheap.obj
 0002:0001c1b8       ??_C@_0CL@HNNNMKMJ@_heapchk?5fails?5with?5unknown?5retu@ 100c21b8     LIBCMTD:dbgheap.obj
 0002:0001c1e4       ??_C@_0CC@MFFCHFHO@_heapchk?5fails?5with?5_HEAPBADPTR?4@ 100c21e4     LIBCMTD:dbgheap.obj
 0002:0001c208       ??_C@_0CC@MJGLGBDG@_heapchk?5fails?5with?5_HEAPBADEND?4@ 100c2208     LIBCMTD:dbgheap.obj
 0002:0001c22c       ??_C@_0CD@CPKEAPBD@_heapchk?5fails?5with?5_HEAPBADNODE@ 100c222c     LIBCMTD:dbgheap.obj
 0002:0001c250       ??_C@_0CE@MKKHMBMK@_heapchk?5fails?5with?5_HEAPBADBEGI@ 100c2250     LIBCMTD:dbgheap.obj
 0002:0001c274       ??_C@_1BO@GJFDNMNF@?$AA_?$AAC?$AAr?$AAt?$AAS?$AAe?$AAt?$AAD?$AAb?$AAg?$AAF?$AAl?$AAa?$AAg?$AA?$AA@ 100c2274     LIBCMTD:dbgheap.obj
 0002:0001c298       ??_C@_1BHO@NNANJNF@?$AA?$CI?$AAf?$AAN?$AAe?$AAw?$AAB?$AAi?$AAt?$AAs?$AA?$DN?$AA?$DN?$AA_?$AAC?$AAR?$AAT?$AAD?$AAB?$AAG?$AA_?$AAR?$AAE?$AAP?$AAO?$AAR?$AAT?$AA_?$AAF?$AAL?$AAA?$AAG?$AA?$CJ?$AA?5@ 100c2298     LIBCMTD:dbgheap.obj
 0002:0001c418       ??_C@_1DE@GJCKCKEC@?$AA_?$AAC?$AAr?$AAt?$AAD?$AAo?$AAF?$AAo?$AAr?$AAA?$AAl?$AAl?$AAC?$AAl?$AAi?$AAe?$AAn?$AAt?$AAO?$AAb?$AAj?$AAe?$AAc?$AAt?$AAs?$AA?$AA@ 100c2418     LIBCMTD:dbgheap.obj
 0002:0001c44c       ??_C@_1BI@CJGCEEDL@?$AAp?$AAf?$AAn?$AA?5?$AA?$CB?$AA?$DN?$AA?5?$AAN?$AAU?$AAL?$AAL?$AA?$AA@ 100c244c     LIBCMTD:dbgheap.obj
 0002:0001c464       ??_C@_0CB@EAAIGELO@Bad?5memory?5block?5found?5at?50x?$CFp?4?6@ 100c2464     LIBCMTD:dbgheap.obj
 0002:0001c488       ??_C@_0DP@LEFMFBOD@Bad?5memory?5block?5found?5at?50x?$CFp?4?6@ 100c2488     LIBCMTD:dbgheap.obj
 0002:0001c4c8       ??_C@_1CE@NJJKELF@?$AA_?$AAC?$AAr?$AAt?$AAM?$AAe?$AAm?$AAC?$AAh?$AAe?$AAc?$AAk?$AAp?$AAo?$AAi?$AAn?$AAt?$AA?$AA@ 100c24c8     LIBCMTD:dbgheap.obj
 0002:0001c4ec       ??_C@_1BM@MIMANDHC@?$AAs?$AAt?$AAa?$AAt?$AAe?$AA?5?$AA?$CB?$AA?$DN?$AA?5?$AAN?$AAU?$AAL?$AAL?$AA?$AA@ 100c24ec     LIBCMTD:dbgheap.obj
 0002:0001c508       ??_C@_1CC@DFPEDFBP@?$AAn?$AAe?$AAw?$AAS?$AAt?$AAa?$AAt?$AAe?$AA?5?$AA?$CB?$AA?$DN?$AA?5?$AAN?$AAU?$AAL?$AAL?$AA?$AA@ 100c2508     LIBCMTD:dbgheap.obj
 0002:0001c52c       ??_C@_1CC@DHPFEMMN@?$AAo?$AAl?$AAd?$AAS?$AAt?$AAa?$AAt?$AAe?$AA?5?$AA?$CB?$AA?$DN?$AA?5?$AAN?$AAU?$AAL?$AAL?$AA?$AA@ 100c252c     LIBCMTD:dbgheap.obj
 0002:0001c550       ??_C@_1CE@PDIENACM@?$AA_?$AAC?$AAr?$AAt?$AAM?$AAe?$AAm?$AAD?$AAi?$AAf?$AAf?$AAe?$AAr?$AAe?$AAn?$AAc?$AAe?$AA?$AA@ 100c2550     LIBCMTD:dbgheap.obj
 0002:0001c574       ??_C@_0BH@GFGKJDCO@Object?5dump?5complete?4?6?$AA@ 100c2574     LIBCMTD:dbgheap.obj
 0002:0001c58c       ??_C@_0DA@MDLBNIBM@crt?5block?5at?50x?$CFp?0?5subtype?5?$CFx?0?5?$CF@ 100c258c     LIBCMTD:dbgheap.obj
 0002:0001c5bc       ??_C@_0CH@FAGDDGPN@normal?5block?5at?50x?$CFp?0?5?$CFIu?5bytes?5@ 100c25bc     LIBCMTD:dbgheap.obj
 0002:0001c5e4       ??_C@_0DD@GHNAAKBB@client?5block?5at?50x?$CFp?0?5subtype?5?$CFx@ 100c25e4     LIBCMTD:dbgheap.obj
 0002:0001c618       ??_C@_06PKLGBFGM@?$HL?$CFld?$HN?5?$AA@ 100c2618     LIBCMTD:dbgheap.obj
 0002:0001c620       ??_C@_0L@JMEFFCCJ@?$CFhs?$CI?$CFd?$CJ?5?3?5?$AA@ 100c2620     LIBCMTD:dbgheap.obj
 0002:0001c62c       ??_C@_0BE@OIEFNFL@?$CDFile?5Error?$CD?$CI?$CFd?$CJ?5?3?5?$AA@ 100c262c     LIBCMTD:dbgheap.obj
 0002:0001c640       ??_C@_0BE@KCIPKCIA@Dumping?5objects?5?9?$DO?6?$AA@ 100c2640     LIBCMTD:dbgheap.obj
 0002:0001c654       ??_C@_0BA@HJBKCELP@?5Data?3?5?$DM?$CFs?$DO?5?$CFs?6?$AA@ 100c2654     LIBCMTD:dbgheap.obj
 0002:0001c664       ??_C@_1CG@LPFIACGM@?$AA_?$AAp?$AAr?$AAi?$AAn?$AAt?$AAM?$AAe?$AAm?$AAB?$AAl?$AAo?$AAc?$AAk?$AAD?$AAa?$AAt?$AAa?$AA?$AA@ 100c2664     LIBCMTD:dbgheap.obj
 0002:0001c68c       ??_C@_0BI@JBFPOEJA@Detected?5memory?5leaks?$CB?6?$AA@ 100c268c     LIBCMTD:dbgheap.obj
 0002:0001c6a4       ??_C@_0BP@DEDHGGGI@Total?5allocations?3?5?$CFId?5bytes?4?6?$AA@ 100c26a4     LIBCMTD:dbgheap.obj
 0002:0001c6c4       ??_C@_0CB@BLHDAFNE@Largest?5number?5used?3?5?$CFId?5bytes?4?6@ 100c26c4     LIBCMTD:dbgheap.obj
 0002:0001c6e8       ??_C@_0BO@DACNIABB@?$CFId?5bytes?5in?5?$CFId?5?$CFhs?5Blocks?4?6?$AA@ 100c26e8     LIBCMTD:dbgheap.obj
 0002:0001c708       ??_C@_1CM@MPNIBKGK@?$AA_?$AAC?$AAr?$AAt?$AAM?$AAe?$AAm?$AAD?$AAu?$AAm?$AAp?$AAS?$AAt?$AAa?$AAt?$AAi?$AAs?$AAt?$AAi?$AAc?$AAs?$AA?$AA@ 100c2708     LIBCMTD:dbgheap.obj
 0002:0001c734       ??_C@_1DK@LFLKFPDA@?$AAo?$AAf?$AAf?$AAs?$AAe?$AAt?$AA?5?$AA?$DN?$AA?$DN?$AA?5?$AA0?$AA?5?$AA?$HM?$AA?$HM?$AA?5?$AAo?$AAf?$AAf?$AAs?$AAe?$AAt?$AA?5?$AA?$DM?$AA?5?$AAs?$AAi?$AAz?$AAe?$AA?$AA@ 100c2734     LIBCMTD:dbgheap.obj
 0002:0001c770       ??_C@_1DG@DONCJBBJ@?$AA_?$AAa?$AAl?$AAi?$AAg?$AAn?$AAe?$AAd?$AA_?$AAo?$AAf?$AAf?$AAs?$AAe?$AAt?$AA_?$AAm?$AAa?$AAl?$AAl?$AAo?$AAc?$AA_?$AAd?$AAb?$AAg?$AA?$AA@ 100c2770     LIBCMTD:dbgheap.obj
 0002:0001c7a8       ??_C@_1CE@NPMGPNNP@?$AAI?$AAS?$AA_?$AA2?$AA_?$AAP?$AAO?$AAW?$AA_?$AAN?$AA?$CI?$AAa?$AAl?$AAi?$AAg?$AAn?$AA?$CJ?$AA?$AA@ 100c27a8     LIBCMTD:dbgheap.obj
 0002:0001c7cc       ??_C@_1DI@NINIKFFK@?$AA_?$AAa?$AAl?$AAi?$AAg?$AAn?$AAe?$AAd?$AA_?$AAo?$AAf?$AAf?$AAs?$AAe?$AAt?$AA_?$AAr?$AAe?$AAa?$AAl?$AAl?$AAo?$AAc?$AA_?$AAd?$AAb?$AAg?$AA?$AA@ 100c27cc     LIBCMTD:dbgheap.obj
 0002:0001c804       ??_C@_0DL@PGHMMKNE@Damage?5before?50x?$CFp?5which?5was?5all@ 100c2804     LIBCMTD:dbgheap.obj
 0002:0001c840       ??_C@_0EI@NDNJMAJK@The?5block?5at?50x?$CFp?5was?5not?5alloca@ 100c2840     LIBCMTD:dbgheap.obj
 0002:0001c888       ??_C@_0EF@PGELACII@The?5block?5at?50x?$CFp?5was?5not?5alloca@ 100c2888     LIBCMTD:dbgheap.obj
 0002:0001c8d0       ??_C@_1CG@CEGMHIMN@?$AA_?$AAa?$AAl?$AAi?$AAg?$AAn?$AAe?$AAd?$AA_?$AAm?$AAs?$AAi?$AAz?$AAe?$AA_?$AAd?$AAb?$AAg?$AA?$AA@ 100c28d0     LIBCMTD:dbgheap.obj
 0002:0001c8f8       ??_C@_1CC@MOBIKHH@?$AAm?$AAe?$AAm?$AAb?$AAl?$AAo?$AAc?$AAk?$AA?5?$AA?$CB?$AA?$DN?$AA?5?$AAN?$AAU?$AAL?$AAL?$AA?$AA@ 100c28f8     LIBCMTD:dbgheap.obj
 0002:0001c91c       ??_C@_0DA@NBLAKPEL@f?3?2dd?2vctools?2crt_bld?2self_x86?2c@ 100c291c     LIBCMTD:ioinit.obj
 0002:0001c94c       ??_C@_1DE@MMOGFGHF@?$AAs?$AAt?$AAr?$AAc?$AAp?$AAy?$AA_?$AAs?$AA?$CI?$AA?$CK?$AAe?$AAn?$AAv?$AA?0?$AA?5?$AAc?$AAc?$AAh?$AAa?$AAr?$AAs?$AA?0?$AA?5?$AAp?$AA?$CJ?$AA?$AA@ 100c294c     LIBCMTD:stdenvp.obj
 0002:0001c980       ??_C@_1BC@GHMCNHHL@?$AA_?$AAs?$AAe?$AAt?$AAe?$AAn?$AAv?$AAp?$AA?$AA@ 100c2980     LIBCMTD:stdenvp.obj
 0002:0001c998       ??_C@_1GC@DGBFLDBN@?$AAf?$AA?3?$AA?2?$AAd?$AAd?$AA?2?$AAv?$AAc?$AAt?$AAo?$AAo?$AAl?$AAs?$AA?2?$AAc?$AAr?$AAt?$AA_?$AAb?$AAl?$AAd?$AA?2?$AAs?$AAe?$AAl?$AAf?$AA_?$AAx?$AA8?$AA6?$AA?2?$AAc@ 100c2998     LIBCMTD:stdenvp.obj
 0002:0001c9fc       ??_C@_0DB@BMEBJJKP@f?3?2dd?2vctools?2crt_bld?2self_x86?2c@ 100c29fc     LIBCMTD:stdenvp.obj
 0002:0001ca30       ??_C@_0DB@OEPBJOLC@f?3?2dd?2vctools?2crt_bld?2self_x86?2c@ 100c2a30     LIBCMTD:stdargv.obj
 0002:0001ca64       ??_C@_0CP@PPLBCJDN@f?3?2dd?2vctools?2crt_bld?2self_x86?2c@ 100c2a64     LIBCMTD:a_env.obj
 0002:0001ca98       ??_C@_1GE@JDDMFOID@?$AAf?$AA?3?$AA?2?$AAd?$AAd?$AA?2?$AAv?$AAc?$AAt?$AAo?$AAo?$AAl?$AAs?$AA?2?$AAc?$AAr?$AAt?$AA_?$AAb?$AAl?$AAd?$AA?2?$AAs?$AAe?$AAl?$AAf?$AA_?$AAx?$AA8?$AA6?$AA?2?$AAc@ 100c2a98     LIBCMTD:heapinit.obj
 0002:0001cafc       ??_C@_1BC@DENNNKIM@?$AA_?$AAc?$AAr?$AAt?$AAh?$AAe?$AAa?$AAp?$AA?$AA@ 100c2afc     LIBCMTD:heapinit.obj
 0002:0001cb10       __XcptActTab               100c2b10     LIBCMTD:winxfltr.obj
 0002:0001cba0       __First_FPE_Indx           100c2ba0     LIBCMTD:winxfltr.obj
 0002:0001cba4       __Num_FPE                  100c2ba4     LIBCMTD:winxfltr.obj
 0002:0001cba8       __XcptActTabSize           100c2ba8     LIBCMTD:winxfltr.obj
 0002:0001cbac       __XcptActTabCount          100c2bac     LIBCMTD:winxfltr.obj
 0002:0001cbe8       ??_C@_01KDCPPGHE@r?$AA@    100c2be8     LIBCMTD:_pdblkup_.obj
 0002:0001cbec       ??_C@_0BB@KCIACLNC@PDBOpenValidate5?$AA@ 100c2bec     LIBCMTD:_pdblkup_.obj
 0002:0001cc00       ??_C@_1CK@HHHCOJPD@?$AAE?$AAn?$AAv?$AAi?$AAr?$AAo?$AAn?$AAm?$AAe?$AAn?$AAt?$AAD?$AAi?$AAr?$AAe?$AAc?$AAt?$AAo?$AAr?$AAy?$AA?$AA@ 100c2c00     LIBCMTD:_pdblkup_.obj
 0002:0001cc30       ??_C@_1FM@DNCABAP@?$AAS?$AAO?$AAF?$AAT?$AAW?$AAA?$AAR?$AAE?$AA?2?$AAM?$AAi?$AAc?$AAr?$AAo?$AAs?$AAo?$AAf?$AAt?$AA?2?$AAV?$AAi?$AAs?$AAu?$AAa?$AAl?$AAS?$AAt?$AAu?$AAd?$AAi?$AAo?$AA?2@ 100c2c30     LIBCMTD:_pdblkup_.obj
 0002:0001cc8c       ??_C@_0M@HLOHPNFA@RegCloseKey?$AA@ 100c2c8c     LIBCMTD:_pdblkup_.obj
 0002:0001cc98       ??_C@_0BB@GLNAEDBD@RegQueryValueExW?$AA@ 100c2c98     LIBCMTD:_pdblkup_.obj
 0002:0001ccac       ??_C@_0O@COHOBMLB@RegOpenKeyExW?$AA@ 100c2cac     LIBCMTD:_pdblkup_.obj
 0002:0001ccbc       ??_C@_1BK@GAEMIDIL@?$AAA?$AAD?$AAV?$AAA?$AAP?$AAI?$AA3?$AA2?$AA?4?$AAD?$AAL?$AAL?$AA?$AA@ 100c2cbc     LIBCMTD:_pdblkup_.obj
 0002:0001ccf4       ??_C@_03KHICJKCI@?4?4?4?$AA@ 100c2cf4     LIBCMTD:dbgrpt.obj
 0002:0001ccf8       ??_C@_0BB@NAGLCMLI@Assertion?5Failed?$AA@ 100c2cf8     LIBCMTD:dbgrpt.obj
 0002:0001cd0c       ??_C@_05NAOIJFC@Error?$AA@ 100c2d0c     LIBCMTD:dbgrpt.obj
 0002:0001cd14       ??_C@_07KGMMFLDN@Warning?$AA@ 100c2d14     LIBCMTD:dbgrpt.obj
 0002:0001cd28       ??_C@_1CG@GNMJDMIO@?$AA_?$AAC?$AAr?$AAt?$AAS?$AAe?$AAt?$AAR?$AAe?$AAp?$AAo?$AAr?$AAt?$AAH?$AAo?$AAo?$AAk?$AA2?$AA?$AA@ 100c2d28     LIBCMTD:dbgrpt.obj
 0002:0001cd50       ??_C@_0CD@EBCGLDDL@Microsoft?5Visual?5C?$CL?$CL?5Debug?5Libra@ 100c2d50     LIBCMTD:dbgrpt.obj
 0002:0001cd74       ??_C@_0CL@EACFGMNB@_CrtDbgReport?3?5String?5too?5long?5o@ 100c2d74     LIBCMTD:dbgrpt.obj
 0002:0001cda0       ??_C@_1JG@CPKCIOEE@?$AAs?$AAt?$AAr?$AAc?$AAp?$AAy?$AA_?$AAs?$AA?$CI?$AAs?$AAz?$AAO?$AAu?$AAt?$AAM?$AAe?$AAs?$AAs?$AAa?$AAg?$AAe?$AA?0?$AA?5?$AA4?$AA0?$AA9?$AA6?$AA?0?$AA?5?$AA?$CC?$AA_?$AAC@ 100c2da0     LIBCMTD:dbgrpt.obj
 0002:0001ce38       ??_C@_0FF@CCONDJCB@Debug?5?$CFs?$CB?6?6Program?3?5?$CFs?$CFs?$CFs?$CFs?$CFs?$CFs@ 100c2e38     LIBCMTD:dbgrpt.obj
 0002:0001ce90       ??_C@_09OFBFHMBK@?6Module?3?5?$AA@ 100c2e90     LIBCMTD:dbgrpt.obj
 0002:0001ce9c       ??_C@_07OPHPPLBG@?6File?3?5?$AA@ 100c2e9c     LIBCMTD:dbgrpt.obj
 0002:0001cea4       ??_C@_07DBMPPHDI@?6Line?3?5?$AA@ 100c2ea4     LIBCMTD:dbgrpt.obj
 0002:0001ceac       ??_C@_02PHMGELLB@?6?6?$AA@ 100c2eac     LIBCMTD:dbgrpt.obj
 0002:0001ceb0       ??_C@_0N@MEECIJGN@Expression?3?5?$AA@ 100c2eb0     LIBCMTD:dbgrpt.obj
 0002:0001cec0       ??_C@_0HD@GNBNFCCL@?6?6For?5information?5on?5how?5your?5pr@ 100c2ec0     LIBCMTD:dbgrpt.obj
 0002:0001cf34       ??_C@_0BH@DNAGHKFM@?$DMprogram?5name?5unknown?$DO?$AA@ 100c2f34     LIBCMTD:dbgrpt.obj
 0002:0001cf50       ??_C@_1GG@DLDHOIGE@?$AAs?$AAt?$AAr?$AAc?$AAp?$AAy?$AA_?$AAs?$AA?$CI?$AAs?$AAz?$AAE?$AAx?$AAe?$AAN?$AAa?$AAm?$AAe?$AA?0?$AA?5?$AA2?$AA6?$AA0?$AA?0?$AA?5?$AA?$CC?$AA?$DM?$AAp?$AAr?$AAo?$AAg?$AAr@ 100c2f50     LIBCMTD:dbgrpt.obj
 0002:0001cfb8       ??_C@_1CI@IDOKFLAJ@?$AA_?$AA_?$AAc?$AAr?$AAt?$AAM?$AAe?$AAs?$AAs?$AAa?$AAg?$AAe?$AAW?$AAi?$AAn?$AAd?$AAo?$AAw?$AAA?$AA?$AA@ 100c2fb8     LIBCMTD:dbgrpt.obj
 0002:0001cfe0       ??_C@_1BK@CDOALEA@?$AA_?$AAc?$AAo?$AAn?$AAt?$AAr?$AAo?$AAl?$AAf?$AAp?$AA_?$AAs?$AA?$AA@ 100c2fe0     LIBCMTD:_contrlfp_.obj
 0002:0001d000       ??_C@_1HI@JIOCECAH@?$AAf?$AA?3?$AA?2?$AAd?$AAd?$AA?2?$AAv?$AAc?$AAt?$AAo?$AAo?$AAl?$AAs?$AA?2?$AAc?$AAr?$AAt?$AA_?$AAb?$AAl?$AAd?$AA?2?$AAs?$AAe?$AAl?$AAf?$AA_?$AAx?$AA8?$AA6?$AA?2?$AAc@ 100c3000     LIBCMTD:_contrlfp_.obj
 0002:0001d078       ??_C@_1DG@JNDMIEJL@?$AA?$CI?$AA?$CC?$AAI?$AAn?$AAv?$AAa?$AAl?$AAi?$AAd?$AA?5?$AAi?$AAn?$AAp?$AAu?$AAt?$AA?5?$AAv?$AAa?$AAl?$AAu?$AAe?$AA?$CC?$AA?0?$AA?5?$AA0?$AA?$CJ?$AA?$AA@ 100c3078     LIBCMTD:_contrlfp_.obj
 0002:0001d0b0       ??_C@_1BK@CLIEHFDF@?$AAp?$AAf?$AAl?$AAt?$AA?5?$AA?$CB?$AA?$DN?$AA?5?$AAN?$AAU?$AAL?$AAL?$AA?$AA@ 100c30b0     LIBCMTD:_fptostr.obj
 0002:0001d0d0       ??_C@_1GM@CEDLGDDI@?$AAs?$AAi?$AAz?$AAe?$AAI?$AAn?$AAB?$AAy?$AAt?$AAe?$AAs?$AA?5?$AA?$DO?$AA?5?$AA?$CI?$AAs?$AAi?$AAz?$AAe?$AA_?$AAt?$AA?$CJ?$AA?$CI?$AA?$CI?$AAd?$AAi?$AAg?$AAi?$AAt?$AAs?$AA?5?$AA?$DO@ 100c30d0     LIBCMTD:_fptostr.obj
 0002:0001d13c       ??_C@_1BC@OPALLEB@?$AA_?$AAf?$AAp?$AAt?$AAo?$AAs?$AAt?$AAr?$AA?$AA@ 100c313c     LIBCMTD:_fptostr.obj
 0002:0001d150       ??_C@_1GE@BDKOPHIO@?$AAf?$AA?3?$AA?2?$AAd?$AAd?$AA?2?$AAv?$AAc?$AAt?$AAo?$AAo?$AAl?$AAs?$AA?2?$AAc?$AAr?$AAt?$AA_?$AAb?$AAl?$AAd?$AA?2?$AAs?$AAe?$AAl?$AAf?$AA_?$AAx?$AA8?$AA6?$AA?2?$AAc@ 100c3150     LIBCMTD:_fptostr.obj
 0002:0001d1b8       ??_C@_1FK@KODCOBKF@?$AAs?$AAt?$AAr?$AAc?$AAp?$AAy?$AA_?$AAs?$AA?$CI?$AAr?$AAe?$AAs?$AAu?$AAl?$AAt?$AAs?$AAt?$AAr?$AA?0?$AA?5?$AAr?$AAe?$AAs?$AAu?$AAl?$AAt?$AAs?$AAi?$AAz?$AAe?$AA?0?$AA?5@ 100c31b8     LIBCMTD:_cfout_.obj
 0002:0001d214       ??_C@_1BC@BPMMEHLK@?$AA_?$AAf?$AAl?$AAt?$AAo?$AAu?$AAt?$AA2?$AA?$AA@ 100c3214     LIBCMTD:_cfout_.obj
 0002:0001d228       ??_C@_1HC@PKFDNKN@?$AAf?$AA?3?$AA?2?$AAd?$AAd?$AA?2?$AAv?$AAc?$AAt?$AAo?$AAo?$AAl?$AAs?$AA?2?$AAc?$AAr?$AAt?$AA_?$AAb?$AAl?$AAd?$AA?2?$AAs?$AAe?$AAl?$AAf?$AA_?$AAx?$AA8?$AA6?$AA?2?$AAc@ 100c3228     LIBCMTD:_cfout_.obj
 0002:0001d29c       ??_C@_1CG@EBJECAJM@?$AA_?$AAs?$AAe?$AAt?$AA_?$AAo?$AAu?$AAt?$AAp?$AAu?$AAt?$AA_?$AAf?$AAo?$AAr?$AAm?$AAa?$AAt?$AA?$AA@ 100c329c     LIBCMTD:outputformat.obj
 0002:0001d2c8       ??_C@_1GM@NFGGJJCM@?$AAf?$AA?3?$AA?2?$AAd?$AAd?$AA?2?$AAv?$AAc?$AAt?$AAo?$AAo?$AAl?$AAs?$AA?2?$AAc?$AAr?$AAt?$AA_?$AAb?$AAl?$AAd?$AA?2?$AAs?$AAe?$AAl?$AAf?$AA_?$AAx?$AA8?$AA6?$AA?2?$AAc@ 100c32c8     LIBCMTD:outputformat.obj
 0002:0001d338       ??_C@_1EM@EGEEBJLG@?$AA?$CI?$AAo?$AAp?$AAt?$AAi?$AAo?$AAn?$AAs?$AA?5?$AA?$CG?$AA?5?$AA?$HO?$AA_?$AAT?$AAW?$AAO?$AA_?$AAD?$AAI?$AAG?$AAI?$AAT?$AA_?$AAE?$AAX?$AAP?$AAO?$AAN?$AAE?$AAN?$AAT?$AA?$CJ@ 100c3338     LIBCMTD:outputformat.obj
 0002:0001d384       ??_C@_1BC@CFJEPFGF@?$AAs?$AAt?$AAr?$AAc?$AAp?$AAy?$AA_?$AAs?$AA?$AA@ 100c3384     LIBCMTD:strcpy_s.obj
 0002:0001d398       ??_C@_1FC@NCPEPIBI@?$AA?$CI?$AA?$CI?$AA_?$AAD?$AAs?$AAt?$AA?$CJ?$AA?$CJ?$AA?5?$AA?$CB?$AA?$DN?$AA?5?$AAN?$AAU?$AAL?$AAL?$AA?5?$AA?$CG?$AA?$CG?$AA?5?$AA?$CI?$AA?$CI?$AA_?$AAS?$AAi?$AAz?$AAe?$AAI?$AAn?$AAB?$AAy?$AAt@ 100c3398     LIBCMTD:strcpy_s.obj
 0002:0001d3ec       ??_C@_0DA@HMCPFNKN@f?3?2dd?2vctools?2crt_bld?2self_x86?2c@ 100c33ec     LIBCMTD:onexit.obj
 0002:0001d41c       ??_C@_1BO@BKOMIGKJ@?$AAr?$AAu?$AAn?$AAt?$AAi?$AAm?$AAe?$AA?5?$AAe?$AAr?$AAr?$AAo?$AAr?$AA?5?$AA?$AA@ 100c341c     LIBCMTD:crt0msg.obj
 0002:0001d43c       ??_C@_15JNBOKNOG@?$AA?$AN?$AA?6?$AA?$AA@ 100c343c     LIBCMTD:crt0msg.obj
 0002:0001d444       ??_C@_1BM@JBBEPPHI@?$AAT?$AAL?$AAO?$AAS?$AAS?$AA?5?$AAe?$AAr?$AAr?$AAo?$AAr?$AA?$AN?$AA?6?$AA?$AA@ 100c3444     LIBCMTD:crt0msg.obj
 0002:0001d460       ??_C@_1BK@KMOMNAAI@?$AAS?$AAI?$AAN?$AAG?$AA?5?$AAe?$AAr?$AAr?$AAo?$AAr?$AA?$AN?$AA?6?$AA?$AA@ 100c3460     LIBCMTD:crt0msg.obj
 0002:0001d47c       ??_C@_1BO@BFCDCGC@?$AAD?$AAO?$AAM?$AAA?$AAI?$AAN?$AA?5?$AAe?$AAr?$AAr?$AAo?$AAr?$AA?$AN?$AA?6?$AA?$AA@ 100c347c     LIBCMTD:crt0msg.obj
 0002:0001d4a0       ??_C@_1BOO@KGEDBGAJ@?$AAR?$AA6?$AA0?$AA3?$AA3?$AA?$AN?$AA?6?$AA?9?$AA?5?$AAA?$AAt?$AAt?$AAe?$AAm?$AAp?$AAt?$AA?5?$AAt?$AAo?$AA?5?$AAu?$AAs?$AAe?$AA?5?$AAM?$AAS?$AAI?$AAL?$AA?5?$AAc?$AAo?$AAd@ 100c34a0     LIBCMTD:crt0msg.obj
 0002:0001d690       ??_C@_1GG@GOPILAJP@?$AAR?$AA6?$AA0?$AA3?$AA2?$AA?$AN?$AA?6?$AA?9?$AA?5?$AAn?$AAo?$AAt?$AA?5?$AAe?$AAn?$AAo?$AAu?$AAg?$AAh?$AA?5?$AAs?$AAp?$AAa?$AAc?$AAe?$AA?5?$AAf?$AAo?$AAr?$AA?5?$AAl?$AAo@ 100c3690     LIBCMTD:crt0msg.obj
 0002:0001d6f8       ??_C@_1MG@ENCOOIDF@?$AAR?$AA6?$AA0?$AA3?$AA1?$AA?$AN?$AA?6?$AA?9?$AA?5?$AAA?$AAt?$AAt?$AAe?$AAm?$AAp?$AAt?$AA?5?$AAt?$AAo?$AA?5?$AAi?$AAn?$AAi?$AAt?$AAi?$AAa?$AAl?$AAi?$AAz?$AAe?$AA?5?$AAt@ 100c36f8     LIBCMTD:crt0msg.obj
 0002:0001d7c0       ??_C@_1DO@BMFCDCD@?$AAR?$AA6?$AA0?$AA3?$AA0?$AA?$AN?$AA?6?$AA?9?$AA?5?$AAC?$AAR?$AAT?$AA?5?$AAn?$AAo?$AAt?$AA?5?$AAi?$AAn?$AAi?$AAt?$AAi?$AAa?$AAl?$AAi?$AAz?$AAe?$AAd?$AA?$AN?$AA?6?$AA?$AA@ 100c37c0     LIBCMTD:crt0msg.obj
 0002:0001d800       ??_C@_1EK@HHFLMAOL@?$AAR?$AA6?$AA0?$AA2?$AA8?$AA?$AN?$AA?6?$AA?9?$AA?5?$AAu?$AAn?$AAa?$AAb?$AAl?$AAe?$AA?5?$AAt?$AAo?$AA?5?$AAi?$AAn?$AAi?$AAt?$AAi?$AAa?$AAl?$AAi?$AAz?$AAe?$AA?5?$AAh?$AAe@ 100c3800     LIBCMTD:crt0msg.obj
 0002:0001d850       ??_C@_1GK@MFGOKLAG@?$AAR?$AA6?$AA0?$AA2?$AA7?$AA?$AN?$AA?6?$AA?9?$AA?5?$AAn?$AAo?$AAt?$AA?5?$AAe?$AAn?$AAo?$AAu?$AAg?$AAh?$AA?5?$AAs?$AAp?$AAa?$AAc?$AAe?$AA?5?$AAf?$AAo?$AAr?$AA?5?$AAl?$AAo@ 100c3850     LIBCMTD:crt0msg.obj
 0002:0001d8c0       ??_C@_1GK@MCAAGJMO@?$AAR?$AA6?$AA0?$AA2?$AA6?$AA?$AN?$AA?6?$AA?9?$AA?5?$AAn?$AAo?$AAt?$AA?5?$AAe?$AAn?$AAo?$AAu?$AAg?$AAh?$AA?5?$AAs?$AAp?$AAa?$AAc?$AAe?$AA?5?$AAf?$AAo?$AAr?$AA?5?$AAs?$AAt@ 100c38c0     LIBCMTD:crt0msg.obj
 0002:0001d930       ??_C@_1EM@MAADIHMB@?$AAR?$AA6?$AA0?$AA2?$AA5?$AA?$AN?$AA?6?$AA?9?$AA?5?$AAp?$AAu?$AAr?$AAe?$AA?5?$AAv?$AAi?$AAr?$AAt?$AAu?$AAa?$AAl?$AA?5?$AAf?$AAu?$AAn?$AAc?$AAt?$AAi?$AAo?$AAn?$AA?5?$AAc@ 100c3930     LIBCMTD:crt0msg.obj
 0002:0001d980       ??_C@_1GK@FHCKBEFA@?$AAR?$AA6?$AA0?$AA2?$AA4?$AA?$AN?$AA?6?$AA?9?$AA?5?$AAn?$AAo?$AAt?$AA?5?$AAe?$AAn?$AAo?$AAu?$AAg?$AAh?$AA?5?$AAs?$AAp?$AAa?$AAc?$AAe?$AA?5?$AAf?$AAo?$AAr?$AA?5?$AA_?$AAo@ 100c3980     LIBCMTD:crt0msg.obj
 0002:0001d9f0       ??_C@_1FC@ECHBIFBC@?$AAR?$AA6?$AA0?$AA1?$AA9?$AA?$AN?$AA?6?$AA?9?$AA?5?$AAu?$AAn?$AAa?$AAb?$AAl?$AAe?$AA?5?$AAt?$AAo?$AA?5?$AAo?$AAp?$AAe?$AAn?$AA?5?$AAc?$AAo?$AAn?$AAs?$AAo?$AAl?$AAe?$AA?5@ 100c39f0     LIBCMTD:crt0msg.obj
 0002:0001da48       ??_C@_1EC@JIBHAOPH@?$AAR?$AA6?$AA0?$AA1?$AA8?$AA?$AN?$AA?6?$AA?9?$AA?5?$AAu?$AAn?$AAe?$AAx?$AAp?$AAe?$AAc?$AAt?$AAe?$AAd?$AA?5?$AAh?$AAe?$AAa?$AAp?$AA?5?$AAe?$AAr?$AAr?$AAo?$AAr?$AA?$AN?$AA?6@ 100c3a48     LIBCMTD:crt0msg.obj
 0002:0001da90       ??_C@_1FK@BEOGODMC@?$AAR?$AA6?$AA0?$AA1?$AA7?$AA?$AN?$AA?6?$AA?9?$AA?5?$AAu?$AAn?$AAe?$AAx?$AAp?$AAe?$AAc?$AAt?$AAe?$AAd?$AA?5?$AAm?$AAu?$AAl?$AAt?$AAi?$AAt?$AAh?$AAr?$AAe?$AAa?$AAd?$AA?5@ 100c3a90     LIBCMTD:crt0msg.obj
 0002:0001daf0       ??_C@_1FI@LOGNIKDM@?$AAR?$AA6?$AA0?$AA1?$AA6?$AA?$AN?$AA?6?$AA?9?$AA?5?$AAn?$AAo?$AAt?$AA?5?$AAe?$AAn?$AAo?$AAu?$AAg?$AAh?$AA?5?$AAs?$AAp?$AAa?$AAc?$AAe?$AA?5?$AAf?$AAo?$AAr?$AA?5?$AAt?$AAh@ 100c3af0     LIBCMTD:crt0msg.obj
 0002:0001db48       ??_C@_1EG@BEHAGFJD@?$AAR?$AA6?$AA0?$AA1?$AA0?$AA?$AN?$AA?6?$AA?9?$AA?5?$AAa?$AAb?$AAo?$AAr?$AAt?$AA?$CI?$AA?$CJ?$AA?5?$AAh?$AAa?$AAs?$AA?5?$AAb?$AAe?$AAe?$AAn?$AA?5?$AAc?$AAa?$AAl?$AAl?$AAe?$AAd@ 100c3b48     LIBCMTD:crt0msg.obj
 0002:0001db90       ??_C@_1FI@HONFMGBI@?$AAR?$AA6?$AA0?$AA0?$AA9?$AA?$AN?$AA?6?$AA?9?$AA?5?$AAn?$AAo?$AAt?$AA?5?$AAe?$AAn?$AAo?$AAu?$AAg?$AAh?$AA?5?$AAs?$AAp?$AAa?$AAc?$AAe?$AA?5?$AAf?$AAo?$AAr?$AA?5?$AAe?$AAn@ 100c3b90     LIBCMTD:crt0msg.obj
 0002:0001dbe8       ??_C@_1FE@LLNEDJMD@?$AAR?$AA6?$AA0?$AA0?$AA8?$AA?$AN?$AA?6?$AA?9?$AA?5?$AAn?$AAo?$AAt?$AA?5?$AAe?$AAn?$AAo?$AAu?$AAg?$AAh?$AA?5?$AAs?$AAp?$AAa?$AAc?$AAe?$AA?5?$AAf?$AAo?$AAr?$AA?5?$AAa?$AAr@ 100c3be8     LIBCMTD:crt0msg.obj
 0002:0001dc40       ??_C@_1FK@PGACCAFB@?$AAR?$AA6?$AA0?$AA0?$AA2?$AA?$AN?$AA?6?$AA?9?$AA?5?$AAf?$AAl?$AAo?$AAa?$AAt?$AAi?$AAn?$AAg?$AA?5?$AAp?$AAo?$AAi?$AAn?$AAt?$AA?5?$AAs?$AAu?$AAp?$AAp?$AAo?$AAr?$AAt?$AA?5@ 100c3c40     LIBCMTD:crt0msg.obj
 0002:0001dd50       ??_C@_1IG@NMONDPP@?$AAw?$AAc?$AAs?$AAc?$AAa?$AAt?$AA_?$AAs?$AA?$CI?$AAo?$AAu?$AAt?$AAm?$AAs?$AAg?$AA?0?$AA?5?$AA?$CI?$AAs?$AAi?$AAz?$AAe?$AAo?$AAf?$AA?$CI?$AAo?$AAu?$AAt?$AAm?$AAs?$AAg?$AA?$CJ@ 100c3d50     LIBCMTD:crt0msg.obj
 0002:0001ddd8       ??_C@_1IA@DCJGKHFO@?$AAw?$AAc?$AAs?$AAc?$AAa?$AAt?$AA_?$AAs?$AA?$CI?$AAo?$AAu?$AAt?$AAm?$AAs?$AAg?$AA?0?$AA?5?$AA?$CI?$AAs?$AAi?$AAz?$AAe?$AAo?$AAf?$AA?$CI?$AAo?$AAu?$AAt?$AAm?$AAs?$AAg?$AA?$CJ@ 100c3dd8     LIBCMTD:crt0msg.obj
 0002:0001de58       ??_C@_1HI@FLHKGEBE@?$AAw?$AAc?$AAs?$AAn?$AAc?$AAp?$AAy?$AA_?$AAs?$AA?$CI?$AAp?$AAc?$AAh?$AA?0?$AA?5?$AAp?$AAr?$AAo?$AAg?$AAn?$AAa?$AAm?$AAe?$AA_?$AAs?$AAi?$AAz?$AAe?$AA?5?$AA?9?$AA?5?$AA?$CI@ 100c3e58     LIBCMTD:crt0msg.obj
 0002:0001ded0       ??_C@_1HK@FJJNAABO@?$AAw?$AAc?$AAs?$AAc?$AAp?$AAy?$AA_?$AAs?$AA?$CI?$AAp?$AAr?$AAo?$AAg?$AAn?$AAa?$AAm?$AAe?$AA?0?$AA?5?$AAp?$AAr?$AAo?$AAg?$AAn?$AAa?$AAm?$AAe?$AA_?$AAs?$AAi?$AAz?$AAe@ 100c3ed0     LIBCMTD:crt0msg.obj
 0002:0001df4c       ??_C@_1DE@JNGNBFGO@?$AAR?$AAu?$AAn?$AAt?$AAi?$AAm?$AAe?$AA?5?$AAE?$AAr?$AAr?$AAo?$AAr?$AA?$CB?$AA?6?$AA?6?$AAP?$AAr?$AAo?$AAg?$AAr?$AAa?$AAm?$AA?3?$AA?5?$AA?$AA@ 100c3f4c     LIBCMTD:crt0msg.obj
 0002:0001df80       ??_C@_1KO@BKLCKNFL@?$AAw?$AAc?$AAs?$AAc?$AAp?$AAy?$AA_?$AAs?$AA?$CI?$AAo?$AAu?$AAt?$AAm?$AAs?$AAg?$AA?0?$AA?5?$AA?$CI?$AAs?$AAi?$AAz?$AAe?$AAo?$AAf?$AA?$CI?$AAo?$AAu?$AAt?$AAm?$AAs?$AAg?$AA?$CJ@ 100c3f80     LIBCMTD:crt0msg.obj
 0002:0001e030       ??_C@_1BI@EAHMBMEC@?$AA_?$AAN?$AAM?$AAS?$AAG?$AA_?$AAW?$AAR?$AAI?$AAT?$AAE?$AA?$AA@ 100c4030     LIBCMTD:crt0msg.obj
 0002:0001e048       ??_C@_1GC@HKOJBOFF@?$AAf?$AA?3?$AA?2?$AAd?$AAd?$AA?2?$AAv?$AAc?$AAt?$AAo?$AAo?$AAl?$AAs?$AA?2?$AAc?$AAr?$AAt?$AA_?$AAb?$AAl?$AAd?$AA?2?$AAs?$AAe?$AAl?$AAf?$AA_?$AAx?$AA8?$AA6?$AA?2?$AAc@ 100c4048     LIBCMTD:crt0msg.obj
 0002:0001e0ac       ??_C@_0CP@MKONOLCI@f?3?2dd?2vctools?2crt_bld?2self_x86?2c@ 100c40ac     LIBCMTD:mlock.obj
 0002:0001e0dc       ??_C@_0BC@JEAENNKH@SystemFunction036?$AA@ 100c40dc     LIBCMTD:rand_s.obj
 0002:0001e0f0       ??_C@_1GA@EBEDGGGB@?$AA?$CI?$AA?$CC?$AAr?$AAa?$AAn?$AAd?$AA_?$AAs?$AA?5?$AAi?$AAs?$AA?5?$AAn?$AAo?$AAt?$AA?5?$AAa?$AAv?$AAa?$AAi?$AAl?$AAa?$AAb?$AAl?$AAe?$AA?5?$AAo?$AAn?$AA?5?$AAt?$AAh?$AAi@ 100c40f0     LIBCMTD:rand_s.obj
 0002:0001e150       ??_C@_1O@IJGPPOGF@?$AAr?$AAa?$AAn?$AAd?$AA_?$AAs?$AA?$AA@ 100c4150     LIBCMTD:rand_s.obj
 0002:0001e160       ??_C@_1GA@HBGBBKCD@?$AAf?$AA?3?$AA?2?$AAd?$AAd?$AA?2?$AAv?$AAc?$AAt?$AAo?$AAo?$AAl?$AAs?$AA?2?$AAc?$AAr?$AAt?$AA_?$AAb?$AAl?$AAd?$AA?2?$AAs?$AAe?$AAl?$AAf?$AA_?$AAx?$AA8?$AA6?$AA?2?$AAc@ 100c4160     LIBCMTD:rand_s.obj
 0002:0001e1c0       ??_C@_1CK@GFDNDKK@?$AA_?$AAR?$AAa?$AAn?$AAd?$AAo?$AAm?$AAV?$AAa?$AAl?$AAu?$AAe?$AA?5?$AA?$CB?$AA?$DN?$AA?5?$AAN?$AAU?$AAL?$AAL?$AA?$AA@ 100c41c0     LIBCMTD:rand_s.obj
 0002:0001e1f0       ??_C@_1GO@NGIGJNHH@?$AAs?$AAt?$AAr?$AAn?$AAc?$AAp?$AAy?$AA_?$AAs?$AA?$CI?$AA?$CK?$AAs?$AAt?$AAr?$AAa?$AAd?$AAd?$AAr?$AAe?$AAs?$AAs?$AA?0?$AA?5?$AAo?$AAu?$AAt?$AAs?$AAi?$AAz?$AAe?$AA?0?$AA?5@ 100c41f0     LIBCMTD:inithelp.obj
 0002:0001e260       ??_C@_1CA@KHHCPEI@?$AA_?$AA_?$AAg?$AAe?$AAt?$AAl?$AAo?$AAc?$AAa?$AAl?$AAe?$AAi?$AAn?$AAf?$AAo?$AA?$AA@ 100c4260     LIBCMTD:inithelp.obj
 0002:0001e280       ??_C@_1GE@PLPIMDHG@?$AAf?$AA?3?$AA?2?$AAd?$AAd?$AA?2?$AAv?$AAc?$AAt?$AAo?$AAo?$AAl?$AAs?$AA?2?$AAc?$AAr?$AAt?$AA_?$AAb?$AAl?$AAd?$AA?2?$AAs?$AAe?$AAl?$AAf?$AA_?$AAx?$AA8?$AA6?$AA?2?$AAc@ 100c4280     LIBCMTD:inithelp.obj
 0002:0001e2e4       ??_C@_0DC@CFDMMFIG@f?3?2dd?2vctools?2crt_bld?2self_x86?2c@ 100c42e4     LIBCMTD:inithelp.obj
 0002:0001e318       ??_C@_1GG@CDHAPCGF@?$AAf?$AA?3?$AA?2?$AAd?$AAd?$AA?2?$AAv?$AAc?$AAt?$AAo?$AAo?$AAl?$AAs?$AA?2?$AAc?$AAr?$AAt?$AA_?$AAb?$AAl?$AAd?$AA?2?$AAs?$AAe?$AAl?$AAf?$AA_?$AAx?$AA8?$AA6?$AA?2?$AAc@ 100c4318     LIBCMTD:handler.obj
 0002:0001e380       ??_C@_1BC@JLLICHIC@?$AAp?$AAn?$AAh?$AA?5?$AA?$DN?$AA?$DN?$AA?5?$AA0?$AA?$AA@ 100c4380     LIBCMTD:handler.obj
 0002:0001e398       ??_C@_1JE@ECKHFIFP@?$AA?$CI?$AA?$CC?$AAI?$AAn?$AAv?$AAa?$AAl?$AAi?$AAd?$AA?5?$AAf?$AAi?$AAl?$AAe?$AA?5?$AAd?$AAe?$AAs?$AAc?$AAr?$AAi?$AAp?$AAt?$AAo?$AAr?$AA?4?$AA?5?$AAF?$AAi?$AAl?$AAe?$AA?5@ 100c4398     LIBCMTD:commit.obj
 0002:0001e42c       ??_C@_1DG@LNNHNFHJ@?$AA?$CI?$AA_?$AAo?$AAs?$AAf?$AAi?$AAl?$AAe?$AA?$CI?$AAf?$AAi?$AAl?$AAe?$AAd?$AAe?$AAs?$AA?$CJ?$AA?5?$AA?$CG?$AA?5?$AAF?$AAO?$AAP?$AAE?$AAN?$AA?$CJ?$AA?$AA@ 100c442c     LIBCMTD:commit.obj
 0002:0001e464       ??_C@_1BA@FLNMBBIM@?$AA_?$AAc?$AAo?$AAm?$AAm?$AAi?$AAt?$AA?$AA@ 100c4464     LIBCMTD:commit.obj
 0002:0001e478       ??_C@_1GA@BOPCOCFN@?$AAf?$AA?3?$AA?2?$AAd?$AAd?$AA?2?$AAv?$AAc?$AAt?$AAo?$AAo?$AAl?$AAs?$AA?2?$AAc?$AAr?$AAt?$AA_?$AAb?$AAl?$AAd?$AA?2?$AAs?$AAe?$AAl?$AAf?$AA_?$AAx?$AA8?$AA6?$AA?2?$AAc@ 100c4478     LIBCMTD:commit.obj
 0002:0001e4d8       ??_C@_1HC@KFLBHHBC@?$AA?$CI?$AAf?$AAi?$AAl?$AAe?$AAd?$AAe?$AAs?$AA?5?$AA?$DO?$AA?$DN?$AA?5?$AA0?$AA?5?$AA?$CG?$AA?$CG?$AA?5?$AA?$CI?$AAu?$AAn?$AAs?$AAi?$AAg?$AAn?$AAe?$AAd?$AA?$CJ?$AAf?$AAi?$AAl?$AAe?$AAd@ 100c44d8     LIBCMTD:commit.obj
 0002:0001e54c       ??_C@_1BA@JGHIEKKM@?$AA_?$AAf?$AAi?$AAl?$AAe?$AAn?$AAo?$AA?$AA@ 100c454c     LIBCMTD:fileno.obj
 0002:0001e560       ??_C@_1GA@PBJHELNC@?$AAf?$AA?3?$AA?2?$AAd?$AAd?$AA?2?$AAv?$AAc?$AAt?$AAo?$AAo?$AAl?$AAs?$AA?2?$AAc?$AAr?$AAt?$AA_?$AAb?$AAl?$AAd?$AA?2?$AAs?$AAe?$AAl?$AAf?$AA_?$AAx?$AA8?$AA6?$AA?2?$AAc@ 100c4560     LIBCMTD:fileno.obj
 0002:0001e5c0       ??_C@_1CM@OKGMMMDH@?$AA?$CI?$AA_?$AAo?$AAs?$AAf?$AAi?$AAl?$AAe?$AA?$CI?$AAf?$AAh?$AA?$CJ?$AA?5?$AA?$CG?$AA?5?$AAF?$AAO?$AAP?$AAE?$AAN?$AA?$CJ?$AA?$AA@ 100c45c0     LIBCMTD:write.obj
 0002:0001e5ec       ??_C@_1O@KOFKDHPL@?$AA_?$AAw?$AAr?$AAi?$AAt?$AAe?$AA?$AA@ 100c45ec     LIBCMTD:write.obj
 0002:0001e600       ??_C@_1FO@EPLDPDDL@?$AAf?$AA?3?$AA?2?$AAd?$AAd?$AA?2?$AAv?$AAc?$AAt?$AAo?$AAo?$AAl?$AAs?$AA?2?$AAc?$AAr?$AAt?$AA_?$AAb?$AAl?$AAd?$AA?2?$AAs?$AAe?$AAl?$AAf?$AA_?$AAx?$AA8?$AA6?$AA?2?$AAc@ 100c4600     LIBCMTD:write.obj
 0002:0001e660       ??_C@_1FO@LPCLHKGE@?$AA?$CI?$AAf?$AAh?$AA?5?$AA?$DO?$AA?$DN?$AA?5?$AA0?$AA?5?$AA?$CG?$AA?$CG?$AA?5?$AA?$CI?$AAu?$AAn?$AAs?$AAi?$AAg?$AAn?$AAe?$AAd?$AA?$CJ?$AAf?$AAh?$AA?5?$AA?$DM?$AA?5?$AA?$CI?$AAu?$AAn?$AAs?$AAi@ 100c4660     LIBCMTD:write.obj
 0002:0001e6c0       ??_C@_1DI@CNMHHHLG@?$AAi?$AAs?$AAl?$AAe?$AAa?$AAd?$AAb?$AAy?$AAt?$AAe?$AA?$CI?$AA_?$AAd?$AAb?$AAc?$AAs?$AAB?$AAu?$AAf?$AAf?$AAe?$AAr?$AA?$CI?$AAf?$AAh?$AA?$CJ?$AA?$CJ?$AA?$AA@ 100c46c0     LIBCMTD:write.obj
 0002:0001e6f8       ??_C@_1CC@EEOLPHGO@?$AA?$CI?$AA?$CI?$AAc?$AAn?$AAt?$AA?5?$AA?$CG?$AA?5?$AA1?$AA?$CJ?$AA?5?$AA?$DN?$AA?$DN?$AA?5?$AA0?$AA?$CJ?$AA?$AA@ 100c46f8     LIBCMTD:write.obj
 0002:0001e71c       ??_C@_1BM@NCANHCIP@?$AA_?$AAw?$AAr?$AAi?$AAt?$AAe?$AA_?$AAn?$AAo?$AAl?$AAo?$AAc?$AAk?$AA?$AA@ 100c471c     LIBCMTD:write.obj
 0002:0001e738       ??_C@_1BM@KFJLMBPG@?$AA?$CI?$AAb?$AAu?$AAf?$AA?5?$AA?$CB?$AA?$DN?$AA?5?$AAN?$AAU?$AAL?$AAL?$AA?$CJ?$AA?$AA@ 100c4738     LIBCMTD:write.obj
 0002:0001e754       ??_C@_0DB@OLNNDFNH@f?3?2dd?2vctools?2crt_bld?2self_x86?2c@ 100c4754     LIBCMTD:_sftbuf.obj
 0002:0001e788       ??_C@_1GC@DGAFOCMO@?$AAf?$AA?3?$AA?2?$AAd?$AAd?$AA?2?$AAv?$AAc?$AAt?$AAo?$AAo?$AAl?$AAs?$AA?2?$AAc?$AAr?$AAt?$AA_?$AAb?$AAl?$AAd?$AA?2?$AAs?$AAe?$AAl?$AAf?$AA_?$AAx?$AA8?$AA6?$AA?2?$AAc@ 100c4788     LIBCMTD:_sftbuf.obj
 0002:0001e7ec       ??_C@_1CO@KCKAACMI@?$AAf?$AAl?$AAa?$AAg?$AA?5?$AA?$DN?$AA?$DN?$AA?5?$AA0?$AA?5?$AA?$HM?$AA?$HM?$AA?5?$AAf?$AAl?$AAa?$AAg?$AA?5?$AA?$DN?$AA?$DN?$AA?5?$AA1?$AA?$AA@ 100c47ec     LIBCMTD:_sftbuf.obj
 0002:0001e81c       ??_C@_1BG@BBCDFOMA@?$AA_?$AAw?$AAo?$AAu?$AAt?$AAp?$AAu?$AAt?$AA_?$AAl?$AA?$AA@ 100c481c     LIBCMTD:woutput.obj
 0002:0001e834       ??_C@_1CC@MONNFDCM@?$AAv?$AAf?$AAw?$AAp?$AAr?$AAi?$AAn?$AAt?$AAf?$AA_?$AAh?$AAe?$AAl?$AAp?$AAe?$AAr?$AA?$AA@ 100c4834     LIBCMTD:vfwprint.obj
 0002:0001e858       ??_C@_1GE@MBMBDAGC@?$AAf?$AA?3?$AA?2?$AAd?$AAd?$AA?2?$AAv?$AAc?$AAt?$AAo?$AAo?$AAl?$AAs?$AA?2?$AAc?$AAr?$AAt?$AA_?$AAb?$AAl?$AAd?$AA?2?$AAs?$AAe?$AAl?$AAf?$AA_?$AAx?$AA8?$AA6?$AA?2?$AAc@ 100c4858     LIBCMTD:vfwprint.obj
 0002:0001e8c0       ??_C@_1GE@MIMBMOF@?$AAf?$AA?3?$AA?2?$AAd?$AAd?$AA?2?$AAv?$AAc?$AAt?$AAo?$AAo?$AAl?$AAs?$AA?2?$AAc?$AAr?$AAt?$AA_?$AAb?$AAl?$AAd?$AA?2?$AAs?$AAe?$AAl?$AAf?$AA_?$AAx?$AA8?$AA6?$AA?2?$AAc@ 100c48c0     LIBCMTD:_freebuf.obj
 0002:0001e924       ??_C@_1BO@KIJENGPH@?$AAs?$AAt?$AAr?$AAe?$AAa?$AAm?$AA?5?$AA?$CB?$AA?$DN?$AA?5?$AAN?$AAU?$AAL?$AAL?$AA?$AA@ 100c4924     LIBCMTD:_freebuf.obj
 0002:0001e948       ??_C@_1FK@LNCFKALM@?$AA?$CI?$AA?$CI?$AAs?$AAt?$AAa?$AAt?$AAe?$AA?5?$AA?$DN?$AA?$DN?$AA?5?$AAS?$AAT?$AA_?$AAN?$AAO?$AAR?$AAM?$AAA?$AAL?$AA?$CJ?$AA?5?$AA?$HM?$AA?$HM?$AA?5?$AA?$CI?$AAs?$AAt?$AAa?$AAt?$AAe?$AA?5@ 100c4948     LIBCMTD:woutputs.obj
 0002:0001e9a8       ??_C@_1EE@DMAIGNBG@?$AA?$CI?$AA?$CC?$AAI?$AAn?$AAc?$AAo?$AAr?$AAr?$AAe?$AAc?$AAt?$AA?5?$AAf?$AAo?$AAr?$AAm?$AAa?$AAt?$AA?5?$AAs?$AAp?$AAe?$AAc?$AAi?$AAf?$AAi?$AAe?$AAr?$AA?$CC?$AA?0?$AA?5?$AA0@ 100c49a8     LIBCMTD:woutputs.obj
 0002:0001e9ec       ??_C@_1BK@ONMFGLDB@?$AA_?$AAw?$AAo?$AAu?$AAt?$AAp?$AAu?$AAt?$AA_?$AAs?$AA_?$AAl?$AA?$AA@ 100c49ec     LIBCMTD:woutputs.obj
 0002:0001ea08       ??_C@_1FK@BCPANIEK@?$AA?$CI?$AA?$CC?$AAM?$AAi?$AAs?$AAs?$AAi?$AAn?$AAg?$AA?5?$AAp?$AAo?$AAs?$AAi?$AAt?$AAi?$AAo?$AAn?$AA?5?$AAi?$AAn?$AA?5?$AAt?$AAh?$AAe?$AA?5?$AAf?$AAo?$AAr?$AAm?$AAa?$AAt@ 100c4a08     LIBCMTD:woutputp.obj
 0002:0001ea68       ??_C@_1JC@OACKELNN@?$AA_?$AAt?$AAv?$AAa?$AAl?$AAi?$AAd?$AAa?$AAt?$AAe?$AA_?$AAp?$AAa?$AAr?$AAa?$AAm?$AA_?$AAr?$AAe?$AAu?$AAs?$AAe?$AA?$CI?$AA?$CG?$AAp?$AAo?$AAs?$AA_?$AAv?$AAa?$AAl?$AAu@ 100c4a68     LIBCMTD:woutputp.obj
 0002:0001eb00       ??_C@_1IK@NBGDDCBN@?$AA_?$AAt?$AAv?$AAa?$AAl?$AAi?$AAd?$AAa?$AAt?$AAe?$AA_?$AAp?$AAa?$AAr?$AAa?$AAm?$AA_?$AAr?$AAe?$AAu?$AAs?$AAe?$AA?$CI?$AA?$CG?$AAp?$AAo?$AAs?$AA_?$AAv?$AAa?$AAl?$AAu@ 100c4b00     LIBCMTD:woutputp.obj
 0002:0001eb8c       ??_C@_1DG@GOHGNKHE@?$AAp?$AAa?$AAs?$AAs?$AA?5?$AA?$DN?$AA?$DN?$AA?5?$AAF?$AAO?$AAR?$AAM?$AAA?$AAT?$AA_?$AAO?$AAU?$AAT?$AAP?$AAU?$AAT?$AA_?$AAP?$AAA?$AAS?$AAS?$AA?$AA@ 100c4b8c     LIBCMTD:woutputp.obj
 0002:0001ebc8       ??_C@_1IM@DNGHAPLB@?$AA_?$AAt?$AAv?$AAa?$AAl?$AAi?$AAd?$AAa?$AAt?$AAe?$AA_?$AAp?$AAa?$AAr?$AAa?$AAm?$AA_?$AAr?$AAe?$AAu?$AAs?$AAe?$AA?$CI?$AA?$CG?$AAp?$AAo?$AAs?$AA_?$AAv?$AAa?$AAl?$AAu@ 100c4bc8     LIBCMTD:woutputp.obj
 0002:0001ec58       ??_C@_1IG@HJIMKDHC@?$AA_?$AAt?$AAv?$AAa?$AAl?$AAi?$AAd?$AAa?$AAt?$AAe?$AA_?$AAp?$AAa?$AAr?$AAa?$AAm?$AA_?$AAr?$AAe?$AAu?$AAs?$AAe?$AA?$CI?$AA?$CG?$AAp?$AAo?$AAs?$AA_?$AAv?$AAa?$AAl?$AAu@ 100c4c58     LIBCMTD:woutputp.obj
 0002:0001ece0       ??_C@_1IG@FDCPLALG@?$AA_?$AAt?$AAv?$AAa?$AAl?$AAi?$AAd?$AAa?$AAt?$AAe?$AA_?$AAp?$AAa?$AAr?$AAa?$AAm?$AA_?$AAr?$AAe?$AAu?$AAs?$AAe?$AA?$CI?$AA?$CG?$AAp?$AAo?$AAs?$AA_?$AAv?$AAa?$AAl?$AAu@ 100c4ce0     LIBCMTD:woutputp.obj
 0002:0001ed68       ??_C@_1EM@BNPHBBIA@?$AA?$CI?$AA?$CI?$AAt?$AAy?$AAp?$AAe?$AA_?$AAp?$AAo?$AAs?$AA?$DO?$AA?$DN?$AA0?$AA?$CJ?$AA?5?$AA?$CG?$AA?$CG?$AA?5?$AA?$CI?$AAt?$AAy?$AAp?$AAe?$AA_?$AAp?$AAo?$AAs?$AA?$DM?$AA_?$AAA?$AAR?$AAG@ 100c4d68     LIBCMTD:woutputp.obj
 0002:0001edb8       ??_C@_1IK@EIEPDKHJ@?$AA_?$AAt?$AAv?$AAa?$AAl?$AAi?$AAd?$AAa?$AAt?$AAe?$AA_?$AAp?$AAa?$AAr?$AAa?$AAm?$AA_?$AAr?$AAe?$AAu?$AAs?$AAe?$AA?$CI?$AA?$CG?$AAp?$AAo?$AAs?$AA_?$AAv?$AAa?$AAl?$AAu@ 100c4db8     LIBCMTD:woutputp.obj
 0002:0001ee48       ??_C@_1JG@JBJBOCFB@?$AA?$CI?$AA?$CI?$AAp?$AAr?$AAe?$AAc?$AAi?$AAs?$AA_?$AAp?$AAo?$AAs?$AA?5?$AA?$DO?$AA?$DN?$AA?5?$AA0?$AA?$CJ?$AA?5?$AA?$CG?$AA?$CG?$AA?5?$AA?$CI?$AA?$CK?$AAe?$AAn?$AAd?$AA_?$AAp?$AAo?$AAs?$AA?5@ 100c4e48     LIBCMTD:woutputp.obj
 0002:0001eee0       ??_C@_1II@PIPIMLPF@?$AA_?$AAt?$AAv?$AAa?$AAl?$AAi?$AAd?$AAa?$AAt?$AAe?$AA_?$AAp?$AAa?$AAr?$AAa?$AAm?$AA_?$AAr?$AAe?$AAu?$AAs?$AAe?$AA?$CI?$AA?$CG?$AAp?$AAo?$AAs?$AA_?$AAv?$AAa?$AAl?$AAu@ 100c4ee0     LIBCMTD:woutputp.obj
 0002:0001ef68       ??_C@_1JE@NMBHOLFI@?$AA?$CI?$AA?$CI?$AAw?$AAi?$AAd?$AAt?$AAh?$AA_?$AAp?$AAo?$AAs?$AA?5?$AA?$DO?$AA?$DN?$AA?5?$AA0?$AA?$CJ?$AA?5?$AA?$CG?$AA?$CG?$AA?5?$AA?$CI?$AA?$CK?$AAe?$AAn?$AAd?$AA_?$AAp?$AAo?$AAs?$AA?5?$AA?$DN@ 100c4f68     LIBCMTD:woutputp.obj
 0002:0001f000       ??_C@_1JC@PFJNKEIO@?$AA?$CI?$AA?$CI?$AAt?$AAy?$AAp?$AAe?$AA_?$AAp?$AAo?$AAs?$AA?5?$AA?$DO?$AA?$DN?$AA?5?$AA0?$AA?$CJ?$AA?5?$AA?$CG?$AA?$CG?$AA?5?$AA?$CI?$AA?$CK?$AAe?$AAn?$AAd?$AA_?$AAp?$AAo?$AAs?$AA?5?$AA?$DN?$AA?$DN@ 100c5000     LIBCMTD:woutputp.obj
 0002:0001f094       ??_C@_1BK@GDEKGMNC@?$AA_?$AAw?$AAo?$AAu?$AAt?$AAp?$AAu?$AAt?$AA_?$AAp?$AA_?$AAl?$AA?$AA@ 100c5094     LIBCMTD:woutputp.obj
 0002:0001f0b0       ??_C@_1NK@LOFHIHFC@?$AAf?$AAM?$AAo?$AAd?$AAe?$AA?5?$AA?$DN?$AA?$DN?$AA?5?$AA_?$AAC?$AAR?$AAT?$AAD?$AAB?$AAG?$AA_?$AAR?$AAE?$AAP?$AAO?$AAR?$AAT?$AA_?$AAM?$AAO?$AAD?$AAE?$AA?5?$AA?$HM?$AA?$HM?$AA?5@ 100c50b0     LIBCMTD:dbgrptt.obj
 0002:0001f18c       ??_C@_1CE@FIHIECNJ@?$AA_?$AAC?$AAr?$AAt?$AAS?$AAe?$AAt?$AAR?$AAe?$AAp?$AAo?$AAr?$AAt?$AAM?$AAo?$AAd?$AAe?$AA?$AA@ 100c518c     LIBCMTD:dbgrptt.obj
 0002:0001f1b0       ??_C@_1GC@FIGJJMEN@?$AAf?$AA?3?$AA?2?$AAd?$AAd?$AA?2?$AAv?$AAc?$AAt?$AAo?$AAo?$AAl?$AAs?$AA?2?$AAc?$AAr?$AAt?$AA_?$AAb?$AAl?$AAd?$AA?2?$AAs?$AAe?$AAl?$AAf?$AA_?$AAx?$AA8?$AA6?$AA?2?$AAc@ 100c51b0     LIBCMTD:dbgrptt.obj
 0002:0001f218       ??_C@_1FA@IFFFOLDJ@?$AAn?$AAR?$AAp?$AAt?$AAT?$AAy?$AAp?$AAe?$AA?5?$AA?$DO?$AA?$DN?$AA?5?$AA0?$AA?5?$AA?$CG?$AA?$CG?$AA?5?$AAn?$AAR?$AAp?$AAt?$AAT?$AAy?$AAp?$AAe?$AA?5?$AA?$DM?$AA?5?$AA_?$AAC?$AAR?$AAT@ 100c5218     LIBCMTD:dbgrptt.obj
 0002:0001f268       ??_C@_1CE@IKKEDCME@?$AA_?$AAC?$AAr?$AAt?$AAS?$AAe?$AAt?$AAR?$AAe?$AAp?$AAo?$AAr?$AAt?$AAF?$AAi?$AAl?$AAe?$AA?$AA@ 100c5268     LIBCMTD:dbgrptt.obj
 0002:0001f290       ??_C@_1HO@PJOFIKFE@?$AA_?$AAC?$AAr?$AAt?$AAD?$AAb?$AAg?$AAR?$AAe?$AAp?$AAo?$AAr?$AAt?$AA?3?$AA?5?$AAS?$AAt?$AAr?$AAi?$AAn?$AAg?$AA?5?$AAt?$AAo?$AAo?$AA?5?$AAl?$AAo?$AAn?$AAg?$AA?5?$AAo@ 100c5290     LIBCMTD:dbgrptt.obj
 0002:0001f310       ??_C@_1MC@IGEECMDB@?$AAw?$AAc?$AAs?$AAc?$AAp?$AAy?$AA_?$AAs?$AA?$CI?$AAs?$AAz?$AAO?$AAu?$AAt?$AAM?$AAe?$AAs?$AAs?$AAa?$AAg?$AAe?$AA2?$AA?0?$AA?5?$AA4?$AA0?$AA9?$AA6?$AA?0?$AA?5?$AAL?$AA?$CC@ 100c5310     LIBCMTD:dbgrptt.obj
 0002:0001f3d8       ??_C@_1IM@OOKIFKOH@?$AAe?$AA?5?$AA?$DN?$AA?5?$AAm?$AAb?$AAs?$AAt?$AAo?$AAw?$AAc?$AAs?$AA_?$AAs?$AA?$CI?$AA?$CG?$AAr?$AAe?$AAt?$AA?0?$AA?5?$AAs?$AAz?$AAO?$AAu?$AAt?$AAM?$AAe?$AAs?$AAs?$AAa?$AAg@ 100c53d8     LIBCMTD:dbgrptt.obj
 0002:0001f468       ??_C@_1FI@IBIOIHEG@?$AAs?$AAt?$AAr?$AAc?$AAp?$AAy?$AA_?$AAs?$AA?$CI?$AAs?$AAz?$AAO?$AAu?$AAt?$AAM?$AAe?$AAs?$AAs?$AAa?$AAg?$AAe?$AA?0?$AA?5?$AA4?$AA0?$AA9?$AA6?$AA?0?$AA?5?$AAs?$AAz?$AAL@ 100c5468     LIBCMTD:dbgrptt.obj
 0002:0001f4c0       ??_C@_0M@IPILFDFN@?$CFs?$CI?$CFd?$CJ?5?3?5?$CFs?$AA@ 100c54c0     LIBCMTD:dbgrptt.obj
 0002:0001f4d0       ??_C@_1EI@LDHJEDO@?$AAs?$AAt?$AAr?$AAc?$AAa?$AAt?$AA_?$AAs?$AA?$CI?$AAs?$AAz?$AAL?$AAi?$AAn?$AAe?$AAM?$AAe?$AAs?$AAs?$AAa?$AAg?$AAe?$AA?0?$AA?5?$AA4?$AA0?$AA9?$AA6?$AA?0?$AA?5?$AA?$CC?$AA?2@ 100c54d0     LIBCMTD:dbgrptt.obj
 0002:0001f518       ??_C@_01LIIJDEN@?$AN?$AA@  100c5518     LIBCMTD:dbgrptt.obj
 0002:0001f520       ??_C@_1EI@CACDLAFK@?$AAs?$AAt?$AAr?$AAc?$AAa?$AAt?$AA_?$AAs?$AA?$CI?$AAs?$AAz?$AAL?$AAi?$AAn?$AAe?$AAM?$AAe?$AAs?$AAs?$AAa?$AAg?$AAe?$AA?0?$AA?5?$AA4?$AA0?$AA9?$AA6?$AA?0?$AA?5?$AA?$CC?$AA?2@ 100c5520     LIBCMTD:dbgrptt.obj
 0002:0001f568       ??_C@_1FK@NPGBPOFO@?$AAs?$AAt?$AAr?$AAc?$AAa?$AAt?$AA_?$AAs?$AA?$CI?$AAs?$AAz?$AAL?$AAi?$AAn?$AAe?$AAM?$AAe?$AAs?$AAs?$AAa?$AAg?$AAe?$AA?0?$AA?5?$AA4?$AA0?$AA9?$AA6?$AA?0?$AA?5?$AAs?$AAz@ 100c5568     LIBCMTD:dbgrptt.obj
 0002:0001f5c8       ??_C@_1KK@GIGAEDMO@?$AAs?$AAt?$AAr?$AAc?$AAp?$AAy?$AA_?$AAs?$AA?$CI?$AAs?$AAz?$AAL?$AAi?$AAn?$AAe?$AAM?$AAe?$AAs?$AAs?$AAa?$AAg?$AAe?$AA?0?$AA?5?$AA4?$AA0?$AA9?$AA6?$AA?0?$AA?5?$AAs?$AAz@ 100c55c8     LIBCMTD:dbgrptt.obj
 0002:0001f674       ??_C@_0BC@LAIDCHCH@Assertion?5failed?$CB?$AA@ 100c5674     LIBCMTD:dbgrptt.obj
 0002:0001f688       ??_C@_0BD@CAENFOHP@Assertion?5failed?3?5?$AA@ 100c5688     LIBCMTD:dbgrptt.obj
 0002:0001f6a0       ??_C@_1JI@GAALPGBM@?$AAs?$AAt?$AAr?$AAc?$AAp?$AAy?$AA_?$AAs?$AA?$CI?$AAs?$AAz?$AAU?$AAs?$AAe?$AAr?$AAM?$AAe?$AAs?$AAs?$AAa?$AAg?$AAe?$AA?0?$AA?5?$AA4?$AA0?$AA9?$AA6?$AA?0?$AA?5?$AA?$CC?$AA_@ 100c56a0     LIBCMTD:dbgrptt.obj
 0002:0001f738       ??_C@_07BHGABMGB@?0?5Line?5?$AA@ 100c5738     LIBCMTD:dbgrptt.obj
 0002:0001f740       ??_C@_0P@DFJNDPOP@?$DMfile?5unknown?$DO?$AA@ 100c5740     LIBCMTD:dbgrptt.obj
 0002:0001f750       ??_C@_0CG@BNGLOCEO@Second?5Chance?5Assertion?5Failed?3?5@ 100c5750     LIBCMTD:dbgrptt.obj
 0002:0001f778       ??_C@_1FA@JPHJBHEM@?$AA_?$AAi?$AAt?$AAo?$AAa?$AA_?$AAs?$AA?$CI?$AAn?$AAL?$AAi?$AAn?$AAe?$AA?0?$AA?5?$AAs?$AAz?$AAL?$AAi?$AAn?$AAe?$AAM?$AAe?$AAs?$AAs?$AAa?$AAg?$AAe?$AA?0?$AA?5?$AA4?$AA0@ 100c5778     LIBCMTD:dbgrptt.obj
 0002:0001f7c8       ??_C@_1CA@KHJHLKA@?$AA_?$AAV?$AAC?$AAr?$AAt?$AAD?$AAb?$AAg?$AAR?$AAe?$AAp?$AAo?$AAr?$AAt?$AAA?$AA?$AA@ 100c57c8     LIBCMTD:dbgrptt.obj
 0002:0001f7e8       ??_C@_1IE@CPGKIAGP@?$AAw?$AAc?$AAs?$AAt?$AAo?$AAm?$AAb?$AAs?$AA_?$AAs?$AA?$CI?$AA?$CG?$AAr?$AAe?$AAt?$AA?0?$AA?5?$AAs?$AAz?$AAa?$AAO?$AAu?$AAt?$AAM?$AAe?$AAs?$AAs?$AAa?$AAg?$AAe?$AA?0?$AA?5@ 100c57e8     LIBCMTD:dbgrptt.obj
 0002:0001f86c       ??_C@_0DP@GNPEPHJD@_CrtDbgReport?3?5String?5too?5long?5o@ 100c586c     LIBCMTD:dbgrptt.obj
 0002:0001f8b0       ??_C@_1MA@LBAMNNOB@?$AAs?$AAt?$AAr?$AAc?$AAp?$AAy?$AA_?$AAs?$AA?$CI?$AAs?$AAz?$AAO?$AAu?$AAt?$AAM?$AAe?$AAs?$AAs?$AAa?$AAg?$AAe?$AA2?$AA?0?$AA?5?$AA4?$AA0?$AA9?$AA6?$AA?0?$AA?5?$AA?$CC?$AA_@ 100c58b0     LIBCMTD:dbgrptt.obj
 0002:0001f970       ??_C@_1JC@EOAPFDLN@?$AAw?$AAc?$AAs?$AAt?$AAo?$AAm?$AAb?$AAs?$AA_?$AAs?$AA?$CI?$AA?$CI?$AA?$CI?$AAv?$AAo?$AAi?$AAd?$AA?5?$AA?$CK?$AA?$CJ?$AA0?$AA?$CJ?$AA?0?$AA?5?$AAs?$AAz?$AAO?$AAu?$AAt?$AAM?$AAe?$AAs@ 100c5970     LIBCMTD:dbgrptt.obj
 0002:0001fa08       ??_C@_1FI@DBAIJPJE@?$AAw?$AAc?$AAs?$AAc?$AAp?$AAy?$AA_?$AAs?$AA?$CI?$AAs?$AAz?$AAO?$AAu?$AAt?$AAM?$AAe?$AAs?$AAs?$AAa?$AAg?$AAe?$AA?0?$AA?5?$AA4?$AA0?$AA9?$AA6?$AA?0?$AA?5?$AAs?$AAz?$AAL@ 100c5a08     LIBCMTD:dbgrptt.obj
 0002:0001fa60       ??_C@_1BI@JIDBEPIG@?$AA?$CF?$AAs?$AA?$CI?$AA?$CF?$AAd?$AA?$CJ?$AA?5?$AA?3?$AA?5?$AA?$CF?$AAs?$AA?$AA@ 100c5a60     LIBCMTD:dbgrptt.obj
 0002:0001fa78       ??_C@_1EK@PHCBEDKB@?$AAw?$AAc?$AAs?$AAc?$AAa?$AAt?$AA_?$AAs?$AA?$CI?$AAs?$AAz?$AAL?$AAi?$AAn?$AAe?$AAM?$AAe?$AAs?$AAs?$AAa?$AAg?$AAe?$AA?0?$AA?5?$AA4?$AA0?$AA9?$AA6?$AA?0?$AA?5?$AAL?$AA?$CC@ 100c5a78     LIBCMTD:dbgrptt.obj
 0002:0001fac4       ??_C@_13CMNBPIDO@?$AA?$AN?$AA?$AA@ 100c5ac4     LIBCMTD:dbgrptt.obj
 0002:0001fac8       ??_C@_1EK@NMDFGHMF@?$AAw?$AAc?$AAs?$AAc?$AAa?$AAt?$AA_?$AAs?$AA?$CI?$AAs?$AAz?$AAL?$AAi?$AAn?$AAe?$AAM?$AAe?$AAs?$AAs?$AAa?$AAg?$AAe?$AA?0?$AA?5?$AA4?$AA0?$AA9?$AA6?$AA?0?$AA?5?$AAL?$AA?$CC@ 100c5ac8     LIBCMTD:dbgrptt.obj
 0002:0001fb18       ??_C@_1FK@HPADHBBD@?$AAw?$AAc?$AAs?$AAc?$AAa?$AAt?$AA_?$AAs?$AA?$CI?$AAs?$AAz?$AAL?$AAi?$AAn?$AAe?$AAM?$AAe?$AAs?$AAs?$AAa?$AAg?$AAe?$AA?0?$AA?5?$AA4?$AA0?$AA9?$AA6?$AA?0?$AA?5?$AAs?$AAz@ 100c5b18     LIBCMTD:dbgrptt.obj
 0002:0001fb78       ??_C@_1KO@DGAHENCH@?$AAw?$AAc?$AAs?$AAc?$AAp?$AAy?$AA_?$AAs?$AA?$CI?$AAs?$AAz?$AAL?$AAi?$AAn?$AAe?$AAM?$AAe?$AAs?$AAs?$AAa?$AAg?$AAe?$AA?0?$AA?5?$AA4?$AA0?$AA9?$AA6?$AA?0?$AA?5?$AAs?$AAz@ 100c5b78     LIBCMTD:dbgrptt.obj
 0002:0001fc28       ??_C@_1CG@FFFGGODN@?$AAA?$AAs?$AAs?$AAe?$AAr?$AAt?$AAi?$AAo?$AAn?$AA?5?$AAf?$AAa?$AAi?$AAl?$AAe?$AAd?$AA?3?$AA?5?$AA?$AA@ 100c5c28     LIBCMTD:dbgrptt.obj
 0002:0001fc50       ??_C@_1JK@KHFABAEO@?$AAw?$AAc?$AAs?$AAc?$AAp?$AAy?$AA_?$AAs?$AA?$CI?$AAs?$AAz?$AAU?$AAs?$AAe?$AAr?$AAM?$AAe?$AAs?$AAs?$AAa?$AAg?$AAe?$AA?0?$AA?5?$AA4?$AA0?$AA9?$AA6?$AA?0?$AA?5?$AAL?$AA?$CC@ 100c5c50     LIBCMTD:dbgrptt.obj
 0002:0001fcec       ??_C@_1BA@ELMMDCFC@?$AA?0?$AA?5?$AAL?$AAi?$AAn?$AAe?$AA?5?$AA?$AA@ 100c5cec     LIBCMTD:dbgrptt.obj
 0002:0001fcfc       ??_C@_1BO@OCHMLCAG@?$AA?$DM?$AAf?$AAi?$AAl?$AAe?$AA?5?$AAu?$AAn?$AAk?$AAn?$AAo?$AAw?$AAn?$AA?$DO?$AA?$AA@ 100c5cfc     LIBCMTD:dbgrptt.obj
 0002:0001fd20       ??_C@_1EM@MJFLEDMB@?$AAS?$AAe?$AAc?$AAo?$AAn?$AAd?$AA?5?$AAC?$AAh?$AAa?$AAn?$AAc?$AAe?$AA?5?$AAA?$AAs?$AAs?$AAe?$AAr?$AAt?$AAi?$AAo?$AAn?$AA?5?$AAF?$AAa?$AAi?$AAl?$AAe?$AAd?$AA?3?$AA?5@ 100c5d20     LIBCMTD:dbgrptt.obj
 0002:0001fd70       ??_C@_1FA@CNLLOMHI@?$AA_?$AAi?$AAt?$AAo?$AAw?$AA_?$AAs?$AA?$CI?$AAn?$AAL?$AAi?$AAn?$AAe?$AA?0?$AA?5?$AAs?$AAz?$AAL?$AAi?$AAn?$AAe?$AAM?$AAe?$AAs?$AAs?$AAa?$AAg?$AAe?$AA?0?$AA?5?$AA4?$AA0@ 100c5d70     LIBCMTD:dbgrptt.obj
 0002:0001fdc0       ??_C@_1CA@HPALHDOD@?$AA_?$AAV?$AAC?$AAr?$AAt?$AAD?$AAb?$AAg?$AAR?$AAe?$AAp?$AAo?$AAr?$AAt?$AAW?$AA?$AA@ 100c5dc0     LIBCMTD:dbgrptt.obj
 0002:0001fde0       ??_C@_1BE@BMIJMLDD@?$AA_?$AAs?$AAw?$AAp?$AAr?$AAi?$AAn?$AAt?$AAf?$AA?$AA@ 100c5de0     LIBCMTD:swprintf.obj
 0002:0001fdf8       ??_C@_1GE@DKGHLBLP@?$AAf?$AA?3?$AA?2?$AAd?$AAd?$AA?2?$AAv?$AAc?$AAt?$AAo?$AAo?$AAl?$AAs?$AA?2?$AAc?$AAr?$AAt?$AA_?$AAb?$AAl?$AAd?$AA?2?$AAs?$AAe?$AAl?$AAf?$AA_?$AAx?$AA8?$AA6?$AA?2?$AAc@ 100c5df8     LIBCMTD:swprintf.obj
 0002:0001fe5c       ??_C@_1CK@DDKKOLAN@?$AAs?$AAi?$AAz?$AAe?$AAI?$AAn?$AAB?$AAy?$AAt?$AAe?$AAs?$AA?5?$AA?$DO?$AA?$DN?$AA?5?$AAc?$AAo?$AAu?$AAn?$AAt?$AA?$AA@ 100c5e5c     LIBCMTD:memcpy_s.obj
 0002:0001fe88       ??_C@_1BC@GKHDJMGB@?$AAm?$AAe?$AAm?$AAc?$AAp?$AAy?$AA_?$AAs?$AA?$AA@ 100c5e88     LIBCMTD:memcpy_s.obj
 0002:0001fea0       ??_C@_1GE@NEOPGGBM@?$AAf?$AA?3?$AA?2?$AAd?$AAd?$AA?2?$AAv?$AAc?$AAt?$AAo?$AAo?$AAl?$AAs?$AA?2?$AAc?$AAr?$AAt?$AA_?$AAb?$AAl?$AAd?$AA?2?$AAs?$AAe?$AAl?$AAf?$AA_?$AAx?$AA8?$AA6?$AA?2?$AAc@ 100c5ea0     LIBCMTD:memcpy_s.obj
 0002:0001ff08       ??_C@_1GE@GJCMHHMH@?$AAf?$AA?3?$AA?2?$AAd?$AAd?$AA?2?$AAv?$AAc?$AAt?$AAo?$AAo?$AAl?$AAs?$AA?2?$AAc?$AAr?$AAt?$AA_?$AAb?$AAl?$AAd?$AA?2?$AAs?$AAe?$AAl?$AAf?$AA_?$AAx?$AA8?$AA6?$AA?2?$AAc@ 100c5f08     LIBCMTD:inittime.obj
 0002:0001ff70       ??_C@_1EE@FDHCFDHN@?$AAp?$AAl?$AAo?$AAc?$AAi?$AA?9?$AA?$DO?$AAl?$AAc?$AA_?$AAt?$AAi?$AAm?$AAe?$AA_?$AAc?$AAu?$AAr?$AAr?$AA?9?$AA?$DO?$AAr?$AAe?$AAf?$AAc?$AAo?$AAu?$AAn?$AAt?$AA?5?$AA?$DO?$AA?5@ 100c5f70     LIBCMTD:inittime.obj
 0002:0001ffb4       ??_C@_0DC@KICHHNFK@f?3?2dd?2vctools?2crt_bld?2self_x86?2c@ 100c5fb4     LIBCMTD:inittime.obj
 0002:0001ffe8       ??_C@_1GC@EDJOCBCL@?$AAf?$AA?3?$AA?2?$AAd?$AAd?$AA?2?$AAv?$AAc?$AAt?$AAo?$AAo?$AAl?$AAs?$AA?2?$AAc?$AAr?$AAt?$AA_?$AAb?$AAl?$AAd?$AA?2?$AAs?$AAe?$AAl?$AAf?$AA_?$AAx?$AA8?$AA6?$AA?2?$AAc@ 100c5fe8     LIBCMTD:initnum.obj
 0002:0002004c       ??_C@_1DM@IFKAINNE@?$AAp?$AAl?$AAo?$AAc?$AAi?$AA?9?$AA?$DO?$AAl?$AAc?$AAo?$AAn?$AAv?$AA_?$AAn?$AAu?$AAm?$AA_?$AAr?$AAe?$AAf?$AAc?$AAo?$AAu?$AAn?$AAt?$AA?5?$AA?$DO?$AA?5?$AA0?$AA?$AA@ 100c604c     LIBCMTD:initnum.obj
 0002:00020088       ??_C@_0DB@KKFMDHFI@f?3?2dd?2vctools?2crt_bld?2self_x86?2c@ 100c6088     LIBCMTD:initnum.obj
 0002:000200c0       ??_C@_1GC@IKADOFBJ@?$AAf?$AA?3?$AA?2?$AAd?$AAd?$AA?2?$AAv?$AAc?$AAt?$AAo?$AAo?$AAl?$AAs?$AA?2?$AAc?$AAr?$AAt?$AA_?$AAb?$AAl?$AAd?$AA?2?$AAs?$AAe?$AAl?$AAf?$AA_?$AAx?$AA8?$AA6?$AA?2?$AAc@ 100c60c0     LIBCMTD:initmon.obj
 0002:00020124       ??_C@_1DM@GKAPAMDO@?$AAp?$AAl?$AAo?$AAc?$AAi?$AA?9?$AA?$DO?$AAl?$AAc?$AAo?$AAn?$AAv?$AA_?$AAm?$AAo?$AAn?$AA_?$AAr?$AAe?$AAf?$AAc?$AAo?$AAu?$AAn?$AAt?$AA?5?$AA?$DO?$AA?5?$AA0?$AA?$AA@ 100c6124     LIBCMTD:initmon.obj
 0002:00020160       ??_C@_0DB@BECNGFDL@f?3?2dd?2vctools?2crt_bld?2self_x86?2c@ 100c6160     LIBCMTD:initmon.obj
 0002:00020198       ___newctype                100c6198     LIBCMTD:ctype.obj
 0002:00020498       __wctype                   100c6498     LIBCMTD:ctype.obj
 0002:000206a0       ___newclmap                100c66a0     LIBCMTD:ctype.obj
 0002:00020820       ___newcumap                100c6820     LIBCMTD:ctype.obj
 0002:000209a0       ??_C@_1DG@NMBGBDM@?$AAp?$AAl?$AAo?$AAc?$AAi?$AA?9?$AA?$DO?$AAc?$AAt?$AAy?$AAp?$AAe?$AA1?$AA_?$AAr?$AAe?$AAf?$AAc?$AAo?$AAu?$AAn?$AAt?$AA?5?$AA?$DO?$AA?5?$AA0?$AA?$AA@ 100c69a0     LIBCMTD:initctyp.obj
 0002:000209d8       ??_C@_1GE@OCPKBDKE@?$AAf?$AA?3?$AA?2?$AAd?$AAd?$AA?2?$AAv?$AAc?$AAt?$AAo?$AAo?$AAl?$AAs?$AA?2?$AAc?$AAr?$AAt?$AA_?$AAb?$AAl?$AAd?$AA?2?$AAs?$AAe?$AAl?$AAf?$AA_?$AAx?$AA8?$AA6?$AA?2?$AAc@ 100c69d8     LIBCMTD:initctyp.obj
 0002:00020a3c       ??_C@_0DC@EHLBFILA@f?3?2dd?2vctools?2crt_bld?2self_x86?2c@ 100c6a3c     LIBCMTD:initctyp.obj
 0002:00020a70       ??_C@_1BE@NDMJHJJG@?$AAs?$AAt?$AAr?$AAn?$AAc?$AAp?$AAy?$AA_?$AAs?$AA?$AA@ 100c6a70     LIBCMTD:strncpy_s.obj
 0002:00020a84       ??_C@_1BC@HGPNAKGC@?$AAs?$AAt?$AAr?$AAc?$AAa?$AAt?$AA_?$AAs?$AA?$AA@ 100c6a84     LIBCMTD:strcat_s.obj
 0002:00020a98       ??_C@_0O@FMJNFNKE@united?9states?$AA@ 100c6a98     LIBCMTD:getqloc.obj
 0002:00020aa8       ??_C@_0P@NDHFFKCA@united?9kingdom?$AA@ 100c6aa8     LIBCMTD:getqloc.obj
 0002:00020ab8       ??_C@_0BC@HHDADLGF@trinidad?5?$CG?5tobago?$AA@ 100c6ab8     LIBCMTD:getqloc.obj
 0002:00020acc       ??_C@_0M@IOAEBDAC@south?9korea?$AA@ 100c6acc     LIBCMTD:getqloc.obj
 0002:00020ad8       ??_C@_0N@FIELFKIJ@south?9africa?$AA@ 100c6ad8     LIBCMTD:getqloc.obj
 0002:00020ae8       ??_C@_0M@OPNDHCMC@south?5korea?$AA@ 100c6ae8     LIBCMTD:getqloc.obj
 0002:00020af4       ??_C@_0N@MDEOEPFI@south?5africa?$AA@ 100c6af4     LIBCMTD:getqloc.obj
 0002:00020b04       ??_C@_06FKAPCJLB@slovak?$AA@ 100c6b04     LIBCMTD:getqloc.obj
 0002:00020b0c       ??_C@_0M@EFJANOAL@puerto?9rico?$AA@ 100c6b0c     LIBCMTD:getqloc.obj
 0002:00020b18       ??_C@_08PGOJKDAI@pr?9china?$AA@ 100c6b18     LIBCMTD:getqloc.obj
 0002:00020b24       ??_C@_08JHDOMCMI@pr?5china?$AA@ 100c6b24     LIBCMTD:getqloc.obj
 0002:00020b30       ??_C@_02JHCHFBLL@nz?$AA@   100c6b30     LIBCMTD:getqloc.obj
 0002:00020b34       ??_C@_0M@LINHDHKP@new?9zealand?$AA@ 100c6b34     LIBCMTD:getqloc.obj
 0002:00020b40       ??_C@_09IIIPPBDB@hong?9kong?$AA@ 100c6b40     LIBCMTD:getqloc.obj
 0002:00020b4c       ??_C@_07HJLCKBG@holland?$AA@ 100c6b4c     LIBCMTD:getqloc.obj
 0002:00020b54       ??_C@_0O@LEHGMHAG@great?5britain?$AA@ 100c6b54     LIBCMTD:getqloc.obj
 0002:00020b64       ??_C@_07FACOMELA@england?$AA@ 100c6b64     LIBCMTD:getqloc.obj
 0002:00020b6c       ??_C@_05JIHCEICB@czech?$AA@ 100c6b6c     LIBCMTD:getqloc.obj
 0002:00020b74       ??_C@_05BBJOBLGB@china?$AA@ 100c6b74     LIBCMTD:getqloc.obj
 0002:00020b7c       ??_C@_07GPKPHICP@britain?$AA@ 100c6b7c     LIBCMTD:getqloc.obj
 0002:00020b84       ??_C@_07MHIPBHMG@america?$AA@ 100c6b84     LIBCMTD:getqloc.obj
 0002:00020b8c       ??_C@_03KIALPMKC@usa?$AA@  100c6b8c     LIBCMTD:getqloc.obj
 0002:00020b90       ??_C@_02FGJGKGGD@us?$AA@   100c6b90     LIBCMTD:getqloc.obj
 0002:00020b94       ??_C@_02NEINDODK@uk?$AA@   100c6b94     LIBCMTD:getqloc.obj
 0002:00020b98       ??_C@_05JMPCFJFJ@swiss?$AA@ 100c6b98     LIBCMTD:getqloc.obj
 0002:00020ba0       ??_C@_0BA@HLOCPIOD@swedish?9finland?$AA@ 100c6ba0     LIBCMTD:getqloc.obj
 0002:00020bb0       ??_C@_0BC@PKCNIABK@spanish?9venezuela?$AA@ 100c6bb0     LIBCMTD:getqloc.obj
 0002:00020bc4       ??_C@_0BA@GBHHMIJI@spanish?9uruguay?$AA@ 100c6bc4     LIBCMTD:getqloc.obj
 0002:00020bd4       ??_C@_0BE@BHDOHPMC@spanish?9puerto?5rico?$AA@ 100c6bd4     LIBCMTD:getqloc.obj
 0002:00020be8       ??_C@_0N@KMOIDGGN@spanish?9peru?$AA@ 100c6be8     LIBCMTD:getqloc.obj
 0002:00020bf8       ??_C@_0BB@HMHLPGPH@spanish?9paraguay?$AA@ 100c6bf8     LIBCMTD:getqloc.obj
 0002:00020c0c       ??_C@_0P@MCPKNGFD@spanish?9panama?$AA@ 100c6c0c     LIBCMTD:getqloc.obj
 0002:00020c1c       ??_C@_0BC@IHOHGAIL@spanish?9nicaragua?$AA@ 100c6c1c     LIBCMTD:getqloc.obj
 0002:00020c30       ??_C@_0P@KLMJDNFJ@spanish?9modern?$AA@ 100c6c30     LIBCMTD:getqloc.obj
 0002:00020c40       ??_C@_0BA@BPAPGBCM@spanish?9mexican?$AA@ 100c6c40     LIBCMTD:getqloc.obj
 0002:00020c50       ??_C@_0BB@PDECHHHE@spanish?9honduras?$AA@ 100c6c50     LIBCMTD:getqloc.obj
 0002:00020c64       ??_C@_0BC@KLHKFGDB@spanish?9guatemala?$AA@ 100c6c64     LIBCMTD:getqloc.obj
 0002:00020c78       ??_C@_0BE@MFOOKJAI@spanish?9el?5salvador?$AA@ 100c6c78     LIBCMTD:getqloc.obj
 0002:00020c8c       ??_C@_0BA@FCOKFPFC@spanish?9ecuador?$AA@ 100c6c8c     LIBCMTD:getqloc.obj
 0002:00020c9c       ??_C@_0BL@PLMGIMOO@spanish?9dominican?5republic?$AA@ 100c6c9c     LIBCMTD:getqloc.obj
 0002:00020cb8       ??_C@_0BD@HLGDNMHB@spanish?9costa?5rica?$AA@ 100c6cb8     LIBCMTD:getqloc.obj
 0002:00020ccc       ??_C@_0BB@PKCBKCPE@spanish?9colombia?$AA@ 100c6ccc     LIBCMTD:getqloc.obj
 0002:00020ce0       ??_C@_0O@MCBIJGNE@spanish?9chile?$AA@ 100c6ce0     LIBCMTD:getqloc.obj
 0002:00020cf0       ??_C@_0BA@BEFEIGJJ@spanish?9bolivia?$AA@ 100c6cf0     LIBCMTD:getqloc.obj
 0002:00020d00       ??_C@_0BC@EMECMPD@spanish?9argentina?$AA@ 100c6d00     LIBCMTD:getqloc.obj
 0002:00020d14       ??_C@_0BF@EALFLENP@portuguese?9brazilian?$AA@ 100c6d14     LIBCMTD:getqloc.obj
 0002:00020d2c       ??_C@_0BC@HBLEBLNN@norwegian?9nynorsk?$AA@ 100c6d2c     LIBCMTD:getqloc.obj
 0002:00020d40       ??_C@_0BB@HMACDDCK@norwegian?9bokmal?$AA@ 100c6d40     LIBCMTD:getqloc.obj
 0002:00020d54       ??_C@_09BAFFPPHE@norwegian?$AA@ 100c6d54     LIBCMTD:getqloc.obj
 0002:00020d60       ??_C@_0O@EAJFJDFG@italian?9swiss?$AA@ 100c6d60     LIBCMTD:getqloc.obj
 0002:00020d70       ??_C@_0O@CNOMPGD@irish?9english?$AA@ 100c6d70     LIBCMTD:getqloc.obj
 0002:00020d80       ??_C@_0N@EDHBGCKG@german?9swiss?$AA@ 100c6d80     LIBCMTD:getqloc.obj
 0002:00020d90       ??_C@_0BC@JACMHNBP@german?9luxembourg?$AA@ 100c6d90     LIBCMTD:getqloc.obj
 0002:00020da4       ??_C@_0BE@HBGMGFEG@german?9lichtenstein?$AA@ 100c6da4     LIBCMTD:getqloc.obj
 0002:00020db8       ??_C@_0BA@HKKBIBKL@german?9austrian?$AA@ 100c6db8     LIBCMTD:getqloc.obj
 0002:00020dc8       ??_C@_0N@GCAEPEBK@french?9swiss?$AA@ 100c6dc8     LIBCMTD:getqloc.obj
 0002:00020dd8       ??_C@_0BC@DJFJJCK@french?9luxembourg?$AA@ 100c6dd8     LIBCMTD:getqloc.obj
 0002:00020dec       ??_C@_0BA@NNCEDFIC@french?9canadian?$AA@ 100c6dec     LIBCMTD:getqloc.obj
 0002:00020dfc       ??_C@_0P@CMPOCLM@french?9belgian?$AA@ 100c6dfc     LIBCMTD:getqloc.obj
 0002:00020e0c       ??_C@_0M@GHHDJOK@english?9usa?$AA@ 100c6e0c     LIBCMTD:getqloc.obj
 0002:00020e18       ??_C@_0L@PLDJKEIL@english?9us?$AA@ 100c6e18     LIBCMTD:getqloc.obj
 0002:00020e24       ??_C@_0L@HJCCDMNC@english?9uk?$AA@ 100c6e24     LIBCMTD:getqloc.obj
 0002:00020e30       ??_C@_0BK@CKLIAGJB@english?9trinidad?5y?5tobago?$AA@ 100c6e30     LIBCMTD:getqloc.obj
 0002:00020e4c       ??_C@_0BF@JMJMGNNF@english?9south?5africa?$AA@ 100c6e4c     LIBCMTD:getqloc.obj
 0002:00020e64       ??_C@_0L@DKIIFDFD@english?9nz?$AA@ 100c6e64     LIBCMTD:getqloc.obj
 0002:00020e70       ??_C@_0BA@ONHGJCLH@english?9jamaica?$AA@ 100c6e70     LIBCMTD:getqloc.obj
 0002:00020e80       ??_C@_0M@HJBGHOPO@english?9ire?$AA@ 100c6e80     LIBCMTD:getqloc.obj
 0002:00020e8c       ??_C@_0BC@LFEKMIFB@english?9caribbean?$AA@ 100c6e8c     LIBCMTD:getqloc.obj
 0002:00020ea0       ??_C@_0M@OLDPFKHI@english?9can?$AA@ 100c6ea0     LIBCMTD:getqloc.obj
 0002:00020eac       ??_C@_0P@OMDEHBMP@english?9belize?$AA@ 100c6eac     LIBCMTD:getqloc.obj
 0002:00020ebc       ??_C@_0M@KFHFPFED@english?9aus?$AA@ 100c6ebc     LIBCMTD:getqloc.obj
 0002:00020ec8       ??_C@_0BB@MNMBKDFE@english?9american?$AA@ 100c6ec8     LIBCMTD:getqloc.obj
 0002:00020edc       ??_C@_0O@KIDLNNBA@dutch?9belgian?$AA@ 100c6edc     LIBCMTD:getqloc.obj
 0002:00020eec       ??_C@_0BE@JBKABBMH@chinese?9traditional?$AA@ 100c6eec     LIBCMTD:getqloc.obj
 0002:00020f00       ??_C@_0BC@MJJMPKCG@chinese?9singapore?$AA@ 100c6f00     LIBCMTD:getqloc.obj
 0002:00020f14       ??_C@_0BD@FDKADDCP@chinese?9simplified?$AA@ 100c6f14     LIBCMTD:getqloc.obj
 0002:00020f28       ??_C@_0BB@DBEFDDME@chinese?9hongkong?$AA@ 100c6f28     LIBCMTD:getqloc.obj
 0002:00020f3c       ??_C@_07DHNMFMCI@chinese?$AA@ 100c6f3c     LIBCMTD:getqloc.obj
 0002:00020f44       ??_C@_03FNDDCHI@chi?$AA@   100c6f44     LIBCMTD:getqloc.obj
 0002:00020f48       ??_C@_03BMMIADDJ@chh?$AA@  100c6f48     LIBCMTD:getqloc.obj
 0002:00020f4c       ??_C@_08OAIPJDGI@canadian?$AA@ 100c6f4c     LIBCMTD:getqloc.obj
 0002:00020f58       ??_C@_07HBPMNPNJ@belgian?$AA@ 100c6f58     LIBCMTD:getqloc.obj
 0002:00020f60       ??_C@_0L@OEKOPBEL@australian?$AA@ 100c6f60     LIBCMTD:getqloc.obj
 0002:00020f6c       ??_C@_0BB@MEIMBEDG@american?9english?$AA@ 100c6f6c     LIBCMTD:getqloc.obj
 0002:00020f80       ??_C@_0BB@DFMDPDGB@american?5english?$AA@ 100c6f80     LIBCMTD:getqloc.obj
 0002:00020f94       ??_C@_08IJLOKOLL@american?$AA@ 100c6f94     LIBCMTD:getqloc.obj
 0002:00020fa0       ___rg_language             100c6fa0     LIBCMTD:getqloc.obj
 0002:000211a8       ___rg_country              100c71a8     LIBCMTD:getqloc.obj
 0002:00021260       ___rglangidNotDefault      100c7260     LIBCMTD:getqloc.obj
 0002:00021274       ??_C@_0BC@NFIEMBLL@Norwegian?9Nynorsk?$AA@ 100c7274     LIBCMTD:getqloc.obj
 0002:00021288       ??_C@_1OM@OECHDGCF@?$AAs?$AAt?$AAr?$AAc?$AAp?$AAy?$AA_?$AAs?$AA?$CI?$AAl?$AAp?$AAO?$AAu?$AAt?$AAS?$AAt?$AAr?$AA?9?$AA?$DO?$AAs?$AAz?$AAL?$AAa?$AAn?$AAg?$AAu?$AAa?$AAg?$AAe?$AA?0?$AA?5?$AA?$CI@ 100c7288     LIBCMTD:getqloc.obj
 0002:00021374       ??_C@_1CO@NJACLALJ@?$AA_?$AA_?$AAg?$AAe?$AAt?$AA_?$AAq?$AAu?$AAa?$AAl?$AAi?$AAf?$AAi?$AAe?$AAd?$AA_?$AAl?$AAo?$AAc?$AAa?$AAl?$AAe?$AA?$AA@ 100c7374     LIBCMTD:getqloc.obj
 0002:000213a8       ??_C@_1GC@FECJGAE@?$AAf?$AA?3?$AA?2?$AAd?$AAd?$AA?2?$AAv?$AAc?$AAt?$AAo?$AAo?$AAl?$AAs?$AA?2?$AAc?$AAr?$AAt?$AA_?$AAb?$AAl?$AAd?$AA?2?$AAs?$AAe?$AAl?$AAf?$AA_?$AAx?$AA8?$AA6?$AA?2?$AAc@ 100c73a8     LIBCMTD:getqloc.obj
 0002:0002140c       ??_C@_03NFKLAGEF@OCP?$AA@  100c740c     LIBCMTD:getqloc.obj
 0002:00021410       ??_C@_03DFHEHBHG@ACP?$AA@  100c7410     LIBCMTD:getqloc.obj
 0002:00021418       ??_C@_1FA@HILOOCMA@?$AA?$CI?$AA_?$AAt?$AAc?$AAs?$AAn?$AAl?$AAe?$AAn?$AA?$CI?$AAo?$AAp?$AAt?$AAi?$AAo?$AAn?$AA?0?$AA?5?$AA_?$AAM?$AAA?$AAX?$AA_?$AAE?$AAN?$AAV?$AA?$CJ?$AA?5?$AA?$DM?$AA?5?$AA_?$AAM@ 100c7418     LIBCMTD:getenv.obj
 0002:00021468       ??_C@_1O@GMKGKCJO@?$AAg?$AAe?$AAt?$AAe?$AAn?$AAv?$AA?$AA@ 100c7468     LIBCMTD:getenv.obj
 0002:00021478       ??_C@_1GA@IPPICGKB@?$AAf?$AA?3?$AA?2?$AAd?$AAd?$AA?2?$AAv?$AAc?$AAt?$AAo?$AAo?$AAl?$AAs?$AA?2?$AAc?$AAr?$AAt?$AA_?$AAb?$AAl?$AAd?$AA?2?$AAs?$AAe?$AAl?$AAf?$AA_?$AAx?$AA8?$AA6?$AA?2?$AAc@ 100c7478     LIBCMTD:getenv.obj
 0002:000214d8       ??_C@_1CC@FKAOHHLO@?$AA?$CI?$AAo?$AAp?$AAt?$AAi?$AAo?$AAn?$AA?5?$AA?$CB?$AA?$DN?$AA?5?$AAN?$AAU?$AAL?$AAL?$AA?$CJ?$AA?$AA@ 100c74d8     LIBCMTD:getenv.obj
 0002:00021500       ??_C@_1GI@JBIFPFJH@?$AA_?$AAt?$AAc?$AAs?$AAn?$AAl?$AAe?$AAn?$AA?$CI?$AA?$CK?$AAs?$AAe?$AAa?$AAr?$AAc?$AAh?$AA?5?$AA?$CL?$AA?5?$AAl?$AAe?$AAn?$AAg?$AAt?$AAh?$AA?5?$AA?$CL?$AA?5?$AA1?$AA?0?$AA?5?$AA_@ 100c7500     LIBCMTD:getenv.obj
 0002:00021568       ??_C@_1EI@HHOBPCFK@?$AAs?$AAt?$AAr?$AAc?$AAp?$AAy?$AA_?$AAs?$AA?$CI?$AAb?$AAu?$AAf?$AAf?$AAe?$AAr?$AA?0?$AA?5?$AAs?$AAi?$AAz?$AAe?$AAI?$AAn?$AAT?$AAC?$AAh?$AAa?$AAr?$AAs?$AA?0?$AA?5?$AAs@ 100c7568     LIBCMTD:getenv.obj
 0002:000215b0       ??_C@_1JM@NLPGJJPH@?$AA?$CI?$AAb?$AAu?$AAf?$AAf?$AAe?$AAr?$AA?5?$AA?$CB?$AA?$DN?$AA?5?$AAN?$AAU?$AAL?$AAL?$AA?5?$AA?$CG?$AA?$CG?$AA?5?$AAs?$AAi?$AAz?$AAe?$AAI?$AAn?$AAT?$AAC?$AAh?$AAa?$AAr?$AAs?$AA?5@ 100c75b0     LIBCMTD:getenv.obj
 0002:0002164c       ??_C@_1CC@BAJKDIIF@?$AA_?$AAg?$AAe?$AAt?$AAe?$AAn?$AAv?$AA_?$AAs?$AA_?$AAh?$AAe?$AAl?$AAp?$AAe?$AAr?$AA?$AA@ 100c764c     LIBCMTD:getenv.obj
 0002:00021670       ??_C@_1CK@PIKDAOCL@?$AAp?$AAR?$AAe?$AAt?$AAu?$AAr?$AAn?$AAV?$AAa?$AAl?$AAu?$AAe?$AA?5?$AA?$CB?$AA?$DN?$AA?5?$AAN?$AAU?$AAL?$AAL?$AA?$AA@ 100c7670     LIBCMTD:getenv.obj
 0002:0002169c       ??_C@_1DM@GNKNEGJO@?$AAs?$AAt?$AAr?$AAc?$AAp?$AAy?$AA_?$AAs?$AA?$CI?$AA?$CK?$AAp?$AAB?$AAu?$AAf?$AAf?$AAe?$AAr?$AA?0?$AA?5?$AAs?$AAi?$AAz?$AAe?$AA?0?$AA?5?$AAs?$AAt?$AAr?$AA?$CJ?$AA?$AA@ 100c769c     LIBCMTD:getenv.obj
 0002:000216d8       ??_C@_1CA@GDBKELOE@?$AAv?$AAa?$AAr?$AAn?$AAa?$AAm?$AAe?$AA?5?$AA?$CB?$AA?$DN?$AA?5?$AAN?$AAU?$AAL?$AAL?$AA?$AA@ 100c76d8     LIBCMTD:getenv.obj
 0002:000216f8       ??_C@_1CC@KPLOPIEM@?$AA_?$AAd?$AAu?$AAp?$AAe?$AAn?$AAv?$AA_?$AAs?$AA_?$AAh?$AAe?$AAl?$AAp?$AAe?$AAr?$AA?$AA@ 100c76f8     LIBCMTD:getenv.obj
 0002:0002171c       ??_C@_1CA@FHNFMDOJ@?$AAp?$AAB?$AAu?$AAf?$AAf?$AAe?$AAr?$AA?5?$AA?$CB?$AA?$DN?$AA?5?$AAN?$AAU?$AAL?$AAL?$AA?$AA@ 100c771c     LIBCMTD:getenv.obj
 0002:00021740       ??_C@_1GA@GFFDGGFH@?$AAf?$AA?3?$AA?2?$AAd?$AAd?$AA?2?$AAv?$AAc?$AAt?$AAo?$AAo?$AAl?$AAs?$AA?2?$AAc?$AAr?$AAt?$AA_?$AAb?$AAl?$AAd?$AA?2?$AAs?$AAe?$AAl?$AAf?$AA_?$AAx?$AA8?$AA6?$AA?2?$AAc@ 100c7740     LIBCMTD:mbtowc.obj
 0002:000217a0       ??_C@_1NC@EINCOKCO@?$AA_?$AAl?$AAo?$AAc?$AA_?$AAu?$AAp?$AAd?$AAa?$AAt?$AAe?$AA?4?$AAG?$AAe?$AAt?$AAL?$AAo?$AAc?$AAa?$AAl?$AAe?$AAT?$AA?$CI?$AA?$CJ?$AA?9?$AA?$DO?$AAl?$AAo?$AAc?$AAi?$AAn?$AAf@ 100c77a0     LIBCMTD:mbtowc.obj
 0002:00021874       ??_C@_1BA@IIKEPOGH@?$AA_?$AAf?$AAi?$AAl?$AAb?$AAu?$AAf?$AA?$AA@ 100c7874     LIBCMTD:_filbuf.obj
 0002:00021888       ??_C@_1GC@CHFNJKFB@?$AAf?$AA?3?$AA?2?$AAd?$AAd?$AA?2?$AAv?$AAc?$AAt?$AAo?$AAo?$AAl?$AAs?$AA?2?$AAc?$AAr?$AAt?$AA_?$AAb?$AAl?$AAd?$AA?2?$AAs?$AAe?$AAl?$AAf?$AA_?$AAx?$AA8?$AA6?$AA?2?$AAc@ 100c7888     LIBCMTD:_filbuf.obj
 0002:000218ec       ??_C@_1O@JDPLECOK@?$AAu?$AAn?$AAg?$AAe?$AAt?$AAc?$AA?$AA@ 100c78ec     LIBCMTD:ungetc.obj
 0002:00021900       ??_C@_1GA@OAFAANFO@?$AAf?$AA?3?$AA?2?$AAd?$AAd?$AA?2?$AAv?$AAc?$AAt?$AAo?$AAo?$AAl?$AAs?$AA?2?$AAc?$AAr?$AAt?$AA_?$AAb?$AAl?$AAd?$AA?2?$AAs?$AAe?$AAl?$AAf?$AA_?$AAx?$AA8?$AA6?$AA?2?$AAc@ 100c7900     LIBCMTD:ungetc.obj
 0002:00021960       ??_C@_1BO@OLMLKKEA@?$AA_?$AAu?$AAn?$AAg?$AAe?$AAt?$AAc?$AA_?$AAn?$AAo?$AAl?$AAo?$AAc?$AAk?$AA?$AA@ 100c7960     LIBCMTD:ungetc.obj
 0002:00021980       ??_C@_1HC@OEJDDIIH@?$AAf?$AA?3?$AA?2?$AAd?$AAd?$AA?2?$AAv?$AAc?$AAt?$AAo?$AAo?$AAl?$AAs?$AA?2?$AAc?$AAr?$AAt?$AA_?$AAb?$AAl?$AAd?$AA?2?$AAs?$AAe?$AAl?$AAf?$AA_?$AAx?$AA8?$AA6?$AA?2?$AAc@ 100c7980     LIBCMTD:ungetc.obj
 0002:000219f8       __atan_table               100c79f8     LIBCMTD:_atan_table_.obj
 0002:00023208       ??_C@_1BE@KHFBJMNM@?$AA_?$AAl?$AAs?$AAe?$AAe?$AAk?$AAi?$AA6?$AA4?$AA?$AA@ 100c9208     LIBCMTD:lseeki64.obj
 0002:00023220       ??_C@_1GE@MINKPNPH@?$AAf?$AA?3?$AA?2?$AAd?$AAd?$AA?2?$AAv?$AAc?$AAt?$AAo?$AAo?$AAl?$AAs?$AA?2?$AAc?$AAr?$AAt?$AA_?$AAb?$AAl?$AAd?$AA?2?$AAs?$AAe?$AAl?$AAf?$AA_?$AAx?$AA8?$AA6?$AA?2?$AAc@ 100c9220     LIBCMTD:lseeki64.obj
 0002:00023284       ??_C@_0DB@JEHOCBEJ@f?3?2dd?2vctools?2crt_bld?2self_x86?2c@ 100c9284     LIBCMTD:_getbuf.obj
 0002:000232b8       ??_C@_1GC@DKMGNNCC@?$AAf?$AA?3?$AA?2?$AAd?$AAd?$AA?2?$AAv?$AAc?$AAt?$AAo?$AAo?$AAl?$AAs?$AA?2?$AAc?$AAr?$AAt?$AA_?$AAb?$AAl?$AAd?$AA?2?$AAs?$AAe?$AAl?$AAf?$AA_?$AAx?$AA8?$AA6?$AA?2?$AAc@ 100c92b8     LIBCMTD:_getbuf.obj
 0002:0002331c       ??_C@_1BA@LEBDGIHM@?$AA_?$AAi?$AAs?$AAa?$AAt?$AAt?$AAy?$AA?$AA@ 100c931c     LIBCMTD:isatty.obj
 0002:00023330       ??_C@_1GA@LPGDJDEN@?$AAf?$AA?3?$AA?2?$AAd?$AAd?$AA?2?$AAv?$AAc?$AAt?$AAo?$AAo?$AAl?$AAs?$AA?2?$AAc?$AAr?$AAt?$AA_?$AAb?$AAl?$AAd?$AA?2?$AAs?$AAe?$AAl?$AAf?$AA_?$AAx?$AA8?$AA6?$AA?2?$AAc@ 100c9330     LIBCMTD:isatty.obj
 0002:00023390       ??_C@_1O@GKDHFACN@?$AAp?$AAr?$AAi?$AAn?$AAt?$AAf?$AA?$AA@ 100c9390     LIBCMTD:printf.obj
 0002:000233a0       ??_C@_1GA@LHEGHOAF@?$AAf?$AA?3?$AA?2?$AAd?$AAd?$AA?2?$AAv?$AAc?$AAt?$AAo?$AAo?$AAl?$AAs?$AA?2?$AAc?$AAr?$AAt?$AA_?$AAb?$AAl?$AAd?$AA?2?$AAs?$AAe?$AAl?$AAf?$AA_?$AAx?$AA8?$AA6?$AA?2?$AAc@ 100c93a0     LIBCMTD:printf.obj
 0002:00023400       ??_C@_1BI@IEADNOHF@?$AA_?$AAw?$AAc?$AAt?$AAo?$AAm?$AAb?$AA_?$AAs?$AA_?$AAl?$AA?$AA@ 100c9400     LIBCMTD:wctomb.obj
 0002:00023418       ??_C@_1GA@LDLHPOO@?$AAf?$AA?3?$AA?2?$AAd?$AAd?$AA?2?$AAv?$AAc?$AAt?$AAo?$AAo?$AAl?$AAs?$AA?2?$AAc?$AAr?$AAt?$AA_?$AAb?$AAl?$AAd?$AA?2?$AAs?$AAe?$AAl?$AAf?$AA_?$AAx?$AA8?$AA6?$AA?2?$AAc@ 100c9418     LIBCMTD:wctomb.obj
 0002:00023478       ??_C@_1CO@HFMIILNF@?$AAs?$AAi?$AAz?$AAe?$AAI?$AAn?$AAB?$AAy?$AAt?$AAe?$AAs?$AA?5?$AA?$DM?$AA?$DN?$AA?5?$AAI?$AAN?$AAT?$AA_?$AAM?$AAA?$AAX?$AA?$AA@ 100c9478     LIBCMTD:wctomb.obj
 0002:000234a8       ??_C@_1BK@JMCGJOCC@?$AA_?$AAe?$AAx?$AAp?$AAa?$AAn?$AAd?$AA_?$AAb?$AAa?$AAs?$AAe?$AA?$AA@ 100c94a8     LIBCMTD:expand.obj
 0002:000234c8       ??_C@_1GA@EBHFLDNH@?$AAf?$AA?3?$AA?2?$AAd?$AAd?$AA?2?$AAv?$AAc?$AAt?$AAo?$AAo?$AAl?$AAs?$AA?2?$AAc?$AAr?$AAt?$AA_?$AAb?$AAl?$AAd?$AA?2?$AAs?$AAe?$AAl?$AAf?$AA_?$AAx?$AA8?$AA6?$AA?2?$AAc@ 100c94c8     LIBCMTD:expand.obj
 0002:00023528       ??_C@_1BO@KFIJIAEA@?$AAp?$AAB?$AAl?$AAo?$AAc?$AAk?$AA?5?$AA?$CB?$AA?$DN?$AA?5?$AAN?$AAU?$AAL?$AAL?$AA?$AA@ 100c9528     LIBCMTD:expand.obj
 0002:00023548       ??_C@_1BA@KBJJGFFE@?$AAs?$AAp?$AAr?$AAi?$AAn?$AAt?$AAf?$AA?$AA@ 100c9548     LIBCMTD:sprintf.obj
 0002:00023558       ??_C@_1GC@BMNPEKNN@?$AAf?$AA?3?$AA?2?$AAd?$AAd?$AA?2?$AAv?$AAc?$AAt?$AAo?$AAo?$AAl?$AAs?$AA?2?$AAc?$AAr?$AAt?$AA_?$AAb?$AAl?$AAd?$AA?2?$AAs?$AAe?$AAl?$AAf?$AA_?$AAx?$AA8?$AA6?$AA?2?$AAc@ 100c9558     LIBCMTD:sprintf.obj
 0002:000235bc       ??_C@_1BK@KHBCJPCH@?$AA_?$AAw?$AAm?$AAa?$AAk?$AAe?$AAp?$AAa?$AAt?$AAh?$AA_?$AAs?$AA?$AA@ 100c95bc     LIBCMTD:wmakepath_s.obj
 0002:000235d8       ??_C@_1GO@DHMODCKM@?$AAf?$AA?3?$AA?2?$AAd?$AAd?$AA?2?$AAv?$AAc?$AAt?$AAo?$AAo?$AAl?$AAs?$AA?2?$AAc?$AAr?$AAt?$AA_?$AAb?$AAl?$AAd?$AA?2?$AAs?$AAe?$AAl?$AAf?$AA_?$AAx?$AA8?$AA6?$AA?2?$AAc@ 100c95d8     LIBCMTD:wmakepath_s.obj
 0002:00023648       ??_C@_1DE@MLEJGPLF@?$AA?$CI?$AAL?$AA?$CC?$AAI?$AAn?$AAv?$AAa?$AAl?$AAi?$AAd?$AA?5?$AAp?$AAa?$AAr?$AAa?$AAm?$AAe?$AAt?$AAe?$AAr?$AA?$CC?$AA?0?$AA?5?$AA0?$AA?$CJ?$AA?$AA@ 100c9648     LIBCMTD:wsplitpath_s.obj
 0002:0002367c       ??_C@_1BM@OEAFIBCF@?$AA_?$AAw?$AAs?$AAp?$AAl?$AAi?$AAt?$AAp?$AAa?$AAt?$AAh?$AA_?$AAs?$AA?$AA@ 100c967c     LIBCMTD:wsplitpath_s.obj
 0002:00023698       ??_C@_1HA@GHKPFCBF@?$AAf?$AA?3?$AA?2?$AAd?$AAd?$AA?2?$AAv?$AAc?$AAt?$AAo?$AAo?$AAl?$AAs?$AA?2?$AAc?$AAr?$AAt?$AA_?$AAb?$AAl?$AAd?$AA?2?$AAs?$AAe?$AAl?$AAf?$AA_?$AAx?$AA8?$AA6?$AA?2?$AAc@ 100c9698     LIBCMTD:wsplitpath_s.obj
 0002:00023708       ??_C@_1CI@MLPLHPBP@?$AA?$CI?$AA?$CI?$AA?$CI?$AA_?$AAP?$AAa?$AAt?$AAh?$AA?$CJ?$AA?$CJ?$AA?$CJ?$AA?5?$AA?$CB?$AA?$DN?$AA?5?$AAN?$AAU?$AAL?$AAL?$AA?$AA@ 100c9708     LIBCMTD:wsplitpath_s.obj
 0002:00023730       ??_C@_0BK@CIDNPOGP@GetUserObjectInformationA?$AA@ 100c9730     LIBCMTD:crtmbox.obj
 0002:0002374c       ??_C@_0M@CHKKJDAI@MessageBoxA?$AA@ 100c974c     LIBCMTD:crtmbox.obj
 0002:00023758       ?commonFlags@?1??_control87@@9@9 100c9758     LIBCMTD:_ieee87_.obj
 0002:00023760       ??_C@_1GO@OKJGOMCB@?$AA_?$AAc?$AAo?$AAn?$AAt?$AAr?$AAo?$AAl?$AAf?$AAp?$AA_?$AAs?$AA?$CI?$AA?$CI?$AA?$CI?$AAv?$AAo?$AAi?$AAd?$AA?5?$AA?$CK?$AA?$CJ?$AA0?$AA?$CJ?$AA?0?$AA?5?$AAn?$AAe?$AAw?$AAc?$AAt?$AAr@ 100c9760     LIBCMTD:_ieee87_.obj
 0002:000237d0       ??_C@_1BO@OFDNCLL@?$AA_?$AAs?$AAe?$AAt?$AA_?$AAc?$AAo?$AAn?$AAt?$AAr?$AAo?$AAl?$AAf?$AAp?$AA?$AA@ 100c97d0     LIBCMTD:_ieee87_.obj
 0002:000237f0       ??_C@_1HO@BFDKGHOI@?$AAf?$AA?3?$AA?2?$AAd?$AAd?$AA?2?$AAv?$AAc?$AAt?$AAo?$AAo?$AAl?$AAs?$AA?2?$AAc?$AAr?$AAt?$AA_?$AAb?$AAl?$AAd?$AA?2?$AAs?$AAe?$AAl?$AAf?$AA_?$AAx?$AA8?$AA6?$AA?2?$AAc@ 100c97f0     LIBCMTD:_ieee87_.obj
 0002:00023870       ??_C@_06IMKFLFPG@1?$CDQNAN?$AA@ 100c9870     LIBCMTD:_x10fout_.obj
 0002:00023878       ??_C@_1EG@MCFPJJEM@?$AAs?$AAt?$AAr?$AAc?$AAp?$AAy?$AA_?$AAs?$AA?$CI?$AAf?$AAo?$AAs?$AA?9?$AA?$DO?$AAm?$AAa?$AAn?$AA?0?$AA?5?$AA2?$AA1?$AA?$CL?$AA1?$AA?0?$AA?5?$AA?$CC?$AA1?$AA?$CD?$AAQ?$AAN?$AAA?$AAN@ 100c9878     LIBCMTD:_x10fout_.obj
 0002:000238c0       ??_C@_05DNEBIAHO@1?$CDINF?$AA@ 100c98c0     LIBCMTD:_x10fout_.obj
 0002:000238c8       ??_C@_1EE@ICBBBPAI@?$AAs?$AAt?$AAr?$AAc?$AAp?$AAy?$AA_?$AAs?$AA?$CI?$AAf?$AAo?$AAs?$AA?9?$AA?$DO?$AAm?$AAa?$AAn?$AA?0?$AA?5?$AA2?$AA1?$AA?$CL?$AA1?$AA?0?$AA?5?$AA?$CC?$AA1?$AA?$CD?$AAI?$AAN?$AAF?$AA?$CC@ 100c98c8     LIBCMTD:_x10fout_.obj
 0002:0002390c       ??_C@_05PHHOCPM@1?$CDIND?$AA@ 100c990c     LIBCMTD:_x10fout_.obj
 0002:00023918       ??_C@_1EE@MADEBIHF@?$AAs?$AAt?$AAr?$AAc?$AAp?$AAy?$AA_?$AAs?$AA?$CI?$AAf?$AAo?$AAs?$AA?9?$AA?$DO?$AAm?$AAa?$AAn?$AA?0?$AA?5?$AA2?$AA1?$AA?$CL?$AA1?$AA?0?$AA?5?$AA?$CC?$AA1?$AA?$CD?$AAI?$AAN?$AAD?$AA?$CC@ 100c9918     LIBCMTD:_x10fout_.obj
 0002:0002395c       ??_C@_06PGGFOGJG@1?$CDSNAN?$AA@ 100c995c     LIBCMTD:_x10fout_.obj
 0002:00023968       ??_C@_1EG@CDDBFNOB@?$AAs?$AAt?$AAr?$AAc?$AAp?$AAy?$AA_?$AAs?$AA?$CI?$AAf?$AAo?$AAs?$AA?9?$AA?$DO?$AAm?$AAa?$AAn?$AA?0?$AA?5?$AA2?$AA1?$AA?$CL?$AA1?$AA?0?$AA?5?$AA?$CC?$AA1?$AA?$CD?$AAS?$AAN?$AAA?$AAN@ 100c9968     LIBCMTD:_x10fout_.obj
 0002:000239b0       ??_C@_1BI@ELMAAFLN@?$AA$?$AAI?$AA1?$AA0?$AA_?$AAO?$AAU?$AAT?$AAP?$AAU?$AAT?$AA?$AA@ 100c99b0     LIBCMTD:_x10fout_.obj
 0002:000239c8       ??_C@_1HG@HFJMHCFK@?$AAf?$AA?3?$AA?2?$AAd?$AAd?$AA?2?$AAv?$AAc?$AAt?$AAo?$AAo?$AAl?$AAs?$AA?2?$AAc?$AAr?$AAt?$AA_?$AAb?$AAl?$AAd?$AA?2?$AAs?$AAe?$AAl?$AAf?$AA_?$AAx?$AA8?$AA6?$AA?2?$AAc@ 100c99c8     LIBCMTD:_x10fout_.obj
 0002:00023a40       ??_C@_0DB@KIKNCIEC@f?3?2dd?2vctools?2crt_bld?2self_x86?2c@ 100c9a40     LIBCMTD:osfinfo.obj
 0002:00023a74       ??_C@_1BO@EMBOBGKE@?$AA_?$AAg?$AAe?$AAt?$AA_?$AAo?$AAs?$AAf?$AAh?$AAa?$AAn?$AAd?$AAl?$AAe?$AA?$AA@ 100c9a74     LIBCMTD:osfinfo.obj
 0002:00023a98       ??_C@_1GC@MLKLDJJG@?$AAf?$AA?3?$AA?2?$AAd?$AAd?$AA?2?$AAv?$AAc?$AAt?$AAo?$AAo?$AAl?$AAs?$AA?2?$AAc?$AAr?$AAt?$AA_?$AAb?$AAl?$AAd?$AA?2?$AAs?$AAe?$AAl?$AAf?$AA_?$AAx?$AA8?$AA6?$AA?2?$AAc@ 100c9a98     LIBCMTD:osfinfo.obj
 0002:00023afc       ??_C@_1O@HJNPHHHB@?$AAf?$AAp?$AAu?$AAt?$AAw?$AAc?$AA?$AA@ 100c9afc     LIBCMTD:fputwc.obj
 0002:00023b10       ??_C@_1GA@BJIGKGEA@?$AAf?$AA?3?$AA?2?$AAd?$AAd?$AA?2?$AAv?$AAc?$AAt?$AAo?$AAo?$AAl?$AAs?$AA?2?$AAc?$AAr?$AAt?$AA_?$AAb?$AAl?$AAd?$AA?2?$AAs?$AAe?$AAl?$AAf?$AA_?$AAx?$AA8?$AA6?$AA?2?$AAc@ 100c9b10     LIBCMTD:fputwc.obj
 0002:00023b70       ??_C@_1O@EGMJNCOI@?$AAf?$AAc?$AAl?$AAo?$AAs?$AAe?$AA?$AA@ 100c9b70     LIBCMTD:fclose.obj
 0002:00023b80       ??_C@_1GA@KMIDAPAP@?$AAf?$AA?3?$AA?2?$AAd?$AAd?$AA?2?$AAv?$AAc?$AAt?$AAo?$AAo?$AAl?$AAs?$AA?2?$AAc?$AAr?$AAt?$AA_?$AAb?$AAl?$AAd?$AA?2?$AAs?$AAe?$AAl?$AAf?$AA_?$AAx?$AA8?$AA6?$AA?2?$AAc@ 100c9b80     LIBCMTD:fclose.obj
 0002:00023be0       ??_C@_1BO@JINCABEC@?$AA_?$AAf?$AAc?$AAl?$AAo?$AAs?$AAe?$AA_?$AAn?$AAo?$AAl?$AAo?$AAc?$AAk?$AA?$AA@ 100c9be0     LIBCMTD:fclose.obj
 0002:00023c00       ___lookuptable_s           100c9c00     LIBCMTD:outputs.obj
 0002:00023c5c       ??_C@_1BI@COFBLHCG@?$AA_?$AAo?$AAu?$AAt?$AAp?$AAu?$AAt?$AA_?$AAs?$AA_?$AAl?$AA?$AA@ 100c9c5c     LIBCMTD:outputs.obj
 0002:00023c78       ??_C@_1IK@MHEDJAMK@?$AA_?$AAt?$AAv?$AAa?$AAl?$AAi?$AAd?$AAa?$AAt?$AAe?$AA_?$AAp?$AAa?$AAr?$AAa?$AAm?$AA_?$AAr?$AAe?$AAu?$AAs?$AAe?$AA?$CI?$AA?$CG?$AAp?$AAo?$AAs?$AA_?$AAv?$AAa?$AAl?$AAu@ 100c9c78     LIBCMTD:outputp.obj
 0002:00023d04       ??_C@_1BI@KANOLAMF@?$AA_?$AAo?$AAu?$AAt?$AAp?$AAu?$AAt?$AA_?$AAp?$AA_?$AAl?$AA?$AA@ 100c9d04     LIBCMTD:outputp.obj
 0002:00023d1c       ??_C@_1BA@PCFLFGNC@?$AAw?$AAc?$AAs?$AAt?$AAo?$AAx?$AAl?$AA?$AA@ 100c9d1c     LIBCMTD:wcstol.obj
 0002:00023d30       ??_C@_1GA@CADFOND@?$AAf?$AA?3?$AA?2?$AAd?$AAd?$AA?2?$AAv?$AAc?$AAt?$AAo?$AAo?$AAl?$AAs?$AA?2?$AAc?$AAr?$AAt?$AA_?$AAb?$AAl?$AAd?$AA?2?$AAs?$AAe?$AAl?$AAf?$AA_?$AAx?$AA8?$AA6?$AA?2?$AAc@ 100c9d30     LIBCMTD:wcstol.obj
 0002:00023d90       ??_C@_1CG@JEHFHLNG@?$AA_?$AAm?$AAb?$AAs?$AAt?$AAo?$AAw?$AAc?$AAs?$AA_?$AAl?$AA_?$AAh?$AAe?$AAl?$AAp?$AAe?$AAr?$AA?$AA@ 100c9d90     LIBCMTD:mbstowcs.obj
 0002:00023db8       ??_C@_1GE@LCCDHBMH@?$AAf?$AA?3?$AA?2?$AAd?$AAd?$AA?2?$AAv?$AAc?$AAt?$AAo?$AAo?$AAl?$AAs?$AA?2?$AAc?$AAr?$AAt?$AA_?$AAb?$AAl?$AAd?$AA?2?$AAs?$AAe?$AAl?$AAf?$AA_?$AAx?$AA8?$AA6?$AA?2?$AAc@ 100c9db8     LIBCMTD:mbstowcs.obj
 0002:00023e1c       ??_C@_1BE@EEKACIGI@?$AAs?$AA?5?$AA?$CB?$AA?$DN?$AA?5?$AAN?$AAU?$AAL?$AAL?$AA?$AA@ 100c9e1c     LIBCMTD:mbstowcs.obj
 0002:00023e30       ??_C@_1CO@JNPEPJAL@?$AAr?$AAe?$AAt?$AAs?$AAi?$AAz?$AAe?$AA?5?$AA?$DM?$AA?$DN?$AA?5?$AAs?$AAi?$AAz?$AAe?$AAI?$AAn?$AAW?$AAo?$AAr?$AAd?$AAs?$AA?$AA@ 100c9e30     LIBCMTD:mbstowcs.obj
 0002:00023e60       ??_C@_1CM@LLECFMFH@?$AAb?$AAu?$AAf?$AAf?$AAe?$AAr?$AAS?$AAi?$AAz?$AAe?$AA?5?$AA?$DM?$AA?$DN?$AA?5?$AAI?$AAN?$AAT?$AA_?$AAM?$AAA?$AAX?$AA?$AA@ 100c9e60     LIBCMTD:mbstowcs.obj
 0002:00023e8c       ??_C@_1BM@PHENIGHD@?$AA_?$AAm?$AAb?$AAs?$AAt?$AAo?$AAw?$AAc?$AAs?$AA_?$AAs?$AA_?$AAl?$AA?$AA@ 100c9e8c     LIBCMTD:mbstowcs.obj
 0002:00023ea8       ??_C@_1JA@JKDFMOPO@?$AA?$CI?$AAp?$AAw?$AAc?$AAs?$AA?5?$AA?$DN?$AA?$DN?$AA?5?$AAN?$AAU?$AAL?$AAL?$AA?5?$AA?$CG?$AA?$CG?$AA?5?$AAs?$AAi?$AAz?$AAe?$AAI?$AAn?$AAW?$AAo?$AAr?$AAd?$AAs?$AA?5?$AA?$DN?$AA?$DN?$AA?5@ 100c9ea8     LIBCMTD:mbstowcs.obj
 0002:00023f38       ??_C@_1CE@PCFPEIFI@?$AA_?$AAv?$AAs?$AAn?$AAp?$AAr?$AAi?$AAn?$AAt?$AAf?$AA_?$AAh?$AAe?$AAl?$AAp?$AAe?$AAr?$AA?$AA@ 100c9f38     LIBCMTD:vsnprnc.obj
 0002:00023f60       ??_C@_1EE@OKCKIGFK@?$AAs?$AAt?$AAr?$AAi?$AAn?$AAg?$AA?5?$AA?$CB?$AA?$DN?$AA?5?$AAN?$AAU?$AAL?$AAL?$AA?5?$AA?$CG?$AA?$CG?$AA?5?$AAs?$AAi?$AAz?$AAe?$AAI?$AAn?$AAB?$AAy?$AAt?$AAe?$AAs?$AA?5?$AA?$DO?$AA?5@ 100c9f60     LIBCMTD:vsnprnc.obj
 0002:00023fa4       ??_C@_1BM@BLJALHEF@?$AA_?$AAv?$AAs?$AAp?$AAr?$AAi?$AAn?$AAt?$AAf?$AA_?$AAs?$AA_?$AAl?$AA?$AA@ 100c9fa4     LIBCMTD:vsnprnc.obj
 0002:00023fc0       ??_C@_1BO@MMPELNIM@?$AA_?$AAv?$AAs?$AAn?$AAp?$AAr?$AAi?$AAn?$AAt?$AAf?$AA_?$AAs?$AA_?$AAl?$AA?$AA@ 100c9fc0     LIBCMTD:vsnprnc.obj
 0002:00023fe0       ??_C@_1O@GIMBNLEI@?$AAx?$AAt?$AAo?$AAa?$AA_?$AAs?$AA?$AA@ 100c9fe0     LIBCMTD:xtoas.obj
 0002:00023ff0       ??_C@_1BC@MJJNBNFN@?$AAx?$AA6?$AA4?$AAt?$AAo?$AAa?$AA_?$AAs?$AA?$AA@ 100c9ff0     LIBCMTD:xtoas.obj
 0002:00024004       ??_C@_1CG@LLJCAOHF@?$AA_?$AAw?$AAc?$AAs?$AAt?$AAo?$AAm?$AAb?$AAs?$AA_?$AAl?$AA_?$AAh?$AAe?$AAl?$AAp?$AAe?$AAr?$AA?$AA@ 100ca004     LIBCMTD:wcstombs.obj
 0002:00024030       ??_C@_1GE@OAENIBOD@?$AAf?$AA?3?$AA?2?$AAd?$AAd?$AA?2?$AAv?$AAc?$AAt?$AAo?$AAo?$AAl?$AAs?$AA?2?$AAc?$AAr?$AAt?$AA_?$AAb?$AAl?$AAd?$AA?2?$AAs?$AAe?$AAl?$AAf?$AA_?$AAx?$AA8?$AA6?$AA?2?$AAc@ 100ca030     LIBCMTD:wcstombs.obj
 0002:00024094       ??_C@_1BK@OIBENBPM@?$AAp?$AAw?$AAc?$AAs?$AA?5?$AA?$CB?$AA?$DN?$AA?5?$AAN?$AAU?$AAL?$AAL?$AA?$AA@ 100ca094     LIBCMTD:wcstombs.obj
 0002:000240b0       ??_C@_1CM@KEOGBFLI@?$AAs?$AAi?$AAz?$AAe?$AAI?$AAn?$AAB?$AAy?$AAt?$AAe?$AAs?$AA?5?$AA?$DO?$AA?5?$AAr?$AAe?$AAt?$AAs?$AAi?$AAz?$AAe?$AA?$AA@ 100ca0b0     LIBCMTD:wcstombs.obj
 0002:000240dc       ??_C@_1BM@BDMCLLDL@?$AA_?$AAw?$AAc?$AAs?$AAt?$AAo?$AAm?$AAb?$AAs?$AA_?$AAs?$AA_?$AAl?$AA?$AA@ 100ca0dc     LIBCMTD:wcstombs.obj
 0002:000240f8       ??_C@_1IM@MFGKHGBP@?$AA?$CI?$AAd?$AAs?$AAt?$AA?5?$AA?$CB?$AA?$DN?$AA?5?$AAN?$AAU?$AAL?$AAL?$AA?5?$AA?$CG?$AA?$CG?$AA?5?$AAs?$AAi?$AAz?$AAe?$AAI?$AAn?$AAB?$AAy?$AAt?$AAe?$AAs?$AA?5?$AA?$DO?$AA?5?$AA0?$AA?$CJ@ 100ca0f8     LIBCMTD:wcstombs.obj
 0002:00024184       ??_C@_1BK@EPLNBKAK@?$AA_?$AAv?$AAs?$AAw?$AAp?$AAr?$AAi?$AAn?$AAt?$AAf?$AA_?$AAl?$AA?$AA@ 100ca184     LIBCMTD:vswprint.obj
 0002:000241a0       ??_C@_1CG@IMMIEPNA@?$AA_?$AAv?$AAs?$AAc?$AAw?$AAp?$AAr?$AAi?$AAn?$AAt?$AAf?$AA_?$AAh?$AAe?$AAl?$AAp?$AAe?$AAr?$AA?$AA@ 100ca1a0     LIBCMTD:vswprint.obj
 0002:000241c8       __pDestructExceptionObject 100ca1c8     LIBCMTD:frame.obj
 0002:000241cc       ??_C@_0O@DPKOEFFH@bad?5exception?$AA@ 100ca1cc     LIBCMTD:frame.obj
 0002:000241e0       ??_7bad_exception@std@@6B@ 100ca1e0     LIBCMTD:frame.obj
 0002:000241e8       ??_C@_1CC@JLPHKJPH@?$AAc?$AAo?$AAu?$AAn?$AAt?$AA?5?$AA?$DM?$AA?$DN?$AA?5?$AAI?$AAN?$AAT?$AA_?$AAM?$AAA?$AAX?$AA?$AA@ 100ca1e8     LIBCMTD:strnicmp.obj
 0002:0002420c       ??_C@_1BI@BJLEPLEF@?$AA_?$AAs?$AAt?$AAr?$AAn?$AAi?$AAc?$AAm?$AAp?$AA_?$AAl?$AA?$AA@ 100ca20c     LIBCMTD:strnicmp.obj
 0002:00024228       ??_C@_1GE@CONPOJMA@?$AAf?$AA?3?$AA?2?$AAd?$AAd?$AA?2?$AAv?$AAc?$AAt?$AAo?$AAo?$AAl?$AAs?$AA?2?$AAc?$AAr?$AAt?$AA_?$AAb?$AAl?$AAd?$AA?2?$AAs?$AAe?$AAl?$AAf?$AA_?$AAx?$AA8?$AA6?$AA?2?$AAc@ 100ca228     LIBCMTD:strnicmp.obj
 0002:0002428c       ??_C@_1BE@BHJDFFNA@?$AA_?$AAs?$AAt?$AAr?$AAn?$AAi?$AAc?$AAm?$AAp?$AA?$AA@ 100ca28c     LIBCMTD:strnicmp.obj
 0002:000242a0       ??_C@_1BK@CMPKHPEC@?$AAn?$AA?5?$AA?$DM?$AA?$DN?$AA?5?$AAI?$AAN?$AAT?$AA_?$AAM?$AAA?$AAX?$AA?$AA@ 100ca2a0     LIBCMTD:mbsnbico.obj
 0002:000242bc       ??_C@_1BG@GBJNMPFA@?$AAs?$AA2?$AA?5?$AA?$CB?$AA?$DN?$AA?5?$AAN?$AAU?$AAL?$AAL?$AA?$AA@ 100ca2bc     LIBCMTD:mbsnbico.obj
 0002:000242d4       ??_C@_1BM@FKNNDAHH@?$AA_?$AAm?$AAb?$AAs?$AAn?$AAb?$AAi?$AAc?$AAo?$AAl?$AAl?$AA_?$AAl?$AA?$AA@ 100ca2d4     LIBCMTD:mbsnbico.obj
 0002:000242f0       ??_C@_1GE@NJHAJPKI@?$AAf?$AA?3?$AA?2?$AAd?$AAd?$AA?2?$AAv?$AAc?$AAt?$AAo?$AAo?$AAl?$AAs?$AA?2?$AAc?$AAr?$AAt?$AA_?$AAb?$AAl?$AAd?$AA?2?$AAs?$AAe?$AAl?$AAf?$AA_?$AAx?$AA8?$AA6?$AA?2?$AAc@ 100ca2f0     LIBCMTD:mbsnbico.obj
 0002:00024354       ??_C@_1BG@MODEICJK@?$AAs?$AA1?$AA?5?$AA?$CB?$AA?$DN?$AA?5?$AAN?$AAU?$AAL?$AAL?$AA?$AA@ 100ca354     LIBCMTD:mbsnbico.obj
 0002:0002436c       ??_C@_0DC@CAFDLBC@f?3?2dd?2vctools?2crt_bld?2self_x86?2c@ 100ca36c     LIBCMTD:wtombenv.obj
 0002:000243a0       ??_C@_1CC@HBLPFNKH@?$AA?$CI?$AAc?$AAn?$AAt?$AA?5?$AA?$DM?$AA?$DN?$AA?5?$AAI?$AAN?$AAT?$AA_?$AAM?$AAA?$AAX?$AA?$CJ?$AA?$AA@ 100ca3a0     LIBCMTD:read.obj
 0002:000243c4       ??_C@_1M@NHJOLLDM@?$AA_?$AAr?$AAe?$AAa?$AAd?$AA?$AA@ 100ca3c4     LIBCMTD:read.obj
 0002:000243d0       ??_C@_1FM@NGICBHLO@?$AAf?$AA?3?$AA?2?$AAd?$AAd?$AA?2?$AAv?$AAc?$AAt?$AAo?$AAo?$AAl?$AAs?$AA?2?$AAc?$AAr?$AAt?$AA_?$AAb?$AAl?$AAd?$AA?2?$AAs?$AAe?$AAl?$AAf?$AA_?$AAx?$AA8?$AA6?$AA?2?$AAc@ 100ca3d0     LIBCMTD:read.obj
 0002:0002442c       ??_C@_0CO@CEGKNHEH@f?3?2dd?2vctools?2crt_bld?2self_x86?2c@ 100ca42c     LIBCMTD:read.obj
 0002:0002445c       ??_C@_1CG@OHLJHGGK@?$AA?$CI?$AAi?$AAn?$AAp?$AAu?$AAt?$AAb?$AAu?$AAf?$AA?5?$AA?$CB?$AA?$DN?$AA?5?$AAN?$AAU?$AAL?$AAL?$AA?$CJ?$AA?$AA@ 100ca45c     LIBCMTD:read.obj
 0002:00024484       ??_C@_1BK@JJBHNDKJ@?$AA_?$AAr?$AAe?$AAa?$AAd?$AA_?$AAn?$AAo?$AAl?$AAo?$AAc?$AAk?$AA?$AA@ 100ca484     LIBCMTD:read.obj
 0002:000244a0       ??_C@_1BO@JGFPDJCP@?$AAv?$AAp?$AAr?$AAi?$AAn?$AAt?$AAf?$AA_?$AAh?$AAe?$AAl?$AAp?$AAe?$AAr?$AA?$AA@ 100ca4a0     LIBCMTD:vprintf.obj
 0002:000244c0       ??_C@_1GC@DHFFJKMC@?$AAf?$AA?3?$AA?2?$AAd?$AAd?$AA?2?$AAv?$AAc?$AAt?$AAo?$AAo?$AAl?$AAs?$AA?2?$AAc?$AAr?$AAt?$AA_?$AAb?$AAl?$AAd?$AA?2?$AAs?$AAe?$AAl?$AAf?$AA_?$AAx?$AA8?$AA6?$AA?2?$AAc@ 100ca4c0     LIBCMTD:vprintf.obj
 0002:00024524       ??_C@_1BI@IGILPKD@?$AA_?$AAv?$AAs?$AAp?$AAr?$AAi?$AAn?$AAt?$AAf?$AA_?$AAl?$AA?$AA@ 100ca524     LIBCMTD:vsprintf.obj
 0002:0002453c       ??_C@_1CE@HMKDJHB@?$AA_?$AAv?$AAs?$AAc?$AAp?$AAr?$AAi?$AAn?$AAt?$AAf?$AA_?$AAh?$AAe?$AAl?$AAp?$AAe?$AAr?$AA?$AA@ 100ca53c     LIBCMTD:vsprintf.obj
 0002:00024560       ??_C@_1BA@BALFACEM@?$AAC?$AAO?$AAN?$AAO?$AAU?$AAT?$AA$?$AA?$AA@ 100ca560     LIBCMTD:initcon.obj
 0002:00024570       ??_C@_1O@EDEJGJBM@?$AA_?$AAc?$AAl?$AAo?$AAs?$AAe?$AA?$AA@ 100ca570     LIBCMTD:close.obj
 0002:00024580       ??_C@_1FO@NNGNFGFH@?$AAf?$AA?3?$AA?2?$AAd?$AAd?$AA?2?$AAv?$AAc?$AAt?$AAo?$AAo?$AAl?$AAs?$AA?2?$AAc?$AAr?$AAt?$AA_?$AAb?$AAl?$AAd?$AA?2?$AAs?$AAe?$AAl?$AAf?$AA_?$AAx?$AA8?$AA6?$AA?2?$AAc@ 100ca580     LIBCMTD:close.obj
 0002:00024604       ??_7type_info@@6B@         100ca604     LIBCMTD:typinfo.obj
 0002:0002460c       ??_7exception@std@@6B@     100ca60c     LIBCMTD:stdexcpt.obj
 0002:00024614       ??_C@_0BC@EOODALEL@Unknown?5exception?$AA@ 100ca614     LIBCMTD:stdexcpt.obj
 0002:0002462c       ??_7bad_cast@std@@6B@      100ca62c     LIBCMTD:stdexcpt.obj
 0002:00024638       ??_7bad_typeid@std@@6B@    100ca638     LIBCMTD:stdexcpt.obj
 0002:00024644       ??_7__non_rtti_object@std@@6B@ 100ca644     LIBCMTD:stdexcpt.obj
 0002:00024650       ??_C@_1GE@BDAODJCD@?$AAf?$AA?3?$AA?2?$AAd?$AAd?$AA?2?$AAv?$AAc?$AAt?$AAo?$AAo?$AAl?$AAs?$AA?2?$AAc?$AAr?$AAt?$AA_?$AAb?$AAl?$AAd?$AA?2?$AAs?$AAe?$AAl?$AAf?$AA_?$AAx?$AA8?$AA6?$AA?2?$AAc@ 100ca650     LIBCMTD:dbgdel.obj
 0002:000246b8       ??_C@_1FO@IFEMNBMO@?$AAf?$AA?3?$AA?2?$AAd?$AAd?$AA?2?$AAv?$AAc?$AAt?$AAo?$AAo?$AAl?$AAs?$AA?2?$AAc?$AAr?$AAt?$AA_?$AAb?$AAl?$AAd?$AA?2?$AAs?$AAe?$AAl?$AAf?$AA_?$AAx?$AA8?$AA6?$AA?2?$AAc@ 100ca6b8     LIBCMTD:a_cmp.obj
 0002:00024718       ??_C@_1HK@ELDMAMK@?$AAc?$AAc?$AAh?$AAC?$AAo?$AAu?$AAn?$AAt?$AA1?$AA?$DN?$AA?$DN?$AA0?$AA?5?$AA?$CG?$AA?$CG?$AA?5?$AAc?$AAc?$AAh?$AAC?$AAo?$AAu?$AAn?$AAt?$AA2?$AA?$DN?$AA?$DN?$AA1?$AA?5?$AA?$HM?$AA?$HM?$AA?5@ 100ca718     LIBCMTD:a_cmp.obj
 0002:00024794       ??_C@_1CC@CNADELFK@?$AA_?$AAs?$AAt?$AAr?$AAi?$AAn?$AAg?$AA2?$AA?5?$AA?$CB?$AA?$DN?$AA?5?$AAN?$AAU?$AAL?$AAL?$AA?$AA@ 100ca794     LIBCMTD:strnicol.obj
 0002:000247b8       ??_C@_1BK@IOJEBPLP@?$AA_?$AAs?$AAt?$AAr?$AAn?$AAi?$AAc?$AAo?$AAl?$AAl?$AA_?$AAl?$AA?$AA@ 100ca7b8     LIBCMTD:strnicol.obj
 0002:000247d8       ??_C@_1GE@BDOBNJJ@?$AAf?$AA?3?$AA?2?$AAd?$AAd?$AA?2?$AAv?$AAc?$AAt?$AAo?$AAo?$AAl?$AAs?$AA?2?$AAc?$AAr?$AAt?$AA_?$AAb?$AAl?$AAd?$AA?2?$AAs?$AAe?$AAl?$AAf?$AA_?$AAx?$AA8?$AA6?$AA?2?$AAc@ 100ca7d8     LIBCMTD:strnicol.obj
 0002:0002483c       ??_C@_1CC@ICKKAGJA@?$AA_?$AAs?$AAt?$AAr?$AAi?$AAn?$AAg?$AA1?$AA?5?$AA?$CB?$AA?$DN?$AA?5?$AAN?$AAU?$AAL?$AAL?$AA?$AA@ 100ca83c     LIBCMTD:strnicol.obj
 0002:00024860       ??_C@_1FG@OKIAKKPK@?$AAs?$AAt?$AAr?$AAc?$AAp?$AAy?$AA_?$AAs?$AA?$CI?$AAn?$AAa?$AAm?$AAe?$AA?0?$AA?5?$AAs?$AAt?$AAr?$AAl?$AAe?$AAn?$AA?$CI?$AAo?$AAp?$AAt?$AAi?$AAo?$AAn?$AA?$CJ?$AA?5?$AA?$CL?$AA?5@ 100ca860     LIBCMTD:setenv.obj
 0002:000248b8       ??_C@_1EI@GHDNAPMG@?$AA?$CI?$AA?$CC?$AAC?$AAR?$AAT?$AA?5?$AAL?$AAo?$AAg?$AAi?$AAc?$AA?5?$AAe?$AAr?$AAr?$AAo?$AAr?$AA?5?$AAd?$AAu?$AAr?$AAi?$AAn?$AAg?$AA?5?$AAs?$AAe?$AAt?$AAe?$AAn?$AAv?$AA?$CC@ 100ca8b8     LIBCMTD:setenv.obj
 0002:00024900       ??_C@_0DA@NHJGCDK@f?3?2dd?2vctools?2crt_bld?2self_x86?2c@ 100ca900     LIBCMTD:setenv.obj
 0002:00024930       ??_C@_1FC@EEJIEIDF@?$AA_?$AAt?$AAc?$AAs?$AAn?$AAl?$AAe?$AAn?$AA?$CI?$AAe?$AAq?$AAu?$AAa?$AAl?$AA?5?$AA?$CL?$AA?5?$AA1?$AA?0?$AA?5?$AA_?$AAM?$AAA?$AAX?$AA_?$AAE?$AAN?$AAV?$AA?$CJ?$AA?5?$AA?$DM?$AA?5@ 100ca930     LIBCMTD:setenv.obj
 0002:00024984       ??_C@_1DE@EEHFNNGH@?$AAe?$AAq?$AAu?$AAa?$AAl?$AA?5?$AA?9?$AA?5?$AAo?$AAp?$AAt?$AAi?$AAo?$AAn?$AA?5?$AA?$DM?$AA?5?$AA_?$AAM?$AAA?$AAX?$AA_?$AAE?$AAN?$AAV?$AA?$AA@ 100ca984     LIBCMTD:setenv.obj
 0002:000249b8       ??_C@_1BI@CDAFOAAL@?$AA_?$AA_?$AAc?$AAr?$AAt?$AAs?$AAe?$AAt?$AAe?$AAn?$AAv?$AA?$AA@ 100ca9b8     LIBCMTD:setenv.obj
 0002:000249d0       ??_C@_1GA@KKPDKNLP@?$AAf?$AA?3?$AA?2?$AAd?$AAd?$AA?2?$AAv?$AAc?$AAt?$AAo?$AAo?$AAl?$AAs?$AA?2?$AAc?$AAr?$AAt?$AA_?$AAb?$AAl?$AAd?$AA?2?$AAs?$AAe?$AAl?$AAf?$AA_?$AAx?$AA8?$AA6?$AA?2?$AAc@ 100ca9d0     LIBCMTD:setenv.obj
 0002:00024a30       ??_C@_1CA@LMBEKBDN@?$AAp?$AAo?$AAp?$AAt?$AAi?$AAo?$AAn?$AA?5?$AA?$CB?$AA?$DN?$AA?5?$AAN?$AAU?$AAL?$AAL?$AA?$AA@ 100caa30     LIBCMTD:setenv.obj
 0002:00024a50       ??_C@_1FK@DNFLNPD@?$AAs?$AAt?$AAr?$AAc?$AAp?$AAy?$AA_?$AAs?$AA?$CI?$AA?$CK?$AAn?$AAe?$AAw?$AAe?$AAn?$AAv?$AAp?$AAt?$AAr?$AA?0?$AA?5?$AAe?$AAn?$AAv?$AAp?$AAt?$AAr?$AAS?$AAi?$AAz?$AAe?$AA?0@ 100caa50     LIBCMTD:setenv.obj
 0002:00024aac       ??_C@_1BK@ECKIJLPM@?$AAc?$AAo?$AAp?$AAy?$AA_?$AAe?$AAn?$AAv?$AAi?$AAr?$AAo?$AAn?$AA?$AA@ 100caaac     LIBCMTD:setenv.obj
 0002:00024ac8       ??_C@_1HG@KNCBMCDD@?$AAf?$AA?3?$AA?2?$AAd?$AAd?$AA?2?$AAv?$AAc?$AAt?$AAo?$AAo?$AAl?$AAs?$AA?2?$AAc?$AAr?$AAt?$AA_?$AAb?$AAl?$AAd?$AA?2?$AAs?$AAe?$AAl?$AAf?$AA_?$AAx?$AA8?$AA6?$AA?2?$AAc@ 100caac8     LIBCMTD:typname.obj
 0002:00024b40       ??_C@_1CK@GELGGBDK@?$AAp?$AAN?$AAo?$AAd?$AAe?$AA?9?$AA?$DO?$AA_?$AAN?$AAe?$AAx?$AAt?$AA?5?$AA?$CB?$AA?$DN?$AA?5?$AAN?$AAU?$AAL?$AAL?$AA?$AA@ 100cab40     LIBCMTD:typname.obj
 0002:00024b70       ??_C@_1JK@NAFNEPGC@?$AAs?$AAt?$AAr?$AAc?$AAp?$AAy?$AA_?$AAs?$AA?5?$AA?$CI?$AA?$CI?$AAc?$AAh?$AAa?$AAr?$AA?5?$AA?$CK?$AA?$CJ?$AA?$CI?$AA?$CI?$AAt?$AAy?$AAp?$AAe?$AA_?$AAi?$AAn?$AAf?$AAo?$AA?5?$AA?$CK?$AA?$CJ@ 100cab70     LIBCMTD:typname.obj
 0002:00024c0c       ??_C@_1CM@OOICDMK@?$AAt?$AAy?$AAp?$AAe?$AA_?$AAi?$AAn?$AAf?$AAo?$AA?3?$AA?3?$AA_?$AAN?$AAa?$AAm?$AAe?$AA_?$AAb?$AAa?$AAs?$AAe?$AA?$AA@ 100cac0c     LIBCMTD:typname.obj
 0002:00024c38       ??_C@_1GI@EAJKJPED@?$AAs?$AAt?$AAr?$AAc?$AAp?$AAy?$AA_?$AAs?$AA?5?$AA?$CI?$AAp?$AAT?$AAm?$AAp?$AAT?$AAy?$AAp?$AAe?$AAN?$AAa?$AAm?$AAe?$AA?0?$AA?5?$AAl?$AAe?$AAn?$AA?$CL?$AA2?$AA?0?$AA?5?$AA?$CI@ 100cac38     LIBCMTD:typname.obj
 0002:00024ca0       ??_C@_1DO@OJJLFJPE@?$AAt?$AAy?$AAp?$AAe?$AA_?$AAi?$AAn?$AAf?$AAo?$AA?3?$AA?3?$AA_?$AAN?$AAa?$AAm?$AAe?$AA_?$AAb?$AAa?$AAs?$AAe?$AA_?$AAi?$AAn?$AAt?$AAe?$AAr?$AAn?$AAa?$AAl?$AA?$AA@ 100caca0     LIBCMTD:typname.obj
 0002:00024ce0       ??_C@_1BE@JKKFLIKJ@?$AA_?$AAm?$AAb?$AAs?$AAc?$AAh?$AAr?$AA_?$AAl?$AA?$AA@ 100cace0     LIBCMTD:mbschr.obj
 0002:00024cf8       ??_C@_1GA@GDCAGKMG@?$AAf?$AA?3?$AA?2?$AAd?$AAd?$AA?2?$AAv?$AAc?$AAt?$AAo?$AAo?$AAl?$AAs?$AA?2?$AAc?$AAr?$AAt?$AA_?$AAb?$AAl?$AAd?$AA?2?$AAs?$AAe?$AAl?$AAf?$AA_?$AAx?$AA8?$AA6?$AA?2?$AAc@ 100cacf8     LIBCMTD:mbschr.obj
 0002:00024d58       ??_C@_1BO@JIBAMMGI@?$AAs?$AAt?$AAr?$AAi?$AAn?$AAg?$AA?5?$AA?$CB?$AA?$DN?$AA?5?$AAN?$AAU?$AAL?$AAL?$AA?$AA@ 100cad58     LIBCMTD:mbschr.obj
 0002:00024d78       ??_C@_0BK@CFCOFLF@?5Complete?5Object?5Locator?8?$AA@ 100cad78     LIBCMTD:undname.obj
 0002:00024d94       ??_C@_0BN@MECKDCOJ@?5Class?5Hierarchy?5Descriptor?8?$AA@ 100cad94     LIBCMTD:undname.obj
 0002:00024db4       ??_C@_0BD@LGICGFMM@?5Base?5Class?5Array?8?$AA@ 100cadb4     LIBCMTD:undname.obj
 0002:00024dc8       ??_C@_0BM@LDKODKLH@?5Base?5Class?5Descriptor?5at?5?$CI?$AA@ 100cadc8     LIBCMTD:undname.obj
 0002:00024de4       ??_C@_0BC@DAFEJGAK@?5Type?5Descriptor?8?$AA@ 100cade4     LIBCMTD:undname.obj
 0002:00024df8       ??_C@_0BM@PMGGMLDN@?$GAlocal?5static?5thread?5guard?8?$AA@ 100cadf8     LIBCMTD:undname.obj
 0002:00024e14       ??_C@_0CL@FGIJHLCE@?$GAmanaged?5vector?5copy?5constructor@ 100cae14     LIBCMTD:undname.obj
 0002:00024e40       ??_C@_0CJ@GJELGAMM@?$GAvector?5vbase?5copy?5constructor?5i@ 100cae40     LIBCMTD:undname.obj
 0002:00024e6c       ??_C@_0CD@CGAJBKEJ@?$GAvector?5copy?5constructor?5iterato@ 100cae6c     LIBCMTD:undname.obj
 0002:00024e90       ??_C@_0CB@PDBIFEP@?$GAdynamic?5atexit?5destructor?5for?5?8@ 100cae90     LIBCMTD:undname.obj
 0002:00024eb4       ??_C@_0BL@CLIPGLGB@?$GAdynamic?5initializer?5for?5?8?$AA@ 100caeb4     LIBCMTD:undname.obj
 0002:00024ed0       ??_C@_0CM@FCBBDIGB@?$GAeh?5vector?5vbase?5copy?5constructo@ 100caed0     LIBCMTD:undname.obj
 0002:00024efc       ??_C@_0CG@HLDDJMAG@?$GAeh?5vector?5copy?5constructor?5iter@ 100caefc     LIBCMTD:undname.obj
 0002:00024f24       ??_C@_0CF@IMGKMJNO@?$GAmanaged?5vector?5destructor?5itera@ 100caf24     LIBCMTD:undname.obj
 0002:00024f4c       ??_C@_0CG@CFDHKGGD@?$GAmanaged?5vector?5constructor?5iter@ 100caf4c     LIBCMTD:undname.obj
 0002:00024f74       ??_C@_0BN@CKNJLHMB@?$GAplacement?5delete?$FL?$FN?5closure?8?$AA@ 100caf74     LIBCMTD:undname.obj
 0002:00024f94       ??_C@_0BL@CNOONJFP@?$GAplacement?5delete?5closure?8?$AA@ 100caf94     LIBCMTD:undname.obj
 0002:00024fb0       ??_C@_0P@HJKNJFNN@?$GAomni?5callsig?8?$AA@ 100cafb0     LIBCMTD:undname.obj
 0002:00024fc0       ??_C@_09LBNFPBCA@?5delete?$FL?$FN?$AA@ 100cafc0     LIBCMTD:undname.obj
 0002:00024fcc       ??_C@_06FHBGPFGH@?5new?$FL?$FN?$AA@ 100cafcc     LIBCMTD:undname.obj
 0002:00024fd4       ??_C@_0CE@IIHCMGGL@?$GAlocal?5vftable?5constructor?5closu@ 100cafd4     LIBCMTD:undname.obj
 0002:00024ff8       ??_C@_0BA@KKLDJDLB@?$GAlocal?5vftable?8?$AA@ 100caff8     LIBCMTD:undname.obj
 0002:00025008       ??_C@_05KHLCHHI@?$GARTTI?$AA@ 100cb008     LIBCMTD:undname.obj
 0002:00025010       ??_C@_03KLGMFNMG@?$GAEH?$AA@ 100cb010     LIBCMTD:undname.obj
 0002:00025014       ??_C@_0BA@KBCDOMBN@?$GAudt?5returning?8?$AA@ 100cb014     LIBCMTD:undname.obj
 0002:00025024       ??_C@_0BL@LLKPOHJI@?$GAcopy?5constructor?5closure?8?$AA@ 100cb024     LIBCMTD:undname.obj
 0002:00025040       ??_C@_0CH@OOJPLCPH@?$GAeh?5vector?5vbase?5constructor?5ite@ 100cb040     LIBCMTD:undname.obj
 0002:00025068       ??_C@_0CA@GCEOPDGL@?$GAeh?5vector?5destructor?5iterator?8?$AA@ 100cb068     LIBCMTD:undname.obj
 0002:00025088       ??_C@_0CB@JONCMFFK@?$GAeh?5vector?5constructor?5iterator?8@ 100cb088     LIBCMTD:undname.obj
 0002:000250ac       ??_C@_0BL@NILFHHPC@?$GAvirtual?5displacement?5map?8?$AA@ 100cb0ac     LIBCMTD:undname.obj
 0002:000250c8       ??_C@_0CE@IKBNEHA@?$GAvector?5vbase?5constructor?5iterat@ 100cb0c8     LIBCMTD:undname.obj
 0002:000250ec       ??_C@_0BN@LFPFMEDL@?$GAvector?5destructor?5iterator?8?$AA@ 100cb0ec     LIBCMTD:undname.obj
 0002:0002510c       ??_C@_0BO@PFGOCPJJ@?$GAvector?5constructor?5iterator?8?$AA@ 100cb10c     LIBCMTD:undname.obj
 0002:0002512c       ??_C@_0BN@IMDCHIKM@?$GAscalar?5deleting?5destructor?8?$AA@ 100cb12c     LIBCMTD:undname.obj
 0002:0002514c       ??_C@_0BO@OBMKPJIG@?$GAdefault?5constructor?5closure?8?$AA@ 100cb14c     LIBCMTD:undname.obj
 0002:0002516c       ??_C@_0BN@DEGPLNFK@?$GAvector?5deleting?5destructor?8?$AA@ 100cb16c     LIBCMTD:undname.obj
 0002:0002518c       ??_C@_0BD@JDLKDPAB@?$GAvbase?5destructor?8?$AA@ 100cb18c     LIBCMTD:undname.obj
 0002:000251a0       ??_C@_08OBABFOLI@?$GAstring?8?$AA@ 100cb1a0     LIBCMTD:undname.obj
 0002:000251ac       ??_C@_0BF@KDPPACIK@?$GAlocal?5static?5guard?8?$AA@ 100cb1ac     LIBCMTD:undname.obj
 0002:000251c4       ??_C@_08LLFFHHDJ@?$GAtypeof?8?$AA@ 100cb1c4     LIBCMTD:undname.obj
 0002:000251d0       ??_C@_07FEEIOKP@?$GAvcall?8?$AA@ 100cb1d0     LIBCMTD:undname.obj
 0002:000251d8       ??_C@_09BLBHBJP@?$GAvbtable?8?$AA@ 100cb1d8     LIBCMTD:undname.obj
 0002:000251e4       ??_C@_09IFPLHPGF@?$GAvftable?8?$AA@ 100cb1e4     LIBCMTD:undname.obj
 0002:000251f0       ??_C@_02MHEGNOJ@?$FO?$DN?$AA@ 100cb1f0     LIBCMTD:undname.obj
 0002:000251f4       ??_C@_02DHLNPPGH@?$HM?$DN?$AA@ 100cb1f4     LIBCMTD:undname.obj
 0002:000251f8       ??_C@_02FGJGFEAB@?$CG?$DN?$AA@ 100cb1f8     LIBCMTD:undname.obj
 0002:000251fc       ??_C@_03CDNPDDLA@?$DM?$DM?$DN?$AA@ 100cb1fc     LIBCMTD:undname.obj
 0002:00025200       ??_C@_03IKFCCPFF@?$DO?$DO?$DN?$AA@ 100cb200     LIBCMTD:undname.obj
 0002:00025204       ??_C@_02FENAOKFI@?$CF?$DN?$AA@ 100cb204     LIBCMTD:undname.obj
 0002:00025208       ??_C@_02FJEHGPIO@?1?$DN?$AA@ 100cb208     LIBCMTD:undname.obj
 0002:0002520c       ??_C@_02FKMDLLOA@?9?$DN?$AA@ 100cb20c     LIBCMTD:undname.obj
 0002:00025210       ??_C@_02FOEOMHFC@?$CL?$DN?$AA@ 100cb210     LIBCMTD:undname.obj
 0002:00025214       ??_C@_02FPIMKNGF@?$CK?$DN?$AA@ 100cb214     LIBCMTD:undname.obj
 0002:00025218       ??_C@_02NONPIBCD@?$HM?$HM?$AA@ 100cb218     LIBCMTD:undname.obj
 0002:0002521c       ??_C@_02PPKAJPJL@?$CG?$CG?$AA@ 100cb21c     LIBCMTD:undname.obj
 0002:00025220       ??_C@_01DNKMNLPK@?$HM?$AA@ 100cb220     LIBCMTD:undname.obj
 0002:00025224       ??_C@_01JKBOJNNK@?$FO?$AA@ 100cb224     LIBCMTD:undname.obj
 0002:00025228       ??_C@_01PJKLJHI@?$HO?$AA@  100cb228     LIBCMTD:undname.obj
 0002:0002522c       ??_C@_02HCKGKOFO@?$CI?$CJ?$AA@ 100cb22c     LIBCMTD:undname.obj
 0002:00025230       ??_C@_01IHBHIGKO@?0?$AA@   100cb230     LIBCMTD:undname.obj
 0002:00025234       ??_C@_02EEKDKGMJ@?$DO?$DN?$AA@ 100cb234     LIBCMTD:undname.obj
 0002:00025238       ??_C@_01PPODPGHN@?$DO?$AA@ 100cb238     LIBCMTD:undname.obj
 0002:0002523c       ??_C@_02EHCHHCKH@?$DM?$DN?$AA@ 100cb23c     LIBCMTD:undname.obj
 0002:00025240       ??_C@_01MNNFJEPP@?$DM?$AA@ 100cb240     LIBCMTD:undname.obj
 0002:00025244       ??_C@_01FGNFDNOH@?$CF?$AA@ 100cb244     LIBCMTD:undname.obj
 0002:00025248       ??_C@_01KMDKNFGN@?1?$AA@   100cb248     LIBCMTD:undname.obj
 0002:0002524c       ??_C@_03MNHNFDLC@?9?$DO?$CK?$AA@ 100cb24c     LIBCMTD:undname.obj
 0002:00025250       ??_C@_01HNPIGOCE@?$CG?$AA@ 100cb250     LIBCMTD:undname.obj
 0002:00025254       ??_C@_01MIFGBAGJ@?$CL?$AA@ 100cb254     LIBCMTD:undname.obj
 0002:00025258       ??_C@_01JOAMLHOP@?9?$AA@   100cb258     LIBCMTD:undname.obj
 0002:0002525c       ??_C@_02BAABKJLB@?9?9?$AA@ 100cb25c     LIBCMTD:undname.obj
 0002:00025260       ??_C@_02ECNGHCIF@?$CL?$CL?$AA@ 100cb260     LIBCMTD:undname.obj
 0002:00025264       ??_C@_01NBENCBCI@?$CK?$AA@ 100cb264     LIBCMTD:undname.obj
 0002:00025268       ??_C@_02HBOOOICD@?9?$DO?$AA@ 100cb268     LIBCMTD:undname.obj
 0002:0002526c       ??_C@_08LHJFAFGD@operator?$AA@ 100cb26c     LIBCMTD:undname.obj
 0002:00025278       ??_C@_02GPECMEKF@?$FL?$FN?$AA@ 100cb278     LIBCMTD:undname.obj
 0002:0002527c       ??_C@_02FDNJECIE@?$CB?$DN?$AA@ 100cb27c     LIBCMTD:undname.obj
 0002:00025280       ??_C@_02EGOFBIJA@?$DN?$DN?$AA@ 100cb280     LIBCMTD:undname.obj
 0002:00025284       ??_C@_01DCLJPIOD@?$CB?$AA@ 100cb284     LIBCMTD:undname.obj
 0002:00025288       ??_C@_02FODMEDOG@?$DM?$DM?$AA@ 100cb288     LIBCMTD:undname.obj
 0002:0002528c       ??_C@_02GPIOPFAK@?$DO?$DO?$AA@ 100cb28c     LIBCMTD:undname.obj
 0002:00025290       ??_C@_07FPCDHGMM@?5delete?$AA@ 100cb290     LIBCMTD:undname.obj
 0002:00025298       ??_C@_04NIHEBCM@?5new?$AA@ 100cb298     LIBCMTD:undname.obj
 0002:000252a0       ??_C@_0M@GFIIJFMG@__unaligned?$AA@ 100cb2a0     LIBCMTD:undname.obj
 0002:000252ac       ??_C@_0L@PILCLIHE@__restrict?$AA@ 100cb2ac     LIBCMTD:undname.obj
 0002:000252b8       ??_C@_07JOMMBBKO@__ptr64?$AA@ 100cb2b8     LIBCMTD:undname.obj
 0002:000252c0       ??_C@_06GHPCKEAG@__eabi?$AA@ 100cb2c0     LIBCMTD:undname.obj
 0002:000252c8       ??_C@_09HIJEGCPM@__clrcall?$AA@ 100cb2c8     LIBCMTD:undname.obj
 0002:000252d4       ??_C@_0L@JMKHOMEK@__fastcall?$AA@ 100cb2d4     LIBCMTD:undname.obj
 0002:000252e0       ??_C@_0L@NPHFGOKO@__thiscall?$AA@ 100cb2e0     LIBCMTD:undname.obj
 0002:000252ec       ??_C@_09IFJBGAPI@__stdcall?$AA@ 100cb2ec     LIBCMTD:undname.obj
 0002:000252f8       ??_C@_08GHMPAG@__pascal?$AA@ 100cb2f8     LIBCMTD:undname.obj
 0002:00025304       ??_C@_07KOLFKCDI@__cdecl?$AA@ 100cb304     LIBCMTD:undname.obj
 0002:0002530c       ??_C@_08EHJDFFNH@__based?$CI?$AA@ 100cb30c     LIBCMTD:undname.obj
 0002:0002549c       ??_C@_04HEJADOOB@CV?3?5?$AA@ 100cb49c     LIBCMTD:undname.obj
 0002:000254a4       ??_C@_02MOLJINC@?3?3?$AA@  100cb4a4     LIBCMTD:undname.obj
 0002:000254a8       ??_C@_01GEODFPGF@?8?$AA@   100cb4a8     LIBCMTD:undname.obj
 0002:000254ac       ??_C@_01NLNLIGKH@?$GA?$AA@ 100cb4ac     LIBCMTD:undname.obj
 0002:000254b0       ??_C@_0O@KHGCOMHP@generic?9type?9?$AA@ 100cb4b0     LIBCMTD:undname.obj
 0002:000254c0       ??_C@_0BE@JAEOCHPE@template?9parameter?9?$AA@ 100cb4c0     LIBCMTD:undname.obj
 0002:000254d4       ??_C@_02OHHJMEON@?8?8?$AA@ 100cb4d4     LIBCMTD:undname.obj
 0002:000254d8       ??_C@_0BG@JNJLAMPM@?$GAanonymous?5namespace?8?$AA@ 100cb4d8     LIBCMTD:undname.obj
 0002:000254f0       ??_C@_0BN@IBLMMFAP@?$GAnon?9type?9template?9parameter?$AA@ 100cb4f0     LIBCMTD:undname.obj
 0002:00025510       ??_C@_0BE@EODMJLIF@?$GAtemplate?9parameter?$AA@ 100cb510     LIBCMTD:undname.obj
 0002:00025524       ??_C@_04GKJNKENE@void?$AA@ 100cb524     LIBCMTD:undname.obj
 0002:0002552c       ??_C@_04HIBGFPH@NULL?$AA@  100cb52c     LIBCMTD:undname.obj
 0002:00025534       ??_C@_0M@DHNBOJMP@extern?5?$CCC?$CC?5?$AA@ 100cb534     LIBCMTD:undname.obj
 0002:00025540       ??_C@_08KJLFOPNE@?$FLthunk?$FN?3?$AA@ 100cb540     LIBCMTD:undname.obj
 0002:0002554c       ??_C@_08GPDDCMKI@public?3?5?$AA@ 100cb54c     LIBCMTD:undname.obj
 0002:00025558       ??_C@_0M@GAIFPFIP@protected?3?5?$AA@ 100cb558     LIBCMTD:undname.obj
 0002:00025564       ??_C@_09LAPHOOG@private?3?5?$AA@ 100cb564     LIBCMTD:undname.obj
 0002:00025570       ??_C@_08NIEOINHE@virtual?5?$AA@ 100cb570     LIBCMTD:undname.obj
 0002:0002557c       ??_C@_07PGOEDBHP@static?5?$AA@ 100cb57c     LIBCMTD:undname.obj
 0002:00025584       ??_C@_0DA@HGFJFBBE@?$GAtemplate?5static?5data?5member?5des@ 100cb584     LIBCMTD:undname.obj
 0002:000255b4       ??_C@_0DB@ILEFOCIJ@?$GAtemplate?5static?5data?5member?5con@ 100cb5b4     LIBCMTD:undname.obj
 0002:000255e8       ??_C@_0CB@KJDOOODE@?$GAlocal?5static?5destructor?5helper?8@ 100cb5e8     LIBCMTD:undname.obj
 0002:0002560c       ??_C@_0L@HNGCOGAE@?$GAadjustor?$HL?$AA@ 100cb60c     LIBCMTD:undname.obj
 0002:00025618       ??_C@_0L@GHPFDFH@?$GAvtordisp?$HL?$AA@ 100cb618     LIBCMTD:undname.obj
 0002:00025624       ??_C@_0N@CBHHHENL@?$GAvtordispex?$HL?$AA@ 100cb624     LIBCMTD:undname.obj
 0002:00025634       ??_C@_01CLKCMJKC@?5?$AA@   100cb634     LIBCMTD:undname.obj
 0002:00025638       ??_C@_02IGFCGPIL@?$HN?8?$AA@ 100cb638     LIBCMTD:undname.obj
 0002:0002563c       ??_C@_03OPGICMGF@?$HN?8?5?$AA@ 100cb63c     LIBCMTD:undname.obj
 0002:00025640       ??_C@_02KCKGHPCA@?$CJ?5?$AA@ 100cb640     LIBCMTD:undname.obj
 0002:00025644       ??_C@_05BEFAKPML@void?5?$AA@ 100cb644     LIBCMTD:undname.obj
 0002:0002564c       ??_C@_0P@GCOCNKDM@std?3?3nullptr_t?$AA@ 100cb64c     LIBCMTD:undname.obj
 0002:0002565c       ??_C@_08PABEKFH@volatile?$AA@ 100cb65c     LIBCMTD:undname.obj
 0002:00025668       ??_C@_0M@ELJOJFFH@?0?$DMellipsis?$DO?$AA@ 100cb668     LIBCMTD:undname.obj
 0002:00025674       ??_C@_04EENFHACM@?0?4?4?4?$AA@ 100cb674     LIBCMTD:undname.obj
 0002:0002567c       ??_C@_0L@EGPHHEKN@?$DMellipsis?$DO?$AA@ 100cb67c     LIBCMTD:undname.obj
 0002:00025688       ??_C@_07HDJPLPEK@?5throw?$CI?$AA@ 100cb688     LIBCMTD:undname.obj
 0002:00025690       ??_C@_09EFNPDFFP@?5volatile?$AA@ 100cb690     LIBCMTD:undname.obj
 0002:0002569c       ??_C@_05BNCCCJPP@const?$AA@ 100cb69c     LIBCMTD:undname.obj
 0002:000256a4       ??_C@_07EDHNAJHC@signed?5?$AA@ 100cb6a4     LIBCMTD:undname.obj
 0002:000256ac       ??_C@_09EBBEKKIH@unsigned?5?$AA@ 100cb6ac     LIBCMTD:undname.obj
 0002:000256b8       ??_C@_07NFANNNEC@UNKNOWN?$AA@ 100cb6b8     LIBCMTD:undname.obj
 0002:000256c0       ??_C@_06GCICPBLB@__w64?5?$AA@ 100cb6c0     LIBCMTD:undname.obj
 0002:000256c8       ??_C@_07CLGGIAMF@wchar_t?$AA@ 100cb6c8     LIBCMTD:undname.obj
 0002:000256d0       ??_C@_09EEKGDCPH@?$DMunknown?$DO?$AA@ 100cb6d0     LIBCMTD:undname.obj
 0002:000256dc       ??_C@_08GAHOLHEO@__int128?$AA@ 100cb6dc     LIBCMTD:undname.obj
 0002:000256e8       ??_C@_07LFCOJCAC@__int64?$AA@ 100cb6e8     LIBCMTD:undname.obj
 0002:000256f0       ??_C@_07OFLPPHGP@__int32?$AA@ 100cb6f0     LIBCMTD:undname.obj
 0002:000256f8       ??_C@_07ICFHOGAF@__int16?$AA@ 100cb6f8     LIBCMTD:undname.obj
 0002:00025700       ??_C@_06EBGKOKIG@__int8?$AA@ 100cb700     LIBCMTD:undname.obj
 0002:00025708       ??_C@_04DDKJGDCM@bool?$AA@ 100cb708     LIBCMTD:undname.obj
 0002:00025710       ??_C@_06BNJCAIGJ@double?$AA@ 100cb710     LIBCMTD:undname.obj
 0002:00025718       ??_C@_05CJIMAING@long?5?$AA@ 100cb718     LIBCMTD:undname.obj
 0002:00025720       ??_C@_05KNFBNCOH@float?$AA@ 100cb720     LIBCMTD:undname.obj
 0002:00025728       ??_C@_04GOKPGOLB@long?$AA@ 100cb728     LIBCMTD:undname.obj
 0002:00025730       ??_C@_03JBIPMCLC@int?$AA@  100cb730     LIBCMTD:undname.obj
 0002:00025734       ??_C@_05BFKKPKCG@short?$AA@ 100cb734     LIBCMTD:undname.obj
 0002:0002573c       ??_C@_04ENMBGAPA@char?$AA@ 100cb73c     LIBCMTD:undname.obj
 0002:00025744       ??_C@_05LJGMCFOG@enum?5?$AA@ 100cb744     LIBCMTD:undname.obj
 0002:0002574c       ??_C@_0N@DLIEFKNA@cointerface?5?$AA@ 100cb74c     LIBCMTD:undname.obj
 0002:0002575c       ??_C@_08KOFANOFK@coclass?5?$AA@ 100cb75c     LIBCMTD:undname.obj
 0002:00025768       ??_C@_06LJBABKPM@class?5?$AA@ 100cb768     LIBCMTD:undname.obj
 0002:00025770       ??_C@_07DIBCDNGL@struct?5?$AA@ 100cb770     LIBCMTD:undname.obj
 0002:00025778       ??_C@_06MOJHIBMG@union?5?$AA@ 100cb778     LIBCMTD:undname.obj
 0002:00025780       ??_C@_0P@GCIFDJCJ@?$GAunknown?5ecsu?8?$AA@ 100cb780     LIBCMTD:undname.obj
 0002:00025790       ??_C@_04LAHKHJMA@int?5?$AA@ 100cb790     LIBCMTD:undname.obj
 0002:00025798       ??_C@_06EHJMALKF@short?5?$AA@ 100cb798     LIBCMTD:undname.obj
 0002:000257a0       ??_C@_05CIHEBHNO@char?5?$AA@ 100cb7a0     LIBCMTD:undname.obj
 0002:000257a8       ??_C@_06LIJLOJAG@const?5?$AA@ 100cb7a8     LIBCMTD:undname.obj
 0002:000257b0       ??_C@_09GAIEOBLP@volatile?5?$AA@ 100cb7b0     LIBCMTD:undname.obj
 0002:000257bc       ??_C@_0O@GKABPPIF@cli?3?3pin_ptr?$DM?$AA@ 100cb7bc     LIBCMTD:undname.obj
 0002:000257cc       ??_C@_0M@EALIELKG@cli?3?3array?$DM?$AA@ 100cb7cc     LIBCMTD:undname.obj
 0002:000257d8       ??_C@_02GOGNNPBN@?$CJ?$FL?$AA@ 100cb7d8     LIBCMTD:undname.obj
 0002:000257dc       ??_C@_06EEGAIFAK@?$HLflat?$HN?$AA@ 100cb7dc     LIBCMTD:undname.obj
 0002:000257e4       ??_C@_02MDINNEEG@s?5?$AA@  100cb7e4     LIBCMTD:undname.obj
 0002:000257e8       ??_C@_05JIBOFOHK@?$HLfor?5?$AA@ 100cb7e8     LIBCMTD:undname.obj
 0002:000257f0       ??_7DNameNode@@6B@         100cb7f0     LIBCMTD:undname.obj
 0002:000257fc       ??_7charNode@@6B@          100cb7fc     LIBCMTD:undname.obj
 0002:00025808       ??_7pcharNode@@6B@         100cb808     LIBCMTD:undname.obj
 0002:00025814       ??_7pDNameNode@@6B@        100cb814     LIBCMTD:undname.obj
 0002:00025820       ??_7DNameStatusNode@@6B@   100cb820     LIBCMTD:undname.obj
 0002:0002582c       ??_C@_04OKOHEJBO@?5?$DP?$DP?5?$AA@ 100cb82c     LIBCMTD:undname.obj
 0002:00025834       ??_7pairNode@@6B@          100cb834     LIBCMTD:undname.obj
 0002:00025840       __load_config_used         100cb840     LIBCMTD:loadcfg.obj
 0002:000258dc       ??_R4bad_exception@std@@6B@ 100cb8dc     LIBCMTD:frame.obj
 0002:000258f0       ??_R3bad_exception@std@@8  100cb8f0     LIBCMTD:frame.obj
 0002:00025900       ??_R2bad_exception@std@@8  100cb900     LIBCMTD:frame.obj
 0002:0002590c       ??_R1A@?0A@EA@bad_exception@std@@8 100cb90c     LIBCMTD:frame.obj
 0002:00025928       ??_R1A@?0A@EA@exception@std@@8 100cb928     LIBCMTD:frame.obj
 0002:00025944       ??_R3exception@std@@8      100cb944     LIBCMTD:frame.obj
 0002:00025954       ??_R2exception@std@@8      100cb954     LIBCMTD:frame.obj
 0002:0002595c       ??_R4type_info@@6B@        100cb95c     LIBCMTD:typinfo.obj
 0002:00025970       ??_R3type_info@@8          100cb970     LIBCMTD:typinfo.obj
 0002:00025980       ??_R2type_info@@8          100cb980     LIBCMTD:typinfo.obj
 0002:00025988       ??_R1A@?0A@EA@type_info@@8 100cb988     LIBCMTD:typinfo.obj
 0002:000259a4       ??_R4exception@std@@6B@    100cb9a4     LIBCMTD:stdexcpt.obj
 0002:000259b8       ??_R4bad_cast@std@@6B@     100cb9b8     LIBCMTD:stdexcpt.obj
 0002:000259cc       ??_R3bad_cast@std@@8       100cb9cc     LIBCMTD:stdexcpt.obj
 0002:000259dc       ??_R2bad_cast@std@@8       100cb9dc     LIBCMTD:stdexcpt.obj
 0002:000259e8       ??_R1A@?0A@EA@bad_cast@std@@8 100cb9e8     LIBCMTD:stdexcpt.obj
 0002:00025a04       ??_R4bad_typeid@std@@6B@   100cba04     LIBCMTD:stdexcpt.obj
 0002:00025a18       ??_R3bad_typeid@std@@8     100cba18     LIBCMTD:stdexcpt.obj
 0002:00025a28       ??_R2bad_typeid@std@@8     100cba28     LIBCMTD:stdexcpt.obj
 0002:00025a34       ??_R1A@?0A@EA@bad_typeid@std@@8 100cba34     LIBCMTD:stdexcpt.obj
 0002:00025a50       ??_R4__non_rtti_object@std@@6B@ 100cba50     LIBCMTD:stdexcpt.obj
 0002:00025a64       ??_R3__non_rtti_object@std@@8 100cba64     LIBCMTD:stdexcpt.obj
 0002:00025a74       ??_R2__non_rtti_object@std@@8 100cba74     LIBCMTD:stdexcpt.obj
 0002:00025a84       ??_R1A@?0A@EA@__non_rtti_object@std@@8 100cba84     LIBCMTD:stdexcpt.obj
 0002:00025aa0       ___safe_se_handler_table   100cbaa0     <linker-defined>
 0002:00025acc       ___rtc_iaa                 100cbacc     LIBCMTD:_initsect_.obj
 0002:00025b60       ___rtc_izz                 100cbb60     LIBCMTD:_initsect_.obj
 0002:00025b64       ___rtc_taa                 100cbb64     LIBCMTD:_initsect_.obj
 0002:00025bf8       ___rtc_tzz                 100cbbf8     LIBCMTD:_initsect_.obj
 0002:000264dc       __TI2?AVbad_exception@std@@ 100cc4dc     LIBCMTD:frame.obj
 0002:000264ec       __CTA2?AVbad_exception@std@@ 100cc4ec     LIBCMTD:frame.obj
 0002:000264f8       __CT??_R0?AVbad_exception@std@@@8??0bad_exception@std@@QAE@ABV01@@Z12 100cc4f8     LIBCMTD:frame.obj
 0002:00026514       __CT??_R0?AVexception@std@@@8??0exception@std@@QAE@ABV01@@Z12 100cc514     LIBCMTD:frame.obj
 0002:00026840       __IMPORT_DESCRIPTOR_KERNEL32 100cc840     kernel32:KERNEL32.dll
 0002:00026854       __NULL_IMPORT_DESCRIPTOR   100cc854     kernel32:KERNEL32.dll
 0003:00000060       ?cg_svcmds@@3PAUsvcmd_t@@A 100ce060     cg_cmds.obj
 0003:000007cc       ?sb_nums@@3PAPADA          100ce7cc     cg_media.obj
 0003:00000ac0       _item_box_mins             100ceac0     gs_items.obj
 0003:00000acc       _item_box_maxs             100ceacc     gs_items.obj
 0003:00000ad8       _itemdefs                  100cead8     gs_items.obj
 0003:00001b08       _playerbox_stand_mins      100cfb08     gs_pmove.obj
 0003:00001b14       _playerbox_stand_maxs      100cfb14     gs_pmove.obj
 0003:00001b20       _playerbox_stand_viewheight 100cfb20     gs_pmove.obj
 0003:00001b24       _playerbox_crouch_mins     100cfb24     gs_pmove.obj
 0003:00001b30       _playerbox_crouch_maxs     100cfb30     gs_pmove.obj
 0003:00001b3c       _playerbox_crouch_viewheight 100cfb3c     gs_pmove.obj
 0003:00001b40       _playerbox_gib_mins        100cfb40     gs_pmove.obj
 0003:00001b4c       _playerbox_gib_maxs        100cfb4c     gs_pmove.obj
 0003:00001b58       _playerbox_gib_viewheight  100cfb58     gs_pmove.obj
 0003:00001ba0       ?gs_weaponDefs@@3PAUgs_weapon_definition_t@@A 100cfba0     gs_weapondefs.obj
 0003:000022f0       _gs_weaponStateNames       100d02f0     gs_weapons.obj
 0003:00002318       _axis_identity             100d0318     q_math.obj
 0003:0000233c       _quat_identity             100d033c     q_math.obj
 0003:00002350       ?bytedirs@@3PAY02MA        100d0350     q_math.obj
 0003:00002ae8       _colorBlack                100d0ae8     q_math.obj
 0003:00002af8       _colorRed                  100d0af8     q_math.obj
 0003:00002b08       _colorGreen                100d0b08     q_math.obj
 0003:00002b18       _colorBlue                 100d0b18     q_math.obj
 0003:00002b28       _colorYellow               100d0b28     q_math.obj
 0003:00002b38       _colorOrange               100d0b38     q_math.obj
 0003:00002b48       _colorMagenta              100d0b48     q_math.obj
 0003:00002b58       _colorCyan                 100d0b58     q_math.obj
 0003:00002b68       _colorWhite                100d0b68     q_math.obj
 0003:00002b78       _colorLtGrey               100d0b78     q_math.obj
 0003:00002b88       _colorMdGrey               100d0b88     q_math.obj
 0003:00002b98       _colorDkGrey               100d0b98     q_math.obj
 0003:00002ba8       _color_table               100d0ba8     q_math.obj
 0003:00002c48       _SOUND_EXTENSIONS          100d0c48     q_shared.obj
 0003:00002c50       _IMAGE_EXTENSIONS          100d0c50     q_shared.obj
 0003:00002c64       ___security_cookie         100d0c64     LIBCMTD:gs_cookie.obj
 0003:00002c68       ___security_cookie_complement 100d0c68     LIBCMTD:gs_cookie.obj
 0003:00002c70       __fltused                  100d0c70     LIBCMTD:_fpinit_.obj
 0003:00002c74       __ldused                   100d0c74     LIBCMTD:_fpinit_.obj
 0003:00002d50       __half                     100d0d50     LIBCMTD:_pow_.obj
 0003:00002d5c       ?_RTC_ErrorLevels@@3PAHA   100d0d5c     LIBCMTD:_error_.obj
 0003:00002d70       __cfltcvt_tab              100d0d70     LIBCMTD:cmiscdat.obj
 0003:00002d98       __iob                      100d0d98     LIBCMTD:_file.obj
 0003:00003018       ___abort_behavior          100d1018     LIBCMTD:abort.obj
 0003:00003198       ___initialmbcinfo          100d1198     LIBCMTD:mbctype.obj
 0003:000033b8       __mbctype                  100d13b8     LIBCMTD:mbctype.obj
 0003:000034c0       __mbcasemap                100d14c0     LIBCMTD:mbctype.obj
 0003:000035c0       ___ptmbcinfo               100d15c0     LIBCMTD:mbctype.obj
 0003:000036b8       ___globallocalestatus      100d16b8     LIBCMTD:glstatus.obj
 0003:000036bc       ___clocalestr              100d16bc     LIBCMTD:nlsdata2.obj
 0003:000036c0       ___lc_time_c               100d16c0     LIBCMTD:nlsdata2.obj
 0003:00003828       ___initiallocinfo          100d1828     LIBCMTD:nlsdata2.obj
 0003:00003900       ___ptlocinfo               100d1900     LIBCMTD:nlsdata2.obj
 0003:00003904       ___initiallocalestructinfo 100d1904     LIBCMTD:nlsdata2.obj
 0003:0000390c       ___flsindex                100d190c     LIBCMTD:tidtable.obj
 0003:00003910       ___getvalueindex           100d1910     LIBCMTD:tidtable.obj
 0003:00003930       __timezone                 100d1930     LIBCMTD:timeset.obj
 0003:00003934       __daylight                 100d1934     LIBCMTD:timeset.obj
 0003:00003938       __dstbias                  100d1938     LIBCMTD:timeset.obj
 0003:000039c0       __tzname                   100d19c0     LIBCMTD:timeset.obj
 0003:00003ac8       __d_inf                    100d1ac8     LIBCMTD:_util_.obj
 0003:00003ad0       __d_ind                    100d1ad0     LIBCMTD:_util_.obj
 0003:00003ad8       __d_max                    100d1ad8     LIBCMTD:_util_.obj
 0003:00003ae0       __d_min                    100d1ae0     LIBCMTD:_util_.obj
 0003:00003ae8       __d_mzero                  100d1ae8     LIBCMTD:_util_.obj
 0003:00003b20       ___nullstring              100d1b20     LIBCMTD:output.obj
 0003:00003b24       ___wnullstring             100d1b24     LIBCMTD:output.obj
 0003:00003b30       __crtDbgFlag               100d1b30     LIBCMTD:dbgheap.obj
 0003:00003b34       ___crtDebugFillThreshold   100d1b34     LIBCMTD:dbgheap.obj
 0003:00003b3c       __crtBreakAlloc            100d1b3c     LIBCMTD:dbgheap.obj
 0003:00003b48       ___badioinfo               100d1b48     LIBCMTD:ioinit.obj
 0003:00003b8c       __pfnAllocHook             100d1b8c     LIBCMTD:dbghook.obj
 0003:00003cb0       __crtAssertBusy            100d1cb0     LIBCMTD:dbgrptt.obj
 0003:00003cb4       __CrtDbgMode               100d1cb4     LIBCMTD:dbgrptt.obj
 0003:00003cc0       __CrtDbgFile               100d1cc0     LIBCMTD:dbgrptt.obj
 0003:00003cd0       ___lconv_static_decimal    100d1cd0     LIBCMTD:lconv.obj
 0003:00003cd4       ___lconv_static_W_decimal  100d1cd4     LIBCMTD:lconv.obj
 0003:00003cd8       ___lconv_c                 100d1cd8     LIBCMTD:lconv.obj
 0003:00003d28       ___lconv                   100d1d28     LIBCMTD:lconv.obj
 0003:00003d2c       __pctype                   100d1d2c     LIBCMTD:ctype.obj
 0003:00003d30       __pwctype                  100d1d30     LIBCMTD:ctype.obj
 0003:00003d34       ___mb_cur_max              100d1d34     LIBCMTD:nlsdata1.obj
 0003:00003d38       ___decimal_point           100d1d38     LIBCMTD:nlsdata1.obj
 0003:00003d3c       ___decimal_point_length    100d1d3c     LIBCMTD:nlsdata1.obj
 0003:00003d40       __lpdays                   100d1d40     LIBCMTD:days.obj
 0003:00003d74       __days                     100d1d74     LIBCMTD:days.obj
 0003:00003dd8       __pow10pos                 100d1dd8     LIBCMTD:_constpow_.obj
 0003:00003f38       __pow10neg                 100d1f38     LIBCMTD:_constpow_.obj
 0003:00004094       __matherr_flag             100d2094     LIBCMTD:_matherr_.obj
 0003:000040a0       ??_R0?AVbad_exception@std@@@8 100d20a0     LIBCMTD:frame.obj
 0003:000040c0       ??_R0?AVexception@std@@@8  100d20c0     LIBCMTD:frame.obj
 0003:000040e0       __lookuptrailbytes         100d20e0     LIBCMTD:read.obj
 0003:000041e0       __NLG_Destination          100d21e0     LIBCMTD:exsup.obj
 0003:000041f0       __confh                    100d21f0     LIBCMTD:initcon.obj
 0003:000041f4       ??_R0?AVtype_info@@@8      100d21f4     LIBCMTD:typinfo.obj
 0003:0000420c       ??_R0?AVbad_cast@std@@@8   100d220c     LIBCMTD:stdexcpt.obj
 0003:00004228       ??_R0?AVbad_typeid@std@@@8 100d2228     LIBCMTD:stdexcpt.obj
 0003:00004248       ??_R0?AV__non_rtti_object@std@@@8 100d2248     LIBCMTD:stdexcpt.obj
 0003:00004288       ?skel_headnode@@3PAUcgs_skeleton_s@@A 100d2288     cg_boneposes.obj
 0003:0000428c       ?TBC@@3PAUbonepose_s@@A    100d228c     cg_boneposes.obj
 0003:00004290       ?con_chatCGame@@3PAUcvar_s@@A 100d2290     cg_chat.obj
 0003:001292d8       ?currentcam@@3PAUcg_democam_s@@A 101f72d8     cg_democams.obj
 0003:001292dd       ?democam_editing_mode@@3_NA 101f72dd     cg_democams.obj
 0003:001292e0       ?demoscriptname@@3PADA     101f72e0     cg_democams.obj
 0003:001292f0       ?demo_time@@3IA            101f72f0     cg_democams.obj
 0003:0012930c       ?nextcam@@3PAUcg_democam_s@@A 101f730c     cg_democams.obj
 0003:0012932c       ?demo_initial_timestamp@@3IA 101f732c     cg_democams.obj
 0003:00129334       ?currentsub@@3PAUcg_subtitles_s@@A 101f7334     cg_democams.obj
 0003:00129338       ?cg_cams_headnode@@3PAUcg_democam_s@@A 101f7338     cg_democams.obj
 0003:0012933c       ?cg_subs_headnode@@3PAUcg_subtitles_s@@A 101f733c     cg_democams.obj
 0003:00129e58       ?particles@@3PAUparticle_s@@A 101f7e58     cg_effects.obj
 0003:0018be58       ?cg_shadeBoxes@@3PAUcgshadebox_t@@A 10259e58     cg_effects.obj
 0003:0021d458       ?cg_numparticles@@3HA      102eb458     cg_effects.obj
 0003:0021d460       ?cg_lightStyle@@3PAUcg_lightStyle_t@@A 102eb460     cg_effects.obj
 0003:00252648       ?cg_announcerEvents@@3PAUcg_announcerevent_s@@A 10320648     cg_events.obj
 0003:002526d8       ?cg_showminimap@@3PAUcvar_s@@A 103206d8     cg_hud.obj
 0003:002526dc       ?cg_showitemtimers@@3PAUcvar_s@@A 103206dc     cg_hud.obj
 0003:00252720       ?cg_placebo@@3PAUcvar_s@@A 10320720     cg_hud.obj
 0003:002539f8       ?cg_strafeHUD@@3PAUcvar_s@@A 103219f8     cg_hud.obj
 0003:00253b98       ?cg_localents@@3PAUlentity_s@@A 10321b98     cg_lents.obj
 0003:0026f398       ?cg_localents_headnode@@3Ulentity_s@@A 1033d398     cg_lents.obj
 0003:0026f474       ?cg_free_lents@@3PAUlentity_s@@A 1033d474     cg_lents.obj
 0003:0026f478       ?cg_teamALPHAskin@@3PAUcvar_s@@A 1033d478     cg_main.obj
 0003:0026f47c       ?cg_showClamp@@3PAUcvar_s@@A 1033d47c     cg_main.obj
 0003:0026f480       ?cg_gunz@@3PAUcvar_s@@A    1033d480     cg_main.obj
 0003:0026f484       ?cg_teamBETAmodel@@3PAUcvar_s@@A 1033d484     cg_main.obj
 0003:0026f488       ?cg_explosionsRing@@3PAUcvar_s@@A 1033d488     cg_main.obj
 0003:0026f48c       ?cg_grenadeTrail@@3PAUcvar_s@@A 1033d48c     cg_main.obj
 0003:0026f490       ?cg_cartoonHitEffect@@3PAUcvar_s@@A 1033d490     cg_main.obj
 0003:0026f494       ?cg_showBloodTrail@@3PAUcvar_s@@A 1033d494     cg_main.obj
 0003:0026f498       ?cg_lgbeam_old@@3PAUcvar_s@@A 1033d498     cg_main.obj
 0003:0026f49c       ?cg_debugPlayerModels@@3PAUcvar_s@@A 1033d49c     cg_main.obj
 0003:0026f4a0       ?cgs@@3Ucg_static_t@@A     1033d4a0     cg_main.obj
 0003:00296f14       ?cg_instabeam_width@@3PAUcvar_s@@A 10364f14     cg_main.obj
 0003:00296f18       ?cg_thirdPerson@@3PAUcvar_s@@A 10364f18     cg_main.obj
 0003:00296f1c       ?cg_gun_fov@@3PAUcvar_s@@A 10364f1c     cg_main.obj
 0003:00296f20       ?cg_pickup_flash@@3PAUcvar_s@@A 10364f20     cg_main.obj
 0003:00296f24       ?clan@@3PAUcvar_s@@A       10364f24     cg_main.obj
 0003:00296f28       ?cg_teamPLAYERSskin@@3PAUcvar_s@@A 10364f28     cg_main.obj
 0003:00296f2c       ?cg_autoaction_screenshot@@3PAUcvar_s@@A 10364f2c     cg_main.obj
 0003:00296f30       ?cg_outlineModels@@3PAUcvar_s@@A 10364f30     cg_main.obj
 0003:00296f34       ?cg_addDecals@@3PAUcvar_s@@A 10364f34     cg_main.obj
 0003:00296f38       ?cg_cartoonEffects@@3PAUcvar_s@@A 10364f38     cg_main.obj
 0003:00296f3c       ?cg_shadows@@3PAUcvar_s@@A 10364f3c     cg_main.obj
 0003:00296f40       ?cg_forceTeamPlayersTeamBeta@@3PAUcvar_s@@A 10364f40     cg_main.obj
 0003:00296f44       ?cg_volume_players@@3PAUcvar_s@@A 10364f44     cg_main.obj
 0003:00296f48       ?cg_flashWindowCount@@3PAUcvar_s@@A 10364f48     cg_main.obj
 0003:00296f4c       ?cg_predict_optimize@@3PAUcvar_s@@A 10364f4c     cg_main.obj
 0003:00296f50       ?cg_guny@@3PAUcvar_s@@A    10364f50     cg_main.obj
 0003:00296f54       ?cg_outlineWorld@@3PAUcvar_s@@A 10364f54     cg_main.obj
 0003:00296f58       ?cg_teamALPHAmodel@@3PAUcvar_s@@A 10364f58     cg_main.obj
 0003:00296f5c       ?skin@@3PAUcvar_s@@A       10364f5c     cg_main.obj
 0003:00296f60       ?cg_showhelp@@3PAUcvar_s@@A 10364f60     cg_main.obj
 0003:00296f64       ?cg_showSelfShadow@@3PAUcvar_s@@A 10364f64     cg_main.obj
 0003:00296f68       ?model@@3PAUcvar_s@@A      10364f68     cg_main.obj
 0003:00296f6c       ?cg_weaponAutoSwitch@@3PAUcvar_s@@A 10364f6c     cg_main.obj
 0003:00296f70       ?cg_laserBeamSubdivisions@@3PAUcvar_s@@A 10364f70     cg_main.obj
 0003:00296f74       ?cg_showObituaries@@3PAUcvar_s@@A 10364f74     cg_main.obj
 0003:00296f78       ?cg_teamPLAYERScolor@@3PAUcvar_s@@A 10364f78     cg_main.obj
 0003:00296f7c       ?cg_damage_indicator@@3PAUcvar_s@@A 10364f7c     cg_main.obj
 0003:00296f80       ?cg_projectileAntilagOffset@@3PAUcvar_s@@A 10364f80     cg_main.obj
 0003:00296f84       ?cg_volume_hitsound@@3PAUcvar_s@@A 10364f84     cg_main.obj
 0003:00296f88       ?cg_teamPLAYERSmodel@@3PAUcvar_s@@A 10364f88     cg_main.obj
 0003:00296f8c       ?cg_playListShuffle@@3PAUcvar_s@@A 10364f8c     cg_main.obj
 0003:00296f90       ?cg_simpleItems@@3PAUcvar_s@@A 10364f90     cg_main.obj
 0003:00296f94       ?cg_volume_announcer@@3PAUcvar_s@@A 10364f94     cg_main.obj
 0003:00296f98       ?cg_playList@@3PAUcvar_s@@A 10364f98     cg_main.obj
 0003:00296f9c       ?cg_chatBeep@@3PAUcvar_s@@A 10364f9c     cg_main.obj
 0003:00296fa0       ?cg_handOffset@@3PAUcvar_s@@A 10364fa0     cg_main.obj
 0003:00296fa4       ?cg_thirdPersonRange@@3PAUcvar_s@@A 10364fa4     cg_main.obj
 0003:00296fa8       ?cg_voiceChats@@3PAUcvar_s@@A 10364fa8     cg_main.obj
 0003:00296fac       ?cg_outlinePlayers@@3PAUcvar_s@@A 10364fac     cg_main.obj
 0003:00296fb0       ?cg_damage_kick@@3PAUcvar_s@@A 10364fb0     cg_main.obj
 0003:00296fb4       ?cg_showMiss@@3PAUcvar_s@@A 10364fb4     cg_main.obj
 0003:00296fb8       ?cg_teamBETAcolor@@3PAUcvar_s@@A 10364fb8     cg_main.obj
 0003:00296fbc       ?cg_simpleItemsSize@@3PAUcvar_s@@A 10364fbc     cg_main.obj
 0003:00296fc0       ?cg_weaponFlashes@@3PAUcvar_s@@A 10364fc0     cg_main.obj
 0003:00296fc4       ?cg_grenadeTrailAlpha@@3PAUcvar_s@@A 10364fc4     cg_main.obj
 0003:00296fc8       ?cg_drawEntityBoxes@@3PAUcvar_s@@A 10364fc8     cg_main.obj
 0003:00296fcc       ?cg_raceGhosts@@3PAUcvar_s@@A 10364fcc     cg_main.obj
 0003:00296fd0       ?cg_ebbeam_old@@3PAUcvar_s@@A 10364fd0     cg_main.obj
 0003:00296fd4       ?cg_particles@@3PAUcvar_s@@A 10364fd4     cg_main.obj
 0003:00296fd8       ?cg_predictLaserBeam@@3PAUcvar_s@@A 10364fd8     cg_main.obj
 0003:00296fdc       ?cg_chatFilter@@3PAUcvar_s@@A 10364fdc     cg_main.obj
 0003:00296fe0       ?cg_rocketFireTrailAlpha@@3PAUcvar_s@@A 10364fe0     cg_main.obj
 0003:00296fe4       ?cg_volume_effects@@3PAUcvar_s@@A 10364fe4     cg_main.obj
 0003:00296fe8       ?cg_ebbeam_width@@3PAUcvar_s@@A 10364fe8     cg_main.obj
 0003:00296fec       ?handicap@@3PAUcvar_s@@A   10364fec     cg_main.obj
 0003:00296ff0       ?cg_teamBETAskin@@3PAUcvar_s@@A 10364ff0     cg_main.obj
 0003:00296ff4       ?cg_debugWeaponModels@@3PAUcvar_s@@A 10364ff4     cg_main.obj
 0003:00296ff8       ?cg_damage_indicator_time@@3PAUcvar_s@@A 10364ff8     cg_main.obj
 0003:00296ffc       ?cg_gun@@3PAUcvar_s@@A     10364ffc     cg_main.obj
 0003:00297000       ?cg_instabeam_time@@3PAUcvar_s@@A 10365000     cg_main.obj
 0003:00297004       ?cg_ebbeam_time@@3PAUcvar_s@@A 10365004     cg_main.obj
 0003:00297008       ?cg_autoaction_stats@@3PAUcvar_s@@A 10365008     cg_main.obj
 0003:0029700c       ?cg_raceGhostsAlpha@@3PAUcvar_s@@A 1036500c     cg_main.obj
 0003:00297010       ?cg_ebbeam_alpha@@3PAUcvar_s@@A 10365010     cg_main.obj
 0003:00297014       ?hand@@3PAUcvar_s@@A       10365014     cg_main.obj
 0003:00297018       ?cg@@3Ucg_state_t@@A       10365018     cg_main.obj
 0003:00320c5c       ?cg_gibs@@3PAUcvar_s@@A    103eec5c     cg_main.obj
 0003:00320c60       ?cg_zoomSens@@3PAUcvar_s@@A 103eec60     cg_main.obj
 0003:00320c64       ?developer@@3PAUcvar_s@@A  103eec64     cg_main.obj
 0003:00320c68       ?cg_autoaction_demo@@3PAUcvar_s@@A 103eec68     cg_main.obj
 0003:00320c6c       ?cg_rocketTrailAlpha@@3PAUcvar_s@@A 103eec6c     cg_main.obj
 0003:00320c70       ?cg_gunx@@3PAUcvar_s@@A    103eec70     cg_main.obj
 0003:00320c74       ?cg_volume_voicechats@@3PAUcvar_s@@A 103eec74     cg_main.obj
 0003:00320c78       ?cg_entities@@3PAUcentity_t@@A 103eec78     cg_main.obj
 0003:0040cc78       ?cg_bloodTrail@@3PAUcvar_s@@A 104dac78     cg_main.obj
 0003:0040cc7c       ?cg_instabeam_alpha@@3PAUcvar_s@@A 104dac7c     cg_main.obj
 0003:0040cc80       ?cg_teamColoredBeams@@3PAUcvar_s@@A 104dac80     cg_main.obj
 0003:0040cc84       ?cg_forceMyTeamAlpha@@3PAUcvar_s@@A 104dac84     cg_main.obj
 0003:0040cc88       ?cg_fov@@3PAUcvar_s@@A     104dac88     cg_main.obj
 0003:0040cc8c       ?cg_teamALPHAcolor@@3PAUcvar_s@@A 104dac8c     cg_main.obj
 0003:0040cc90       ?cg_scoreboardStats@@3PAUcvar_s@@A 104dac90     cg_main.obj
 0003:0040cc94       ?cg_oldMovement@@3PAUcvar_s@@A 104dac94     cg_main.obj
 0003:0040cc98       ?cg_bloodTrailAlpha@@3PAUcvar_s@@A 104dac98     cg_main.obj
 0003:0040cc9c       ?cg_predict@@3PAUcvar_s@@A 104dac9c     cg_main.obj
 0003:0040cca0       ?cg_rocketTrail@@3PAUcvar_s@@A 104daca0     cg_main.obj
 0003:0040cca4       ?cg_autoaction_spectator@@3PAUcvar_s@@A 104daca4     cg_main.obj
 0003:0040cca8       ?cg_gunbob@@3PAUcvar_s@@A  104daca8     cg_main.obj
 0003:0040ccac       ?cg_thirdPersonAngle@@3PAUcvar_s@@A 104dacac     cg_main.obj
 0003:0040ccb0       ?cg_noAutohop@@3PAUcvar_s@@A 104dacb0     cg_main.obj
 0003:0040ccb4       ?cg_rocketFireTrail@@3PAUcvar_s@@A 104dacb4     cg_main.obj
 0003:0040ccb8       ?cg_chatFilterTV@@3PAUcvar_s@@A 104dacb8     cg_main.obj
 0003:0040ccbc       ?cg_explosionsDust@@3PAUcvar_s@@A 104dacbc     cg_main.obj
 0003:0040ccc0       ?model_headnode@@3PAUcgs_media_handle_s@@A 104dacc0     cg_media.obj
 0003:0040ccc4       ?sfx_headnode@@3PAUcgs_media_handle_s@@A 104dacc4     cg_media.obj
 0003:0040ccc8       ?shader_headnode@@3PAUcgs_media_handle_s@@A 104dacc8     cg_media.obj
 0003:0040ccd0       ?cg_PModelInfos@@3PAUpmodelinfo_s@@A 104dacd0     cg_pmodels.obj
 0003:0040ccd8       ?cg_entPModels@@3PAUpmodel_t@@A 104dacd8     cg_pmodels.obj
 0003:004dc278       ?cg_numSolids@@3HA         105aa278     cg_predict.obj
 0003:004dc27c       ?cg_numTriggers@@3HA       105aa27c     cg_predict.obj
 0003:004de7d0       ?scr_vrect@@3Uvrect_t@@A   105ac7d0     cg_screen.obj
 0003:004de7e0       ?cg_showTeamMates@@3PAUcvar_s@@A 105ac7e0     cg_screen.obj
 0003:004de7e4       ?cg_crosshair_strong_size@@3PAUcvar_s@@A 105ac7e4     cg_screen.obj
 0003:004de7e8       ?cg_showPlayerNames@@3PAUcvar_s@@A 105ac7e8     cg_screen.obj
 0003:004de7ec       ?cg_showZoomEffect@@3PAUcvar_s@@A 105ac7ec     cg_screen.obj
 0003:004de7f4       ?cg_showPressedKeys@@3PAUcvar_s@@A 105ac7f4     cg_screen.obj
 0003:004de7f8       ?cg_specHUD@@3PAUcvar_s@@A 105ac7f8     cg_screen.obj
 0003:004de7fc       ?cg_weaponlist@@3PAUcvar_s@@A 105ac7fc     cg_screen.obj
 0003:004de800       ?scr_centerstring@@3PADA   105ac800     cg_screen.obj
 0003:004dec00       ?cg_clientHUD@@3PAUcvar_s@@A 105acc00     cg_screen.obj
 0003:004dec04       ?cg_crosshair@@3PAUcvar_s@@A 105acc04     cg_screen.obj
 0003:004dec08       ?cg_crosshair_color@@3PAUcvar_s@@A 105acc08     cg_screen.obj
 0003:004dec0c       ?cg_viewSize@@3PAUcvar_s@@A 105acc0c     cg_screen.obj
 0003:004dec10       ?cg_showAwards@@3PAUcvar_s@@A 105acc10     cg_screen.obj
 0003:004dec14       ?cg_crosshair_damage_color@@3PAUcvar_s@@A 105acc14     cg_screen.obj
 0003:004dec18       ?scr_centertime_off@@3MA   105acc18     cg_screen.obj
 0003:004dec1c       ?cg_crosshair_strong@@3PAUcvar_s@@A 105acc1c     cg_screen.obj
 0003:004dec20       ?cg_showPickup@@3PAUcvar_s@@A 105acc20     cg_screen.obj
 0003:004dec24       ?cg_draw2D@@3PAUcvar_s@@A  105acc24     cg_screen.obj
 0003:004dec28       ?cg_showPlayerNames_zfar@@3PAUcvar_s@@A 105acc28     cg_screen.obj
 0003:004dec30       ?cg_showPlayerNames_barWidth@@3PAUcvar_s@@A 105acc30     cg_screen.obj
 0003:004dec34       ?scr_damagetime_start@@3MA 105acc34     cg_screen.obj
 0003:004dec38       ?scr_centertime_start@@3MA 105acc38     cg_screen.obj
 0003:004dec3c       ?cg_showCaptureAreas@@3PAUcvar_s@@A 105acc3c     cg_screen.obj
 0003:004dec40       ?cg_showHUD@@3PAUcvar_s@@A 105acc40     cg_screen.obj
 0003:004dec44       ?cg_crosshair_size@@3PAUcvar_s@@A 105acc44     cg_screen.obj
 0003:004dec48       ?cg_debugHUD@@3PAUcvar_s@@A 105acc48     cg_screen.obj
 0003:004dec4c       ?cg_showTimer@@3PAUcvar_s@@A 105acc4c     cg_screen.obj
 0003:004dec50       ?cg_showFPS@@3PAUcvar_s@@A 105acc50     cg_screen.obj
 0003:004dec54       ?cg_showSpeed@@3PAUcvar_s@@A 105acc54     cg_screen.obj
 0003:004dec58       ?cg_scoreboardFontFamily@@3PAUcvar_s@@A 105acc58     cg_screen.obj
 0003:004dec5c       ?cg_scoreboardFontSize@@3PAUcvar_s@@A 105acc5c     cg_screen.obj
 0003:004dec60       ?cg_showViewBlends@@3PAUcvar_s@@A 105acc60     cg_screen.obj
 0003:004dec64       ?cg_showPlayerNames_alpha@@3PAUcvar_s@@A 105acc64     cg_screen.obj
 0003:004dec68       ?cg_crosshair_strong_color@@3PAUcvar_s@@A 105acc68     cg_screen.obj
 0003:004dec6c       ?scr_damagetime_off@@3MA   105acc6c     cg_screen.obj
 0003:004dec70       ?cg_debugLoading@@3PAUcvar_s@@A 105acc70     cg_screen.obj
 0003:004dec74       ?scr_erase_center@@3HA     105acc74     cg_screen.obj
 0003:004dec78       ?cg_showPointedPlayer@@3PAUcvar_s@@A 105acc78     cg_screen.obj
 0003:004dec7c       ?cg_scoreboardWidthScale@@3PAUcvar_s@@A 105acc7c     cg_screen.obj
 0003:004dec80       ?scr_center_lines@@3HA     105acc80     cg_screen.obj
 0003:004dec84       ?cg_showTeamLocations@@3PAUcvar_s@@A 105acc84     cg_screen.obj
 0003:004dec88       ?cg_centerTime@@3PAUcvar_s@@A 105acc88     cg_screen.obj
 0003:004df090       ?CGAME_IMPORT@@3Ucgame_import_t@@A 105ad090     cg_syscalls.obj
 0003:004df27c       ?cg_testEntities@@3PAUcvar_s@@A 105ad27c     cg_test.obj
 0003:004df280       ?cg_testLights@@3PAUcvar_s@@A 105ad280     cg_test.obj
 0003:004df284       ?chaseCam@@3Ucg_chasecam_t@@A 105ad284     cg_view.obj
 0003:004df2a0       ?cg_pWeaponModelInfos@@3PAUweaponinfo_s@@A 105ad2a0     cg_wmodels.obj
 0003:004e0050       _module_PointContents      105ae050     gs_misc.obj
 0003:004e0054       _module_Error              105ae054     gs_misc.obj
 0003:004e0058       _module_PMoveTouchTriggers 105ae058     gs_misc.obj
 0003:004e005c       _module_Trace              105ae05c     gs_misc.obj
 0003:004e0060       _module_Malloc             105ae060     gs_misc.obj
 0003:004e0064       _module_GetEntityState     105ae064     gs_misc.obj
 0003:004e0068       _module_Free               105ae068     gs_misc.obj
 0003:004e006c       _module_Printf             105ae06c     gs_misc.obj
 0003:004e0070       _module_GetConfigString    105ae070     gs_misc.obj
 0003:004e0074       _module_PredictedEvent     105ae074     gs_misc.obj
 0003:004e0078       _gs                        105ae078     gs_misc.obj
 0003:004e0100       _module_RoundUpToHullSize  105ae100     gs_misc.obj
 0003:004e0108       ?pml@@3Upml_t@@A           105ae108     gs_pmove.obj
 0003:004e01a0       ?pm@@3PAUpmove_t@@A        105ae1a0     gs_pmove.obj
 0003:004e01dc       _vec3_origin               105ae1dc     q_math.obj
 0003:004e5028       ___fastflag                105b3028     LIBCMTD:_fpinit_.obj
 0003:004e5030       __aenvptr                  105b3030     LIBCMTD:dllcrt0.obj
 0003:004e5034       __wenvptr                  105b3034     LIBCMTD:dllcrt0.obj
 0003:004e5038       ___error_mode              105b3038     LIBCMTD:dllcrt0.obj
 0003:004e503c       ___app_type                105b303c     LIBCMTD:dllcrt0.obj
 0003:004e5040       ?wsprintffp@@3P6AHPADPBDZZA 105b3040     LIBCMTD:_error_.obj
 0003:004e5374       __umaskval                 105b3374     LIBCMTD:crt0dat.obj
 0003:004e5378       ___argc                    105b3378     LIBCMTD:crt0dat.obj
 0003:004e537c       ___argv                    105b337c     LIBCMTD:crt0dat.obj
 0003:004e5380       ___wargv                   105b3380     LIBCMTD:crt0dat.obj
 0003:004e5384       __environ                  105b3384     LIBCMTD:crt0dat.obj
 0003:004e5388       ___initenv                 105b3388     LIBCMTD:crt0dat.obj
 0003:004e538c       __wenviron                 105b338c     LIBCMTD:crt0dat.obj
 0003:004e5390       ___winitenv                105b3390     LIBCMTD:crt0dat.obj
 0003:004e5394       __pgmptr                   105b3394     LIBCMTD:crt0dat.obj
 0003:004e5398       __wpgmptr                  105b3398     LIBCMTD:crt0dat.obj
 0003:004e539c       __exitflag                 105b339c     LIBCMTD:crt0dat.obj
 0003:004e53a0       __C_Termination_Done       105b33a0     LIBCMTD:crt0dat.obj
 0003:004e53a4       __C_Exit_Done              105b33a4     LIBCMTD:crt0dat.obj
 0003:004e53d4       __cflush                   105b33d4     LIBCMTD:_file.obj
 0003:004e53d8       ___pInvalidArgHandler      105b33d8     LIBCMTD:invarg.obj
 0003:004e53e0       ___mbulinfo                105b33e0     LIBCMTD:mbctype.obj
 0003:004e53ec       ___mbcodepage              105b33ec     LIBCMTD:mbctype.obj
 0003:004e53f0       ___ismbcodepage            105b33f0     LIBCMTD:mbctype.obj
 0003:004e53f4       ___mblcid                  105b33f4     LIBCMTD:mbctype.obj
 0003:004e53f8       _gpFlsAlloc                105b33f8     LIBCMTD:tidtable.obj
 0003:004e53fc       _gpFlsGetValue             105b33fc     LIBCMTD:tidtable.obj
 0003:004e5400       _gpFlsSetValue             105b3400     LIBCMTD:tidtable.obj
 0003:004e5404       _gpFlsFree                 105b3404     LIBCMTD:tidtable.obj
 0003:004e5408       ___locale_changed          105b3408     LIBCMTD:setlocal.obj
 0003:004e54e0       ?_pfnDumpClient@@3P6AXPAXI@ZA 105b34e0     LIBCMTD:dbgheap.obj
 0003:004e54e8       ___crtDebugCheckCount      105b34e8     LIBCMTD:dbgheap.obj
 0003:004e55f8       __crtheap                  105b35f8     LIBCMTD:heapinit.obj
 0003:004e5604       __outputformat             105b3604     LIBCMTD:outputformat.obj
 0003:004e5d98       ?__pInconsistency@@3P6AXXZA 105b3d98     LIBCMTD:hooks.obj
 0003:004e5da0       ___pPurecall               105b3da0     LIBCMTD:inithelp.obj
 0003:004e5da4       ?_pnhHeap@@3P6AHI@ZA       105b3da4     LIBCMTD:handler.obj
 0003:004e5da8       __stdbuf                   105b3da8     LIBCMTD:_sftbuf.obj
 0003:004e5db0       ___lconv_static_null       105b3db0     LIBCMTD:lconv.obj
 0003:004e5db4       ___lconv_static_W_null     105b3db4     LIBCMTD:lconv.obj
 0003:004e5dbc       __newmode                  105b3dbc     LIBCMTD:_newmode.obj
 0003:004e5df0       ?pArgList@UnDecorator@@0PAVReplicator@@A 105b3df0     LIBCMTD:undname.obj
 0003:004e5df4       ?pZNameList@UnDecorator@@0PAVReplicator@@A 105b3df4     LIBCMTD:undname.obj
 0003:004e5df8       ?pTemplateArgList@UnDecorator@@0PAVReplicator@@A 105b3df8     LIBCMTD:undname.obj
 0003:004e5dfc       ?gName@UnDecorator@@0PBDB  105b3dfc     LIBCMTD:undname.obj
 0003:004e5e00       ?name@UnDecorator@@0PBDB   105b3e00     LIBCMTD:undname.obj
 0003:004e5e04       ?outputString@UnDecorator@@0PADA 105b3e04     LIBCMTD:undname.obj
 0003:004e5e08       ?maxStringLength@UnDecorator@@0HA 105b3e08     LIBCMTD:undname.obj
 0003:004e5e0c       ?disableFlags@UnDecorator@@0KA 105b3e0c     LIBCMTD:undname.obj
 0003:004e5e10       ?m_pGetParameter@UnDecorator@@0P6APADJ@ZA 105b3e10     LIBCMTD:undname.obj
 0003:004e5e14       ?fExplicitTemplateParams@UnDecorator@@0_NA 105b3e14     LIBCMTD:undname.obj
 0003:004e5e15       ?fGetTemplateArgumentList@UnDecorator@@0_NA 105b3e15     LIBCMTD:undname.obj
 0003:004e5e68       ?nodes@?1??make@DNameStatusNode@@SAPAV2@W4DNameStatus@@@Z@4PAV2@A 105b3e68     LIBCMTD:undname.obj
 0003:004e5e98       ??_B?1??make@DNameStatusNode@@SAPAV1@W4DNameStatus@@@Z@51 105b3e98     LIBCMTD:undname.obj
 0003:004e5e9c       __pfnReportHook            105b3e9c     <common>
 0003:004e5ea0       __pReportHookListW         105b3ea0     <common>
 0003:004e5ea4       __pReportHookList          105b3ea4     <common>
 0003:004e5ea8       __debugger_hook_dummy      105b3ea8     <common>
 0003:004e5eac       __nhandle                  105b3eac     <common>
 0003:004e5ec0       ___pioinfo                 105b3ec0     <common>
 0003:004e5fc0       ___use_sse2_mathfcns       105b3fc0     <common>
 0003:004e5fc4       __pmatherr                 105b3fc4     <common>
 0003:004e5fc8       ___setlc_active            105b3fc8     <common>
 0003:004e5fcc       ___unguarded_readlc_active 105b3fcc     <common>
 0003:004e5fd0       ___piob                    105b3fd0     <common>
 0003:004e5fe0       __bufin                    105b3fe0     <common>
 0003:004e6fe0       __nstream                  105b4fe0     <common>
 0003:004e6fe4       ___env_initialized         105b4fe4     <common>
 0003:004e6fe8       ___onexitend               105b4fe8     <common>
 0003:004e6fec       ___onexitbegin             105b4fec     <common>
 0003:004e6ff0       ___mbctype_initialized     105b4ff0     <common>
 0003:004e6ff4       ___dyn_tls_init_callback   105b4ff4     <common>
 0003:004e6ff8       ___sse2_available          105b4ff8     <common>
 0003:004e6ffc       __acmdln                   105b4ffc     <common>

 entry point at        0001:00058cc0

 Static symbols

 0001:00000240       ?trap_R_SkeletalGetNumBones@@YAHPBUmodel_s@@PAH@Z 10001240 f   cg_boneposes.obj
 0001:00000270       ?trap_R_SkeletalGetBoneInfo@@YAHPBUmodel_s@@HPADIPAH@Z 10001270 f   cg_boneposes.obj
 0001:000002b0       ?trap_R_SkeletalGetBonePose@@YAXPBUmodel_s@@HHPAUbonepose_s@@@Z 100012b0 f   cg_boneposes.obj
 0001:000002e0       ?trap_MemAlloc@@YAPAXIPBDH@Z 100012e0 f   cg_boneposes.obj
 0001:00000310       ?CG_CreateBonesTreeNode@@YAPAUbonenode_s@@PAUcgs_skeleton_s@@H@Z 10001310 f   cg_boneposes.obj
 0001:00000d70       ?CG_TagMask@@YAPAUcg_tagmask_s@@PADPAUcgs_skeleton_s@@@Z 10001d70 f   cg_boneposes.obj
 0001:00000e90       ?CG_ExpandTemporaryBoneposesCache@@YAXH@Z 10001e90 f   cg_boneposes.obj
 0001:00000f60       ?trap_MemFree@@YAXPAXPBDH@Z 10001f60 f   cg_boneposes.obj
 0001:00001090       ?trap_Cvar_Get@@YAPAUcvar_s@@PBD0H@Z 10002090 f   cg_chat.obj
 0001:000010c0       ?trap_Cvar_ForceSet@@YAPAUcvar_s@@PBDPAD@Z 100020c0 f   cg_chat.obj
 0001:00001890       ?trap_Cvar_Value@@YAMPBD@Z 10002890 f   cg_chat.obj
 0001:000018c0       ?trap_R_DrawStretchPic@@YAXHHHHMMMMQBMPAUshader_s@@@Z 100028c0 f   cg_chat.obj
 0001:00001920       ?trap_SCR_DrawClampString@@YAXHHPBDHHHHPAUqfontface_s@@QAM@Z 10002920 f   cg_chat.obj
 0001:00001970       ?trap_SCR_strHeight@@YAIPAUqfontface_s@@@Z 10002970 f   cg_chat.obj
 0001:000019a0       ?trap_SCR_strWidth@@YAIPBDPAUqfontface_s@@H@Z 100029a0 f   cg_chat.obj
 0001:000019d0       ?CG_ColorStrLastColor@@YAXPAHPBDH@Z 100029d0 f   cg_chat.obj
 0001:00001ab0       ?CG_SetChatCvars@@YAXHHPADHHHHH@Z 10002ab0 f   cg_chat.obj
 0001:00001bc0       ?CG_SC_Print@@YAXXZ        10002bc0 f   cg_cmds.obj
 0001:00001bf0       ?trap_Cmd_Argv@@YAPADH@Z   10002bf0 f   cg_cmds.obj
 0001:00001c20       ?CG_SC_ChatPrint@@YAXXZ    10002c20 f   cg_cmds.obj
 0001:00001de0       ?trap_S_StartGlobalSound@@YAXPAUsfx_s@@HM@Z 10002de0 f   cg_cmds.obj
 0001:00001e10       ?CG_SC_TVChatPrint@@YAXXZ  10002e10 f   cg_cmds.obj
 0001:00001ed0       ?CG_SC_CenterPrint@@YAXXZ  10002ed0 f   cg_cmds.obj
 0001:00002220       ?trap_Cmd_AddCommand@@YAXPBDP6AXXZ@Z 10003220 f   cg_cmds.obj
 0001:00002250       ?trap_R_RegisterPic@@YAPAUshader_s@@PBD@Z 10003250 f   cg_cmds.obj
 0001:00002280       ?trap_R_RegisterSkinFile@@YAPAUskinfile_s@@PBD@Z 10003280 f   cg_cmds.obj
 0001:000022b0       ?trap_S_RegisterSound@@YAPAUsfx_s@@PBD@Z 100032b0 f   cg_cmds.obj
 0001:000022e0       ?CG_SC_Scoreboard@@YAXXZ   100032e0 f   cg_cmds.obj
 0001:000023b0       ?trap_FS_Print@@YAHHPBD@Z  100033b0 f   cg_cmds.obj
 0001:000023e0       ?CG_SC_PlayerStats@@YAXXZ  100033e0 f   cg_cmds.obj
 0001:00002460       ?CG_SC_PrintPlayerStats@@YAXPBDP6AX0ZZ@Z 10003460 f   cg_cmds.obj
 0001:000029d0       ?trap_Cmd_ExecuteText@@YAXHPBD@Z 100039d0 f   cg_cmds.obj
 0001:00002a00       ?CG_SC_DumpPlayerStats@@YAXPBD0@Z 10003a00 f   cg_cmds.obj
 0001:00002a70       ?trap_FS_FOpenFile@@YAHPBDPAHH@Z 10003a70 f   cg_cmds.obj
 0001:00002aa0       ?trap_FS_FCloseFile@@YAXH@Z 10003aa0 f   cg_cmds.obj
 0001:00002ad0       ?CG_SC_AutoRecordName@@YAPBDXZ 10003ad0 f   cg_cmds.obj
 0001:00002c50       _localtime                 10003c50 f   cg_cmds.obj
 0001:00002c70       _time                      10003c70 f   cg_cmds.obj
 0001:00002c90       ?CG_SC_ChannelAdd@@YAXXZ   10003c90 f   cg_cmds.obj
 0001:00002d40       ?trap_Cmd_Args@@YAPADXZ    10003d40 f   cg_cmds.obj
 0001:00002d60       ?CG_SC_ChannelRemove@@YAXXZ 10003d60 f   cg_cmds.obj
 0001:00002de0       ?trap_Cmd_Argc@@YAHXZ      10003de0 f   cg_cmds.obj
 0001:00002e00       ?CG_SC_MatchMessage@@YAXXZ 10003e00 f   cg_cmds.obj
 0001:00002e70       ?CG_CS_UpdateTeamInfo@@YAXXZ 10003e70 f   cg_cmds.obj
 0001:00002f60       ?trap_MemAlloc@@YAPAXIPBDH@Z 10003f60 f   cg_cmds.obj
 0001:00002f90       ?trap_MemFree@@YAXPAXPBDH@Z 10003f90 f   cg_cmds.obj
 0001:00002fc0       ?CG_Cmd_DemoGet_f@@YAXXZ   10003fc0 f   cg_cmds.obj
 0001:00003070       ?CG_SC_DemoGet@@YAXXZ      10004070 f   cg_cmds.obj
 0001:00003100       ?trap_DownloadRequest@@YA_NPBD_N@Z 10004100 f   cg_cmds.obj
 0001:00003140       ?CG_SC_MOTD@@YAXXZ         10004140 f   cg_cmds.obj
 0001:00003230       ?CG_SC_MenuCustom@@YAXXZ   10004230 f   cg_cmds.obj
 0001:00003450       ?CG_SC_AddAward@@YAXXZ     10004450 f   cg_cmds.obj
 0001:00003470       ?CG_SC_ExecuteText@@YAXXZ  10004470 f   cg_cmds.obj
 0001:00003550       ?trap_Cmd_TokenizeString@@YAXPBD@Z 10004550 f   cg_cmds.obj
 0001:00003620       ?CG_Cmd_UseItem_f@@YAXXZ   10004620 f   cg_cmds.obj
 0001:00003660       ?CG_Cmd_NextWeapon_f@@YAXXZ 10004660 f   cg_cmds.obj
 0001:00003700       ?CG_Cmd_PrevWeapon_f@@YAXXZ 10004700 f   cg_cmds.obj
 0001:000037a0       ?CG_Cmd_LastWeapon_f@@YAXXZ 100047a0 f   cg_cmds.obj
 0001:00003860       ?CG_Viewpos_f@@YAXXZ       10004860 f   cg_cmds.obj
 0001:00003b30       ?trap_Cmd_RemoveCommand@@YAXPBD@Z 10004b30 f   cg_cmds.obj
 0001:000040c0       ?trap_Cvar_SetValue@@YAXPBDM@Z 100050c0 f   cg_damage_indicator.obj
 0001:00004ad0       ?trap_R_GetClippedFragments@@YAHQBMMQAY02MHPAY02MHPAUfragment_s@@@Z 10005ad0 f   cg_decals.obj
 0001:00004b10       ?CG_AllocDecal@@YAPAUcdecal_s@@XZ 10005b10 f   cg_decals.obj
 0001:00004e10       ?trap_R_AddPolyToScene@@YAXPBUpoly_s@@@Z 10005e10 f   cg_decals.obj
 0001:00004e40       ?CG_FreeDecal@@YAXPAUcdecal_s@@@Z 10005e40 f   cg_decals.obj
 0001:00004eb0       ?CG_Democam_UnregisterCam@@YAXPAUcg_democam_s@@@Z 10005eb0 f   cg_democams.obj
 0001:00004f50       ?trap_MemFree@@YAXPAXPBDH@Z 10005f50 f   cg_democams.obj
 0001:00004fb0       ?CG_Democam_UnregisterSubtitle@@YAXPAUcg_subtitles_s@@@Z 10005fb0 f   cg_democams.obj
 0001:00005460       ?trap_FS_FOpenFile@@YAHPBDPAHH@Z 10006460 f   cg_democams.obj
 0001:00005490       ?trap_FS_Read@@YAHPAXIH@Z  10006490 f   cg_democams.obj
 0001:000054c0       ?trap_FS_FCloseFile@@YAXH@Z 100064c0 f   cg_democams.obj
 0001:000054f0       ?trap_MemAlloc@@YAPAXIPBDH@Z 100064f0 f   cg_democams.obj
 0001:00005520       ?CG_Democam_RegisterCam@@YAPAUcg_democam_s@@H@Z 10006520 f   cg_democams.obj
 0001:00005660       ?CG_Democam_RegisterSubtitle@@YAPAUcg_subtitles_s@@XZ 10006660 f   cg_democams.obj
 0001:00005710       ?CG_Democam_ExecutePathAnalysis@@YAXXZ 10006710 f   cg_democams.obj
 0001:00005fd0       ?CG_Democam_FindCurrent@@YAPAUcg_democam_s@@I@Z 10006fd0 f   cg_democams.obj
 0001:00006040       ?CG_Democam_FindNext@@YAPAUcg_democam_s@@I@Z 10007040 f   cg_democams.obj
 0001:000063b0       ?trap_Cvar_String@@YAPBDPBD@Z 100073b0 f   cg_democams.obj
 0001:000063e0       ?trap_FS_Print@@YAHHPBD@Z  100073e0 f   cg_democams.obj
 0001:000066d0       ?trap_SCR_DrawStringWidth@@YAIHHHPBDIPAUqfontface_s@@QAM@Z 100076d0 f   cg_democams.obj
 0001:00006710       ?trap_SCR_strHeight@@YAIPAUqfontface_s@@@Z 10007710 f   cg_democams.obj
 0001:00006740       ?trap_SCR_strWidth@@YAIPBDPAUqfontface_s@@H@Z 10007740 f   cg_democams.obj
 0001:00006c90       ?trap_SCR_DrawString@@YAXHHHPBDPAUqfontface_s@@QAM@Z 10007c90 f   cg_democams.obj
 0001:00006cd0       ?CG_Democam_FindCurrentSubtitle@@YAPAUcg_subtitles_s@@XZ 10007cd0 f   cg_democams.obj
 0001:00006d60       ?CG_DrawEntityNumbers@@YAXXZ 10007d60 f   cg_democams.obj
 0001:000070d0       ?trap_R_TransformVectorToScreen@@YAXPBUrefdef_s@@QBMQAM@Z 100080d0 f   cg_democams.obj
 0001:000072e0       ?trap_CM_InlineModelBounds@@YAXPAUcmodel_s@@QAM1@Z 100082e0 f   cg_democams.obj
 0001:00007830       ?trap_NET_GetUserCmd@@YAXHPAUusercmd_s@@@Z 10008830 f   cg_democams.obj
 0001:00007860       ?trap_NET_GetCurrentUserCmdNum@@YAHXZ 10008860 f   cg_democams.obj
 0001:00009740       ?CG_Democam_SetCameraPositionFromView@@YAXXZ 1000a740 f   cg_democams.obj
 0001:000099c0       ?trap_Cmd_Argc@@YAHXZ      1000a9c0 f   cg_democams.obj
 0001:000099e0       ?trap_Cmd_Argv@@YAPADH@Z   1000a9e0 f   cg_democams.obj
 0001:00009b90       ?trap_Cmd_RemoveCommand@@YAXPBD@Z 1000ab90 f   cg_democams.obj
 0001:00009de0       ?trap_Cmd_AddCommand@@YAXPBDP6AXXZ@Z 1000ade0 f   cg_democams.obj
 0001:00009e10       ?CG_DemoFreeFly_Cmd_f@@YAXXZ 1000ae10 f   cg_democams.obj
 0001:00009ee0       ?CG_CamSwitch_Cmd_f@@YAXXZ 1000aee0 f   cg_democams.obj
 0001:00009ef0       ?CG_DemoEditMode_Cmd_f@@YAXXZ 1000aef0 f   cg_democams.obj
 0001:0000a060       ?CG_AddSub_Cmd_f@@YAXXZ    1000b060 f   cg_democams.obj
 0001:0000a1c0       ?CG_AddPrint_Cmd_f@@YAXXZ  1000b1c0 f   cg_democams.obj
 0001:0000a320       ?CG_AddCam_Cmd_f@@YAXXZ    1000b320 f   cg_democams.obj
 0001:0000a460       ?CG_DeleteCam_Cmd_f@@YAXXZ 1000b460 f   cg_democams.obj
 0001:0000a4f0       ?CG_EditCam_Cmd_f@@YAXXZ   1000b4f0 f   cg_democams.obj
 0001:0000ae30       ?trap_R_DrawStretchPic@@YAXHHHHMMMMQBMPAUshader_s@@@Z 1000be30 f   cg_draw.obj
 0001:0000b1c0       ?trap_R_ModelBounds@@YAXPBUmodel_s@@QAM1@Z 1000c1c0 f   cg_draw.obj
 0001:0000b1f0       ?CG_DrawModel@@YAXHHHHHPAUmodel_s@@PAUshader_s@@QAM2_N@Z 1000c1f0 f   cg_draw.obj
 0001:0000b450       ?trap_R_ClearScene@@YAXXZ  1000c450 f   cg_draw.obj
 0001:0000b470       ?trap_R_RenderScene@@YAXPBUrefdef_s@@@Z 1000c470 f   cg_draw.obj
 0001:0000be80       ?trap_R_RegisterPic@@YAPAUshader_s@@PBD@Z 1000ce80 f   cg_draw.obj
 0001:0000beb0       ?trap_SCR_DrawString@@YAXHHHPBDPAUqfontface_s@@QAM@Z 1000ceb0 f   cg_draw.obj
 0001:0000c550       ?trap_R_AddLightStyleToScene@@YAXHMMM@Z 1000d550 f   cg_effects.obj
 0001:0000c5d0       ?CG_AllocDlight@@YAXQAMMMMM@Z 1000d5d0 f   cg_effects.obj
 0001:0000c710       ?trap_R_AddLightToScene@@YAXQBMMMMM@Z 1000d710 f   cg_effects.obj
 0001:0000cba0       ?trap_R_LightForOrigin@@YAXQBMQAM11M@Z 1000dba0 f   cg_effects.obj
 0001:0000cbe0       ?CG_AddBlobShadow@@YAXQAM0MMMMMMPAUcgshadebox_t@@@Z 1000dbe0 f   cg_effects.obj
 0001:0000d250       ?trap_R_GetClippedFragments@@YAHQBMMQAY02MHPAY02MHPAUfragment_s@@@Z 1000e250 f   cg_effects.obj
 0001:0000d290       ?trap_R_AddPolyToScene@@YAXPBUpoly_s@@@Z 1000e290 f   cg_effects.obj
 0001:0000eb10       ?CG_FlyParticles@@YAXQAMH@Z 1000fb10 f   cg_effects.obj
 0001:0000f650       ?CG_ClearLightStyles@@YAXXZ 10010650 f   cg_effects.obj
 0001:0000f670       ?CG_ClearDlights@@YAXXZ    10010670 f   cg_effects.obj
 0001:0000f6a0       ?CG_ClearShadeBoxes@@YAXXZ 100106a0 f   cg_effects.obj
 0001:0000f6d0       ?CG_ClearParticles@@YAXXZ  100106d0 f   cg_effects.obj
 0001:0000fc80       ?trap_Cvar_ForceSet@@YAPAUcvar_s@@PBDPAD@Z 10010c80 f   cg_ents.obj
 0001:0000fcb0       ?trap_Cvar_String@@YAPBDPBD@Z 10010cb0 f   cg_ents.obj
 0001:0000fce0       ?trap_Cmd_ExecuteText@@YAXHPBD@Z 10010ce0 f   cg_ents.obj
 0001:0000fd10       ?CG_FixVolumeCvars@@YAXXZ  10010d10 f   cg_ents.obj
 0001:0000fef0       ?trap_Cvar_SetValue@@YAXPBDM@Z 10010ef0 f   cg_ents.obj
 0001:0000ff20       ?CG_NewPacketEntityState@@YAXPAUentity_state_s@@@Z 10010f20 f   cg_ents.obj
 0001:00010660       ?trap_CM_NumInlineModels@@YAHXZ 10011660 f   cg_ents.obj
 0001:00010680       ?CG_UpdateLinearProjectilePosition@@YA_NPAUcentity_t@@@Z 10011680 f   cg_ents.obj
 0001:00010940       ?CG_UpdatePlayerState@@YAXXZ 10011940 f   cg_ents.obj
 0001:00010b30       ?CG_SetFramePlayerState@@YAXPAUsnapshot_s@@H@Z 10011b30 f   cg_ents.obj
 0001:00010e40       ?trap_CM_InlineModel@@YAPAUcmodel_s@@H@Z 10011e40 f   cg_ents.obj
 0001:00010e70       ?trap_CM_ModelForBBox@@YAPAUcmodel_s@@QAM0@Z 10011e70 f   cg_ents.obj
 0001:00010ea0       ?trap_CM_OctagonModelForBBox@@YAPAUcmodel_s@@QAM0@Z 10011ea0 f   cg_ents.obj
 0001:00011060       ?trap_CM_InlineModelBounds@@YAXPAUcmodel_s@@QAM1@Z 10012060 f   cg_ents.obj
 0001:000120e0       ?trap_R_RegisterModel@@YAPAUmodel_s@@PBD@Z 100130e0 f   cg_ents.obj
 0001:00012410       ?trap_S_StartFixedSound@@YAXPAUsfx_s@@QBMHMM@Z 10013410 f   cg_ents.obj
 0001:00012450       ?trap_S_StartRelativeSound@@YAXPAUsfx_s@@HHMM@Z 10013450 f   cg_ents.obj
 0001:00012490       ?trap_S_StartGlobalSound@@YAXPAUsfx_s@@HM@Z 10013490 f   cg_ents.obj
 0001:00012560       ?trap_S_AddLoopSound@@YAXPAUsfx_s@@HMM@Z 10013560 f   cg_ents.obj
 0001:00012cd0       ?CG_EntAddTeamColorTransitionEffect@@YAXPAUcentity_t@@@Z 10013cd0 f   cg_ents.obj
 0001:00012f90       ?CG_AddGenericEnt@@YAXPAUcentity_t@@@Z 10013f90 f   cg_ents.obj
 0001:00013540       ?CG_EntAddBobEffect@@YAXPAUcentity_t@@@Z 10014540 f   cg_ents.obj
 0001:00013610       ?CG_AddLinkedModel@@YAXPAUcentity_t@@@Z 10014610 f   cg_ents.obj
 0001:000138d0       ?trap_R_RegisterPic@@YAPAUshader_s@@PBD@Z 100148d0 f   cg_ents.obj
 0001:00013900       ?CG_AddFlagBaseEnt@@YAXPAUcentity_t@@@Z 10014900 f   cg_ents.obj
 0001:00013bc0       ?CG_AddPlayerEnt@@YAXPAUcentity_t@@@Z 10014bc0 f   cg_ents.obj
 0001:00013d00       ?CG_AddSpriteEnt@@YAXPAUcentity_t@@@Z 10014d00 f   cg_ents.obj
 0001:00013da0       ?CG_AddDecalEnt@@YAXPAUcentity_t@@@Z 10014da0 f   cg_ents.obj
 0001:00013ec0       ?CG_AddItemEnt@@YAXPAUcentity_t@@@Z 10014ec0 f   cg_ents.obj
 0001:000140a0       ?CG_AddBeamEnt@@YAXPAUcentity_t@@@Z 100150a0 f   cg_ents.obj
 0001:000140f0       ?CG_AddPortalSurfaceEnt@@YAXPAUcentity_t@@@Z 100150f0 f   cg_ents.obj
 0001:00014260       ?CG_AddParticlesEnt@@YAXPAUcentity_t@@@Z 10015260 f   cg_ents.obj
 0001:00014aa0       ?CG_LerpSpriteEnt@@YAXPAUcentity_t@@@Z 10015aa0 f   cg_ents.obj
 0001:00014b70       ?CG_LerpDecalEnt@@YAXPAUcentity_t@@@Z 10015b70 f   cg_ents.obj
 0001:00014ca0       ?CG_LerpLaserbeamEnt@@YAXPAUcentity_t@@@Z 10015ca0 f   cg_ents.obj
 0001:00014d20       ?CG_UpdateEntities@@YAXXZ  10015d20 f   cg_ents.obj
 0001:00015090       ?CG_UpdateGenericEnt@@YAXPAUcentity_t@@@Z 10016090 f   cg_ents.obj
 0001:00015180       ?CG_UpdateFlagBaseEnt@@YAXPAUcentity_t@@@Z 10016180 f   cg_ents.obj
 0001:00015280       ?CG_UpdateSpriteEnt@@YAXPAUcentity_t@@@Z 10016280 f   cg_ents.obj
 0001:000153d0       ?CG_UpdateDecalEnt@@YAXPAUcentity_t@@@Z 100163d0 f   cg_ents.obj
 0001:000154e0       ?CG_UpdateItemEnt@@YAXPAUcentity_t@@@Z 100164e0 f   cg_ents.obj
 0001:00015740       ?CG_UpdateItemTimerEnt@@YAXPAUcentity_t@@@Z 10016740 f   cg_ents.obj
 0001:000157c0       ?CG_SortItemTimers@@YAXXZ  100167c0 f   cg_ents.obj
 0001:000157f0       ?CG_CompareItemTimers@@YAHPAPBUcentity_t@@0@Z 100167f0 f   cg_ents.obj
 0001:00015950       ?CG_UpdateLaserbeamEnt@@YAXPAUcentity_t@@@Z 10016950 f   cg_ents.obj
 0001:00015ad0       ?CG_UpdatePortalSurfaceEnt@@YAXPAUcentity_t@@@Z 10016ad0 f   cg_ents.obj
 0001:00016a10       ?trap_S_AddLoopSound@@YAXPAUsfx_s@@HMM@Z 10017a10 f   cg_events.obj
 0001:00016a50       ?_LaserImpact@@YAXPAUtrace_t@@QAM@Z 10017a50 f   cg_events.obj
 0001:00016f20       ?trap_S_StartGlobalSound@@YAXPAUsfx_s@@HM@Z 10017f20 f   cg_events.obj
 0001:000174d0       ?trap_S_StartRelativeSound@@YAXPAUsfx_s@@HHMM@Z 100184d0 f   cg_events.obj
 0001:000191d0       ?trap_S_StartFixedSound@@YAXPAUsfx_s@@QBMHMM@Z 1001a1d0 f   cg_events.obj
 0001:00019210       ?CG_TouchJumpPad@@YAXH@Z   1001a210 f   cg_events.obj
 0001:00019270       ?CG_Event_WeaponBeam@@YAXQAM0HHH@Z 1001a270 f   cg_events.obj
 0001:00019460       ?CG_FireWeaponEvent@@YAXHHH@Z 1001a460 f   cg_events.obj
 0001:00019820       ?CG_Event_FireMachinegun@@YAXQAM0HHHH@Z 1001a820 f   cg_events.obj
 0001:00019aa0       ?CG_LeadWaterSplash@@YAXPAUtrace_t@@@Z 1001aaa0 f   cg_events.obj
 0001:00019b80       ?CG_LeadBubbleTrail@@YAXPAUtrace_t@@QAM@Z 1001ab80 f   cg_events.obj
 0001:00019d40       ?CG_BulletImpact@@YAXPAUtrace_t@@@Z 1001ad40 f   cg_events.obj
 0001:00019e40       ?CG_Event_FireRiotgun@@YAXQAM0HHHH@Z 1001ae40 f   cg_events.obj
 0001:0001a030       ?CG_Fire_SpiralPattern@@YAXQAM0PAHHHHHP6AXPAUtrace_t@@@Z@Z 1001b030 f   cg_events.obj
 0001:0001a1e0       ?CG_StartVoiceTokenEffect@@YAXHHH@Z 1001b1e0 f   cg_events.obj
 0001:0001a2d0       ?CG_FireEntityEvents@@YAX_N@Z 1001b2d0 f   cg_events.obj
 0001:0001a3c0       ?CG_FirePlayerStateEvents@@YAXXZ 1001b3c0 f   cg_events.obj
 0001:0001a810       ?CG_GetStatEnemyTeam@@YAHPBX@Z 1001b810 f   cg_hud.obj
 0001:0001a850       ?CG_GetStatValue@@YAHPBX@Z 1001b850 f   cg_hud.obj
 0001:0001a890       ?CG_GetRaceStatValue@@YAHPBX@Z 1001b890 f   cg_hud.obj
 0001:0001a8b0       ?CG_GetPOVnum@@YAHPBX@Z    1001b8b0 f   cg_hud.obj
 0001:0001a8f0       ?CG_GetArmorItem@@YAHPBX@Z 1001b8f0 f   cg_hud.obj
 0001:0001a930       ?CG_GetSpeed@@YAHPBX@Z     1001b930 f   cg_hud.obj
 0001:0001a950       ?_getspeed@@YAMXZ          1001b950 f   cg_hud.obj
 0001:0001aa00       ?CG_GetSpeedVertical@@YAHPBX@Z 1001ba00 f   cg_hud.obj
 0001:0001aa20       ?CG_GetFPS@@YAHPBX@Z       1001ba20 f   cg_hud.obj
 0001:0001ab50       ?CG_GetPowerupTime@@YAHPBX@Z 1001bb50 f   cg_hud.obj
 0001:0001ab70       ?CG_GetMatchState@@YAHPBX@Z 1001bb70 f   cg_hud.obj
 0001:0001ab90       ?CG_GetMatchTime@@YAHPBX@Z 1001bb90 f   cg_hud.obj
 0001:0001abe0       ?CG_GetMatchDuration@@YAHPBX@Z 1001bbe0 f   cg_hud.obj
 0001:0001abf0       ?CG_GetOvertime@@YAHPBX@Z  1001bbf0 f   cg_hud.obj
 0001:0001ac10       ?CG_GetInstagib@@YAHPBX@Z  1001bc10 f   cg_hud.obj
 0001:0001ac30       ?CG_GetTeamBased@@YAHPBX@Z 1001bc30 f   cg_hud.obj
 0001:0001ac50       ?CG_InvidualGameType@@YAHPBX@Z 1001bc50 f   cg_hud.obj
 0001:0001ac70       ?CG_RaceGameType@@YAHPBX@Z 1001bc70 f   cg_hud.obj
 0001:0001ac90       ?CG_Paused@@YAHPBX@Z       1001bc90 f   cg_hud.obj
 0001:0001acb0       ?CG_GetZoom@@YAHPBX@Z      1001bcb0 f   cg_hud.obj
 0001:0001acf0       ?CG_GetVidWidth@@YAHPBX@Z  1001bcf0 f   cg_hud.obj
 0001:0001ad00       ?CG_GetVidHeight@@YAHPBX@Z 1001bd00 f   cg_hud.obj
 0001:0001ad10       ?CG_GetStunned@@YAHPBX@Z   1001bd10 f   cg_hud.obj
 0001:0001ad20       ?CG_GetCvar@@YAHPBX@Z      1001bd20 f   cg_hud.obj
 0001:0001ad40       ?trap_Cvar_Value@@YAMPBD@Z 1001bd40 f   cg_hud.obj
 0001:0001ad70       ?CG_GetDamageIndicatorDirValue@@YAHPBX@Z 1001bd70 f   cg_hud.obj
 0001:0001ae60       ?CG_GetCurrentWeaponInventoryData@@YAHPBX@Z 1001be60 f   cg_hud.obj
 0001:0001af00       ?CG_DownloadInProgress@@YAHPBX@Z 1001bf00 f   cg_hud.obj
 0001:0001af40       ?trap_Cvar_String@@YAPBDPBD@Z 1001bf40 f   cg_hud.obj
 0001:0001af70       ?CG_GetShowItemTimers@@YAHPBX@Z 1001bf70 f   cg_hud.obj
 0001:0001afc0       ?CG_GetItemTimer@@YAHPBX@Z 1001bfc0 f   cg_hud.obj
 0001:0001b010       ?CG_GetItemTimerCount@@YAHPBX@Z 1001c010 f   cg_hud.obj
 0001:0001b060       ?CG_GetItemTimerLocation@@YAHPBX@Z 1001c060 f   cg_hud.obj
 0001:0001b0b0       ?CG_GetItemTimerTeam@@YAHPBX@Z 1001c0b0 f   cg_hud.obj
 0001:0001b120       ?CG_GetRaceVars@@YAHPBX@Z  1001c120 f   cg_hud.obj
 0001:0001b5e0       ?CG_GetAccel@@YAHPBX@Z     1001c5e0 f   cg_hud.obj
 0001:0001b7c0       ?trap_Print@@YAXPBD@Z      1001c7c0 f   cg_hud.obj
 0001:0001bca0       ?trap_Cmd_Argv@@YAPADH@Z   1001cca0 f   cg_hud.obj
 0001:0001bcd0       ?CG_OpFuncAdd@@YAMMM@Z     1001ccd0 f   cg_hud.obj
 0001:0001bcf0       ?CG_OpFuncSubtract@@YAMMM@Z 1001ccf0 f   cg_hud.obj
 0001:0001bd10       ?CG_OpFuncMultiply@@YAMMM@Z 1001cd10 f   cg_hud.obj
 0001:0001bd30       ?CG_OpFuncDivide@@YAMMM@Z  1001cd30 f   cg_hud.obj
 0001:0001bd50       ?CG_OpFuncAND@@YAMMM@Z     1001cd50 f   cg_hud.obj
 0001:0001bd90       ?CG_OpFuncOR@@YAMMM@Z      1001cd90 f   cg_hud.obj
 0001:0001bdd0       ?CG_OpFuncXOR@@YAMMM@Z     1001cdd0 f   cg_hud.obj
 0001:0001be10       ?CG_OpFuncCompareEqual@@YAMMM@Z 1001ce10 f   cg_hud.obj
 0001:0001be50       ?CG_OpFuncCompareNotEqual@@YAMMM@Z 1001ce50 f   cg_hud.obj
 0001:0001be90       ?CG_OpFuncCompareGreater@@YAMMM@Z 1001ce90 f   cg_hud.obj
 0001:0001bed0       ?CG_OpFuncCompareGreaterOrEqual@@YAMMM@Z 1001ced0 f   cg_hud.obj
 0001:0001bf10       ?CG_OpFuncCompareSmaller@@YAMMM@Z 1001cf10 f   cg_hud.obj
 0001:0001bf50       ?CG_OpFuncCompareSmallerOrEqual@@YAMMM@Z 1001cf50 f   cg_hud.obj
 0001:0001bf90       ?CG_OpFuncCompareAnd@@YAMMM@Z 1001cf90 f   cg_hud.obj
 0001:0001bfd0       ?CG_OpFuncCompareOr@@YAMMM@Z 1001cfd0 f   cg_hud.obj
 0001:0001c010       ?CG_LFuncDrawTimer@@YAHPAUcg_layoutnode_s@@0H@Z 1001d010 f   cg_hud.obj
 0001:0001c130       ?trap_SCR_DrawString@@YAXHHHPBDPAUqfontface_s@@QAM@Z 1001d130 f   cg_hud.obj
 0001:0001c170       ?CG_LFuncDrawPicVar@@YAHPAUcg_layoutnode_s@@0H@Z 1001d170 f   cg_hud.obj
 0001:0001c460       ?trap_R_RegisterPic@@YAPAUshader_s@@PBD@Z 1001d460 f   cg_hud.obj
 0001:0001c490       ?trap_R_DrawStretchPic@@YAXHHHHMMMMQBMPAUshader_s@@@Z 1001d490 f   cg_hud.obj
 0001:0001c4f0       ?CG_LFuncDrawPicByIndex@@YAHPAUcg_layoutnode_s@@0H@Z 1001d4f0 f   cg_hud.obj
 0001:0001c600       ?CG_LFuncDrawPicByItemIndex@@YAHPAUcg_layoutnode_s@@0H@Z 1001d600 f   cg_hud.obj
 0001:0001c6f0       ?CG_LFuncDrawPicByName@@YAHPAUcg_layoutnode_s@@0H@Z 1001d6f0 f   cg_hud.obj
 0001:0001c7b0       ?CG_LFuncDrawModelByIndex@@YAHPAUcg_layoutnode_s@@0H@Z 1001d7b0 f   cg_hud.obj
 0001:0001c870       ?CG_LFuncDrawModelByName@@YAHPAUcg_layoutnode_s@@0H@Z 1001d870 f   cg_hud.obj
 0001:0001c930       ?CG_LFuncDrawModelByItemIndex@@YAHPAUcg_layoutnode_s@@0H@Z 1001d930 f   cg_hud.obj
 0001:0001ca20       ?CG_LFuncScale@@YAHPAUcg_layoutnode_s@@0H@Z 1001da20 f   cg_hud.obj
 0001:0001ca50       ?CG_LFuncCursor@@YAHPAUcg_layoutnode_s@@0H@Z 1001da50 f   cg_hud.obj
 0001:0001cbb0       ?CG_LFuncMoveCursor@@YAHPAUcg_layoutnode_s@@0H@Z 1001dbb0 f   cg_hud.obj
 0001:0001cd20       ?CG_LFuncSize@@YAHPAUcg_layoutnode_s@@0H@Z 1001dd20 f   cg_hud.obj
 0001:0001ce80       ?CG_LFuncColor@@YAHPAUcg_layoutnode_s@@0H@Z 1001de80 f   cg_hud.obj
 0001:0001cf70       ?CG_LFuncColorToTeamColor@@YAHPAUcg_layoutnode_s@@0H@Z 1001df70 f   cg_hud.obj
 0001:0001cfa0       ?CG_LFuncColorAlpha@@YAHPAUcg_layoutnode_s@@0H@Z 1001dfa0 f   cg_hud.obj
 0001:0001cfd0       ?CG_LFuncRotationSpeed@@YAHPAUcg_layoutnode_s@@0H@Z 1001dfd0 f   cg_hud.obj
 0001:0001d0c0       ?CG_LFuncAlign@@YAHPAUcg_layoutnode_s@@0H@Z 1001e0c0 f   cg_hud.obj
 0001:0001d140       ?CG_LFuncFontFamily@@YAHPAUcg_layoutnode_s@@0H@Z 1001e140 f   cg_hud.obj
 0001:0001d1f0       ?trap_SCR_RegisterFont@@YAPAUqfontface_s@@PBDW4qfontstyle_t@@I@Z 1001e1f0 f   cg_hud.obj
 0001:0001d220       ?CG_LFuncFontSize@@YAHPAUcg_layoutnode_s@@0H@Z 1001e220 f   cg_hud.obj
 0001:0001d300       ?CG_LFuncFontStyle@@YAHPAUcg_layoutnode_s@@0H@Z 1001e300 f   cg_hud.obj
 0001:0001d400       ?CG_LFuncDrawObituaries@@YAHPAUcg_layoutnode_s@@0H@Z 1001e400 f   cg_hud.obj
 0001:0001d490       ?CG_DrawObituaries@@YAXHHHPAUqfontface_s@@QAMHHHI@Z 1001e490 f   cg_hud.obj
 0001:0001dbf0       ?trap_SCR_DrawStringWidth@@YAIHHHPBDIPAUqfontface_s@@QAM@Z 1001ebf0 f   cg_hud.obj
 0001:0001dc30       ?trap_SCR_strHeight@@YAIPAUqfontface_s@@@Z 1001ec30 f   cg_hud.obj
 0001:0001dc60       ?trap_SCR_strWidth@@YAIPBDPAUqfontface_s@@H@Z 1001ec60 f   cg_hud.obj
 0001:0001dc90       ?CG_LFuncDrawAwards@@YAHPAUcg_layoutnode_s@@0H@Z 1001ec90 f   cg_hud.obj
 0001:0001dcd0       ?CG_DrawAwards@@YAXHHHPAUqfontface_s@@QAM@Z 1001ecd0 f   cg_hud.obj
 0001:0001df60       ?CG_LFuncDrawClock@@YAHPAUcg_layoutnode_s@@0H@Z 1001ef60 f   cg_hud.obj
 0001:0001dfa0       ?CG_LFuncDrawHelpMessage@@YAHPAUcg_layoutnode_s@@0H@Z 1001efa0 f   cg_hud.obj
 0001:0001e150       ?CG_LFuncDrawTeamMates@@YAHPAUcg_layoutnode_s@@0H@Z 1001f150 f   cg_hud.obj
 0001:0001e170       ?CG_LFuncDrawPointed@@YAHPAUcg_layoutnode_s@@0H@Z 1001f170 f   cg_hud.obj
 0001:0001e1a0       ?CG_LFuncDrawString@@YAHPAUcg_layoutnode_s@@0H@Z 1001f1a0 f   cg_hud.obj
 0001:0001e210       ?CG_LFuncDrawItemNameFromIndex@@YAHPAUcg_layoutnode_s@@0H@Z 1001f210 f   cg_hud.obj
 0001:0001e2a0       ?CG_LFuncDrawConfigstring@@YAHPAUcg_layoutnode_s@@0H@Z 1001f2a0 f   cg_hud.obj
 0001:0001e330       ?CG_LFuncDrawPlayername@@YAHPAUcg_layoutnode_s@@0H@Z 1001f330 f   cg_hud.obj
 0001:0001e3e0       ?CG_LFuncDrawNumeric@@YAHPAUcg_layoutnode_s@@0H@Z 1001f3e0 f   cg_hud.obj
 0001:0001e450       ?CG_LFuncDrawStretchNum@@YAHPAUcg_layoutnode_s@@0H@Z 1001f450 f   cg_hud.obj
 0001:0001e530       ?CG_LFuncDrawNumeric2@@YAHPAUcg_layoutnode_s@@0H@Z 1001f530 f   cg_hud.obj
 0001:0001e5a0       ?CG_LFuncDrawBar@@YAHPAUcg_layoutnode_s@@0H@Z 1001f5a0 f   cg_hud.obj
 0001:0001e630       ?CG_LFuncDrawPicBar@@YAHPAUcg_layoutnode_s@@0H@Z 1001f630 f   cg_hud.obj
 0001:0001e6d0       ?CG_LFuncCustomWeaponIcons@@YAHPAUcg_layoutnode_s@@0H@Z 1001f6d0 f   cg_hud.obj
 0001:0001e770       ?CG_LFuncCustomWeaponSelect@@YAHPAUcg_layoutnode_s@@0H@Z 1001f770 f   cg_hud.obj
 0001:0001e7a0       ?CG_LFuncDrawWeaponIcons@@YAHPAUcg_layoutnode_s@@0H@Z 1001f7a0 f   cg_hud.obj
 0001:0001e880       ?CG_DrawWeaponIcons@@YAXHHHHHHH@Z 1001f880 f   cg_hud.obj
 0001:0001ec90       ?CG_IsWeaponSelected@@YA_NH@Z 1001fc90 f   cg_hud.obj
 0001:0001ece0       ?CG_LFuncDrawCaptureAreas@@YAHPAUcg_layoutnode_s@@0H@Z 1001fce0 f   cg_hud.obj
 0001:0001ecf0       ?CG_LFuncDrawMiniMap@@YAHPAUcg_layoutnode_s@@0H@Z 1001fcf0 f   cg_hud.obj
 0001:0001ed80       ?CG_LFuncDrawLocationName@@YAHPAUcg_layoutnode_s@@0H@Z 1001fd80 f   cg_hud.obj
 0001:0001ee60       ?trap_GetConfigString@@YAXHPADH@Z 1001fe60 f   cg_hud.obj
 0001:0001ee90       ?CG_LFuncDrawWeaponWeakAmmo@@YAHPAUcg_layoutnode_s@@0H@Z 1001fe90 f   cg_hud.obj
 0001:0001ef40       ?CG_DrawWeaponAmmos@@YAXHHHHHHH@Z 1001ff40 f   cg_hud.obj
 0001:0001f170       ?CG_LFuncDrawWeaponStrongAmmo@@YAHPAUcg_layoutnode_s@@0H@Z 10020170 f   cg_hud.obj
 0001:0001f220       ?CG_LFuncDrawTeamInfo@@YAHPAUcg_layoutnode_s@@0H@Z 10020220 f   cg_hud.obj
 0001:0001f260       ?CG_LFuncDrawCrossHair@@YAHPAUcg_layoutnode_s@@0H@Z 10020260 f   cg_hud.obj
 0001:0001f290       ?CG_LFuncDrawKeyState@@YAHPAUcg_layoutnode_s@@0H@Z 10020290 f   cg_hud.obj
 0001:0001f2f0       ?CG_LFuncDrawNet@@YAHPAUcg_layoutnode_s@@0H@Z 100202f0 f   cg_hud.obj
 0001:0001f330       ?CG_LFuncDrawChat@@YAHPAUcg_layoutnode_s@@0H@Z 10020330 f   cg_hud.obj
 0001:0001f400       ?CG_LFuncIf@@YAHPAUcg_layoutnode_s@@0H@Z 10020400 f   cg_hud.obj
 0001:0001f690       ?CG_GetStringArg@@YAPADPAPAUcg_layoutnode_s@@@Z 10020690 f   cg_hud.obj
 0001:0001f6e0       ?CG_GetNumericArg@@YAMPAPAUcg_layoutnode_s@@@Z 100206e0 f   cg_hud.obj
 0001:0001f810       ?CG_RecurseExecuteLayoutThread@@YAXPAUcg_layoutnode_s@@@Z 10020810 f   cg_hud.obj
 0001:0001fb60       ?trap_MemAlloc@@YAPAXIPBDH@Z 10020b60 f   cg_hud.obj
 0001:0001fb90       ?trap_MemFree@@YAXPAXPBDH@Z 10020b90 f   cg_hud.obj
 0001:0001fbc0       ?CG_LoadStatusBarFile@@YAXPAD@Z 10020bc0 f   cg_hud.obj
 0001:0001fcf0       ?CG_ParseLayoutScript@@YAXPADPAUcg_layoutnode_s@@@Z 10020cf0 f   cg_hud.obj
 0001:0001fd20       ?CG_RecurseFreeLayoutThread@@YAXPAUcg_layoutnode_s@@@Z 10020d20 f   cg_hud.obj
 0001:0001fdb0       ?CG_RecurseParseLayoutScript@@YAPAUcg_layoutnode_s@@PAPADH@Z 10020db0 f   cg_hud.obj
 0001:00020260       ?CG_OperatorFuncForArgument@@YAP6AMMM@ZPBD@Z 10021260 f   cg_hud.obj
 0001:000202d0       ?CG_LayoutParseCommandNode@@YAPAUcg_layoutnode_s@@PBD@Z 100212d0 f   cg_hud.obj
 0001:000203e0       ?CG_LayoutParseArgumentNode@@YAPAUcg_layoutnode_s@@PAD@Z 100213e0 f   cg_hud.obj
 0001:00020710       ?CG_LayoutCathegorizeToken@@YAHPAD@Z 10021710 f   cg_hud.obj
 0001:000207d0       ?CG_LayoutFixCommasInToken@@YA_NPAPAD0@Z 100217d0 f   cg_hud.obj
 0001:00020920       ?CG_LoadHUDFile@@YAPADPAD@Z 10021920 f   cg_hud.obj
 0001:00021360       ?trap_FS_FOpenFile@@YAHPBDPAHH@Z 10022360 f   cg_hud.obj
 0001:00021390       ?trap_FS_Read@@YAHPAXIH@Z  10022390 f   cg_hud.obj
 0001:000213c0       ?trap_FS_FCloseFile@@YAXH@Z 100223c0 f   cg_hud.obj
 0001:000216d0       ?CG_AllocSprite@@YAPAUlentity_s@@W4letype_t@@QAMMHMMMMMMMMPAUshader_s@@@Z 100226d0 f   cg_lents.obj
 0001:000217d0       ?CG_AllocLocalEntity@@YAPAUlentity_s@@W4letype_t@@MMMM@Z 100227d0 f   cg_lents.obj
 0001:000223f0       ?CG_AllocModel@@YAPAUlentity_s@@W4letype_t@@QBM1HMMMMMMMMPAUmodel_s@@PAUshader_s@@@Z 100233f0 f   cg_lents.obj
 0001:00023260       ?trap_S_StartFixedSound@@YAXPAUsfx_s@@QBMHMM@Z 10024260 f   cg_lents.obj
 0001:00023ff0       ?CG_RocketFireTrail@@YAXPAUcentity_t@@@Z 10024ff0 f   cg_lents.obj
 0001:00025eb0       ?CG_AllocLaser@@YAPAUlentity_s@@QAM0MHMMMMPAUshader_s@@@Z 10026eb0 f   cg_lents.obj
 0001:00028b90       ?CG_FreeLocalEntity@@YAXPAUlentity_s@@@Z 10029b90 f   cg_lents.obj
 0001:00028c90       ?trap_Error@@YAXPBD@Z      10029c90 f   cg_main.obj
 0001:00028d70       ?trap_Print@@YAXPBD@Z      10029d70 f   cg_main.obj
 0001:00028e80       ?trap_PrintToLog@@YAXPBD@Z 10029e80 f   cg_main.obj
 0001:00028f00       ?trap_MemAlloc@@YAPAXIPBDH@Z 10029f00 f   cg_main.obj
 0001:000292a0       ?trap_S_StartBackgroundTrack@@YAXPBD0@Z 1002a2a0 f   cg_main.obj
 0001:00029530       ?trap_R_RegisterPic@@YAPAUshader_s@@PBD@Z 1002a530 f   cg_main.obj
 0001:00029560       ?CG_InitGameShared@@YAXXZ  1002a560 f   cg_main.obj
 0001:000296a0       ?trap_GetConfigString@@YAXHPADH@Z 1002a6a0 f   cg_main.obj
 0001:000296d0       ?CG_GS_Malloc@@YAPAXI@Z    1002a6d0 f   cg_main.obj
 0001:00029700       ?CG_GS_Free@@YAXPAX@Z      1002a700 f   cg_main.obj
 0001:00029730       ?trap_MemFree@@YAXPAXPBDH@Z 1002a730 f   cg_main.obj
 0001:00029760       ?CG_GS_Trace@@YAXPAUtrace_t@@QAM111HHH@Z 1002a760 f   cg_main.obj
 0001:000297b0       ?CG_GS_PointContents@@YAHQAMH@Z 1002a7b0 f   cg_main.obj
 0001:000297f0       ?CG_GS_RoundUpToHullSize@@YAXQAM0@Z 1002a7f0 f   cg_main.obj
 0001:00029810       ?trap_CM_RoundUpToHullSize@@YAXQAM0PAUcmodel_s@@@Z 1002a810 f   cg_main.obj
 0001:00029840       ?CG_GS_GetEntityState@@YAPAUentity_state_s@@HH@Z 1002a840 f   cg_main.obj
 0001:000298c0       ?CG_GS_GetConfigString@@YAPBDH@Z 1002a8c0 f   cg_main.obj
 0001:000298f0       ?CG_RegisterModels@@YAXXZ  1002a8f0 f   cg_main.obj
 0001:00029ae0       ?trap_R_RegisterWorldModel@@YAXPBD@Z 1002aae0 f   cg_main.obj
 0001:00029b10       ?CG_RegisterWeaponModels@@YAXXZ 1002ab10 f   cg_main.obj
 0001:00029b90       ?CG_RegisterSounds@@YAXXZ  1002ab90 f   cg_main.obj
 0001:00029c30       ?trap_S_RegisterSound@@YAPAUsfx_s@@PBD@Z 1002ac30 f   cg_main.obj
 0001:00029c60       ?CG_RegisterShaders@@YAXXZ 1002ac60 f   cg_main.obj
 0001:00029d00       ?CG_RegisterSkinFiles@@YAXXZ 1002ad00 f   cg_main.obj
 0001:00029d90       ?trap_R_RegisterSkinFile@@YAPAUskinfile_s@@PBD@Z 1002ad90 f   cg_main.obj
 0001:00029dc0       ?CG_RegisterClients@@YAXXZ 1002adc0 f   cg_main.obj
 0001:00029e60       ?CG_RegisterLightStyles@@YAXXZ 1002ae60 f   cg_main.obj
 0001:00029ef0       ?CG_RegisterVariables@@YAXXZ 1002aef0 f   cg_main.obj
 0001:0002a9c0       ?trap_Cvar_Get@@YAPAUcvar_s@@PBD0H@Z 1002b9c0 f   cg_main.obj
 0001:0002a9f0       ?CG_ValidateItemList@@YAXXZ 1002b9f0 f   cg_main.obj
 0001:0002aad0       ?CG_RegisterConfigStrings@@YAXXZ 1002bad0 f   cg_main.obj
 0001:0002abf0       ?trap_Cmd_ExecuteText@@YAXHPBD@Z 1002bbf0 f   cg_main.obj
 0001:0002add0       ?trap_S_RegisterSound@@YAPAUsfx_s@@PBD@Z 1002bdd0 f   cg_media.obj
 0001:0002b4b0       ?CG_RegisterMediaSfx@@YAPAUcgs_media_handle_s@@PBD_N@Z 1002c4b0 f   cg_media.obj
 0001:0002b560       ?trap_MemAlloc@@YAPAXIPBDH@Z 1002c560 f   cg_media.obj
 0001:0002b5e0       ?trap_R_RegisterModel@@YAPAUmodel_s@@PBD@Z 1002c5e0 f   cg_media.obj
 0001:0002b610       ?trap_R_SkeletalGetNumBones@@YAHPBUmodel_s@@PAH@Z 1002c610 f   cg_media.obj
 0001:0002b7f0       ?CG_RegisterMediaModel@@YAPAUcgs_media_handle_s@@PAD_N@Z 1002c7f0 f   cg_media.obj
 0001:0002b8e0       ?trap_R_RegisterPic@@YAPAUshader_s@@PBD@Z 1002c8e0 f   cg_media.obj
 0001:0002c270       ?CG_RegisterMediaShader@@YAPAUcgs_media_handle_s@@PAD_N@Z 1002d270 f   cg_media.obj
 0001:0002c420       ?trap_FS_FOpenFile@@YAHPBDPAHH@Z 1002d420 f   cg_media.obj
 0001:0002c670       ?trap_Cvar_Get@@YAPAUcvar_s@@PBD0H@Z 1002d670 f   cg_media.obj
 0001:0002c6a0       ?trap_Cvar_Set@@YAPAUcvar_s@@PBD0@Z 1002d6a0 f   cg_media.obj
 0001:0002c6d0       ?trap_SCR_RegisterFont@@YAPAUqfontface_s@@PBDW4qfontstyle_t@@I@Z 1002d6d0 f   cg_media.obj
 0001:0002c810       ?trap_MemFree@@YAXPAXPBDH@Z 1002d810 f   cg_players.obj
 0001:0002c840       ?CG_RegisterPmodelSexedSound@@YAPAUsfx_s@@PAUpmodelinfo_s@@PAD@Z 1002d840 f   cg_players.obj
 0001:0002cb30       ?trap_FS_FOpenFile@@YAHPBDPAHH@Z 1002db30 f   cg_players.obj
 0001:0002cb60       ?trap_FS_FirstExtension@@YAPBDPBDQAPBDH@Z 1002db60 f   cg_players.obj
 0001:0002cb90       ?trap_S_RegisterSound@@YAPAUsfx_s@@PBD@Z 1002db90 f   cg_players.obj
 0001:0002cbc0       ?trap_MemAlloc@@YAPAXIPBDH@Z 1002dbc0 f   cg_players.obj
 0001:0002cd20       ?trap_S_StartFixedSound@@YAXPAUsfx_s@@QBMHMM@Z 1002dd20 f   cg_players.obj
 0001:0002cd60       ?trap_S_StartRelativeSound@@YAXPAUsfx_s@@HHMM@Z 1002dd60 f   cg_players.obj
 0001:0002cda0       ?trap_S_StartGlobalSound@@YAXPAUsfx_s@@HM@Z 1002dda0 f   cg_players.obj
 0001:0002d180       ?trap_MemAlloc@@YAPAXIPBDH@Z 1002e180 f   cg_pmodels.obj
 0001:0002d1b0       ?trap_MemFree@@YAXPAXPBDH@Z 1002e1b0 f   cg_pmodels.obj
 0001:0002d1e0       ?CG_LoadPlayerModel@@YA_NPAUpmodelinfo_s@@PAD@Z 1002e1e0 f   cg_pmodels.obj
 0001:0002d380       ?trap_FS_IsPureFile@@YA_NPBD@Z 1002e380 f   cg_pmodels.obj
 0001:0002d3b0       ?trap_R_SkeletalGetNumBones@@YAHPBUmodel_s@@PAH@Z 1002e3b0 f   cg_pmodels.obj
 0001:0002d3e0       ?CG_ParseAnimationScript@@YA_NPAUpmodelinfo_s@@PAD@Z 1002e3e0 f   cg_pmodels.obj
 0001:0002df40       ?trap_FS_FOpenFile@@YAHPBDPAHH@Z 1002ef40 f   cg_pmodels.obj
 0001:0002df70       ?trap_FS_Read@@YAHPAXIH@Z  1002ef70 f   cg_pmodels.obj
 0001:0002dfa0       ?trap_FS_FCloseFile@@YAXH@Z 1002efa0 f   cg_pmodels.obj
 0001:0002dfd0       ?CG_FindBoneNum@@YAHPAUcgs_skeleton_s@@PAD@Z 1002efd0 f   cg_pmodels.obj
 0001:0002e040       ?CG_ParseRotationBone@@YAXPAUpmodelinfo_s@@PADH@Z 1002f040 f   cg_pmodels.obj
 0001:0002e100       ?CG_ParseTagMask@@YAXPAUmodel_s@@HPADMMMMMM@Z 1002f100 f   cg_pmodels.obj
 0001:0002e350       ?trap_R_RegisterSkinFile@@YAPAUskinfile_s@@PBD@Z 1002f350 f   cg_pmodels.obj
 0001:0002e410       ?trap_R_LerpTag@@YA_NPAUorientation_s@@PBUmodel_s@@HHMPBD@Z 1002f410 f   cg_pmodels.obj
 0001:0002ea00       ?CG_AddRaceGhostShell@@YAXPAUentity_s@@@Z 1002fa00 f   cg_pmodels.obj
 0001:0002f1a0       ?CG_OutlineScaleForDist@@YAMPAUentity_s@@MM@Z 100301a0 f   cg_pmodels.obj
 0001:00030a60       ?CG_PModel_AddFlag@@YAXPAUcentity_t@@@Z 10031a60 f   cg_pmodels.obj
 0001:00030be0       ?CG_AddHeadIcon@@YAXPAUcentity_t@@@Z 10031be0 f   cg_pmodels.obj
 0001:00030f90       ?trap_R_AddEntityToScene@@YAXPBUentity_s@@@Z 10031f90 f   cg_pmodels.obj
 0001:00031140       ?CG_FreePoly@@YAXPAUcpoly_s@@@Z 10032140 f   cg_polys.obj
 0001:00031220       ?CG_SpawnPolyBeam@@YAPAUcpoly_s@@QAM00HIIPAUshader_s@@HH@Z 10032220 f   cg_polys.obj
 0001:00031ab0       ?CG_SpawnPolygon@@YAPAUcpoly_s@@MMMMIIPAUshader_s@@H@Z 10032ab0 f   cg_polys.obj
 0001:00031d40       ?CG_AllocPoly@@YAPAUcpoly_s@@XZ 10032d40 f   cg_polys.obj
 0001:000329b0       ?trap_R_AddPolyToScene@@YAXPBUpoly_s@@@Z 100339b0 f   cg_polys.obj
 0001:000329e0       ?CG_OrientPolygon@@YAXQAM0PAUpoly_s@@@Z 100339e0 f   cg_polys.obj
 0001:00033010       ?CG_ClipEntityContact@@YA_NQAM00H@Z 10034010 f   cg_predict.obj
 0001:00033260       ?trap_CM_TransformedBoxTrace@@YAXPAUtrace_t@@QAM111PAUcmodel_s@@H11@Z 10034260 f   cg_predict.obj
 0001:00033360       ?CG_ClipMoveToEntities@@YAXQAM000HHPAUtrace_t@@@Z 10034360 f   cg_predict.obj
 0001:00033660       ?trap_CM_InlineModel@@YAPAUcmodel_s@@H@Z 10034660 f   cg_predict.obj
 0001:00033690       ?trap_CM_ModelForBBox@@YAPAUcmodel_s@@QAM0@Z 10034690 f   cg_predict.obj
 0001:000336c0       ?trap_CM_OctagonModelForBBox@@YAPAUcmodel_s@@QAM0@Z 100346c0 f   cg_predict.obj
 0001:000337a0       ?trap_CM_TransformedPointContents@@YAHQAMPAUcmodel_s@@00@Z 100347a0 f   cg_predict.obj
 0001:00033b60       ?trap_NET_GetUserCmd@@YAXHPAUusercmd_s@@@Z 10034b60 f   cg_predict.obj
 0001:00033b90       ?trap_NET_GetCurrentState@@YAXPAH00@Z 10034b90 f   cg_predict.obj
 0001:00033bc0       ?trap_RefreshMouseAngles@@YAXXZ 10034bc0 f   cg_predict.obj
 0001:00033be0       ?CG_PredictSmoothSteps@@YAXXZ 10034be0 f   cg_predict.obj
 0001:00033d40       ?CG_PredictAddStep@@YAXHHM@Z 10034d40 f   cg_predict.obj
 0001:00034360       ?trap_Cvar_Set@@YAPAUcvar_s@@PBD0@Z 10035360 f   cg_scoreboard.obj
 0001:00034390       ?trap_Cvar_String@@YAPBDPBD@Z 10035390 f   cg_scoreboard.obj
 0001:000343c0       ?trap_SCR_RegisterFont@@YAPAUqfontface_s@@PBDW4qfontstyle_t@@I@Z 100353c0 f   cg_scoreboard.obj
 0001:000343f0       ?trap_SCR_DrawString@@YAXHHHPBDPAUqfontface_s@@QAM@Z 100353f0 f   cg_scoreboard.obj
 0001:00034430       ?trap_SCR_DrawStringWidth@@YAIHHHPBDIPAUqfontface_s@@QAM@Z 10035430 f   cg_scoreboard.obj
 0001:00034470       ?trap_SCR_strHeight@@YAIPAUqfontface_s@@@Z 10035470 f   cg_scoreboard.obj
 0001:000344a0       ?SCB_DrawPlayerStats@@YAHHH@Z 100354a0 f   cg_scoreboard.obj
 0001:00034b10       ?trap_R_DrawStretchPic@@YAXHHHHMMMMQBMPAUshader_s@@@Z 10035b10 f   cg_scoreboard.obj
 0001:00034b70       ?SCR_DrawChallengers@@YAHPAPBDHHHPAUqfontface_s@@@Z 10035b70 f   cg_scoreboard.obj
 0001:00034e10       ?SCR_DrawSpectators@@YAHPAPBDHHHPAUqfontface_s@@@Z 10035e10 f   cg_scoreboard.obj
 0001:00035240       ?trap_SCR_DrawClampString@@YAXHHPBDHHHHPAUqfontface_s@@QAM@Z 10036240 f   cg_scoreboard.obj
 0001:00035290       ?trap_SCR_strWidth@@YAIPBDPAUqfontface_s@@H@Z 10036290 f   cg_scoreboard.obj
 0001:000352c0       ?SCR_GetNextColumnLayout@@YAPADPAPBD0PADPAH@Z 100362c0 f   cg_scoreboard.obj
 0001:00035420       ?SCR_DrawTeamTab@@YAHPAPBDPAHHHHPAUqfontface_s@@@Z 10036420 f   cg_scoreboard.obj
 0001:000358d0       ?CG_DrawAlignPic@@YAXHHHHHQBMPAUshader_s@@@Z 100368d0 f   cg_scoreboard.obj
 0001:00035950       ?CG_PingColor@@YAXHQAM@Z   10036950 f   cg_scoreboard.obj
 0001:00035a30       ?SCR_DrawPlayerTab@@YAHPAPBDHHHHPAUqfontface_s@@@Z 10036a30 f   cg_scoreboard.obj
 0001:000362d0       ?SCB_ParsePlayerStats@@YAXPAPBD@Z 100372d0 f   cg_scoreboard.obj
 0001:00036590       ?trap_Cmd_ExecuteText@@YAXHPBD@Z 10037590 f   cg_scoreboard.obj
 0001:000368e0       ?trap_Cvar_Set@@YAPAUcvar_s@@PBD0@Z 100378e0 f   cg_screen.obj
 0001:00036d00       ?trap_Cvar_Get@@YAPAUcvar_s@@PBD0H@Z 10037d00 f   cg_screen.obj
 0001:00036d30       ?trap_Cmd_AddCommand@@YAXPBDP6AXXZ@Z 10037d30 f   cg_screen.obj
 0001:00036d60       ?CG_SizeUp_f@@YAXXZ        10037d60 f   cg_screen.obj
 0001:00036da0       ?trap_Cvar_SetValue@@YAXPBDM@Z 10037da0 f   cg_screen.obj
 0001:00036dd0       ?CG_SizeDown_f@@YAXXZ      10037dd0 f   cg_screen.obj
 0001:00036e50       ?trap_Cmd_RemoveCommand@@YAXPBD@Z 10037e50 f   cg_screen.obj
 0001:00037050       ?trap_NET_GetCurrentState@@YAXPAH00@Z 10038050 f   cg_screen.obj
 0001:00037080       ?trap_R_DrawStretchPic@@YAXHHHHMMMMQBMPAUshader_s@@@Z 10038080 f   cg_screen.obj
 0001:00037770       ?trap_NET_GetUserCmd@@YAXHPAUusercmd_s@@@Z 10038770 f   cg_screen.obj
 0001:000377a0       ?trap_NET_GetCurrentUserCmdNum@@YAHXZ 100387a0 f   cg_screen.obj
 0001:00037970       ?trap_SCR_DrawString@@YAXHHHPBDPAUqfontface_s@@QAM@Z 10038970 f   cg_screen.obj
 0001:00038380       ?trap_R_TransformVectorToScreen@@YAXPBUrefdef_s@@QBMQAM@Z 10039380 f   cg_screen.obj
 0001:000383b0       ?trap_SCR_strHeight@@YAIPAUqfontface_s@@@Z 100393b0 f   cg_screen.obj
 0001:000383e0       ?trap_SCR_strWidth@@YAIPBDPAUqfontface_s@@H@Z 100393e0 f   cg_screen.obj
 0001:00038ef0       ?trap_R_SpeedsMessage@@YAPBDPADI@Z 10039ef0 f   cg_screen.obj
 0001:00038f90       ?trap_Cmd_ExecuteText@@YAXHPBD@Z 10039f90 f   cg_screen.obj
 0001:00038fc0       ?CG_InGameMenu@@YAXXZ      10039fc0 f   cg_screen.obj
 0001:00039290       ?trap_R_RegisterPic@@YAPAUshader_s@@PBD@Z 1003a290 f   cg_screen.obj
 0001:000392f0       ?trap_R_UpdateScreen@@YAXXZ 1003a2f0 f   cg_screen.obj
 0001:00039470       ?CG_TileClearRect@@YAXHHHHPAUshader_s@@@Z 1003a470 f   cg_screen.obj
 0001:00039770       ?trap_MemFree@@YAXPAXPBDH@Z 1003a770 f   cg_screen.obj
 0001:000397a0       ?CG_CheckDrawCenterString@@YAXXZ 1003a7a0 f   cg_screen.obj
 0001:000397e0       ?CG_DrawCenterString@@YAXXZ 1003a7e0 f   cg_screen.obj
 0001:000398e0       ?trap_SCR_DrawStringWidth@@YAIHHHPBDIPAUqfontface_s@@QAM@Z 1003a8e0 f   cg_screen.obj
 0001:00039920       ?CG_CheckDamageCrosshair@@YAXXZ 1003a920 f   cg_screen.obj
 0001:00039980       ?CG_SCRDrawViewBlend@@YAXXZ 1003a980 f   cg_screen.obj
 0001:00039a50       ?CG_CalcColorBlend@@YAXPAM@Z 1003aa50 f   cg_screen.obj
 0001:00039c90       ?CG_AddBlend@@YAXMMMMPAM@Z 1003ac90 f   cg_screen.obj
 0001:00039f30       ?trap_R_SetCustomColor@@YAXHHHH@Z 1003af30 f   cg_teams.obj
 0001:0003a030       ?CG_ForceTeam@@YAHHH@Z     1003b030 f   cg_teams.obj
 0001:0003a0e0       ?CG_CheckUpdateTeamModelRegistration@@YAXH@Z 1003b0e0 f   cg_teams.obj
 0001:0003a1d0       ?CG_RegisterForceModel@@YAXPAUcvar_s@@0PAPAUpmodelinfo_s@@PAPAUskinfile_s@@@Z 1003b1d0 f   cg_teams.obj
 0001:0003a320       ?trap_FS_IsPureFile@@YA_NPBD@Z 1003b320 f   cg_teams.obj
 0001:0003a350       ?trap_R_RegisterSkinFile@@YAPAUskinfile_s@@PBD@Z 1003b350 f   cg_teams.obj
 0001:0003a530       ?trap_Cvar_ForceSet@@YAPAUcvar_s@@PBDPAD@Z 1003b530 f   cg_teams.obj
 0001:0003b5d0       ?trap_Cvar_Get@@YAPAUcvar_s@@PBD0H@Z 1003c5d0 f   cg_test.obj
 0001:0003b600       ?CG_TestEntities@@YAXXZ    1003c600 f   cg_test.obj
 0001:0003b7b0       ?trap_R_ClearScene@@YAXXZ  1003c7b0 f   cg_test.obj
 0001:0003b7d0       ?CG_TestLights@@YAXXZ      1003c7d0 f   cg_test.obj
 0001:0003baf0       ?trap_Cmd_ExecuteText@@YAXHPBD@Z 1003caf0 f   cg_view.obj
 0001:0003c410       ?trap_R_AddEntityToScene@@YAXPBUentity_s@@@Z 1003d410 f   cg_view.obj
 0001:0003c440       ?trap_R_SkeletalGetNumBones@@YAHPBUmodel_s@@PAH@Z 1003d440 f   cg_view.obj
 0001:0003cc00       ?CG_CalcViewBob@@YAXXZ     1003dc00 f   cg_view.obj
 0001:0003ce40       ?CG_InterpolatePlayerState@@YAXPAUplayer_state_t@@@Z 1003de40 f   cg_view.obj
 0001:0003d030       ?CG_ThirdPersonOffsetView@@YAXPAUcg_viewdef_t@@@Z 1003e030 f   cg_view.obj
 0001:0003d4c0       ?trap_Cvar_Get@@YAPAUcvar_s@@PBD0H@Z 1003e4c0 f   cg_view.obj
 0001:0003dc60       ?trap_R_ClearScene@@YAXXZ  1003ec60 f   cg_view.obj
 0001:0003dc80       ?trap_R_RenderScene@@YAXPBUrefdef_s@@@Z 1003ec80 f   cg_view.obj
 0001:0003dcb0       ?trap_R_DrawStretchPic@@YAXHHHHMMMMQBMPAUshader_s@@@Z 1003ecb0 f   cg_view.obj
 0001:0003dd10       ?trap_S_Update@@YAXQBM00PBD@Z 1003ed10 f   cg_view.obj
 0001:0003dd40       ?CG_AddLocalSounds@@YAXXZ  1003ed40 f   cg_view.obj
 0001:0003df70       ?trap_S_RegisterSound@@YAPAUsfx_s@@PBD@Z 1003ef70 f   cg_view.obj
 0001:0003dfa0       ?trap_S_StartBackgroundTrack@@YAXPBD0@Z 1003efa0 f   cg_view.obj
 0001:0003dfd0       ?trap_S_StopBackgroundTrack@@YAXXZ 1003efd0 f   cg_view.obj
 0001:0003dff0       ?CG_FlashGameWindow@@YAXXZ 1003eff0 f   cg_view.obj
 0001:0003e100       ?trap_VID_FlashWindow@@YAXH@Z 1003f100 f   cg_view.obj
 0001:0003e130       ?CG_RenderFlags@@YAHXZ     1003f130 f   cg_view.obj
 0001:0003e270       ?CG_ChaseCamButtons@@YAXXZ 1003f270 f   cg_view.obj
 0001:0003e4e0       ?trap_NET_GetUserCmd@@YAXHPAUusercmd_s@@@Z 1003f4e0 f   cg_view.obj
 0001:0003e510       ?trap_NET_GetCurrentUserCmdNum@@YAHXZ 1003f510 f   cg_view.obj
 0001:0003ea20       ?CG_ViewWeapon_baseanimFromWeaponState@@YAHH@Z 1003fa20 f   cg_vweap.obj
 0001:0003f040       ?CG_ViewWeapon_UpdateProjectionSource@@YAXQAM000@Z 10040040 f   cg_vweap.obj
 0001:0003f250       ?CG_ViewWeapon_AddAngleEffects@@YAXQAM@Z 10040250 f   cg_vweap.obj
 0001:0003f9b0       ?CG_WeaponModelUpdateRegistration@@YA_NPAUweaponinfo_s@@PAD@Z 100409b0 f   cg_wmodels.obj
 0001:0003fbb0       ?CG_vWeap_ParseAnimationScript@@YA_NPAUweaponinfo_s@@PAD@Z 10040bb0 f   cg_wmodels.obj
 0001:00040610       ?trap_FS_FOpenFile@@YAHPBDPAHH@Z 10041610 f   cg_wmodels.obj
 0001:00040640       ?trap_FS_Read@@YAHPAXIH@Z  10041640 f   cg_wmodels.obj
 0001:00040670       ?trap_FS_FCloseFile@@YAXH@Z 10041670 f   cg_wmodels.obj
 0001:000406a0       ?trap_S_RegisterSound@@YAPAUsfx_s@@PBD@Z 100416a0 f   cg_wmodels.obj
 0001:000406d0       ?trap_MemAlloc@@YAPAXIPBDH@Z 100416d0 f   cg_wmodels.obj
 0001:00040700       ?trap_MemFree@@YAXPAXPBDH@Z 10041700 f   cg_wmodels.obj
 0001:00040730       ?CG_CreateHandDefaultAnimations@@YAXPAUweaponinfo_s@@@Z 10041730 f   cg_wmodels.obj
 0001:000408f0       ?CG_BuildProjectionOrigin@@YAXPAUweaponinfo_s@@@Z 100418f0 f   cg_wmodels.obj
 0001:00040b30       ?CG_FindWeaponModelSpot@@YAPAUweaponinfo_s@@PAD@Z 10041b30 f   cg_wmodels.obj
 0001:00041a50       ?GS_Cmd_UseWeaponStep_f@@YAPAUgitem_s@@PAUplayer_state_t@@HH@Z 10042a50 f   gs_items.obj
 0001:00042a00       ?GS_SetBaseAnims@@YAXPAUpm_anim_t@@H@Z 10043a00 f   gs_players.obj
 0001:00042a80       ?GS_SetBaseAnimUpper@@YAXPAUpm_anim_t@@H@Z 10043a80 f   gs_players.obj
 0001:00042b30       ?GS_SetBaseAnimLower@@YAXPAUpm_anim_t@@@Z 10043b30 f   gs_players.obj
 0001:00043f20       ?PM_StepSlideMove@@YAXXZ   10044f20 f   gs_pmove.obj
 0001:00044330       ?PM_SlideMove@@YAHXZ       10045330 f   gs_pmove.obj
 0001:00044bb0       ?PM_AddTouchEnt@@YAXH@Z    10045bb0 f   gs_pmove.obj
 0001:00044c40       ?PM_Friction@@YAXXZ        10045c40 f   gs_pmove.obj
 0001:00044e10       ?PM_WaterMove@@YAXXZ       10045e10 f   gs_pmove.obj
 0001:00044fc0       ?PM_Accelerate@@YAXQAMMM@Z 10045fc0 f   gs_pmove.obj
 0001:00045080       ?PM_AddCurrents@@YAXQAM@Z  10046080 f   gs_pmove.obj
 0001:000452a0       ?PM_Move@@YAXXZ            100462a0 f   gs_pmove.obj
 0001:000459f0       ?PM_AirAccelerate@@YAXQAMM@Z 100469f0 f   gs_pmove.obj
 0001:00045d10       ?PM_Aircontrol@@YAXPAUpmove_t@@QAMM@Z 10046d10 f   gs_pmove.obj
 0001:00045ea0       ?PM_CategorizePosition@@YAXXZ 10046ea0 f   gs_pmove.obj
 0001:00046250       ?PM_ClearDash@@YAXXZ       10047250 f   gs_pmove.obj
 0001:00046280       ?PM_ClearWallJump@@YAXXZ   10047280 f   gs_pmove.obj
 0001:000462d0       ?PM_ClearStun@@YAXXZ       100472d0 f   gs_pmove.obj
 0001:000462f0       ?PM_CheckJump@@YAXXZ       100472f0 f   gs_pmove.obj
 0001:000464f0       ?PM_CheckDash@@YAXXZ       100474f0 f   gs_pmove.obj
 0001:00046940       ?VectorNormalize2D@@YAMQAM@Z 10047940 f   gs_pmove.obj
 0001:000469d0       ?PM_CheckWallJump@@YAXXZ   100479d0 f   gs_pmove.obj
 0001:00047280       ?PlayerTouchWall@@YAXHMPAY02M@Z 10048280 f   gs_pmove.obj
 0001:00047590       ?PM_CheckSpecialMovement@@YAXXZ 10048590 f   gs_pmove.obj
 0001:000477f0       ?PM_FlyMove@@YAXW4qboolean@@@Z 100487f0 f   gs_pmove.obj
 0001:00047c80       ?PM_CheckZoom@@YAXXZ       10048c80 f   gs_pmove.obj
 0001:00047e60       ?PM_AdjustBBox@@YAXXZ      10048e60 f   gs_pmove.obj
 0001:00048710       ?PM_SnapPosition@@YAXXZ    10049710 f   gs_pmove.obj
 0001:000489e0       ?PM_GoodPosition@@YA?AW4qboolean@@QAH@Z 100499e0 f   gs_pmove.obj
 0001:00048b20       ?PM_InitialSnapPosition@@YAXXZ 10049b20 f   gs_pmove.obj
 0001:00048d40       ?PM_UpdateDeltaAngles@@YAXXZ 10049d40 f   gs_pmove.obj
 0001:00048dd0       ?PM_ApplyMouseAnglesClamp@@YAXXZ 10049dd0 f   gs_pmove.obj
 0001:000490e0       ?GS_GoodPosition@@YA?AW4qboolean@@QAHQAM1HH@Z 1004a0e0 f   gs_slidebox.obj
 0001:00049890       ?GS_ClearClippingPlanes@@YAXPAUmove_t@@@Z 1004a890 f   gs_slidebox.obj
 0001:000498a0       ?GS_ClipVelocityToClippingPlanes@@YAXPAUmove_t@@@Z 1004a8a0 f   gs_slidebox.obj
 0001:00049950       ?GS_SlideMoveClipMove@@YAHPAUmove_t@@@Z 1004a950 f   gs_slidebox.obj
 0001:00049c00       ?GS_AddTouchEnt@@YAXPAUmove_t@@H@Z 1004ac00 f   gs_slidebox.obj
 0001:00049c90       ?GS_AddClippingPlane@@YAXPAUmove_t@@QBM@Z 1004ac90 f   gs_slidebox.obj
 0001:0004b1f0       ?GS_CheckBladeAutoAttack@@YA?AW4qboolean@@PAUplayer_state_t@@H@Z 1004c1f0 f   gs_weapons.obj
 0001:0004f580       ?DualQuat_SetVector@@YAXQAMQBM@Z 10050580 f   q_math.obj
 0001:000521c0       ?Info_ValidateKey@@YA?AW4qboolean@@PBD@Z 100531c0 f   q_shared.obj
 0001:00052260       ?Info_FindKey@@YAPADPBD0@Z 10053260 f   q_shared.obj
 0001:00052690       ?Info_ValidateValue@@YA?AW4qboolean@@PBD@Z 10053690 f   q_shared.obj
 0001:00054090       _swprintf                  10055090 f   LIBCMTD:wassert.obj
 0001:00055690       _cmpBYTE                   10056690 f   LIBCMTD:memcmp.obj
 0001:000556c0       _cmpResult                 100566c0 f   LIBCMTD:memcmp.obj
 0001:000556e0       _unaligned_memcmp          100566e0 f   LIBCMTD:memcmp.obj
 0001:00055df0       _cmpWORD                   10056df0 f   LIBCMTD:memcmp.obj
 0001:00055e70       _cmpDWORD                  10056e70 f   LIBCMTD:memcmp.obj
 0001:00056530       _shortsort                 10057530 f   LIBCMTD:qsort.obj
 0001:000565a0       _swap                      100575a0 f   LIBCMTD:qsort.obj
 0001:00056b80       _vscan_fn                  10057b80 f   LIBCMTD:sscanf.obj
 0001:00058cf0       ___DllMainCRTStartup       10059cf0 f   LIBCMTD:dllcrt0.obj
 0001:00058f10       ?failwithmessage@@YAXPAXHHPBD@Z 10059f10 f   LIBCMTD:_error_.obj
 0001:00059130       ?DebuggerProbe@@YAHK@Z     1005a130 f   LIBCMTD:_error_.obj
 0001:000591c0       ?DebuggerRuntime@@YAHKHPAXPB_W@Z 1005a1c0 f   LIBCMTD:_error_.obj
 0001:000594a0       ?_getMemBlockDataString@@YAXPAD00I@Z 1005a4a0 f   LIBCMTD:_error_.obj
 0001:00059e20       __cftoe2_l                 1005ae20 f   LIBCMTD:cvt.obj
 0001:0005aba0       __cftof2_l                 1005bba0 f   LIBCMTD:cvt.obj
 0001:0005b180       __shift                    1005c180 f   LIBCMTD:cvt.obj
 0001:0005b490       _doexit                    1005c490 f   LIBCMTD:crt0dat.obj
 0001:0005b780       __initterm                 1005c780 f   LIBCMTD:crt0dat.obj
 0001:0005bdb0       _ctrlevent_capture@4       1005cdb0 f   LIBCMTD:winsig.obj
 0001:0005c1b0       _siglookup                 1005d1b0 f   LIBCMTD:winsig.obj
 0001:0005c4d0       _xtow_s@20                 1005d4d0 f   LIBCMTD:xtows.obj
 0001:0005c900       @x64tow_s@24               1005d900 f   LIBCMTD:xtows.obj
 0001:0005de60       _flsall                    1005ee60 f   LIBCMTD:fflush.obj
 0001:000604c0       ?getSystemCP@@YAHH@Z       100614c0 f   LIBCMTD:mbctype.obj
 0001:00060920       ?CPtoLCID@@YAHH@Z          10061920 f   LIBCMTD:mbctype.obj
 0001:000609a0       ?setSBCS@@YAXPAUthreadmbcinfostruct@@@Z 100619a0 f   LIBCMTD:mbctype.obj
 0001:00060a80       ?setSBUpLow@@YAXPAUthreadmbcinfostruct@@@Z 10061a80 f   LIBCMTD:mbctype.obj
 0001:000621e0       __copytlocinfo_nolock      100631e0 f   LIBCMTD:setlocal.obj
 0001:000625e0       _sync_legacy_variables_lk  100635e0 f   LIBCMTD:setlocal.obj
 0001:00062620       __setlocale_nolock         10063620 f   LIBCMTD:setlocal.obj
 0001:00062a10       __setlocale_set_cat        10063a10 f   LIBCMTD:setlocal.obj
 0001:00062f40       __setlocale_get_all        10063f40 f   LIBCMTD:setlocal.obj
 0001:00063920       ?strtoxl@@YAKPAUlocaleinfo_struct@@PBDPAPBDHH@Z 10064920 f   LIBCMTD:strtol.obj
 0001:00063f00       ?strtoxq@@YA_KPAUlocaleinfo_struct@@PBDPAPBDHH@Z 10064f00 f   LIBCMTD:strtoq.obj
 0001:000645f0       __tzset_nolock             100655f0 f   LIBCMTD:tzset.obj
 0001:00064c00       __isindst_nolock           10065c00 f   LIBCMTD:tzset.obj
 0001:00064f60       _cvtdate                   10065f60 f   LIBCMTD:tzset.obj
 0001:00069450       __get_fname                1006a450 f   LIBCMTD:_fpexcept_.obj
 0001:0006b790       ___check_float_string      1006c790 f   LIBCMTD:input.obj
 0001:0006b8b0       __hextodec                 1006c8b0 f   LIBCMTD:input.obj
 0001:0006b8f0       __inc                      1006c8f0 f   LIBCMTD:input.obj
 0001:0006b950       __un_inc                   1006c950 f   LIBCMTD:input.obj
 0001:0006b970       __whiteout                 1006c970 f   LIBCMTD:input.obj
 0001:0006d4f0       ___check_float_string      1006e4f0 f   LIBCMTD:inputs.obj
 0001:0006d5f0       __hextodec                 1006e5f0 f   LIBCMTD:inputs.obj
 0001:0006d630       __inc                      1006e630 f   LIBCMTD:inputs.obj
 0001:0006d690       __un_inc                   1006e690 f   LIBCMTD:inputs.obj
 0001:0006d6b0       __whiteout                 1006e6b0 f   LIBCMTD:inputs.obj
 0001:0006d760       ?__crtLCMapStringA_stat@@YAHPAUlocaleinfo_struct@@KKPBDHPADHHH@Z 1006e760 f   LIBCMTD:a_map.obj
 0001:0006da90       ?strncnt@@YAHPBDH@Z        1006ea90 f   LIBCMTD:a_map.obj
 0001:000708c0       _write_char                100718c0 f   LIBCMTD:output.obj
 0001:00070970       _write_multi_char          10071970 f   LIBCMTD:output.obj
 0001:000709b0       _write_string              100719b0 f   LIBCMTD:output.obj
 0001:00071910       __nh_malloc_dbg_impl       10072910 f   LIBCMTD:dbgheap.obj
 0001:000719b0       __heap_alloc_dbg_impl      100729b0 f   LIBCMTD:dbgheap.obj
 0001:00071f80       _realloc_help              10072f80 f   LIBCMTD:dbgheap.obj
 0001:00073040       _CheckBytes                10074040 f   LIBCMTD:dbgheap.obj
 0001:00073e00       ?_CrtMemDumpAllObjectsSince_stat@@YAXPBU_CrtMemState@@PAUlocaleinfo_struct@@@Z 10074e00 f   LIBCMTD:dbgheap.obj
 0001:00074110       __printMemBlockData        10075110 f   LIBCMTD:dbgheap.obj
 0001:00075510       _parse_cmdline             10076510 f   LIBCMTD:stdargv.obj
 0001:00075c30       _ValidateLocalCookies      10076c30 f   LIBCMTD:chandler4.obj
 0001:00075fa0       _xcptlookup                10076fa0 f   LIBCMTD:winxfltr.obj
 0001:000762d0       ?GetPdbDll@@YAPAUHINSTANCE__@@XZ 100772d0 f   LIBCMTD:_pdblkup_.obj
 0001:000763c0       ?GetPdbDllFromInstallPath@@YAPAUHINSTANCE__@@XZ 100773c0 f   LIBCMTD:_pdblkup_.obj
 0001:00076580       ?GetPdbDllPathFromFilePath@@YAHPB_WPA_WI@Z 10077580 f   LIBCMTD:_pdblkup_.obj
 0001:00077bb0       __onexit_nolock            10078bb0 f   LIBCMTD:onexit.obj
 0001:0007b120       _write_char                1007c120 f   LIBCMTD:woutput.obj
 0001:0007b180       _write_multi_char          1007c180 f   LIBCMTD:woutput.obj
 0001:0007b1c0       _write_string              1007c1c0 f   LIBCMTD:woutput.obj
 0001:0007c8d0       _write_char                1007d8d0 f   LIBCMTD:woutputs.obj
 0001:0007c930       _write_multi_char          1007d930 f   LIBCMTD:woutputs.obj
 0001:0007c970       _write_string              1007d970 f   LIBCMTD:woutputs.obj
 0001:000802d0       _write_char                100812d0 f   LIBCMTD:woutputp.obj
 0001:00080330       _write_multi_char          10081330 f   LIBCMTD:woutputp.obj
 0001:00080370       _write_string              10081370 f   LIBCMTD:woutputp.obj
 0001:00081fb0       ?CatchGuardHandler@@YA?AW4_EXCEPTION_DISPOSITION@@PAUEHExceptionRecord@@PAUCatchGuardRN@@PAX2@Z 10082fb0 f   LIBCMTD:_trnsctrl_.obj
 0001:000820f0       ?TranslatorGuardHandler@@YA?AW4_EXCEPTION_DISPOSITION@@PAUEHExceptionRecord@@PAUTranslatorGuardRN@@PAX2@Z 100830f0 f   LIBCMTD:_trnsctrl_.obj
 0001:00082340       ?__crtGetStringTypeA_stat@@YAHPAUlocaleinfo_struct@@KPBDHPAGHHH@Z 10083340 f   LIBCMTD:a_str.obj
 0001:00082540       __get_lc_time              10083540 f   LIBCMTD:inittime.obj
 0001:00083b20       _fix_grouping              10084b20 f   LIBCMTD:initnum.obj
 0001:000841c0       _fix_grouping              100851c0 f   LIBCMTD:initmon.obj
 0001:000856e0       _TranslateName             100866e0 f   LIBCMTD:getqloc.obj
 0001:00085770       _GetLcidFromLangCountry    10086770 f   LIBCMTD:getqloc.obj
 0001:00085830       _LangCountryEnumProc@4     10086830 f   LIBCMTD:getqloc.obj
 0001:00085c70       _GetLcidFromLanguage       10086c70 f   LIBCMTD:getqloc.obj
 0001:00085cf0       _LanguageEnumProc@4        10086cf0 f   LIBCMTD:getqloc.obj
 0001:00085e90       _GetLcidFromCountry        10086e90 f   LIBCMTD:getqloc.obj
 0001:00085ee0       _CountryEnumProc@4         10086ee0 f   LIBCMTD:getqloc.obj
 0001:00085fe0       _GetLcidFromDefault        10086fe0 f   LIBCMTD:getqloc.obj
 0001:00086020       _ProcessCodePage           10087020 f   LIBCMTD:getqloc.obj
 0001:000860d0       _TestDefaultCountry        100870d0 f   LIBCMTD:getqloc.obj
 0001:00086120       _TestDefaultLanguage       10087120 f   LIBCMTD:getqloc.obj
 0001:000861a0       _LcidFromHexString         100871a0 f   LIBCMTD:getqloc.obj
 0001:00086220       _GetPrimaryLen             10087220 f   LIBCMTD:getqloc.obj
 0001:000865d0       __getenv_s_helper          100875d0 f   LIBCMTD:getenv.obj
 0001:00086840       __dupenv_s_helper          10087840 f   LIBCMTD:getenv.obj
 0001:00089170       __is_LFH_enabled           1008a170 f   LIBCMTD:expand.obj
 0001:000899f0       ?x_ismbbtype_l@@YAHPAUlocaleinfo_struct@@IHH@Z 1008a9f0 f   LIBCMTD:ismbbyte.obj
 0001:00089b50       __unwind_handler4          1008ab50 f   LIBCMTD:exsup4.obj
 0001:0008ab70       __abstract_cw              1008bb70 f   LIBCMTD:_ieee87_.obj
 0001:0008acc0       __hw_cw                    1008bcc0 f   LIBCMTD:_ieee87_.obj
 0001:0008ae20       __abstract_sw              1008be20 f   LIBCMTD:_ieee87_.obj
 0001:0008aeb0       ___statusfp_sse2           1008beb0 f   LIBCMTD:_ieee87_.obj
 0001:0008aed0       ___clearfp_sse2            1008bed0 f   LIBCMTD:_ieee87_.obj
 0001:0008af00       ___control87_sse2          1008bf00 f   LIBCMTD:_ieee87_.obj
 0001:0008af80       ___abstract_cw_sse2        1008bf80 f   LIBCMTD:_ieee87_.obj
 0001:0008b0d0       ___hw_cw_sse2              1008c0d0 f   LIBCMTD:_ieee87_.obj
 0001:0008b220       ___abstract_sw_sse2        1008c220 f   LIBCMTD:_ieee87_.obj
 0001:0008b2b0       ___fpreset_sse2            1008c2b0 f   LIBCMTD:_ieee87_.obj
 0001:0008b8d0       ?__crtGetLocaleInfoA_stat@@YAHPAUlocaleinfo_struct@@KKPADH@Z 1008c8d0 f   LIBCMTD:a_loc.obj
 0001:0008de50       _write_char                1008ee50 f   LIBCMTD:outputs.obj
 0001:0008df00       _write_multi_char          1008ef00 f   LIBCMTD:outputs.obj
 0001:0008df40       _write_string              1008ef40 f   LIBCMTD:outputs.obj
 0001:00091cd0       _write_char                10092cd0 f   LIBCMTD:outputp.obj
 0001:00091d80       _write_multi_char          10092d80 f   LIBCMTD:outputp.obj
 0001:00091dc0       _write_string              10092dc0 f   LIBCMTD:outputp.obj
 0001:00091eb0       ?wcstoxl@@YAKPB_WPAPB_WHH@Z 10092eb0 f   LIBCMTD:wcstol.obj
 0001:00093430       _xtoa_s@20                 10094430 f   LIBCMTD:xtoas.obj
 0001:00093850       @x64toa_s@24               10094850 f   LIBCMTD:xtoas.obj
 0001:00094100       ?wcsncnt@@YAIPB_WI@Z       10095100 f   LIBCMTD:wcstombs.obj
 0001:000949f0       ?FindHandler@@YAXPAUEHExceptionRecord@@PAUEHRegistrationNode@@PAU_CONTEXT@@PAXPBU_s_FuncInfo@@EH1@Z 100959f0 f   LIBCMTD:frame.obj
 0001:00094f40       ?FindHandlerForForeignException@@YAXPAUEHExceptionRecord@@PAUEHRegistrationNode@@PAU_CONTEXT@@PAXPBU_s_FuncInfo@@HH1@Z 10095f40 f   LIBCMTD:frame.obj
 0001:00095380       ?CatchIt@@YAXPAUEHExceptionRecord@@PAUEHRegistrationNode@@PAU_CONTEXT@@PAXPBU_s_FuncInfo@@PBU_s_HandlerType@@PBU_s_CatchableType@@PBU_s_TryBlockMapEntry@@H1E@Z 10096380 f   LIBCMTD:frame.obj
 0001:00095440       ?CallCatchBlock@@YAPAXPAUEHExceptionRecord@@PAUEHRegistrationNode@@PAU_CONTEXT@@PBU_s_FuncInfo@@PAXHK@Z 10096440 f   LIBCMTD:frame.obj
 0001:000956d0       ?ExFilterRethrow@@YAHPAU_EXCEPTION_POINTERS@@@Z 100966d0 f   LIBCMTD:frame.obj
 0001:00096340       ?IsInExceptionSpec@@YAEPAUEHExceptionRecord@@PBU_s_ESTypeList@@@Z 10097340 f   LIBCMTD:frame.obj
 0001:00096400       ?CallUnexpected@@YAXPBU_s_ESTypeList@@@Z 10097400 f   LIBCMTD:frame.obj
 0001:0009644e       __catch$?CallUnexpected@@YAXPBU_s_ESTypeList@@@Z$0 1009744e f   LIBCMTD:frame.obj
 0001:00096490       ?Is_bad_exception_allowed@@YAEPBU_s_ESTypeList@@@Z 10097490 f   LIBCMTD:frame.obj
 0001:00098730       __unwind_handler           10099730 f   LIBCMTD:exsup.obj
 0001:00099a70       ?__crtCompareStringA_stat@@YAHPAUlocaleinfo_struct@@KKPBDH1HH@Z 1009aa70 f   LIBCMTD:a_cmp.obj
 0001:00099e00       ?strncnt@@YAHPBDH@Z        1009ae00 f   LIBCMTD:a_cmp.obj
 0001:0009a5c0       _findenv                   1009b5c0 f   LIBCMTD:setenv.obj
 0001:0009a640       _copy_environ              1009b640 f   LIBCMTD:setenv.obj
 0001:000a46e0       ?und_strlen@@YAIPBD@Z      100a56e0 f   LIBCMTD:undname.obj
 0001:000a4720       ?und_memcpy@@YAXPADPBDI@Z  100a5720 f   LIBCMTD:undname.obj
 0001:000a4760       ?und_strncmp@@YAIPBD0I@Z   100a5760 f   LIBCMTD:undname.obj
 0001:000a4a60       __unwindfunclet$?getSystemCP@@YAHH@Z$0 100a5a60 f   LIBCMTD:mbctype.obj
 0001:000a4a68       __ehhandler$?getSystemCP@@YAHH@Z 100a5a68 f   LIBCMTD:mbctype.obj
 0001:000a4a90       __unwindfunclet$?strtoxl@@YAKPAUlocaleinfo_struct@@PBDPAPBDHH@Z$0 100a5a90 f   LIBCMTD:strtol.obj
 0001:000a4a98       __ehhandler$?strtoxl@@YAKPAUlocaleinfo_struct@@PBDPAPBDHH@Z 100a5a98 f   LIBCMTD:strtol.obj
 0001:000a4ac0       __unwindfunclet$?strtoxq@@YA_KPAUlocaleinfo_struct@@PBDPAPBDHH@Z$0 100a5ac0 f   LIBCMTD:strtoq.obj
 0001:000a4ac8       __ehhandler$?strtoxq@@YA_KPAUlocaleinfo_struct@@PBDPAPBDHH@Z 100a5ac8 f   LIBCMTD:strtoq.obj
 0001:000a4af0       __unwindfunclet$?x_ismbbtype_l@@YAHPAUlocaleinfo_struct@@IHH@Z$0 100a5af0 f   LIBCMTD:ismbbyte.obj
 0001:000a4af8       __ehhandler$?x_ismbbtype_l@@YAHPAUlocaleinfo_struct@@IHH@Z 100a5af8 f   LIBCMTD:ismbbyte.obj
 0001:000a4b20       __ehhandler$?CallUnexpected@@YAXPBU_s_ESTypeList@@@Z 100a5b20 f   LIBCMTD:frame.obj
 0001:000a4b40       __unwindfunclet$?make@DNameStatusNode@@SAPAV1@W4DNameStatus@@@Z$0 100a5b40 f   LIBCMTD:undname.obj
 0001:000a4b4e       __ehhandler$?make@DNameStatusNode@@SAPAV1@W4DNameStatus@@@Z 100a5b4e f   LIBCMTD:undname.obj
